
2a287631-de1b-4fdd-a55c-b9312e40769a.elf:     file format elf64-littleaarch64
2a287631-de1b-4fdd-a55c-b9312e40769a.elf
architecture: aarch64, flags 0x00000150:
HAS_SYMS, DYNAMIC, D_PAGED
start address 0x000000000000025c

Program Header:
    LOAD off    0x0000000000001000 vaddr 0x0000000000000000 paddr 0x0000000000000000 align 2**12
         filesz 0x0000000000010b48 memsz 0x0000000000010b48 flags r-x
    LOAD off    0x0000000000012000 vaddr 0x0000000000011000 paddr 0x0000000000011000 align 2**12
         filesz 0x00000000000005dc memsz 0x000000000000be88 flags rw-
 DYNAMIC off    0x0000000000012000 vaddr 0x0000000000011000 paddr 0x0000000000011000 align 2**3
         filesz 0x0000000000000110 memsz 0x0000000000000110 flags rw-
   STACK off    0x0000000000000000 vaddr 0x0000000000000000 paddr 0x0000000000000000 align 2**4
         filesz 0x0000000000000000 memsz 0x0000000000000000 flags rw-

Dynamic Section:
  HASH                 0x0000000000010830
  GNU_HASH             0x0000000000010740
  STRTAB               0x0000000000010800
  SYMTAB               0x0000000000010770
  STRSZ                0x000000000000002e
  SYMENT               0x0000000000000018
  DEBUG                0x0000000000000000
  RELA                 0x0000000000010860
  RELASZ               0x00000000000004f8
  RELAENT              0x0000000000000018
  FLAGS_1              0x0000000008000000
  RELACOUNT            0x000000000000001f
private flags = 0x0:

Sections:
Idx Name          Size      VMA               LMA               File off  Algn
  0 .ta_head      00000020  0000000000000000  0000000000000000  00001000  2**3
                  CONTENTS, ALLOC, LOAD, READONLY, DATA
  1 .text         0000cad8  0000000000000020  0000000000000020  00001020  2**4
                  CONTENTS, ALLOC, LOAD, READONLY, CODE
  2 .eh_frame     00002984  000000000000caf8  000000000000caf8  0000daf8  2**3
                  CONTENTS, ALLOC, LOAD, READONLY, DATA
  3 .rodata       000012c0  000000000000f480  000000000000f480  00010480  2**3
                  CONTENTS, ALLOC, LOAD, READONLY, DATA
  4 .gnu.hash     00000030  0000000000010740  0000000000010740  00011740  2**3
                  CONTENTS, ALLOC, LOAD, READONLY, DATA
  5 .dynsym       00000090  0000000000010770  0000000000010770  00011770  2**3
                  CONTENTS, ALLOC, LOAD, READONLY, DATA
  6 .dynstr       0000002e  0000000000010800  0000000000010800  00011800  2**0
                  CONTENTS, ALLOC, LOAD, READONLY, DATA
  7 .hash         0000002c  0000000000010830  0000000000010830  00011830  2**3
                  CONTENTS, ALLOC, LOAD, READONLY, DATA
  8 .rela.dyn     000002e8  0000000000010860  0000000000010860  00011860  2**3
                  CONTENTS, ALLOC, LOAD, READONLY, DATA
  9 .dynamic      00000110  0000000000011000  0000000000011000  00012000  2**3
                  CONTENTS, ALLOC, LOAD, DATA
 10 .got          000000d0  0000000000011110  0000000000011110  00012110  2**3
                  CONTENTS, ALLOC, LOAD, DATA
 11 .rela.got     00000210  00000000000111e0  00000000000111e0  000121e0  2**3
                  CONTENTS, ALLOC, LOAD, READONLY, DATA
 12 .data         000001ec  00000000000113f0  00000000000113f0  000123f0  2**3
                  CONTENTS, ALLOC, LOAD, DATA
 13 .bss          0000b8a8  00000000000115e0  00000000000115e0  000125dc  2**3
                  ALLOC
 14 .debug_info   000199a5  0000000000000000  0000000000000000  000125dc  2**0
                  CONTENTS, READONLY, DEBUGGING, OCTETS
 15 .debug_abbrev 00004493  0000000000000000  0000000000000000  0002bf81  2**0
                  CONTENTS, READONLY, DEBUGGING, OCTETS
 16 .debug_loclists 0000ed55  0000000000000000  0000000000000000  00030414  2**0
                  CONTENTS, READONLY, DEBUGGING, OCTETS
 17 .debug_aranges 00000980  0000000000000000  0000000000000000  0003f170  2**4
                  CONTENTS, READONLY, DEBUGGING, OCTETS
 18 .debug_macro  00019c70  0000000000000000  0000000000000000  0003faf0  2**0
                  CONTENTS, READONLY, DEBUGGING, OCTETS
 19 .debug_line   0000bc54  0000000000000000  0000000000000000  00059760  2**0
                  CONTENTS, READONLY, DEBUGGING, OCTETS
 20 .debug_str    0001b256  0000000000000000  0000000000000000  000653b4  2**0
                  CONTENTS, READONLY, DEBUGGING, OCTETS
 21 .debug_line_str 00000acc  0000000000000000  0000000000000000  0008060a  2**0
                  CONTENTS, READONLY, DEBUGGING, OCTETS
 22 .comment      00000055  0000000000000000  0000000000000000  000810d6  2**0
                  CONTENTS, READONLY
 23 .debug_rnglists 00000838  0000000000000000  0000000000000000  0008112b  2**0
                  CONTENTS, READONLY, DEBUGGING, OCTETS
SYMBOL TABLE:
0000000000000000 l    d  .ta_head	0000000000000000 .ta_head
0000000000000020 l    d  .text	0000000000000000 .text
000000000000caf8 l    d  .eh_frame	0000000000000000 .eh_frame
000000000000f480 l    d  .rodata	0000000000000000 .rodata
0000000000010740 l    d  .gnu.hash	0000000000000000 .gnu.hash
0000000000010770 l    d  .dynsym	0000000000000000 .dynsym
0000000000010800 l    d  .dynstr	0000000000000000 .dynstr
0000000000010830 l    d  .hash	0000000000000000 .hash
0000000000010860 l    d  .rela.dyn	0000000000000000 .rela.dyn
0000000000011000 l    d  .dynamic	0000000000000000 .dynamic
0000000000011110 l    d  .got	0000000000000000 .got
00000000000111e0 l    d  .rela.got	0000000000000000 .rela.got
00000000000113f0 l    d  .data	0000000000000000 .data
00000000000115e0 l    d  .bss	0000000000000000 .bss
0000000000000000 l    d  .debug_info	0000000000000000 .debug_info
0000000000000000 l    d  .debug_abbrev	0000000000000000 .debug_abbrev
0000000000000000 l    d  .debug_loclists	0000000000000000 .debug_loclists
0000000000000000 l    d  .debug_aranges	0000000000000000 .debug_aranges
0000000000000000 l    d  .debug_macro	0000000000000000 .debug_macro
0000000000000000 l    d  .debug_line	0000000000000000 .debug_line
0000000000000000 l    d  .debug_str	0000000000000000 .debug_str
0000000000000000 l    d  .debug_line_str	0000000000000000 .debug_line_str
0000000000000000 l    d  .comment	0000000000000000 .comment
0000000000000000 l    d  .debug_rnglists	0000000000000000 .debug_rnglists
0000000000000000 l    df *ABS*	0000000000000000 user_ta_header.c
000000000000f488 l     O .rodata	0000000000000001 __compound_literal.6
000000000000f48c l     O .rodata	0000000000000004 __compound_literal.5
000000000000f490 l     O .rodata	0000000000000004 __compound_literal.4
000000000000f494 l     O .rodata	0000000000000004 __compound_literal.3
000000000000f498 l     O .rodata	0000000000000001 __compound_literal.2
000000000000f499 l     O .rodata	0000000000000001 __compound_literal.1
000000000000f49a l     O .rodata	0000000000000001 __compound_literal.0
0000000000000000 l    df *ABS*	0000000000000000 memcpy.c
0000000000000000 l    df *ABS*	0000000000000000 plugin_ta.c
000000000000f4e8 l     O .rodata	0000000000000013 __func__.0
0000000000014e80 l     O .bss	0000000000000004 inc_var.1
0000000000000000 l    df *ABS*	0000000000000000 snprintf.c
0000000000000000 l    df *ABS*	0000000000000000 stack_check.c
0000000000000000 l    df *ABS*	0000000000000000 snprintk.c
00000000000005d8 l     F .text	0000000000000bc4 kprintf.constprop.0
000000000000f586 l     O .rodata	0000000000000011 hexdigits
000000000000f597 l     O .rodata	0000000000000011 HEXDIGITS
0000000000000000 l    df *ABS*	0000000000000000 trace.c
000000000000fad6 l     O .rodata	0000000000000005 lvl_strs.0
0000000000000000 l    df *ABS*	0000000000000000 memchr.c
0000000000000000 l    df *ABS*	0000000000000000 strlen.c
0000000000000000 l    df *ABS*	0000000000000000 trace_ext.c
0000000000000000 l    df *ABS*	0000000000000000 tee_system_pta.c
0000000000001740 l     F .text	0000000000000084 invoke_system_pta
000000000000f5a8 l     O .rodata	0000000000000010 uuid.2
000000000000f5b8 l     O .rodata	000000000000000a __func__.1
000000000000f5c2 l     O .rodata	0000000000000017 __func__.0
00000000000115e0 l     O .bss	0000000000000008 sess.3
0000000000000000 l    df *ABS*	0000000000000000 utee_syscalls_a64.o
0000000000000000 l    df *ABS*	0000000000000000 user_ta_entry.c
0000000000001ca8 l     F .text	00000000000000b0 _get_fn_array
0000000000001d58 l     F .text	0000000000000090 _fini_iterate_phdr_cb
0000000000001de8 l     F .text	0000000000000028 ta_header_get_session
0000000000001e10 l     F .text	0000000000000070 to_utee_params
0000000000001e80 l     F .text	000000000000005c from_utee_params
0000000000001edc l     F .text	0000000000000094 _init_iterate_phdr_cb
00000000000020cc l     F .text	0000000000000094 ta_header_remove_session
000000000000fb7f l     O .rodata	0000000000000016 __func__.0
00000000000115e8 l     O .bss	0000000000000008 _num_mod_init
00000000000115f0 l     O .bss	0000000000000001 init_done
00000000000114d0 l     O .data	0000000000000010 ta_sessions
00000000000114e0 l     O .data	0000000000000010 __phdr_info_head
0000000000000000 l    df *ABS*	0000000000000000 user_ta_entry_compat.c
00000000000023e8 l     F .text	0000000000000064 to_gp11_param
000000000000244c l     F .text	0000000000000064 from_gp11_param
0000000000000000 l    df *ABS*	0000000000000000 abort.c
0000000000000000 l    df *ABS*	0000000000000000 tee_api.c
000000000000261c l     F .text	000000000000006c copy_param
0000000000002688 l     F .text	0000000000000070 copy_gp11_param
00000000000026f8 l     F .text	0000000000000098 check_mem_access_rights_params
0000000000002790 l     F .text	0000000000000044 buf_overlaps_no_share_heap
00000000000027d4 l     F .text	00000000000000a8 check_invoke_param
000000000000287c l     F .text	00000000000000a4 update_out_param
0000000000002920 l     F .text	00000000000000a8 update_out_gp11_param
0000000000002b98 l     F .text	000000000000019c map_tmp_param
0000000000011658 l     O .bss	0000000000000008 tee_api_instance_data
000000000000f4c0 l     O .rodata	000000000000000b __func__.0
0000000000000000 l    df *ABS*	0000000000000000 tee_api_arith_mpi.c
00000000000036dc l     F .text	0000000000000030 api_panic
000000000000370c l     F .text	0000000000000030 mpi_panic
000000000000373c l     F .text	0000000000000098 get_mpi
00000000000037d4 l     F .text	0000000000000064 copy_mpi_to_bigint
0000000000003838 l     F .text	000000000000014c bigint_binary
0000000000003984 l     F .text	0000000000000020 mpi_is_odd
00000000000039a4 l     F .text	0000000000000028 rng_read
00000000000039cc l     F .text	0000000000000574 mpi_egcd
0000000000011668 l     O .bss	0000000000003800 data.18
000000000000447c l     F .text	00000000000001d0 bigint_binary_mod
000000000000fc76 l     O .rodata	0000000000000008 __func__.15
000000000000fc7e l     O .rodata	000000000000000e __func__.11
000000000000fc8c l     O .rodata	0000000000000009 __func__.2
000000000000fc95 l     O .rodata	0000000000000012 __func__.17
000000000000fca7 l     O .rodata	000000000000000f __func__.16
000000000000fcb6 l     O .rodata	000000000000001f __func__.14
000000000000fcd5 l     O .rodata	0000000000000019 __func__.13
000000000000fcee l     O .rodata	0000000000000012 __func__.7
000000000000fd00 l     O .rodata	0000000000000015 __func__.12
000000000000fd15 l     O .rodata	000000000000000e __func__.10
000000000000fd23 l     O .rodata	000000000000000e __func__.9
000000000000fd31 l     O .rodata	000000000000000e __func__.8
000000000000fd3f l     O .rodata	0000000000000011 __func__.6
000000000000fd50 l     O .rodata	0000000000000018 __func__.5
000000000000fd68 l     O .rodata	0000000000000011 __func__.4
000000000000fd79 l     O .rodata	000000000000001d __func__.3
000000000000fd96 l     O .rodata	0000000000000019 __func__.1
000000000000fdaf l     O .rodata	0000000000000015 __func__.0
0000000000000000 l    df *ABS*	0000000000000000 tee_api_panic.c
000000000000582c l     F .text	000000000000001c check_access
0000000000005850 l     F .text	0000000000000010 check_res.constprop.0
00000000000059e0 l     F .text	0000000000000024 __utee_check_attr_in_annotation.localalias
0000000000000000 l    df *ABS*	0000000000000000 tee_api_property.c
0000000000005a28 l     F .text	000000000000006c propset_get
0000000000005a94 l     F .text	000000000000002c is_propset_pseudo_handle
0000000000005ac0 l     F .text	0000000000000140 propget_get_ext_prop
0000000000005c00 l     F .text	00000000000001f8 propget_get_property
000000000000f5ec l     O .rodata	0000000000000004 __compound_literal.3
000000000000f5f0 l     O .rodata	0000000000000004 __compound_literal.2
000000000000f5f4 l     O .rodata	0000000000000004 __compound_literal.1
000000000000f5f8 l     O .rodata	0000000000000004 __compound_literal.0
0000000000000000 l    df *ABS*	0000000000000000 tcb.c
000000000000fedd l     O .rodata	0000000000000010 __func__.1
000000000000feed l     O .rodata	0000000000000010 __func__.0
0000000000014e68 l     O .bss	0000000000000008 _tls_size
0000000000014e70 l     O .bss	0000000000000008 _tcb
0000000000000000 l    df *ABS*	0000000000000000 assert.c
0000000000000000 l    df *ABS*	0000000000000000 base64.c
000000000000f600 l     O .rodata	0000000000000041 base64_table
0000000000000000 l    df *ABS*	0000000000000000 bignum.c
0000000000006fe0 l     F .text	0000000000000064 mpi_get_digit
0000000000007044 l     F .text	000000000000040c mpi_mul_hlp
0000000000007450 l     F .text	0000000000000148 mpi_montmul
0000000000007598 l     F .text	0000000000000078 mpi_montred
0000000000007610 l     F .text	0000000000000038 mpi_montg_init.isra.0
0000000000007648 l     F .text	00000000000000ac mpi_bigendian_to_host.part.0
00000000000076f4 l     F .text	00000000000000c0 mpi_fill_random_internal
0000000000007940 l     F .text	000000000000006c mbedtls_mpi_resize_clear
0000000000009670 l     F .text	00000000000000c4 mpi_check_small_factors
000000000000a054 l     F .text	00000000000002a4 mpi_miller_rabin
000000000000f644 l     O .rodata	00000000000002a0 small_prime
000000000000f8e4 l     O .rodata	0000000000000024 gcd_pairs
0000000000000000 l    df *ABS*	0000000000000000 constant_time.c
000000000000b160 l     F .text	0000000000000020 mbedtls_ct_uchar_mask_of_range
0000000000000000 l    df *ABS*	0000000000000000 platform_util.c
0000000000011550 l     O .data	0000000000000008 memset_func
0000000000000000 l    df *ABS*	0000000000000000 bget_malloc.c
000000000000b944 l     F .text	0000000000000010 _assert_trap
000000000000b954 l     F .text	0000000000000028 bget_buf_size.part.0
000000000000b97c l     F .text	0000000000000038 raw_malloc_return_hook.constprop.0
0000000000010633 l     O .rodata	000000000000000e __func__.2
0000000000010641 l     O .rodata	0000000000000005 __func__.8
0000000000010646 l     O .rodata	0000000000000006 __func__.7
000000000001064c l     O .rodata	0000000000000005 __func__.5
0000000000010651 l     O .rodata	0000000000000006 __func__.6
0000000000010657 l     O .rodata	0000000000000006 __func__.4
000000000001065d l     O .rodata	0000000000000007 __func__.3
0000000000010664 l     O .rodata	0000000000000014 __func__.1
0000000000010678 l     O .rodata	0000000000000013 __func__.0
0000000000011558 l     O .data	0000000000000080 malloc_ctx
0000000000000000 l    df *ABS*	0000000000000000 memmove.c
0000000000000000 l    df *ABS*	0000000000000000 memset.c
0000000000000000 l    df *ABS*	0000000000000000 strcmp.c
0000000000000000 l    df *ABS*	0000000000000000 strlcpy.c
0000000000000000 l    df *ABS*	0000000000000000 mempool.c
0000000000010714 l     O .rodata	0000000000000013 __func__.2
0000000000010727 l     O .rodata	000000000000000b __func__.1
0000000000010732 l     O .rodata	000000000000000e __func__.0
0000000000000000 l    df *ABS*	0000000000000000 consttime_memcmp.c
0000000000000000 l    df *ABS*	0000000000000000 
0000000000011000 l     O *ABS*	0000000000000000 _DYNAMIC
0000000000011128 l     O *ABS*	0000000000000000 _GLOBAL_OFFSET_TABLE_
00000000000016d0 g     F .text	0000000000000070 putchar
00000000000040c0 g     F .text	0000000000000008 __GP11_TEE_BigIntConvertFromOctetString
0000000000005608 g     F .text	0000000000000004 TEE_BigIntConvertToFMM
0000000000004e78 g     F .text	000000000000000c TEE_BigIntSquareMod
000000000000464c g     F .text	00000000000001a0 TEE_BigIntShiftRight
000000000000c4f8 g     F .text	00000000000000d4 raw_malloc_add_pool
0000000000001914 g     F .text	00000000000000e8 tee_invoke_supp_plugin
0000000000007858 g     F .text	00000000000000e8 mbedtls_mpi_grow
0000000000006750 g     F .text	0000000000000130 __GP11_TEE_GetPropertyName
00000000000035e4 g     F .text	00000000000000d8 TEE_Realloc
0000000000005a08 g     F .text	0000000000000020 __utee_check_inout_annotation
000000000000c2c0 g     F .text	0000000000000010 raw_free
0000000000001590 g     F .text	0000000000000100 printf
00000000000049f0 g     F .text	000000000000002c TEE_BigIntAbs
0000000000001a14 g     F .text	000000000000000c _utee_log
0000000000002fd0 g     F .text	0000000000000184 TEE_InvokeTACommand
0000000000005860 g     F .text	000000000000004c __utee_check_outbuf_annotation
00000000000077c4 g     F .text	0000000000000028 mbedtls_mpi_init_mempool
0000000000001b94 g     F .text	000000000000000c _utee_cryp_random_number_generate
0000000000007fbc g     F .text	00000000000000c4 mbedtls_mpi_write_binary
00000000000004b0 g     F .text	0000000000000058 vsnprintk
000000000000883c g     F .text	0000000000000078 mbedtls_mpi_sub_int
000000000000c824 g     F .text	000000000000005c memmove
0000000000000290 g     F .text	00000000000000d4 snprintf
00000000000043fc g     F .text	0000000000000080 TEE_BigIntCmpS32
00000000000032f0 g     F .text	0000000000000008 __GP11_TEE_MemMove
00000000000114c8 g     O .data	0000000000000008 __stack_chk_guard
000000000000b6a8 g     F .text	000000000000027c mbedtls_ct_rsaes_pkcs1_v15_unpadding
00000000000079ac g     F .text	0000000000000118 mbedtls_mpi_shrink
0000000000003308 g     F .text	0000000000000008 __GP11_TEE_MemFill
0000000000004a1c g     F .text	000000000000000c TEE_BigIntAdd
0000000000001b34 g     F .text	000000000000000c _utee_cryp_obj_restrict_usage
000000000000f4a8 g     O .rodata	0000000000000008 ta_heap_size
0000000000001bdc g     F .text	000000000000000c _utee_asymm_operate
0000000000006d90 g     F .text	0000000000000018 _base64_enc_len
0000000000008b08 g     F .text	000000000000020c mbedtls_mpi_read_string
0000000000004a34 g     F .text	00000000000000e4 TEE_BigIntNeg
0000000000001c30 g     F .text	000000000000000c _utee_storage_free_enum
0000000000000020 g       .text	0000000000000000 __text_start
000000000000690c g     F .text	00000000000000e0 TEE_GetNextProperty
0000000000008190 g     F .text	00000000000000c0 mbedtls_mpi_shift_r
000000000000c810 g     F .text	0000000000000014 malloc_buffer_overlaps_heap
0000000000001ae0 g     F .text	000000000000000c _utee_hash_init
0000000000004e60 g     F .text	000000000000000c TEE_BigIntSubMod
000000000000a9f4 g     F .text	000000000000034c mbedtls_mpi_gen_prime
000000000000647c g     F .text	000000000000009c TEE_GetPropertyAsBinaryBlock
0000000000007c84 g     F .text	000000000000002c mbedtls_mpi_get_bit
000000000000f4a0 g     O .rodata	0000000000000008 __ta_no_share_heap_size
0000000000007e80 g     F .text	0000000000000084 mbedtls_mpi_read_binary
0000000000001430 g     F .text	00000000000000e4 trace_printf
000000000000973c g     F .text	0000000000000004 mbedtls_mpi_montmul
0000000000001c9c g     F .text	000000000000000c _utee_cache_operation
0000000000000020 g     F .text	00000000000000ec memcpy
000000000000560c g     F .text	00000000000000d4 TEE_BigIntConvertFromFMM
0000000000005848 g     F .text	0000000000000008 TEE_Panic
0000000000001690 g     F .text	0000000000000040 puts
00000000000056e0 g     F .text	000000000000014c TEE_BigIntComputeFMM
000000000000c7d8 g     F .text	0000000000000010 malloc_get_stats
0000000000003430 g     F .text	0000000000000028 TEE_GetREETime
000000000000c79c g     F .text	000000000000003c raw_malloc_get_stats
00000000000113f0 g     O .data	00000000000000d8 ta_props
000000000000357c g     F .text	0000000000000008 __GP11_TEE_Malloc
0000000000002e88 g     F .text	0000000000000148 __GP11_TEE_OpenTASession
00000000000058f8 g     F .text	0000000000000030 __utee_check_instring_annotation
000000000000c434 g     F .text	0000000000000018 malloc
000000000000673c g     F .text	0000000000000004 TEE_FreePropertyEnumerator
000000000000b1d8 g     F .text	0000000000000010 mbedtls_ct_mpi_uint_mask
0000000000000364 g     F .text	0000000000000058 vsnprintf
00000000000115d8 g     O .data	0000000000000004 trace_level
0000000000004364 g     F .text	0000000000000098 TEE_BigIntCmp
000000000000f480 g     O .rodata	0000000000000008 ta_num_props
000000000000bfe0 g     F .text	00000000000000d0 bgetr
0000000000001bf4 g     F .text	000000000000000c _utee_storage_obj_open
00000000000032fc g     F .text	0000000000000008 __GP11_TEE_MemCompare
000000000000ca74 g     F .text	0000000000000014 mempool_free
0000000000001aec g     F .text	000000000000000c _utee_hash_update
00000000000040c8 g     F .text	00000000000000c8 TEE_BigIntConvertToOctetString
0000000000007d90 g     F .text	000000000000005c mbedtls_mpi_bitlen
00000000000047f4 g     F .text	0000000000000084 TEE_BigIntGetBit
000000000000f4b0 g     O .rodata	0000000000000003 trace_ext_prefix
0000000000001c54 g     F .text	000000000000000c _utee_storage_next_enum
000000000000c2b0 g     F .text	0000000000000010 raw_malloc
000000000000bc94 g     F .text	0000000000000088 bgetz
000000000000b1e8 g     F .text	0000000000000018 mbedtls_ct_size_bool_eq
00000000000032e0 g     F .text	000000000000000c TEE_GetInstanceData
0000000000003338 g     F .text	000000000000003c TEE_Wait
00000000000088b4 g     F .text	00000000000001ac mbedtls_mpi_mul_mpi
00000000000047ec g     F .text	0000000000000008 __GP11_TEE_BigIntShiftRight
00000000000036cc g     F .text	0000000000000008 TEE_CacheFlush
0000000000001214 g     F .text	000000000000021c trace_vprintf
0000000000000114 g     F .text	0000000000000004 TA_DestroyEntryPoint
00000000000077b4 g     F .text	0000000000000010 mbedtls_mpi_init
0000000000001c0c g     F .text	000000000000000c _utee_storage_obj_del
0000000000007d3c g     F .text	0000000000000054 mbedtls_mpi_lsb
0000000000006d38 g     F .text	0000000000000044 _assert_log
0000000000001ac8 g     F .text	000000000000000c _utee_cryp_state_copy
00000000000055e8 g     F .text	0000000000000008 TEE_BigIntFMMContextSizeInU32
0000000000001858 g     F .text	00000000000000bc tee_unmap
000000000000b21c g     F .text	0000000000000030 mbedtls_ct_uint_if
0000000000003f40 g     F .text	0000000000000050 _TEE_MathAPI_Init
00000000000069ec g     F .text	0000000000000240 __utee_tcb_init
00000000000086b0 g     F .text	0000000000000088 mbedtls_mpi_add_mpi
00000000000025fc g     F .text	0000000000000020 abort
000000000000a2f8 g     F .text	00000000000001b8 mbedtls_mpi_random
00000000000003bc g     F .text	0000000000000030 __stack_chk_fail
00000000000059c0 g     F .text	0000000000000020 __utee_check_out_annotation
0000000000014e84 g     O .bss	0000000000008000 ta_heap
0000000000004e84 g     F .text	0000000000000150 TEE_BigIntInvMod
0000000000001f70 g     F .text	000000000000014c __utee_call_elf_init_fn
0000000000000128 g     F .text	0000000000000004 TA_CloseSessionEntryPoint
000000000000012c g     F .text	0000000000000130 __GP11_TA_InvokeCommandEntryPoint
0000000000001a50 g     F .text	000000000000000c _utee_close_ta_session
00000000000055b0 g     F .text	0000000000000008 __GP11_TEE_BigIntInitFMMContext
0000000000008738 g     F .text	000000000000008c mbedtls_mpi_sub_mpi
000000000000ca88 g     F .text	0000000000000070 consttime_memcmp
0000000000001a08 g     F .text	000000000000000c _utee_return
0000000000001a20 g     F .text	000000000000000c __utee_panic
000000000000b180 g     F .text	0000000000000048 mbedtls_ct_memcmp
0000000000006c2c g     F .text	000000000000001c __tls_get_addr
0000000000000284 g     F .text	000000000000000c TA_InvokeCommandEntryPoint
00000000000020bc g     F .text	0000000000000010 __utee_call_elf_fini_fn
000000000000c4c4 g     F .text	0000000000000010 free_wipe
000000000000c9c0 g     F .text	0000000000000064 mempool_alloc
00000000000019fc g     F .text	000000000000000c _utee_panic
000000000000c4dc g     F .text	000000000000001c raw_malloc_init_ctx
000000000000ca24 g     F .text	0000000000000050 mempool_calloc
0000000000001c90 g     F .text	000000000000000c _utee_cryp_obj_generate_key
0000000000001c78 g     F .text	000000000000000c _utee_storage_obj_trunc
00000000000114f0 g     O .data	0000000000000060 tee_props
0000000000001a80 g     F .text	000000000000000c _utee_unmask_cancellation
00000000000066e8 g     F .text	000000000000000c TEE_ResetPropertyEnumerator
000000000000c44c g     F .text	000000000000001c calloc
0000000000003458 g     F .text	0000000000000124 TEE_Malloc
0000000000002b10 g     F .text	0000000000000088 TEE_CheckMemoryAccessRights
0000000000006518 g     F .text	00000000000000e8 TEE_GetPropertyAsUUID
0000000000001a2c g     F .text	000000000000000c _utee_get_property
00000000000048f0 g     F .text	00000000000000b0 TEE_BigIntSetBit
0000000000007c1c g     F .text	0000000000000068 mbedtls_mpi_lset
0000000000000278 g     F .text	000000000000000c TA_OpenSessionEntryPoint
0000000000000118 g     F .text	0000000000000010 __GP11_TA_OpenSessionEntryPoint
0000000000006c48 g     F .text	00000000000000f0 dl_iterate_phdr
000000000001ce88 g       .bss	0000000000000000 __ftrace_buf_end
0000000000011650 g     O .bss	0000000000000004 ta_param_types
0000000000009234 g     F .text	0000000000000078 mbedtls_mpi_div_int
000000000000a908 g     F .text	00000000000000dc mbedtls_mpi_is_prime_ext
0000000000005518 g     F .text	0000000000000088 TEE_BigIntIsProbablePrime
0000000000008a60 g     F .text	00000000000000a8 mbedtls_mpi_mul_int
0000000000009744 g     F .text	00000000000006d0 mbedtls_mpi_exp_mod
000000000000b3f8 g     F .text	00000000000000bc mbedtls_mpi_safe_cond_assign
0000000000005df8 g     F .text	0000000000000258 TEE_GetPropertyAsString
000000000000b5b0 g     F .text	00000000000000f8 mbedtls_mpi_lt_mpi_ct
0000000000003f90 g     F .text	0000000000000060 TEE_BigIntInit
0000000000004190 g     F .text	0000000000000064 __GP11_TEE_BigIntConvertToOctetString
00000000000049a0 g     F .text	0000000000000050 TEE_BigIntAssign
0000000000005928 g     F .text	000000000000004c __utee_check_outstring_annotation
00000000000032ec g     F .text	0000000000000004 TEE_MemMove
000000000000b924 g     F .text	0000000000000020 mbedtls_platform_zeroize
0000000000003ff8 g     F .text	00000000000000c8 TEE_BigIntConvertFromOctetString
0000000000001bd0 g     F .text	000000000000000c _utee_authenc_dec_final
0000000000008250 g     F .text	000000000000009c mbedtls_mpi_cmp_abs
0000000000001c60 g     F .text	000000000000000c _utee_storage_obj_read
0000000000001518 g     F .text	000000000000002c memchr
0000000000002a50 g     F .text	0000000000000060 TEE_UnmaskCancellation
000000000000ad40 g     F .text	0000000000000420 mbedtls_mpi_self_test
00000000000058ac g     F .text	000000000000004c __utee_check_gp11_outbuf_annotation
0000000000001c84 g     F .text	000000000000000c _utee_storage_obj_seek
0000000000001a74 g     F .text	000000000000000c _utee_check_access_rights
0000000000003154 g     F .text	0000000000000178 __GP11_TEE_InvokeTACommand
00000000000083bc g     F .text	0000000000000078 mbedtls_mpi_cmp_int
0000000000006ebc g     F .text	0000000000000124 _base64_dec
0000000000001c3c g     F .text	000000000000000c _utee_storage_reset_enum
000000000000b33c g     F .text	00000000000000bc mbedtls_ct_base64_dec_value
00000000000059e0 g     F .text	0000000000000024 __utee_check_attr_in_annotation
0000000000001bb8 g     F .text	000000000000000c _utee_authenc_update_payload
0000000000004de8 g     F .text	000000000000006c TEE_BigIntMod
0000000000009360 g     F .text	000000000000009c mbedtls_mpi_mod_int
0000000000007e08 g     F .text	0000000000000078 mbedtls_mpi_read_binary_le
0000000000004c34 g     F .text	00000000000001b4 TEE_BigIntDiv
0000000000001b4c g     F .text	000000000000000c _utee_cryp_obj_alloc
000000000001ce88 g       .bss	0000000000000000 __ftrace_buf_start
000000000000c8c0 g     F .text	0000000000000038 strlcpy
000000000000b288 g     F .text	00000000000000b4 mbedtls_ct_base64_enc_char
0000000000007ac4 g     F .text	00000000000000cc mbedtls_mpi_copy
000000000000c214 g     F .text	0000000000000018 malloc_reset_stats
0000000000006600 g     F .text	00000000000000e8 TEE_GetPropertyAsIdentity
000000000000119c g     F .text	000000000000004c __vsprintf
00000000000062ac g     F .text	00000000000000e8 TEE_GetPropertyAsU64
0000000000001ab0 g     F .text	000000000000000c _utee_set_ta_time
0000000000001a5c g     F .text	000000000000000c _utee_invoke_ta_command
000000000000c468 g     F .text	0000000000000018 realloc
0000000000007b90 g     F .text	000000000000008c mbedtls_mpi_swap
000000000000c8f8 g     F .text	00000000000000c8 mempool_alloc_pool
0000000000004b18 g     F .text	0000000000000114 TEE_BigIntMul
000000000000c4d4 g     F .text	0000000000000008 raw_malloc_get_ctx_size
0000000000008080 g     F .text	0000000000000110 mbedtls_mpi_shift_l
00000000000082ec g     F .text	00000000000000d0 mbedtls_mpi_cmp_mpi
0000000000003304 g     F .text	0000000000000004 TEE_MemFill
000000000000c7e8 g     F .text	0000000000000014 malloc_add_pool
0000000000001204 g     F .text	0000000000000010 trace_get_level
0000000000008434 g     F .text	0000000000000120 mbedtls_mpi_add_abs
00000000000055c0 g     F .text	0000000000000010 TEE_BigIntFMMSizeInU32
00000000000060ec g     F .text	00000000000000d8 TEE_GetPropertyAsBool
000000000000c340 g     F .text	00000000000000f4 raw_realloc
00000000000055a0 g     F .text	0000000000000004 TEE_BigIntInitFMM
0000000000001b04 g     F .text	000000000000000c _utee_cipher_init
0000000000002160 g     F .text	0000000000000288 __utee_entry
00000000000061c4 g     F .text	00000000000000e8 TEE_GetPropertyAsU32
000000000000caf8 g       .text	0000000000000000 __text_end
0000000000004fd4 g     F .text	0000000000000108 TEE_BigIntRelativePrime
00000000000092ac g     F .text	00000000000000b4 mbedtls_mpi_mod_mpi
0000000000001b28 g     F .text	000000000000000c _utee_cryp_obj_get_info
000000000000c0b0 g     F .text	00000000000000d0 bpool
00000000000066f4 g     F .text	0000000000000048 TEE_AllocatePropertyEnumerator
0000000000001abc g     F .text	000000000000000c _utee_cryp_state_alloc
00000000000029f0 g     F .text	0000000000000060 TEE_GetCancellationFlag
0000000000009e14 g     F .text	00000000000001d8 mbedtls_mpi_gcd
00000000000033ec g     F .text	0000000000000044 TEE_SetTAPersistentTime
0000000000007f04 g     F .text	00000000000000b8 mbedtls_mpi_write_binary_le
000000000000c880 g     F .text	000000000000001c memset
000000000000c22c g     F .text	0000000000000084 raw_memalign
0000000000003374 g     F .text	0000000000000078 TEE_GetTAPersistentTime
0000000000001514 g     F .text	0000000000000004 dhex_dump
0000000000002ab0 g     F .text	0000000000000060 TEE_MaskCancellation
0000000000001b40 g     F .text	000000000000000c _utee_cryp_obj_get_attr
0000000000001b1c g     F .text	000000000000000c _utee_cipher_final
00000000000011e8 g     F .text	000000000000001c trace_set_level
000000000000b200 g     F .text	000000000000001c mbedtls_ct_mpi_uint_lt
0000000000001ad4 g     F .text	000000000000000c _utee_cryp_state_free
000000000000c89c g     F .text	0000000000000024 strcmp
0000000000001a44 g     F .text	000000000000000c _utee_open_ta_session
00000000000042a8 g     F .text	00000000000000bc TEE_BigIntConvertToS32
0000000000004a28 g     F .text	000000000000000c TEE_BigIntSub
0000000000000270 g     F .text	0000000000000008 tahead_get_trace_level
0000000000001c48 g     F .text	000000000000000c _utee_storage_start_enum
00000000000017c4 g     F .text	0000000000000094 tee_map_zi
0000000000009740 g     F .text	0000000000000004 mbedtls_mpi_montred
000000000000c480 g     F .text	000000000000001c memalign
000000000000b1c8 g     F .text	0000000000000010 mbedtls_ct_uint_mask
0000000000003ff0 g     F .text	0000000000000008 __GP11_TEE_BigIntInit
00000000000041f4 g     F .text	00000000000000b4 TEE_BigIntConvertFromS32
00000000000087c4 g     F .text	0000000000000078 mbedtls_mpi_add_int
0000000000001bc4 g     F .text	000000000000000c _utee_authenc_enc_final
000000000000c7fc g     F .text	0000000000000014 malloc_buffer_is_within_alloced
0000000000001b58 g     F .text	000000000000000c _utee_cryp_obj_close
00000000000055ac g     F .text	0000000000000004 TEE_BigIntInitFMMContext
0000000000001a8c g     F .text	000000000000000c _utee_mask_cancellation
0000000000011608 g     O .bss	0000000000000008 __ta_no_share_malloc_ctx
0000000000001c18 g     F .text	000000000000000c _utee_storage_obj_rename
00000000000032cc g     F .text	0000000000000008 __GP11_TEE_CheckMemoryAccessRights
0000000000004c2c g     F .text	0000000000000008 TEE_BigIntSquare
0000000000001c6c g     F .text	000000000000000c _utee_storage_obj_write
000000000000010c g     F .text	0000000000000008 TA_CreateEntryPoint
000000000000025c g     F .text	0000000000000014 __ta_entry
0000000000014e84 g     O .bss	0000000000000000 __ta_no_share_heap
0000000000001bac g     F .text	000000000000000c _utee_authenc_update_aad
0000000000009734 g     F .text	0000000000000008 mbedtls_mpi_montg_init
0000000000000508 g     F .text	00000000000000d0 snprintk
0000000000004878 g     F .text	0000000000000078 TEE_BigIntGetBitCount
0000000000001b7c g     F .text	000000000000000c _utee_cryp_obj_copy
0000000000004e6c g     F .text	000000000000000c TEE_BigIntMulMod
000000000000a4b0 g     F .text	0000000000000458 mbedtls_mpi_inv_mod
0000000000005a04 g     F .text	0000000000000004 __utee_check_gp11_attr_in_annotation
0000000000011610 g     O .bss	0000000000000040 ta_params
0000000000008d14 g     F .text	0000000000000520 mbedtls_mpi_div_mpi
0000000000005974 g     F .text	000000000000004c __utee_check_gp11_outstring_annotation
0000000000007dec g     F .text	000000000000001c mbedtls_mpi_size
000000000000b9b4 g     F .text	00000000000002e0 bget
00000000000055f0 g     F .text	0000000000000018 __GP11_TEE_BigIntFMMContextSizeInU32
0000000000006740 g     F .text	0000000000000010 TEE_StartPropertyEnumerator
0000000000001a98 g     F .text	000000000000000c _utee_wait
0000000000007cb0 g     F .text	000000000000008c mbedtls_mpi_set_bit
0000000000003584 g     F .text	0000000000000060 TEE_Free
000000000000a9e4 g     F .text	0000000000000010 mbedtls_mpi_is_prime
00000000000036d4 g     F .text	0000000000000008 TEE_CacheInvalidate
0000000000006d7c g     F .text	0000000000000014 _assert_break
0000000000004e54 g     F .text	000000000000000c TEE_BigIntAddMod
000000000000b24c g     F .text	000000000000003c mbedtls_ct_mpi_uint_cond_assign
00000000000055a4 g     F .text	0000000000000008 __GP11_TEE_BigIntInitFMM
0000000000001aa4 g     F .text	000000000000000c _utee_get_time
0000000000006880 g     F .text	000000000000008c TEE_GetPropertyName
00000000000036bc g     F .text	0000000000000008 __GP11_TEE_Realloc
0000000000001b70 g     F .text	000000000000000c _utee_cryp_obj_populate
00000000000032f8 g     F .text	0000000000000004 TEE_MemCompare
0000000000001b10 g     F .text	000000000000000c _utee_cipher_update
00000000000003ec g     F .text	00000000000000c4 __vsnprintf
00000000000115f8 g     O .bss	0000000000000010 __elf_phdr_info
0000000000002d34 g     F .text	0000000000000154 TEE_OpenTASession
0000000000001560 g     F .text	0000000000000028 trace_ext_puts
0000000000006050 g     F .text	000000000000009c __GP11_TEE_GetPropertyAsString
000000000000c64c g     F .text	0000000000000150 raw_malloc_buffer_is_within_alloced
0000000000001588 g     F .text	0000000000000008 trace_ext_get_thread_id
000000000000c5cc g     F .text	0000000000000080 raw_malloc_buffer_overlaps_heap
0000000000001b88 g     F .text	000000000000000c _utee_cryp_derive_key
00000000000077ec g     F .text	000000000000006c mbedtls_mpi_free
0000000000001b64 g     F .text	000000000000000c _utee_cryp_obj_reset
00000000000036c4 g     F .text	0000000000000008 TEE_CacheClean
0000000000001a38 g     F .text	000000000000000c _utee_get_property_name_to_index
000000000000c2d0 g     F .text	0000000000000070 raw_calloc
0000000000006da8 g     F .text	0000000000000114 _base64_enc
000000000000b4b4 g     F .text	00000000000000fc mbedtls_mpi_safe_cond_swap
0000000000001ba0 g     F .text	000000000000000c _utee_authenc_init
0000000000001544 g     F .text	000000000000001c strlen
00000000000052b0 g     F .text	0000000000000268 TEE_BigIntComputeExtendedGcd
0000000000001c24 g     F .text	000000000000000c _utee_storage_alloc_enum
00000000000050dc g     F .text	00000000000001d4 TEE_BigIntExpMod
0000000000003310 g     F .text	0000000000000028 TEE_GetSystemTime
0000000000001be8 g     F .text	000000000000000c _utee_asymm_verify
0000000000000000 g     O .ta_head	0000000000000020 ta_head
000000000000bd1c g     F .text	00000000000002c4 brel
000000000000254c g     F .text	00000000000000b0 __ta_invoke_cmd
0000000000006394 g     F .text	00000000000000e8 __GP11_TEE_GetPropertyAsBinaryBlock
0000000000008554 g     F .text	000000000000015c mbedtls_mpi_sub_abs
0000000000009fec g     F .text	0000000000000068 mbedtls_mpi_fill_random
00000000000024b0 g     F .text	000000000000009c __ta_open_sess
00000000000032d4 g     F .text	000000000000000c TEE_SetInstanceData
0000000000001a68 g     F .text	000000000000000c _utee_get_cancellation_flag
00000000000093fc g     F .text	0000000000000274 mbedtls_mpi_write_string
000000000000c49c g     F .text	0000000000000018 aligned_alloc
00000000000055b8 g     F .text	0000000000000008 TEE_BigIntInitFMMContext1
00000000000029c8 g     F .text	0000000000000028 TEE_CloseTASession
0000000000001c00 g     F .text	000000000000000c _utee_storage_obj_create
00000000000055d0 g     F .text	0000000000000018 __GP11_TEE_BigIntFMMSizeInU32
000000000000c4b4 g     F .text	0000000000000010 free
000000000000c180 g     F .text	0000000000000094 bstats
0000000000014e78 g     O .bss	0000000000000008 mbedtls_mpi_mempool
0000000000001af8 g     F .text	000000000000000c _utee_hash_final



Disassembly of section .text:

0000000000000020 <memcpy>:
memcpy():
/home/jeferson/optee/optee_os-rpi4/lib/libutils/isoc/newlib/memcpy.c:106
      20:	f1007c5f 	cmp	x2, #0x1f
      24:	54000629 	b.ls	e8 <memcpy+0xc8>  // b.plast
/home/jeferson/optee/optee_os-rpi4/lib/libutils/isoc/newlib/memcpy.c:106 (discriminator 1)
      28:	aa010005 	orr	x5, x0, x1
      2c:	f24008a5 	ands	x5, x5, #0x7
      30:	54000641 	b.ne	f8 <memcpy+0xd8>  // b.any
      34:	d1008048 	sub	x8, x2, #0x20
/home/jeferson/optee/optee_os-rpi4/lib/libutils/isoc/newlib/memcpy.c:108
      38:	aa0103e3 	mov	x3, x1
      3c:	927be908 	and	x8, x8, #0xffffffffffffffe0
/home/jeferson/optee/optee_os-rpi4/lib/libutils/isoc/newlib/memcpy.c:107
      40:	aa0003e4 	mov	x4, x0
      44:	91008108 	add	x8, x8, #0x20
      48:	8b080007 	add	x7, x0, x8
      4c:	d503201f 	nop
/home/jeferson/optee/optee_os-rpi4/lib/libutils/isoc/newlib/memcpy.c:112
      50:	f9400066 	ldr	x6, [x3]
      54:	f9000086 	str	x6, [x4]
/home/jeferson/optee/optee_os-rpi4/lib/libutils/isoc/newlib/memcpy.c:113
      58:	91008063 	add	x3, x3, #0x20
      5c:	91008084 	add	x4, x4, #0x20
      60:	f85e8066 	ldur	x6, [x3, #-24]
      64:	f81e8086 	stur	x6, [x4, #-24]
/home/jeferson/optee/optee_os-rpi4/lib/libutils/isoc/newlib/memcpy.c:114
      68:	f85f0066 	ldur	x6, [x3, #-16]
      6c:	f81f0086 	stur	x6, [x4, #-16]
/home/jeferson/optee/optee_os-rpi4/lib/libutils/isoc/newlib/memcpy.c:115
      70:	f85f8066 	ldur	x6, [x3, #-8]
      74:	f81f8086 	stur	x6, [x4, #-8]
/home/jeferson/optee/optee_os-rpi4/lib/libutils/isoc/newlib/memcpy.c:111
      78:	eb0400ff 	cmp	x7, x4
      7c:	54fffea1 	b.ne	50 <memcpy+0x30>  // b.any
/home/jeferson/optee/optee_os-rpi4/lib/libutils/isoc/newlib/memcpy.c:115
      80:	8b080021 	add	x1, x1, x8
/home/jeferson/optee/optee_os-rpi4/lib/libutils/isoc/newlib/memcpy.c:116
      84:	92401043 	and	x3, x2, #0x1f
/home/jeferson/optee/optee_os-rpi4/lib/libutils/isoc/newlib/memcpy.c:120
      88:	f27d045f 	tst	x2, #0x18
      8c:	540003c0 	b.eq	104 <memcpy+0xe4>  // b.none
/home/jeferson/optee/optee_os-rpi4/lib/libutils/isoc/newlib/memcpy.c:121
      90:	f8656826 	ldr	x6, [x1, x5]
      94:	f8256886 	str	x6, [x4, x5]
/home/jeferson/optee/optee_os-rpi4/lib/libutils/isoc/newlib/memcpy.c:120
      98:	910020a5 	add	x5, x5, #0x8
      9c:	cb050066 	sub	x6, x3, x5
      a0:	f1001cdf 	cmp	x6, #0x7
      a4:	54ffff68 	b.hi	90 <memcpy+0x70>  // b.pmore
      a8:	d1002063 	sub	x3, x3, #0x8
/home/jeferson/optee/optee_os-rpi4/lib/libutils/isoc/newlib/memcpy.c:122
      ac:	92400842 	and	x2, x2, #0x7
      b0:	927df063 	and	x3, x3, #0xfffffffffffffff8
/home/jeferson/optee/optee_os-rpi4/lib/libutils/isoc/newlib/memcpy.c:130
      b4:	d1000446 	sub	x6, x2, #0x1
      b8:	91002063 	add	x3, x3, #0x8
/home/jeferson/optee/optee_os-rpi4/lib/libutils/isoc/newlib/memcpy.c:121
      bc:	8b030084 	add	x4, x4, x3
      c0:	8b030021 	add	x1, x1, x3
/home/jeferson/optee/optee_os-rpi4/lib/libutils/isoc/newlib/memcpy.c:130
      c4:	b4000102 	cbz	x2, e4 <memcpy+0xc4>
/home/jeferson/optee/optee_os-rpi4/lib/libutils/isoc/newlib/memcpy.c:99
      c8:	d2800002 	mov	x2, #0x0                   	// #0
      cc:	d503201f 	nop
/home/jeferson/optee/optee_os-rpi4/lib/libutils/isoc/newlib/memcpy.c:131
      d0:	38626825 	ldrb	w5, [x1, x2]
/home/jeferson/optee/optee_os-rpi4/lib/libutils/isoc/newlib/memcpy.c:130
      d4:	eb0200df 	cmp	x6, x2
/home/jeferson/optee/optee_os-rpi4/lib/libutils/isoc/newlib/memcpy.c:131
      d8:	38226885 	strb	w5, [x4, x2]
/home/jeferson/optee/optee_os-rpi4/lib/libutils/isoc/newlib/memcpy.c:130
      dc:	91000442 	add	x2, x2, #0x1
      e0:	54ffff81 	b.ne	d0 <memcpy+0xb0>  // b.any
/home/jeferson/optee/optee_os-rpi4/lib/libutils/isoc/newlib/memcpy.c:135
      e4:	d65f03c0 	ret
/home/jeferson/optee/optee_os-rpi4/lib/libutils/isoc/newlib/memcpy.c:99
      e8:	aa0003e4 	mov	x4, x0
/home/jeferson/optee/optee_os-rpi4/lib/libutils/isoc/newlib/memcpy.c:130
      ec:	d1000446 	sub	x6, x2, #0x1
      f0:	b5fffec2 	cbnz	x2, c8 <memcpy+0xa8>
/home/jeferson/optee/optee_os-rpi4/lib/libutils/isoc/newlib/memcpy.c:135
      f4:	d65f03c0 	ret
/home/jeferson/optee/optee_os-rpi4/lib/libutils/isoc/newlib/memcpy.c:130
      f8:	d1000446 	sub	x6, x2, #0x1
/home/jeferson/optee/optee_os-rpi4/lib/libutils/isoc/newlib/memcpy.c:99
      fc:	aa0003e4 	mov	x4, x0
     100:	17fffff2 	b	c8 <memcpy+0xa8>
/home/jeferson/optee/optee_os-rpi4/lib/libutils/isoc/newlib/memcpy.c:120
     104:	aa0303e2 	mov	x2, x3
     108:	17fffff9 	b	ec <memcpy+0xcc>

000000000000010c <TA_CreateEntryPoint>:
TA_CreateEntryPoint():
/home/jeferson/optee/optee_examples/plugins/ta/plugin_ta.c:19
     10c:	52800000 	mov	w0, #0x0                   	// #0
     110:	d65f03c0 	ret

0000000000000114 <TA_DestroyEntryPoint>:
TA_DestroyEntryPoint():
/home/jeferson/optee/optee_examples/plugins/ta/plugin_ta.c:23
     114:	d65f03c0 	ret

0000000000000118 <__GP11_TA_OpenSessionEntryPoint>:
__GP11_TA_OpenSessionEntryPoint():
/home/jeferson/optee/optee_examples/plugins/ta/plugin_ta.c:34
     118:	7100001f 	cmp	w0, #0x0
/home/jeferson/optee/optee_examples/plugins/ta/plugin_ta.c:37
     11c:	129fff21 	mov	w1, #0xffff0006            	// #-65530
     120:	1a810000 	csel	w0, w0, w1, eq  // eq = none
     124:	d65f03c0 	ret

0000000000000128 <TA_CloseSessionEntryPoint>:
TA_CloseSessionEntryPoint():
/home/jeferson/optee/optee_examples/plugins/ta/plugin_ta.c:41
     128:	d65f03c0 	ret

000000000000012c <__GP11_TA_InvokeCommandEntryPoint>:
__GP11_TA_InvokeCommandEntryPoint():
/home/jeferson/optee/optee_examples/plugins/ta/plugin_ta.c:69
     12c:	b0000080 	adrp	x0, 11000 <_DYNAMIC>
     130:	a9b77bfd 	stp	x29, x30, [sp, #-144]!
     134:	910003fd 	mov	x29, sp
     138:	f9409800 	ldr	x0, [x0, #304]
     13c:	a90153f3 	stp	x19, x20, [sp, #16]
     140:	a9025bf5 	stp	x21, x22, [sp, #32]
     144:	f9400003 	ldr	x3, [x0]
     148:	f90047e3 	str	x3, [sp, #136]
     14c:	d2800003 	mov	x3, #0x0                   	// #0
/home/jeferson/optee/optee_examples/plugins/ta/plugin_ta.c:74
     150:	35000742 	cbnz	w2, 238 <__GP11_TA_InvokeCommandEntryPoint+0x10c>
/home/jeferson/optee/optee_examples/plugins/ta/plugin_ta.c:77
     154:	35000761 	cbnz	w1, 240 <__GP11_TA_InvokeCommandEntryPoint+0x114>
syslog_plugin_ping():
/home/jeferson/optee/optee_examples/plugins/ta/plugin_ta.c:49
     158:	9100e3f5 	add	x21, sp, #0x38
     15c:	f0000074 	adrp	x20, f000 <__text_end+0x2508>
     160:	91136294 	add	x20, x20, #0x4d8
     164:	d2800202 	mov	x2, #0x10                  	// #16
/home/jeferson/optee/optee_examples/plugins/ta/plugin_ta.c:48
     168:	a904ffff 	stp	xzr, xzr, [sp, #72]
/home/jeferson/optee/optee_examples/plugins/ta/plugin_ta.c:49
     16c:	aa1403e1 	mov	x1, x20
     170:	aa1503e0 	mov	x0, x21
/home/jeferson/optee/optee_examples/plugins/ta/plugin_ta.c:51
     174:	910123f3 	add	x19, sp, #0x48
/home/jeferson/optee/optee_examples/plugins/ta/plugin_ta.c:56
     178:	91004294 	add	x20, x20, #0x10
/home/jeferson/optee/optee_examples/plugins/ta/plugin_ta.c:48
     17c:	a905ffff 	stp	xzr, xzr, [sp, #88]
     180:	a906ffff 	stp	xzr, xzr, [sp, #104]
     184:	a907ffff 	stp	xzr, xzr, [sp, #120]
/home/jeferson/optee/optee_examples/plugins/ta/plugin_ta.c:49
     188:	97ffffa6 	bl	20 <memcpy>
/home/jeferson/optee/optee_examples/plugins/ta/plugin_ta.c:51
     18c:	900000a0 	adrp	x0, 14000 <data.18+0x2998>
     190:	f0000062 	adrp	x2, f000 <__text_end+0x2508>
     194:	91242042 	add	x2, x2, #0x908
     198:	b94e8003 	ldr	w3, [x0, #3712]
     19c:	11000461 	add	w1, w3, #0x1
     1a0:	b90e8001 	str	w1, [x0, #3712]
     1a4:	d2800801 	mov	x1, #0x40                  	// #64
     1a8:	aa1303e0 	mov	x0, x19
     1ac:	94000039 	bl	290 <snprintf>
/home/jeferson/optee/optee_examples/plugins/ta/plugin_ta.c:56
     1b0:	aa1303e5 	mov	x5, x19
/home/jeferson/optee/optee_examples/plugins/ta/plugin_ta.c:51
     1b4:	2a0003f6 	mov	w22, w0
/home/jeferson/optee/optee_examples/plugins/ta/plugin_ta.c:56
     1b8:	52800023 	mov	w3, #0x1                   	// #1
     1bc:	52800042 	mov	w2, #0x2                   	// #2
     1c0:	52800701 	mov	w1, #0x38                  	// #56
     1c4:	aa1403e0 	mov	x0, x20
     1c8:	f0000064 	adrp	x4, f000 <__text_end+0x2508>
     1cc:	91249084 	add	x4, x4, #0x924
     1d0:	94000498 	bl	1430 <trace_printf>
/home/jeferson/optee/optee_examples/plugins/ta/plugin_ta.c:58
     1d4:	aa1303e3 	mov	x3, x19
     1d8:	d2800005 	mov	x5, #0x0                   	// #0
     1dc:	93407ec4 	sxtw	x4, w22
     1e0:	528000c2 	mov	w2, #0x6                   	// #6
     1e4:	52800001 	mov	w1, #0x0                   	// #0
     1e8:	aa1503e0 	mov	x0, x21
     1ec:	940005ca 	bl	1914 <tee_invoke_supp_plugin>
     1f0:	2a0003f3 	mov	w19, w0
/home/jeferson/optee/optee_examples/plugins/ta/plugin_ta.c:60
     1f4:	34000120 	cbz	w0, 218 <__GP11_TA_InvokeCommandEntryPoint+0xec>
/home/jeferson/optee/optee_examples/plugins/ta/plugin_ta.c:61
     1f8:	2a0003e5 	mov	w5, w0
     1fc:	f0000064 	adrp	x4, f000 <__text_end+0x2508>
     200:	91250c84 	add	x4, x4, #0x943
     204:	52800023 	mov	w3, #0x1                   	// #1
     208:	52800022 	mov	w2, #0x1                   	// #1
     20c:	528007a1 	mov	w1, #0x3d                  	// #61
     210:	aa1403e0 	mov	x0, x20
     214:	94000487 	bl	1430 <trace_printf>
__GP11_TA_InvokeCommandEntryPoint():
/home/jeferson/optee/optee_examples/plugins/ta/plugin_ta.c:83
     218:	b0000080 	adrp	x0, 11000 <_DYNAMIC>
     21c:	f9409800 	ldr	x0, [x0, #304]
     220:	f94047e2 	ldr	x2, [sp, #136]
     224:	f9400001 	ldr	x1, [x0]
     228:	eb010042 	subs	x2, x2, x1
     22c:	d2800001 	mov	x1, #0x0                   	// #0
     230:	540000c0 	b.eq	248 <__GP11_TA_InvokeCommandEntryPoint+0x11c>  // b.none
     234:	94000062 	bl	3bc <__stack_chk_fail>
/home/jeferson/optee/optee_examples/plugins/ta/plugin_ta.c:75
     238:	129fff33 	mov	w19, #0xffff0006            	// #-65530
     23c:	17fffff7 	b	218 <__GP11_TA_InvokeCommandEntryPoint+0xec>
/home/jeferson/optee/optee_examples/plugins/ta/plugin_ta.c:81
     240:	129ffeb3 	mov	w19, #0xffff000a            	// #-65526
     244:	17fffff5 	b	218 <__GP11_TA_InvokeCommandEntryPoint+0xec>
/home/jeferson/optee/optee_examples/plugins/ta/plugin_ta.c:83
     248:	2a1303e0 	mov	w0, w19
     24c:	a94153f3 	ldp	x19, x20, [sp, #16]
     250:	a9425bf5 	ldp	x21, x22, [sp, #32]
     254:	a8c97bfd 	ldp	x29, x30, [sp], #144
     258:	d65f03c0 	ret

000000000000025c <__ta_entry>:
__ta_entry():
/home/jeferson/optee/optee_os-rpi4/out/arm-plat-rpi4/export-ta_arm64/src/user_ta_header.c:51
     25c:	a9bf7bfd 	stp	x29, x30, [sp, #-16]!
     260:	910003fd 	mov	x29, sp
/home/jeferson/optee/optee_os-rpi4/out/arm-plat-rpi4/export-ta_arm64/src/user_ta_header.c:70
     264:	940007bf 	bl	2160 <__utee_entry>
/home/jeferson/optee/optee_os-rpi4/out/arm-plat-rpi4/export-ta_arm64/src/user_ta_header.c:81
     268:	2a0003e0 	mov	w0, w0
     26c:	940005e7 	bl	1a08 <_utee_return>

0000000000000270 <tahead_get_trace_level>:
tahead_get_trace_level():
/home/jeferson/optee/optee_os-rpi4/out/arm-plat-rpi4/export-ta_arm64/src/user_ta_header.c:193
     270:	52800080 	mov	w0, #0x4                   	// #4
     274:	d65f03c0 	ret

0000000000000278 <TA_OpenSessionEntryPoint>:
TA_OpenSessionEntryPoint():
/home/jeferson/optee/optee_os-rpi4/out/arm-plat-rpi4/export-ta_arm64/src/user_ta_header.c:203
     278:	b0000083 	adrp	x3, 11000 <_DYNAMIC>
     27c:	f940cc63 	ldr	x3, [x3, #408]
     280:	1400088c 	b	24b0 <__ta_open_sess>

0000000000000284 <TA_InvokeCommandEntryPoint>:
TA_InvokeCommandEntryPoint():
/home/jeferson/optee/optee_os-rpi4/out/arm-plat-rpi4/export-ta_arm64/src/user_ta_header.c:211
     284:	b0000084 	adrp	x4, 11000 <_DYNAMIC>
     288:	f940c084 	ldr	x4, [x4, #384]
     28c:	140008b0 	b	254c <__ta_invoke_cmd>

0000000000000290 <snprintf>:
snprintf():
/home/jeferson/optee/optee_os-rpi4/lib/libutils/isoc/snprintf.c:10
     290:	a9ad7bfd 	stp	x29, x30, [sp, #-304]!
     294:	910003fd 	mov	x29, sp
     298:	a90153f3 	stp	x19, x20, [sp, #16]
     29c:	b0000093 	adrp	x19, 11000 <_DYNAMIC>
     2a0:	aa0003f4 	mov	x20, x0
     2a4:	f9409a60 	ldr	x0, [x19, #304]
     2a8:	a9025bf5 	stp	x21, x22, [sp, #32]
     2ac:	aa0103f5 	mov	x21, x1
     2b0:	3d8023e0 	str	q0, [sp, #128]
     2b4:	aa0203f6 	mov	x22, x2
/home/jeferson/optee/optee_os-rpi4/lib/libutils/isoc/snprintf.c:15
     2b8:	d2800402 	mov	x2, #0x20                  	// #32
/home/jeferson/optee/optee_os-rpi4/lib/libutils/isoc/snprintf.c:10
     2bc:	3d8027e1 	str	q1, [sp, #144]
     2c0:	3d802be2 	str	q2, [sp, #160]
     2c4:	3d802fe3 	str	q3, [sp, #176]
     2c8:	3d8033e4 	str	q4, [sp, #192]
     2cc:	3d8037e5 	str	q5, [sp, #208]
     2d0:	3d803be6 	str	q6, [sp, #224]
     2d4:	3d803fe7 	str	q7, [sp, #240]
     2d8:	a91093e3 	stp	x3, x4, [sp, #264]
/home/jeferson/optee/optee_os-rpi4/lib/libutils/isoc/snprintf.c:15
     2dc:	9100c3e3 	add	x3, sp, #0x30
/home/jeferson/optee/optee_os-rpi4/lib/libutils/isoc/snprintf.c:10
     2e0:	a9119be5 	stp	x5, x6, [sp, #280]
     2e4:	f90097e7 	str	x7, [sp, #296]
     2e8:	f9400001 	ldr	x1, [x0]
     2ec:	f9003fe1 	str	x1, [sp, #120]
     2f0:	d2800001 	mov	x1, #0x0                   	// #0
/home/jeferson/optee/optee_os-rpi4/lib/libutils/isoc/snprintf.c:14
     2f4:	9104c3e0 	add	x0, sp, #0x130
     2f8:	a90583e0 	stp	x0, x0, [sp, #88]
     2fc:	910403e0 	add	x0, sp, #0x100
/home/jeferson/optee/optee_os-rpi4/lib/libutils/isoc/snprintf.c:15
     300:	910163e1 	add	x1, sp, #0x58
/home/jeferson/optee/optee_os-rpi4/lib/libutils/isoc/snprintf.c:14
     304:	f90037e0 	str	x0, [sp, #104]
     308:	128004e0 	mov	w0, #0xffffffd8            	// #-40
     30c:	b90073e0 	str	w0, [sp, #112]
     310:	12800fe0 	mov	w0, #0xffffff80            	// #-128
     314:	b90077e0 	str	w0, [sp, #116]
/home/jeferson/optee/optee_os-rpi4/lib/libutils/isoc/snprintf.c:15
     318:	aa0303e0 	mov	x0, x3
     31c:	97ffff41 	bl	20 <memcpy>
     320:	aa0003e3 	mov	x3, x0
     324:	aa1603e2 	mov	x2, x22
     328:	aa1503e1 	mov	x1, x21
     32c:	aa1403e0 	mov	x0, x20
     330:	52800004 	mov	w4, #0x0                   	// #0
     334:	9400002e 	bl	3ec <__vsnprintf>
/home/jeferson/optee/optee_os-rpi4/lib/libutils/isoc/snprintf.c:19
     338:	f9409a73 	ldr	x19, [x19, #304]
     33c:	f9403fe1 	ldr	x1, [sp, #120]
     340:	f9400262 	ldr	x2, [x19]
     344:	eb020021 	subs	x1, x1, x2
     348:	d2800002 	mov	x2, #0x0                   	// #0
     34c:	54000040 	b.eq	354 <snprintf+0xc4>  // b.none
     350:	9400001b 	bl	3bc <__stack_chk_fail>
     354:	a94153f3 	ldp	x19, x20, [sp, #16]
     358:	a9425bf5 	ldp	x21, x22, [sp, #32]
     35c:	a8d37bfd 	ldp	x29, x30, [sp], #304
     360:	d65f03c0 	ret

0000000000000364 <vsnprintf>:
vsnprintf():
/home/jeferson/optee/optee_os-rpi4/lib/libutils/isoc/snprintf.c:22
     364:	a9bb7bfd 	stp	x29, x30, [sp, #-80]!
/home/jeferson/optee/optee_os-rpi4/lib/libutils/isoc/snprintf.c:23
     368:	9100c3e4 	add	x4, sp, #0x30
/home/jeferson/optee/optee_os-rpi4/lib/libutils/isoc/snprintf.c:22
     36c:	910003fd 	mov	x29, sp
     370:	a90153f3 	stp	x19, x20, [sp, #16]
     374:	aa0003f3 	mov	x19, x0
     378:	aa0103f4 	mov	x20, x1
/home/jeferson/optee/optee_os-rpi4/lib/libutils/isoc/snprintf.c:23
     37c:	aa0403e0 	mov	x0, x4
/home/jeferson/optee/optee_os-rpi4/lib/libutils/isoc/snprintf.c:22
     380:	aa0303e1 	mov	x1, x3
     384:	f90013f5 	str	x21, [sp, #32]
     388:	aa0203f5 	mov	x21, x2
/home/jeferson/optee/optee_os-rpi4/lib/libutils/isoc/snprintf.c:23
     38c:	d2800402 	mov	x2, #0x20                  	// #32
     390:	97ffff24 	bl	20 <memcpy>
     394:	aa1503e2 	mov	x2, x21
     398:	aa0003e3 	mov	x3, x0
     39c:	aa1403e1 	mov	x1, x20
     3a0:	aa1303e0 	mov	x0, x19
     3a4:	52800004 	mov	w4, #0x0                   	// #0
     3a8:	94000011 	bl	3ec <__vsnprintf>
/home/jeferson/optee/optee_os-rpi4/lib/libutils/isoc/snprintf.c:24
     3ac:	a94153f3 	ldp	x19, x20, [sp, #16]
     3b0:	f94013f5 	ldr	x21, [sp, #32]
     3b4:	a8c57bfd 	ldp	x29, x30, [sp], #80
     3b8:	d65f03c0 	ret

00000000000003bc <__stack_chk_fail>:
__stack_chk_fail():
/home/jeferson/optee/optee_os-rpi4/lib/libutils/isoc/stack_check.c:24
     3bc:	a9bf7bfd 	stp	x29, x30, [sp, #-16]!
/home/jeferson/optee/optee_os-rpi4/lib/libutils/isoc/stack_check.c:25
     3c0:	f0000064 	adrp	x4, f000 <__text_end+0x2508>
     3c4:	52800023 	mov	w3, #0x1                   	// #1
/home/jeferson/optee/optee_os-rpi4/lib/libutils/isoc/stack_check.c:24
     3c8:	910003fd 	mov	x29, sp
/home/jeferson/optee/optee_os-rpi4/lib/libutils/isoc/stack_check.c:25
     3cc:	9129b084 	add	x4, x4, #0xa6c
     3d0:	52800022 	mov	w2, #0x1                   	// #1
     3d4:	52800001 	mov	w1, #0x0                   	// #0
     3d8:	d2800000 	mov	x0, #0x0                   	// #0
     3dc:	94000415 	bl	1430 <trace_printf>
/home/jeferson/optee/optee_os-rpi4/lib/libutils/isoc/stack_check.c:27 (discriminator 1)
     3e0:	1299fe00 	mov	w0, #0xffff300f            	// #-53233
     3e4:	94000586 	bl	19fc <_utee_panic>
/home/jeferson/optee/optee_os-rpi4/lib/libutils/isoc/stack_check.c:26 (discriminator 1)
     3e8:	17fffffe 	b	3e0 <__stack_chk_fail+0x24>

00000000000003ec <__vsnprintf>:
__vsnprintf():
/home/jeferson/optee/optee_os-rpi4/lib/libutils/ext/snprintk.c:138
     3ec:	a9b97bfd 	stp	x29, x30, [sp, #-112]!
     3f0:	b0000085 	adrp	x5, 11000 <_DYNAMIC>
     3f4:	910003fd 	mov	x29, sp
     3f8:	f94098a5 	ldr	x5, [x5, #304]
     3fc:	a90153f3 	stp	x19, x20, [sp, #16]
     400:	aa0103f4 	mov	x20, x1
     404:	a9025bf5 	stp	x21, x22, [sp, #32]
     408:	aa0003f3 	mov	x19, x0
/home/jeferson/optee/optee_os-rpi4/lib/libutils/ext/snprintk.c:142
     40c:	8b140016 	add	x22, x0, x20
/home/jeferson/optee/optee_os-rpi4/lib/libutils/ext/snprintk.c:138
     410:	f9001bf7 	str	x23, [sp, #48]
     414:	aa0303e1 	mov	x1, x3
     418:	aa0203f5 	mov	x21, x2
     41c:	12001c97 	and	w23, w4, #0xff
     420:	f94000a0 	ldr	x0, [x5]
     424:	f90037e0 	str	x0, [sp, #104]
     428:	d2800000 	mov	x0, #0x0                   	// #0
/home/jeferson/optee/optee_os-rpi4/lib/libutils/ext/snprintk.c:143
     42c:	910103e5 	add	x5, sp, #0x40
     430:	aa0503e0 	mov	x0, x5
     434:	d2800402 	mov	x2, #0x20                  	// #32
/home/jeferson/optee/optee_os-rpi4/lib/libutils/ext/snprintk.c:142
     438:	f90033f6 	str	x22, [sp, #96]
/home/jeferson/optee/optee_os-rpi4/lib/libutils/ext/snprintk.c:143
     43c:	97fffef9 	bl	20 <memcpy>
     440:	aa0003e3 	mov	x3, x0
     444:	2a1703e4 	mov	w4, w23
     448:	aa1303e2 	mov	x2, x19
     44c:	910183e1 	add	x1, sp, #0x60
     450:	aa1503e0 	mov	x0, x21
     454:	94000061 	bl	5d8 <kprintf.constprop.0>
/home/jeferson/optee/optee_os-rpi4/lib/libutils/ext/snprintk.c:144
     458:	f100027f 	cmp	x19, #0x0
     45c:	fa401a84 	ccmp	x20, #0x0, #0x4, ne  // ne = any
     460:	540000a0 	b.eq	474 <__vsnprintf+0x88>  // b.none
/home/jeferson/optee/optee_os-rpi4/lib/libutils/ext/snprintk.c:146
     464:	93407c01 	sxtw	x1, w0
     468:	eb20c29f 	cmp	x20, w0, sxtw
     46c:	54000148 	b.hi	494 <__vsnprintf+0xa8>  // b.pmore
/home/jeferson/optee/optee_os-rpi4/lib/libutils/ext/snprintk.c:147
     470:	381ff2df 	sturb	wzr, [x22, #-1]
/home/jeferson/optee/optee_os-rpi4/lib/libutils/ext/snprintk.c:152
     474:	b0000085 	adrp	x5, 11000 <_DYNAMIC>
     478:	f94098a5 	ldr	x5, [x5, #304]
     47c:	f94037e1 	ldr	x1, [sp, #104]
     480:	f94000a2 	ldr	x2, [x5]
     484:	eb020021 	subs	x1, x1, x2
     488:	d2800002 	mov	x2, #0x0                   	// #0
     48c:	54000080 	b.eq	49c <__vsnprintf+0xb0>  // b.none
     490:	97ffffcb 	bl	3bc <__stack_chk_fail>
/home/jeferson/optee/optee_os-rpi4/lib/libutils/ext/snprintk.c:149
     494:	38216a7f 	strb	wzr, [x19, x1]
/home/jeferson/optee/optee_os-rpi4/lib/libutils/ext/snprintk.c:151
     498:	17fffff7 	b	474 <__vsnprintf+0x88>
/home/jeferson/optee/optee_os-rpi4/lib/libutils/ext/snprintk.c:152
     49c:	a94153f3 	ldp	x19, x20, [sp, #16]
     4a0:	a9425bf5 	ldp	x21, x22, [sp, #32]
     4a4:	f9401bf7 	ldr	x23, [sp, #48]
     4a8:	a8c77bfd 	ldp	x29, x30, [sp], #112
     4ac:	d65f03c0 	ret

00000000000004b0 <vsnprintk>:
vsnprintk():
/home/jeferson/optee/optee_os-rpi4/lib/libutils/ext/snprintk.c:130
     4b0:	a9bb7bfd 	stp	x29, x30, [sp, #-80]!
/home/jeferson/optee/optee_os-rpi4/lib/libutils/ext/snprintk.c:131
     4b4:	9100c3e4 	add	x4, sp, #0x30
/home/jeferson/optee/optee_os-rpi4/lib/libutils/ext/snprintk.c:130
     4b8:	910003fd 	mov	x29, sp
     4bc:	a90153f3 	stp	x19, x20, [sp, #16]
     4c0:	aa0003f3 	mov	x19, x0
     4c4:	aa0103f4 	mov	x20, x1
/home/jeferson/optee/optee_os-rpi4/lib/libutils/ext/snprintk.c:131
     4c8:	aa0403e0 	mov	x0, x4
/home/jeferson/optee/optee_os-rpi4/lib/libutils/ext/snprintk.c:130
     4cc:	aa0303e1 	mov	x1, x3
     4d0:	f90013f5 	str	x21, [sp, #32]
     4d4:	aa0203f5 	mov	x21, x2
/home/jeferson/optee/optee_os-rpi4/lib/libutils/ext/snprintk.c:131
     4d8:	d2800402 	mov	x2, #0x20                  	// #32
     4dc:	97fffed1 	bl	20 <memcpy>
     4e0:	aa1503e2 	mov	x2, x21
     4e4:	aa0003e3 	mov	x3, x0
     4e8:	aa1403e1 	mov	x1, x20
     4ec:	aa1303e0 	mov	x0, x19
     4f0:	52800024 	mov	w4, #0x1                   	// #1
     4f4:	97ffffbe 	bl	3ec <__vsnprintf>
/home/jeferson/optee/optee_os-rpi4/lib/libutils/ext/snprintk.c:132
     4f8:	a94153f3 	ldp	x19, x20, [sp, #16]
     4fc:	f94013f5 	ldr	x21, [sp, #32]
     500:	a8c57bfd 	ldp	x29, x30, [sp], #80
     504:	d65f03c0 	ret

0000000000000508 <snprintk>:
snprintk():
/home/jeferson/optee/optee_os-rpi4/lib/libutils/ext/snprintk.c:113
     508:	a9ad7bfd 	stp	x29, x30, [sp, #-304]!
     50c:	910003fd 	mov	x29, sp
     510:	a90153f3 	stp	x19, x20, [sp, #16]
     514:	b0000093 	adrp	x19, 11000 <_DYNAMIC>
     518:	aa0003f4 	mov	x20, x0
     51c:	f9409a60 	ldr	x0, [x19, #304]
     520:	a9025bf5 	stp	x21, x22, [sp, #32]
     524:	aa0103f5 	mov	x21, x1
     528:	3d8023e0 	str	q0, [sp, #128]
     52c:	aa0203f6 	mov	x22, x2
/home/jeferson/optee/optee_os-rpi4/lib/libutils/ext/snprintk.c:118
     530:	d2800402 	mov	x2, #0x20                  	// #32
/home/jeferson/optee/optee_os-rpi4/lib/libutils/ext/snprintk.c:113
     534:	3d8027e1 	str	q1, [sp, #144]
     538:	3d802be2 	str	q2, [sp, #160]
     53c:	3d802fe3 	str	q3, [sp, #176]
     540:	3d8033e4 	str	q4, [sp, #192]
     544:	3d8037e5 	str	q5, [sp, #208]
     548:	3d803be6 	str	q6, [sp, #224]
     54c:	3d803fe7 	str	q7, [sp, #240]
     550:	a91093e3 	stp	x3, x4, [sp, #264]
/home/jeferson/optee/optee_os-rpi4/lib/libutils/ext/snprintk.c:118
     554:	9100c3e3 	add	x3, sp, #0x30
/home/jeferson/optee/optee_os-rpi4/lib/libutils/ext/snprintk.c:113
     558:	a9119be5 	stp	x5, x6, [sp, #280]
     55c:	f90097e7 	str	x7, [sp, #296]
     560:	f9400001 	ldr	x1, [x0]
     564:	f9003fe1 	str	x1, [sp, #120]
     568:	d2800001 	mov	x1, #0x0                   	// #0
/home/jeferson/optee/optee_os-rpi4/lib/libutils/ext/snprintk.c:117
     56c:	9104c3e0 	add	x0, sp, #0x130
     570:	a90583e0 	stp	x0, x0, [sp, #88]
     574:	910403e0 	add	x0, sp, #0x100
/home/jeferson/optee/optee_os-rpi4/lib/libutils/ext/snprintk.c:118
     578:	910163e1 	add	x1, sp, #0x58
/home/jeferson/optee/optee_os-rpi4/lib/libutils/ext/snprintk.c:117
     57c:	f90037e0 	str	x0, [sp, #104]
     580:	128004e0 	mov	w0, #0xffffffd8            	// #-40
     584:	b90073e0 	str	w0, [sp, #112]
     588:	12800fe0 	mov	w0, #0xffffff80            	// #-128
     58c:	b90077e0 	str	w0, [sp, #116]
/home/jeferson/optee/optee_os-rpi4/lib/libutils/ext/snprintk.c:118
     590:	aa0303e0 	mov	x0, x3
     594:	97fffea3 	bl	20 <memcpy>
     598:	aa0003e3 	mov	x3, x0
     59c:	aa1603e2 	mov	x2, x22
     5a0:	aa1503e1 	mov	x1, x21
     5a4:	aa1403e0 	mov	x0, x20
     5a8:	97ffffc2 	bl	4b0 <vsnprintk>
/home/jeferson/optee/optee_os-rpi4/lib/libutils/ext/snprintk.c:122
     5ac:	f9409a73 	ldr	x19, [x19, #304]
     5b0:	f9403fe1 	ldr	x1, [sp, #120]
     5b4:	f9400262 	ldr	x2, [x19]
     5b8:	eb020021 	subs	x1, x1, x2
     5bc:	d2800002 	mov	x2, #0x0                   	// #0
     5c0:	54000040 	b.eq	5c8 <snprintk+0xc0>  // b.none
     5c4:	97ffff7e 	bl	3bc <__stack_chk_fail>
     5c8:	a94153f3 	ldp	x19, x20, [sp, #16]
     5cc:	a9425bf5 	ldp	x21, x22, [sp, #32]
     5d0:	a8d37bfd 	ldp	x29, x30, [sp], #304
     5d4:	d65f03c0 	ret

00000000000005d8 <kprintf.constprop.0>:
kprintf():
/home/jeferson/optee/optee_os-rpi4/lib/libutils/ext/snprintk.c:242
     5d8:	d103c3ff 	sub	sp, sp, #0xf0
     5dc:	aa0103e9 	mov	x9, x1
     5e0:	a9037bfd 	stp	x29, x30, [sp, #48]
     5e4:	9100c3fd 	add	x29, sp, #0x30
     5e8:	a90873fb 	stp	x27, x28, [sp, #128]
     5ec:	aa0003fc 	mov	x28, x0
     5f0:	12001c80 	and	w0, w4, #0xff
     5f4:	b900abe0 	str	w0, [sp, #168]
     5f8:	b0000080 	adrp	x0, 11000 <_DYNAMIC>
     5fc:	a90453f3 	stp	x19, x20, [sp, #64]
     600:	b9401874 	ldr	w20, [x3, #24]
     604:	f9409800 	ldr	x0, [x0, #304]
     608:	a9055bf5 	stp	x21, x22, [sp, #80]
     60c:	aa0203f6 	mov	x22, x2
     610:	a90663f7 	stp	x23, x24, [sp, #96]
     614:	a9076bf9 	stp	x25, x26, [sp, #112]
     618:	f9400001 	ldr	x1, [x0]
     61c:	f90077e1 	str	x1, [sp, #232]
     620:	d2800001 	mov	x1, #0x0                   	// #0
     624:	a9406c73 	ldp	x19, x27, [x3]
/home/jeferson/optee/optee_os-rpi4/lib/libutils/ext/snprintk.c:264
     628:	b4000489 	cbz	x9, 6b8 <kprintf.constprop.0+0xe0>
/home/jeferson/optee/optee_os-rpi4/lib/libutils/ext/snprintk.c:265
     62c:	f9400139 	ldr	x25, [x9]
/home/jeferson/optee/optee_os-rpi4/lib/libutils/ext/snprintk.c:297
     630:	f0000078 	adrp	x24, f000 <__text_end+0x2508>
/home/jeferson/optee/optee_os-rpi4/lib/libutils/ext/snprintk.c:275
     634:	d2800017 	mov	x23, #0x0                   	// #0
/home/jeferson/optee/optee_os-rpi4/lib/libutils/ext/snprintk.c:297
     638:	9113f300 	add	x0, x24, #0x4fc
/home/jeferson/optee/optee_os-rpi4/lib/libutils/ext/snprintk.c:273
     63c:	5280001a 	mov	w26, #0x0                   	// #0
/home/jeferson/optee/optee_os-rpi4/lib/libutils/ext/snprintk.c:297
     640:	f9004fe0 	str	x0, [sp, #152]
/home/jeferson/optee/optee_os-rpi4/lib/libutils/ext/snprintk.c:281
     644:	39400380 	ldrb	w0, [x28]
     648:	7100941f 	cmp	w0, #0x25
     64c:	7a401804 	ccmp	w0, #0x0, #0x4, ne  // ne = any
     650:	54000381 	b.ne	6c0 <kprintf.constprop.0+0xe8>  // b.any
/home/jeferson/optee/optee_os-rpi4/lib/libutils/ext/snprintk.c:285
     654:	340051a0 	cbz	w0, 1088 <kprintf.constprop.0+0xab0>
/home/jeferson/optee/optee_os-rpi4/lib/libutils/ext/snprintk.c:293
     658:	12800005 	mov	w5, #0xffffffff            	// #-1
/home/jeferson/optee/optee_os-rpi4/lib/libutils/ext/snprintk.c:297
     65c:	f0000062 	adrp	x2, f000 <__text_end+0x2508>
/home/jeferson/optee/optee_os-rpi4/lib/libutils/ext/snprintk.c:288
     660:	9100079c 	add	x28, x28, #0x1
     664:	2a1403e4 	mov	w4, w20
     668:	aa1303e3 	mov	x3, x19
/home/jeferson/optee/optee_os-rpi4/lib/libutils/ext/snprintk.c:297
     66c:	91146042 	add	x2, x2, #0x518
/home/jeferson/optee/optee_os-rpi4/lib/libutils/ext/snprintk.c:330
     670:	2a0503e7 	mov	w7, w5
/home/jeferson/optee/optee_os-rpi4/lib/libutils/ext/snprintk.c:294
     674:	52800001 	mov	w1, #0x0                   	// #0
/home/jeferson/optee/optee_os-rpi4/lib/libutils/ext/snprintk.c:292
     678:	5280000b 	mov	w11, #0x0                   	// #0
/home/jeferson/optee/optee_os-rpi4/lib/libutils/ext/snprintk.c:290
     67c:	52800015 	mov	w21, #0x0                   	// #0
/home/jeferson/optee/optee_os-rpi4/lib/libutils/ext/snprintk.c:305
     680:	5280040d 	mov	w13, #0x20                  	// #32
/home/jeferson/optee/optee_os-rpi4/lib/libutils/ext/snprintk.c:296
     684:	38401798 	ldrb	w24, [x28], #1
/home/jeferson/optee/optee_os-rpi4/lib/libutils/ext/snprintk.c:297
     688:	7100e71f 	cmp	w24, #0x39
     68c:	5400036c 	b.gt	6f8 <kprintf.constprop.0+0x120>
     690:	71007f1f 	cmp	w24, #0x1f
     694:	54004f8d 	b.le	1084 <kprintf.constprop.0+0xaac>
     698:	51008300 	sub	w0, w24, #0x20
     69c:	7100641f 	cmp	w0, #0x19
     6a0:	54000328 	b.hi	704 <kprintf.constprop.0+0x12c>  // b.pmore
     6a4:	f9404fe6 	ldr	x6, [sp, #152]
     6a8:	386048c0 	ldrb	w0, [x6, w0, uxtw]
     6ac:	10000066 	adr	x6, 6b8 <kprintf.constprop.0+0xe0>
     6b0:	8b2088c0 	add	x0, x6, w0, sxtb #2
     6b4:	d61f0000 	br	x0
/home/jeferson/optee/optee_os-rpi4/lib/libutils/ext/snprintk.c:267
     6b8:	d2800019 	mov	x25, #0x0                   	// #0
     6bc:	17ffffdd 	b	630 <kprintf.constprop.0+0x58>
/home/jeferson/optee/optee_os-rpi4/lib/libutils/ext/snprintk.c:282
     6c0:	1100075a 	add	w26, w26, #0x1
/home/jeferson/optee/optee_os-rpi4/lib/libutils/ext/snprintk.c:283
     6c4:	b40000b6 	cbz	x22, 6d8 <kprintf.constprop.0+0x100>
     6c8:	f100013f 	cmp	x9, #0x0
     6cc:	fa5912c0 	ccmp	x22, x25, #0x0, ne  // ne = any
     6d0:	54000042 	b.cs	6d8 <kprintf.constprop.0+0x100>  // b.hs, b.nlast
     6d4:	380016c0 	strb	w0, [x22], #1
/home/jeferson/optee/optee_os-rpi4/lib/libutils/ext/snprintk.c:281
     6d8:	9100079c 	add	x28, x28, #0x1
     6dc:	17ffffda 	b	644 <kprintf.constprop.0+0x6c>
/home/jeferson/optee/optee_os-rpi4/lib/libutils/ext/snprintk.c:297
     6e0:	52800561 	mov	w1, #0x2b                  	// #43
     6e4:	17ffffe8 	b	684 <kprintf.constprop.0+0xac>
     6e8:	78605840 	ldrh	w0, [x2, w0, uxtw #1]
     6ec:	10000066 	adr	x6, 6f8 <kprintf.constprop.0+0x120>
     6f0:	8b20a8c0 	add	x0, x6, w0, sxth #2
     6f4:	d61f0000 	br	x0
     6f8:	51011300 	sub	w0, w24, #0x44
     6fc:	7100d81f 	cmp	w0, #0x36
     700:	54ffff49 	b.ls	6e8 <kprintf.constprop.0+0x110>  // b.plast
/home/jeferson/optee/optee_os-rpi4/lib/libutils/ext/snprintk.c:554
     704:	2a0403f4 	mov	w20, w4
     708:	aa0303f3 	mov	x19, x3
/home/jeferson/optee/optee_os-rpi4/lib/libutils/ext/snprintk.c:551
     70c:	390303f8 	strb	w24, [sp, #192]
/home/jeferson/optee/optee_os-rpi4/lib/libutils/ext/snprintk.c:554
     710:	1400005a 	b	878 <kprintf.constprop.0+0x2a0>
/home/jeferson/optee/optee_os-rpi4/lib/libutils/ext/snprintk.c:305
     714:	7100003f 	cmp	w1, #0x0
     718:	1a8d1021 	csel	w1, w1, w13, ne  // ne = any
     71c:	17ffffda 	b	684 <kprintf.constprop.0+0xac>
/home/jeferson/optee/optee_os-rpi4/lib/libutils/ext/snprintk.c:308
     720:	320002b5 	orr	w21, w21, #0x1
/home/jeferson/optee/optee_os-rpi4/lib/libutils/ext/snprintk.c:309
     724:	17ffffd8 	b	684 <kprintf.constprop.0+0xac>
/home/jeferson/optee/optee_os-rpi4/lib/libutils/ext/snprintk.c:317
     728:	37f80124 	tbnz	w4, #31, 74c <kprintf.constprop.0+0x174>
     72c:	91002c66 	add	x6, x3, #0xb
     730:	aa0303e0 	mov	x0, x3
     734:	927df0c3 	and	x3, x6, #0xfffffffffffffff8
     738:	b940000b 	ldr	w11, [x0]
     73c:	36fffa4b 	tbz	w11, #31, 684 <kprintf.constprop.0+0xac>
/home/jeferson/optee/optee_os-rpi4/lib/libutils/ext/snprintk.c:319
     740:	4b0b03eb 	neg	w11, w11
/home/jeferson/optee/optee_os-rpi4/lib/libutils/ext/snprintk.c:322
     744:	321e02b5 	orr	w21, w21, #0x4
/home/jeferson/optee/optee_os-rpi4/lib/libutils/ext/snprintk.c:323
     748:	17ffffcf 	b	684 <kprintf.constprop.0+0xac>
/home/jeferson/optee/optee_os-rpi4/lib/libutils/ext/snprintk.c:317
     74c:	11002086 	add	w6, w4, #0x8
     750:	710000df 	cmp	w6, #0x0
     754:	540000cd 	b.le	76c <kprintf.constprop.0+0x194>
     758:	91002c68 	add	x8, x3, #0xb
     75c:	aa0303e0 	mov	x0, x3
     760:	2a0603e4 	mov	w4, w6
     764:	927df103 	and	x3, x8, #0xfffffffffffffff8
     768:	17fffff4 	b	738 <kprintf.constprop.0+0x160>
     76c:	8b24c360 	add	x0, x27, w4, sxtw
     770:	2a0603e4 	mov	w4, w6
     774:	17fffff1 	b	738 <kprintf.constprop.0+0x160>
/home/jeferson/optee/optee_os-rpi4/lib/libutils/ext/snprintk.c:328
     778:	38401798 	ldrb	w24, [x28], #1
     77c:	7100ab1f 	cmp	w24, #0x2a
     780:	54000361 	b.ne	7ec <kprintf.constprop.0+0x214>  // b.any
/home/jeferson/optee/optee_os-rpi4/lib/libutils/ext/snprintk.c:329
     784:	37f80144 	tbnz	w4, #31, 7ac <kprintf.constprop.0+0x1d4>
     788:	91002c60 	add	x0, x3, #0xb
     78c:	2a0403e6 	mov	w6, w4
     790:	927df000 	and	x0, x0, #0xfffffffffffffff8
/home/jeferson/optee/optee_os-rpi4/lib/libutils/ext/snprintk.c:330
     794:	b9400065 	ldr	w5, [x3]
/home/jeferson/optee/optee_os-rpi4/lib/libutils/ext/snprintk.c:331
     798:	2a0603e4 	mov	w4, w6
     79c:	aa0003e3 	mov	x3, x0
/home/jeferson/optee/optee_os-rpi4/lib/libutils/ext/snprintk.c:330
     7a0:	710000bf 	cmp	w5, #0x0
     7a4:	1a87a0a5 	csel	w5, w5, w7, ge  // ge = tcont
/home/jeferson/optee/optee_os-rpi4/lib/libutils/ext/snprintk.c:331
     7a8:	17ffffb7 	b	684 <kprintf.constprop.0+0xac>
/home/jeferson/optee/optee_os-rpi4/lib/libutils/ext/snprintk.c:329
     7ac:	11002086 	add	w6, w4, #0x8
     7b0:	710000df 	cmp	w6, #0x0
     7b4:	5400008d 	b.le	7c4 <kprintf.constprop.0+0x1ec>
     7b8:	91002c60 	add	x0, x3, #0xb
     7bc:	927df000 	and	x0, x0, #0xfffffffffffffff8
     7c0:	17fffff5 	b	794 <kprintf.constprop.0+0x1bc>
     7c4:	aa0303e0 	mov	x0, x3
     7c8:	8b24c363 	add	x3, x27, w4, sxtw
     7cc:	17fffff2 	b	794 <kprintf.constprop.0+0x1bc>
/home/jeferson/optee/optee_os-rpi4/lib/libutils/ext/snprintk.c:335
     7d0:	52800146 	mov	w6, #0xa                   	// #10
/home/jeferson/optee/optee_os-rpi4/lib/libutils/ext/snprintk.c:336
     7d4:	38401798 	ldrb	w24, [x28], #1
/home/jeferson/optee/optee_os-rpi4/lib/libutils/ext/snprintk.c:335
     7d8:	1b0600a5 	madd	w5, w5, w6, w0
/home/jeferson/optee/optee_os-rpi4/lib/libutils/ext/snprintk.c:334
     7dc:	5100c300 	sub	w0, w24, #0x30
     7e0:	7100241f 	cmp	w0, #0x9
     7e4:	54ffff69 	b.ls	7d0 <kprintf.constprop.0+0x1f8>  // b.plast
     7e8:	17ffffa8 	b	688 <kprintf.constprop.0+0xb0>
/home/jeferson/optee/optee_os-rpi4/lib/libutils/ext/snprintk.c:333
     7ec:	52800005 	mov	w5, #0x0                   	// #0
     7f0:	17fffffb 	b	7dc <kprintf.constprop.0+0x204>
/home/jeferson/optee/optee_os-rpi4/lib/libutils/ext/snprintk.c:346
     7f4:	321602b5 	orr	w21, w21, #0x400
/home/jeferson/optee/optee_os-rpi4/lib/libutils/ext/snprintk.c:347
     7f8:	17ffffa3 	b	684 <kprintf.constprop.0+0xac>
/home/jeferson/optee/optee_os-rpi4/lib/libutils/ext/snprintk.c:297
     7fc:	5280000b 	mov	w11, #0x0                   	// #0
/home/jeferson/optee/optee_os-rpi4/lib/libutils/ext/snprintk.c:352
     800:	5100c308 	sub	w8, w24, #0x30
     804:	52800140 	mov	w0, #0xa                   	// #10
/home/jeferson/optee/optee_os-rpi4/lib/libutils/ext/snprintk.c:353
     808:	38401798 	ldrb	w24, [x28], #1
/home/jeferson/optee/optee_os-rpi4/lib/libutils/ext/snprintk.c:352
     80c:	1b00216b 	madd	w11, w11, w0, w8
/home/jeferson/optee/optee_os-rpi4/lib/libutils/ext/snprintk.c:354
     810:	5100c300 	sub	w0, w24, #0x30
     814:	7100241f 	cmp	w0, #0x9
     818:	54ffff49 	b.ls	800 <kprintf.constprop.0+0x228>  // b.plast
     81c:	17ffff9b 	b	688 <kprintf.constprop.0+0xb0>
/home/jeferson/optee/optee_os-rpi4/lib/libutils/ext/snprintk.c:358
     820:	321a02b5 	orr	w21, w21, #0x40
/home/jeferson/optee/optee_os-rpi4/lib/libutils/ext/snprintk.c:359
     824:	17ffff98 	b	684 <kprintf.constprop.0+0xac>
/home/jeferson/optee/optee_os-rpi4/lib/libutils/ext/snprintk.c:361
     828:	321902b5 	orr	w21, w21, #0x80
/home/jeferson/optee/optee_os-rpi4/lib/libutils/ext/snprintk.c:362
     82c:	17ffff96 	b	684 <kprintf.constprop.0+0xac>
/home/jeferson/optee/optee_os-rpi4/lib/libutils/ext/snprintk.c:364
     830:	39400380 	ldrb	w0, [x28]
     834:	7101b01f 	cmp	w0, #0x6c
     838:	54000081 	b.ne	848 <kprintf.constprop.0+0x270>  // b.any
/home/jeferson/optee/optee_os-rpi4/lib/libutils/ext/snprintk.c:328
     83c:	9100079c 	add	x28, x28, #0x1
/home/jeferson/optee/optee_os-rpi4/lib/libutils/ext/snprintk.c:372
     840:	321b02b5 	orr	w21, w21, #0x20
/home/jeferson/optee/optee_os-rpi4/lib/libutils/ext/snprintk.c:373
     844:	17ffff90 	b	684 <kprintf.constprop.0+0xac>
/home/jeferson/optee/optee_os-rpi4/lib/libutils/ext/snprintk.c:368
     848:	321c02b5 	orr	w21, w21, #0x10
     84c:	17ffff8e 	b	684 <kprintf.constprop.0+0xac>
/home/jeferson/optee/optee_os-rpi4/lib/libutils/ext/snprintk.c:375
     850:	321802b5 	orr	w21, w21, #0x100
/home/jeferson/optee/optee_os-rpi4/lib/libutils/ext/snprintk.c:376
     854:	17ffff8c 	b	684 <kprintf.constprop.0+0xac>
/home/jeferson/optee/optee_os-rpi4/lib/libutils/ext/snprintk.c:378
     858:	321702b5 	orr	w21, w21, #0x200
/home/jeferson/optee/optee_os-rpi4/lib/libutils/ext/snprintk.c:379
     85c:	17ffff8a 	b	684 <kprintf.constprop.0+0xac>
/home/jeferson/optee/optee_os-rpi4/lib/libutils/ext/snprintk.c:381
     860:	37f80164 	tbnz	w4, #31, 88c <kprintf.constprop.0+0x2b4>
     864:	91002c73 	add	x19, x3, #0xb
     868:	2a0403f4 	mov	w20, w4
     86c:	927df273 	and	x19, x19, #0xfffffffffffffff8
     870:	b9400060 	ldr	w0, [x3]
     874:	390303e0 	strb	w0, [sp, #192]
/home/jeferson/optee/optee_os-rpi4/lib/libutils/ext/snprintk.c:550
     878:	910303ed 	add	x13, sp, #0xc0
/home/jeferson/optee/optee_os-rpi4/lib/libutils/ext/snprintk.c:552
     87c:	52800025 	mov	w5, #0x1                   	// #1
/home/jeferson/optee/optee_os-rpi4/lib/libutils/ext/snprintk.c:291
     880:	52800002 	mov	w2, #0x0                   	// #0
/home/jeferson/optee/optee_os-rpi4/lib/libutils/ext/snprintk.c:553
     884:	52800001 	mov	w1, #0x0                   	// #0
/home/jeferson/optee/optee_os-rpi4/lib/libutils/ext/snprintk.c:554
     888:	140000fa 	b	c70 <kprintf.constprop.0+0x698>
/home/jeferson/optee/optee_os-rpi4/lib/libutils/ext/snprintk.c:381
     88c:	11002094 	add	w20, w4, #0x8
     890:	7100029f 	cmp	w20, #0x0
     894:	5400008d 	b.le	8a4 <kprintf.constprop.0+0x2cc>
     898:	91002c73 	add	x19, x3, #0xb
     89c:	927df273 	and	x19, x19, #0xfffffffffffffff8
     8a0:	17fffff4 	b	870 <kprintf.constprop.0+0x298>
     8a4:	aa0303f3 	mov	x19, x3
     8a8:	8b24c363 	add	x3, x27, w4, sxtw
     8ac:	17fffff1 	b	870 <kprintf.constprop.0+0x298>
/home/jeferson/optee/optee_os-rpi4/lib/libutils/ext/snprintk.c:386
     8b0:	321c02b5 	orr	w21, w21, #0x10
/home/jeferson/optee/optee_os-rpi4/lib/libutils/ext/snprintk.c:390
     8b4:	363802f5 	tbz	w21, #7, 910 <kprintf.constprop.0+0x338>
     8b8:	37f80424 	tbnz	w4, #31, 93c <kprintf.constprop.0+0x364>
     8bc:	91003c73 	add	x19, x3, #0xf
     8c0:	2a0403f4 	mov	w20, w4
     8c4:	927df273 	and	x19, x19, #0xfffffffffffffff8
     8c8:	f9400062 	ldr	x2, [x3]
/home/jeferson/optee/optee_os-rpi4/lib/libutils/ext/snprintk.c:391
     8cc:	b6f82d22 	tbz	x2, #63, e70 <kprintf.constprop.0+0x898>
/home/jeferson/optee/optee_os-rpi4/lib/libutils/ext/snprintk.c:392
     8d0:	cb0203e2 	neg	x2, x2
/home/jeferson/optee/optee_os-rpi4/lib/libutils/ext/snprintk.c:395
     8d4:	52800020 	mov	w0, #0x1                   	// #1
/home/jeferson/optee/optee_os-rpi4/lib/libutils/ext/snprintk.c:393
     8d8:	528005a1 	mov	w1, #0x2d                  	// #45
/home/jeferson/optee/optee_os-rpi4/lib/libutils/ext/snprintk.c:494
     8dc:	310004bf 	cmn	w5, #0x1
     8e0:	54003b21 	b.ne	1044 <kprintf.constprop.0+0xa6c>  // b.any
/home/jeferson/optee/optee_os-rpi4/lib/libutils/ext/snprintk.c:509
     8e4:	7100041f 	cmp	w0, #0x1
     8e8:	54002c80 	b.eq	e78 <kprintf.constprop.0+0x8a0>  // b.none
     8ec:	7100081f 	cmp	w0, #0x2
     8f0:	54000ea1 	b.ne	ac4 <kprintf.constprop.0+0x4ec>  // b.any
/home/jeferson/optee/optee_os-rpi4/lib/libutils/ext/snprintk.c:502
     8f4:	910397ed 	add	x13, sp, #0xe5
/home/jeferson/optee/optee_os-rpi4/lib/libutils/ext/snprintk.c:531
     8f8:	92400c40 	and	x0, x2, #0xf
/home/jeferson/optee/optee_os-rpi4/lib/libutils/ext/snprintk.c:532
     8fc:	d344fc42 	lsr	x2, x2, #4
/home/jeferson/optee/optee_os-rpi4/lib/libutils/ext/snprintk.c:531
     900:	38606ae0 	ldrb	w0, [x23, x0]
     904:	381ffda0 	strb	w0, [x13, #-1]!
/home/jeferson/optee/optee_os-rpi4/lib/libutils/ext/snprintk.c:533
     908:	b5ffff82 	cbnz	x2, 8f8 <kprintf.constprop.0+0x320>
     90c:	1400007b 	b	af8 <kprintf.constprop.0+0x520>
/home/jeferson/optee/optee_os-rpi4/lib/libutils/ext/snprintk.c:390
     910:	3747fd55 	tbnz	w21, #8, 8b8 <kprintf.constprop.0+0x2e0>
     914:	374ffd35 	tbnz	w21, #9, 8b8 <kprintf.constprop.0+0x2e0>
     918:	372ffd15 	tbnz	w21, #5, 8b8 <kprintf.constprop.0+0x2e0>
     91c:	3727fcf5 	tbnz	w21, #4, 8b8 <kprintf.constprop.0+0x2e0>
     920:	36300335 	tbz	w21, #6, 984 <kprintf.constprop.0+0x3ac>
     924:	37f801e4 	tbnz	w4, #31, 960 <kprintf.constprop.0+0x388>
     928:	91002c73 	add	x19, x3, #0xb
     92c:	2a0403f4 	mov	w20, w4
     930:	927df273 	and	x19, x19, #0xfffffffffffffff8
     934:	79800062 	ldrsh	x2, [x3]
     938:	17ffffe5 	b	8cc <kprintf.constprop.0+0x2f4>
     93c:	11002094 	add	w20, w4, #0x8
     940:	7100029f 	cmp	w20, #0x0
     944:	5400008d 	b.le	954 <kprintf.constprop.0+0x37c>
     948:	91003c73 	add	x19, x3, #0xf
     94c:	927df273 	and	x19, x19, #0xfffffffffffffff8
     950:	17ffffde 	b	8c8 <kprintf.constprop.0+0x2f0>
     954:	aa0303f3 	mov	x19, x3
     958:	8b24c363 	add	x3, x27, w4, sxtw
     95c:	17ffffdb 	b	8c8 <kprintf.constprop.0+0x2f0>
     960:	11002094 	add	w20, w4, #0x8
     964:	7100029f 	cmp	w20, #0x0
     968:	5400008d 	b.le	978 <kprintf.constprop.0+0x3a0>
     96c:	91002c73 	add	x19, x3, #0xb
     970:	927df273 	and	x19, x19, #0xfffffffffffffff8
     974:	17fffff0 	b	934 <kprintf.constprop.0+0x35c>
     978:	aa0303f3 	mov	x19, x3
     97c:	8b24c363 	add	x3, x27, w4, sxtw
     980:	17ffffed 	b	934 <kprintf.constprop.0+0x35c>
     984:	37f800c4 	tbnz	w4, #31, 99c <kprintf.constprop.0+0x3c4>
     988:	91002c73 	add	x19, x3, #0xb
     98c:	2a0403f4 	mov	w20, w4
     990:	927df273 	and	x19, x19, #0xfffffffffffffff8
     994:	b9800062 	ldrsw	x2, [x3]
     998:	17ffffcd 	b	8cc <kprintf.constprop.0+0x2f4>
     99c:	11002094 	add	w20, w4, #0x8
     9a0:	7100029f 	cmp	w20, #0x0
     9a4:	5400008d 	b.le	9b4 <kprintf.constprop.0+0x3dc>
     9a8:	91002c73 	add	x19, x3, #0xb
     9ac:	927df273 	and	x19, x19, #0xfffffffffffffff8
     9b0:	17fffff9 	b	994 <kprintf.constprop.0+0x3bc>
     9b4:	aa0303f3 	mov	x19, x3
     9b8:	8b24c363 	add	x3, x27, w4, sxtw
     9bc:	17fffff6 	b	994 <kprintf.constprop.0+0x3bc>
/home/jeferson/optee/optee_os-rpi4/lib/libutils/ext/snprintk.c:398
     9c0:	36380135 	tbz	w21, #7, 9e4 <kprintf.constprop.0+0x40c>
/home/jeferson/optee/optee_os-rpi4/lib/libutils/ext/snprintk.c:407
     9c4:	37f80284 	tbnz	w4, #31, a14 <kprintf.constprop.0+0x43c>
     9c8:	91003c73 	add	x19, x3, #0xf
     9cc:	2a0403f4 	mov	w20, w4
     9d0:	927df273 	and	x19, x19, #0xfffffffffffffff8
     9d4:	f9400060 	ldr	x0, [x3]
     9d8:	93407f41 	sxtw	x1, w26
     9dc:	f9000001 	str	x1, [x0]
     9e0:	17ffff19 	b	644 <kprintf.constprop.0+0x6c>
/home/jeferson/optee/optee_os-rpi4/lib/libutils/ext/snprintk.c:400
     9e4:	3747ff15 	tbnz	w21, #8, 9c4 <kprintf.constprop.0+0x3ec>
/home/jeferson/optee/optee_os-rpi4/lib/libutils/ext/snprintk.c:402
     9e8:	374ffef5 	tbnz	w21, #9, 9c4 <kprintf.constprop.0+0x3ec>
/home/jeferson/optee/optee_os-rpi4/lib/libutils/ext/snprintk.c:404
     9ec:	372ffed5 	tbnz	w21, #5, 9c4 <kprintf.constprop.0+0x3ec>
/home/jeferson/optee/optee_os-rpi4/lib/libutils/ext/snprintk.c:406
     9f0:	3727feb5 	tbnz	w21, #4, 9c4 <kprintf.constprop.0+0x3ec>
/home/jeferson/optee/optee_os-rpi4/lib/libutils/ext/snprintk.c:408
     9f4:	36300355 	tbz	w21, #6, a5c <kprintf.constprop.0+0x484>
/home/jeferson/optee/optee_os-rpi4/lib/libutils/ext/snprintk.c:409
     9f8:	37f80204 	tbnz	w4, #31, a38 <kprintf.constprop.0+0x460>
     9fc:	91003c73 	add	x19, x3, #0xf
     a00:	2a0403f4 	mov	w20, w4
     a04:	927df273 	and	x19, x19, #0xfffffffffffffff8
     a08:	f9400060 	ldr	x0, [x3]
     a0c:	7900001a 	strh	w26, [x0]
     a10:	17ffff0d 	b	644 <kprintf.constprop.0+0x6c>
/home/jeferson/optee/optee_os-rpi4/lib/libutils/ext/snprintk.c:407
     a14:	11002094 	add	w20, w4, #0x8
     a18:	7100029f 	cmp	w20, #0x0
     a1c:	5400008d 	b.le	a2c <kprintf.constprop.0+0x454>
     a20:	91003c73 	add	x19, x3, #0xf
     a24:	927df273 	and	x19, x19, #0xfffffffffffffff8
     a28:	17ffffeb 	b	9d4 <kprintf.constprop.0+0x3fc>
     a2c:	aa0303f3 	mov	x19, x3
     a30:	8b24c363 	add	x3, x27, w4, sxtw
     a34:	17ffffe8 	b	9d4 <kprintf.constprop.0+0x3fc>
/home/jeferson/optee/optee_os-rpi4/lib/libutils/ext/snprintk.c:409
     a38:	11002094 	add	w20, w4, #0x8
     a3c:	7100029f 	cmp	w20, #0x0
     a40:	5400008d 	b.le	a50 <kprintf.constprop.0+0x478>
     a44:	91003c73 	add	x19, x3, #0xf
     a48:	927df273 	and	x19, x19, #0xfffffffffffffff8
     a4c:	17ffffef 	b	a08 <kprintf.constprop.0+0x430>
     a50:	aa0303f3 	mov	x19, x3
     a54:	8b24c363 	add	x3, x27, w4, sxtw
     a58:	17ffffec 	b	a08 <kprintf.constprop.0+0x430>
/home/jeferson/optee/optee_os-rpi4/lib/libutils/ext/snprintk.c:411
     a5c:	37f800e4 	tbnz	w4, #31, a78 <kprintf.constprop.0+0x4a0>
     a60:	91003c73 	add	x19, x3, #0xf
     a64:	2a0403f4 	mov	w20, w4
     a68:	927df273 	and	x19, x19, #0xfffffffffffffff8
     a6c:	f9400060 	ldr	x0, [x3]
     a70:	b900001a 	str	w26, [x0]
     a74:	17fffef4 	b	644 <kprintf.constprop.0+0x6c>
     a78:	11002094 	add	w20, w4, #0x8
     a7c:	7100029f 	cmp	w20, #0x0
     a80:	5400008d 	b.le	a90 <kprintf.constprop.0+0x4b8>
     a84:	91003c73 	add	x19, x3, #0xf
     a88:	927df273 	and	x19, x19, #0xfffffffffffffff8
     a8c:	17fffff8 	b	a6c <kprintf.constprop.0+0x494>
     a90:	aa0303f3 	mov	x19, x3
     a94:	8b24c363 	add	x3, x27, w4, sxtw
     a98:	17fffff5 	b	a6c <kprintf.constprop.0+0x494>
/home/jeferson/optee/optee_os-rpi4/lib/libutils/ext/snprintk.c:414
     a9c:	321c02b5 	orr	w21, w21, #0x10
/home/jeferson/optee/optee_os-rpi4/lib/libutils/ext/snprintk.c:417
     aa0:	36380355 	tbz	w21, #7, b08 <kprintf.constprop.0+0x530>
     aa4:	37f80484 	tbnz	w4, #31, b34 <kprintf.constprop.0+0x55c>
     aa8:	91003c73 	add	x19, x3, #0xf
     aac:	2a0403f4 	mov	w20, w4
     ab0:	927df273 	and	x19, x19, #0xfffffffffffffff8
     ab4:	f9400062 	ldr	x2, [x3]
/home/jeferson/optee/optee_os-rpi4/lib/libutils/ext/snprintk.c:494
     ab8:	52800001 	mov	w1, #0x0                   	// #0
     abc:	310004bf 	cmn	w5, #0x1
     ac0:	54002c01 	b.ne	1040 <kprintf.constprop.0+0xa68>  // b.any
/home/jeferson/optee/optee_os-rpi4/lib/libutils/ext/snprintk.c:502
     ac4:	910397ed 	add	x13, sp, #0xe5
/home/jeferson/optee/optee_os-rpi4/lib/libutils/ext/snprintk.c:512
     ac8:	12000840 	and	w0, w2, #0x7
     acc:	aa0d03e4 	mov	x4, x13
     ad0:	1100c000 	add	w0, w0, #0x30
     ad4:	381ffda0 	strb	w0, [x13, #-1]!
/home/jeferson/optee/optee_os-rpi4/lib/libutils/ext/snprintk.c:513
     ad8:	d343fc42 	lsr	x2, x2, #3
/home/jeferson/optee/optee_os-rpi4/lib/libutils/ext/snprintk.c:514
     adc:	b5ffff62 	cbnz	x2, ac8 <kprintf.constprop.0+0x4f0>
/home/jeferson/optee/optee_os-rpi4/lib/libutils/ext/snprintk.c:516
     ae0:	360000d5 	tbz	w21, #0, af8 <kprintf.constprop.0+0x520>
     ae4:	7100c01f 	cmp	w0, #0x30
     ae8:	54000080 	b.eq	af8 <kprintf.constprop.0+0x520>  // b.none
/home/jeferson/optee/optee_os-rpi4/lib/libutils/ext/snprintk.c:517
     aec:	52800600 	mov	w0, #0x30                  	// #48
     af0:	381ff1a0 	sturb	w0, [x13, #-1]
     af4:	d100088d 	sub	x13, x4, #0x2
/home/jeferson/optee/optee_os-rpi4/lib/libutils/ext/snprintk.c:543
     af8:	2a0503e2 	mov	w2, w5
     afc:	910397e5 	add	x5, sp, #0xe5
     b00:	4b0d00a5 	sub	w5, w5, w13
     b04:	1400005b 	b	c70 <kprintf.constprop.0+0x698>
/home/jeferson/optee/optee_os-rpi4/lib/libutils/ext/snprintk.c:417
     b08:	3747fcf5 	tbnz	w21, #8, aa4 <kprintf.constprop.0+0x4cc>
     b0c:	374ffcd5 	tbnz	w21, #9, aa4 <kprintf.constprop.0+0x4cc>
     b10:	372ffcb5 	tbnz	w21, #5, aa4 <kprintf.constprop.0+0x4cc>
     b14:	3727fc95 	tbnz	w21, #4, aa4 <kprintf.constprop.0+0x4cc>
     b18:	36300335 	tbz	w21, #6, b7c <kprintf.constprop.0+0x5a4>
     b1c:	37f801e4 	tbnz	w4, #31, b58 <kprintf.constprop.0+0x580>
     b20:	91002c73 	add	x19, x3, #0xb
     b24:	2a0403f4 	mov	w20, w4
     b28:	927df273 	and	x19, x19, #0xfffffffffffffff8
     b2c:	79400062 	ldrh	w2, [x3]
     b30:	17ffffe2 	b	ab8 <kprintf.constprop.0+0x4e0>
     b34:	11002094 	add	w20, w4, #0x8
     b38:	7100029f 	cmp	w20, #0x0
     b3c:	5400008d 	b.le	b4c <kprintf.constprop.0+0x574>
     b40:	91003c73 	add	x19, x3, #0xf
     b44:	927df273 	and	x19, x19, #0xfffffffffffffff8
     b48:	17ffffdb 	b	ab4 <kprintf.constprop.0+0x4dc>
     b4c:	aa0303f3 	mov	x19, x3
     b50:	8b24c363 	add	x3, x27, w4, sxtw
     b54:	17ffffd8 	b	ab4 <kprintf.constprop.0+0x4dc>
     b58:	11002094 	add	w20, w4, #0x8
     b5c:	7100029f 	cmp	w20, #0x0
     b60:	5400008d 	b.le	b70 <kprintf.constprop.0+0x598>
     b64:	91002c73 	add	x19, x3, #0xb
     b68:	927df273 	and	x19, x19, #0xfffffffffffffff8
     b6c:	17fffff0 	b	b2c <kprintf.constprop.0+0x554>
     b70:	aa0303f3 	mov	x19, x3
     b74:	8b24c363 	add	x3, x27, w4, sxtw
     b78:	17ffffed 	b	b2c <kprintf.constprop.0+0x554>
     b7c:	37f800c4 	tbnz	w4, #31, b94 <kprintf.constprop.0+0x5bc>
     b80:	91002c73 	add	x19, x3, #0xb
     b84:	2a0403f4 	mov	w20, w4
     b88:	927df273 	and	x19, x19, #0xfffffffffffffff8
     b8c:	b9400062 	ldr	w2, [x3]
     b90:	17ffffca 	b	ab8 <kprintf.constprop.0+0x4e0>
     b94:	11002094 	add	w20, w4, #0x8
     b98:	7100029f 	cmp	w20, #0x0
     b9c:	5400008d 	b.le	bac <kprintf.constprop.0+0x5d4>
     ba0:	91002c73 	add	x19, x3, #0xb
     ba4:	927df273 	and	x19, x19, #0xfffffffffffffff8
     ba8:	17fffff9 	b	b8c <kprintf.constprop.0+0x5b4>
     bac:	aa0303f3 	mov	x19, x3
     bb0:	8b24c363 	add	x3, x27, w4, sxtw
     bb4:	17fffff6 	b	b8c <kprintf.constprop.0+0x5b4>
/home/jeferson/optee/optee_os-rpi4/lib/libutils/ext/snprintk.c:421
     bb8:	b940abe0 	ldr	w0, [sp, #168]
     bbc:	34000c80 	cbz	w0, d4c <kprintf.constprop.0+0x774>
     bc0:	39400380 	ldrb	w0, [x28]
     bc4:	7101541f 	cmp	w0, #0x55
     bc8:	54000c21 	b.ne	d4c <kprintf.constprop.0+0x774>  // b.any
     bcc:	39400780 	ldrb	w0, [x28, #1]
     bd0:	7101b01f 	cmp	w0, #0x6c
     bd4:	54000bc1 	b.ne	d4c <kprintf.constprop.0+0x774>  // b.any
/home/jeferson/optee/optee_os-rpi4/lib/libutils/ext/snprintk.c:426
     bd8:	91000b9c 	add	x28, x28, #0x2
/home/jeferson/optee/optee_os-rpi4/lib/libutils/ext/snprintk.c:427
     bdc:	37f80a64 	tbnz	w4, #31, d28 <kprintf.constprop.0+0x750>
     be0:	91003c73 	add	x19, x3, #0xf
     be4:	2a0403f4 	mov	w20, w4
     be8:	927df273 	and	x19, x19, #0xfffffffffffffff8
     bec:	f9400061 	ldr	x1, [x3]
uuid2str():
/home/jeferson/optee/optee_os-rpi4/lib/libutils/ext/snprintk.c:229
     bf0:	910303ed 	add	x13, sp, #0xc0
     bf4:	f0000062 	adrp	x2, f000 <__text_end+0x2508>
     bf8:	912a2c42 	add	x2, x2, #0xa8b
     bfc:	f90053ed 	str	x13, [sp, #160]
     c00:	39403c20 	ldrb	w0, [x1, #15]
     c04:	39402427 	ldrb	w7, [x1, #9]
     c08:	39402026 	ldrb	w6, [x1, #8]
     c0c:	79400c25 	ldrh	w5, [x1, #6]
     c10:	79400824 	ldrh	w4, [x1, #4]
     c14:	b9002be0 	str	w0, [sp, #40]
     c18:	b900afeb 	str	w11, [sp, #172]
     c1c:	39403820 	ldrb	w0, [x1, #14]
     c20:	b90023e0 	str	w0, [sp, #32]
     c24:	f9005be9 	str	x9, [sp, #176]
     c28:	39403420 	ldrb	w0, [x1, #13]
     c2c:	b9001be0 	str	w0, [sp, #24]
     c30:	39403020 	ldrb	w0, [x1, #12]
     c34:	b90013e0 	str	w0, [sp, #16]
     c38:	39402c20 	ldrb	w0, [x1, #11]
     c3c:	b9000be0 	str	w0, [sp, #8]
     c40:	39402820 	ldrb	w0, [x1, #10]
     c44:	b90003e0 	str	w0, [sp]
     c48:	aa0d03e0 	mov	x0, x13
     c4c:	b9400023 	ldr	w3, [x1]
     c50:	d28004a1 	mov	x1, #0x25                  	// #37
     c54:	97fffe2d 	bl	508 <snprintk>
     c58:	b940afeb 	ldr	w11, [sp, #172]
kprintf():
/home/jeferson/optee/optee_os-rpi4/lib/libutils/ext/snprintk.c:466
     c5c:	2a0003e5 	mov	w5, w0
     c60:	f94053ed 	ldr	x13, [sp, #160]
/home/jeferson/optee/optee_os-rpi4/lib/libutils/ext/snprintk.c:291
     c64:	52800002 	mov	w2, #0x0                   	// #0
     c68:	f9405be9 	ldr	x9, [sp, #176]
/home/jeferson/optee/optee_os-rpi4/lib/libutils/ext/snprintk.c:467
     c6c:	52800001 	mov	w1, #0x0                   	// #0
/home/jeferson/optee/optee_os-rpi4/lib/libutils/ext/snprintk.c:571
     c70:	6b05005f 	cmp	w2, w5
     c74:	1a85a040 	csel	w0, w2, w5, ge  // ge = tcont
/home/jeferson/optee/optee_os-rpi4/lib/libutils/ext/snprintk.c:572
     c78:	340021c1 	cbz	w1, 10b0 <kprintf.constprop.0+0xad8>
/home/jeferson/optee/optee_os-rpi4/lib/libutils/ext/snprintk.c:573
     c7c:	11000400 	add	w0, w0, #0x1
/home/jeferson/optee/optee_os-rpi4/lib/libutils/ext/snprintk.c:578
     c80:	6b0b001f 	cmp	w0, w11
     c84:	1a8ba004 	csel	w4, w0, w11, ge  // ge = tcont
     c88:	0b04035a 	add	w26, w26, w4
/home/jeferson/optee/optee_os-rpi4/lib/libutils/ext/snprintk.c:581
     c8c:	52808084 	mov	w4, #0x404                 	// #1028
     c90:	6a0402a4 	ands	w4, w21, w4
     c94:	540000a1 	b.ne	ca8 <kprintf.constprop.0+0x6d0>  // b.any
/home/jeferson/optee/optee_os-rpi4/lib/libutils/ext/snprintk.c:582
     c98:	4b000166 	sub	w6, w11, w0
/home/jeferson/optee/optee_os-rpi4/lib/libutils/ext/snprintk.c:584
     c9c:	52800407 	mov	w7, #0x20                  	// #32
/home/jeferson/optee/optee_os-rpi4/lib/libutils/ext/snprintk.c:583
     ca0:	710000df 	cmp	w6, #0x0
     ca4:	540020cc 	b.gt	10bc <kprintf.constprop.0+0xae4>
/home/jeferson/optee/optee_os-rpi4/lib/libutils/ext/snprintk.c:588
     ca8:	34002181 	cbz	w1, 10d8 <kprintf.constprop.0+0xb00>
/home/jeferson/optee/optee_os-rpi4/lib/libutils/ext/snprintk.c:589
     cac:	b40000b6 	cbz	x22, cc0 <kprintf.constprop.0+0x6e8>
     cb0:	f100013f 	cmp	x9, #0x0
     cb4:	fa561322 	ccmp	x25, x22, #0x2, ne  // ne = any
     cb8:	54000049 	b.ls	cc0 <kprintf.constprop.0+0x6e8>  // b.plast
     cbc:	380016c1 	strb	w1, [x22], #1
/home/jeferson/optee/optee_os-rpi4/lib/libutils/ext/snprintk.c:596
     cc0:	7110009f 	cmp	w4, #0x400
     cc4:	540000a1 	b.ne	cd8 <kprintf.constprop.0+0x700>  // b.any
/home/jeferson/optee/optee_os-rpi4/lib/libutils/ext/snprintk.c:597
     cc8:	4b000161 	sub	w1, w11, w0
/home/jeferson/optee/optee_os-rpi4/lib/libutils/ext/snprintk.c:599
     ccc:	52800604 	mov	w4, #0x30                  	// #48
/home/jeferson/optee/optee_os-rpi4/lib/libutils/ext/snprintk.c:598
     cd0:	7100003f 	cmp	w1, #0x0
     cd4:	5400226c 	b.gt	1120 <kprintf.constprop.0+0xb48>
/home/jeferson/optee/optee_os-rpi4/lib/libutils/ext/snprintk.c:603
     cd8:	4b050042 	sub	w2, w2, w5
/home/jeferson/optee/optee_os-rpi4/lib/libutils/ext/snprintk.c:605
     cdc:	52800601 	mov	w1, #0x30                  	// #48
/home/jeferson/optee/optee_os-rpi4/lib/libutils/ext/snprintk.c:604
     ce0:	7100005f 	cmp	w2, #0x0
     ce4:	540022cc 	b.gt	113c <kprintf.constprop.0+0xb64>
     ce8:	2a0503e5 	mov	w5, w5
     cec:	d2800001 	mov	x1, #0x0                   	// #0
/home/jeferson/optee/optee_os-rpi4/lib/libutils/ext/snprintk.c:608
     cf0:	eb05003f 	cmp	x1, x5
     cf4:	54002321 	b.ne	1158 <kprintf.constprop.0+0xb80>  // b.any
/home/jeferson/optee/optee_os-rpi4/lib/libutils/ext/snprintk.c:611
     cf8:	3617ca75 	tbz	w21, #2, 644 <kprintf.constprop.0+0x6c>
/home/jeferson/optee/optee_os-rpi4/lib/libutils/ext/snprintk.c:612
     cfc:	4b000160 	sub	w0, w11, w0
/home/jeferson/optee/optee_os-rpi4/lib/libutils/ext/snprintk.c:614
     d00:	52800401 	mov	w1, #0x20                  	// #32
/home/jeferson/optee/optee_os-rpi4/lib/libutils/ext/snprintk.c:613
     d04:	7100001f 	cmp	w0, #0x0
     d08:	54ffc9ed 	b.le	644 <kprintf.constprop.0+0x6c>
/home/jeferson/optee/optee_os-rpi4/lib/libutils/ext/snprintk.c:614
     d0c:	b40000b6 	cbz	x22, d20 <kprintf.constprop.0+0x748>
     d10:	f100013f 	cmp	x9, #0x0
     d14:	fa561322 	ccmp	x25, x22, #0x2, ne  // ne = any
     d18:	54000049 	b.ls	d20 <kprintf.constprop.0+0x748>  // b.plast
     d1c:	380016c1 	strb	w1, [x22], #1
     d20:	51000400 	sub	w0, w0, #0x1
     d24:	17fffff8 	b	d04 <kprintf.constprop.0+0x72c>
/home/jeferson/optee/optee_os-rpi4/lib/libutils/ext/snprintk.c:427
     d28:	11002094 	add	w20, w4, #0x8
     d2c:	7100029f 	cmp	w20, #0x0
     d30:	5400008d 	b.le	d40 <kprintf.constprop.0+0x768>
     d34:	91003c73 	add	x19, x3, #0xf
     d38:	927df273 	and	x19, x19, #0xfffffffffffffff8
     d3c:	17ffffac 	b	bec <kprintf.constprop.0+0x614>
     d40:	aa0303f3 	mov	x19, x3
     d44:	8b24c363 	add	x3, x27, w4, sxtw
     d48:	17ffffa9 	b	bec <kprintf.constprop.0+0x614>
/home/jeferson/optee/optee_os-rpi4/lib/libutils/ext/snprintk.c:441
     d4c:	37f801c4 	tbnz	w4, #31, d84 <kprintf.constprop.0+0x7ac>
     d50:	91003c73 	add	x19, x3, #0xf
     d54:	2a0403f4 	mov	w20, w4
     d58:	927df273 	and	x19, x19, #0xfffffffffffffff8
     d5c:	f9400062 	ldr	x2, [x3]
/home/jeferson/optee/optee_os-rpi4/lib/libutils/ext/snprintk.c:443
     d60:	f0000077 	adrp	x23, f000 <__text_end+0x2508>
/home/jeferson/optee/optee_os-rpi4/lib/libutils/ext/snprintk.c:444
     d64:	321f02b5 	orr	w21, w21, #0x2
/home/jeferson/optee/optee_os-rpi4/lib/libutils/ext/snprintk.c:443
     d68:	91161af7 	add	x23, x23, #0x586
/home/jeferson/optee/optee_os-rpi4/lib/libutils/ext/snprintk.c:445
     d6c:	52800f18 	mov	w24, #0x78                  	// #120
/home/jeferson/optee/optee_os-rpi4/lib/libutils/ext/snprintk.c:494
     d70:	52800001 	mov	w1, #0x0                   	// #0
     d74:	310004bf 	cmn	w5, #0x1
     d78:	54ffdbe0 	b.eq	8f4 <kprintf.constprop.0+0x31c>  // b.none
     d7c:	52800040 	mov	w0, #0x2                   	// #2
     d80:	140000b1 	b	1044 <kprintf.constprop.0+0xa6c>
/home/jeferson/optee/optee_os-rpi4/lib/libutils/ext/snprintk.c:441
     d84:	11002094 	add	w20, w4, #0x8
     d88:	7100029f 	cmp	w20, #0x0
     d8c:	5400008d 	b.le	d9c <kprintf.constprop.0+0x7c4>
     d90:	91003c73 	add	x19, x3, #0xf
     d94:	927df273 	and	x19, x19, #0xfffffffffffffff8
     d98:	17fffff1 	b	d5c <kprintf.constprop.0+0x784>
     d9c:	aa0303f3 	mov	x19, x3
     da0:	8b24c363 	add	x3, x27, w4, sxtw
     da4:	17ffffee 	b	d5c <kprintf.constprop.0+0x784>
/home/jeferson/optee/optee_os-rpi4/lib/libutils/ext/snprintk.c:448
     da8:	37f80364 	tbnz	w4, #31, e14 <kprintf.constprop.0+0x83c>
     dac:	91003c73 	add	x19, x3, #0xf
     db0:	2a0403f4 	mov	w20, w4
     db4:	927df273 	and	x19, x19, #0xfffffffffffffff8
     db8:	f940006d 	ldr	x13, [x3]
     dbc:	b500006d 	cbnz	x13, dc8 <kprintf.constprop.0+0x7f0>
/home/jeferson/optee/optee_os-rpi4/lib/libutils/ext/snprintk.c:450
     dc0:	f0000063 	adrp	x3, f000 <__text_end+0x2508>
     dc4:	912a106d 	add	x13, x3, #0xa84
/home/jeferson/optee/optee_os-rpi4/lib/libutils/ext/snprintk.c:451
     dc8:	310004bf 	cmn	w5, #0x1
     dcc:	54000360 	b.eq	e38 <kprintf.constprop.0+0x860>  // b.none
/home/jeferson/optee/optee_os-rpi4/lib/libutils/ext/snprintk.c:457
     dd0:	93407ca2 	sxtw	x2, w5
     dd4:	aa0d03e0 	mov	x0, x13
     dd8:	52800001 	mov	w1, #0x0                   	// #0
     ddc:	f90053ed 	str	x13, [sp, #160]
     de0:	2915afe5 	stp	w5, w11, [sp, #172]
     de4:	f9005fe9 	str	x9, [sp, #184]
     de8:	940001cc 	bl	1518 <memchr>
/home/jeferson/optee/optee_os-rpi4/lib/libutils/ext/snprintk.c:459
     dec:	2955afe5 	ldp	w5, w11, [sp, #172]
     df0:	f94053ed 	ldr	x13, [sp, #160]
     df4:	f9405fe9 	ldr	x9, [sp, #184]
     df8:	b4000080 	cbz	x0, e08 <kprintf.constprop.0+0x830>
/home/jeferson/optee/optee_os-rpi4/lib/libutils/ext/snprintk.c:460
     dfc:	cb0d0000 	sub	x0, x0, x13
     e00:	6b0000bf 	cmp	w5, w0
     e04:	1a80d0a5 	csel	w5, w5, w0, le
/home/jeferson/optee/optee_os-rpi4/lib/libutils/ext/snprintk.c:291
     e08:	52800002 	mov	w2, #0x0                   	// #0
/home/jeferson/optee/optee_os-rpi4/lib/libutils/ext/snprintk.c:467
     e0c:	52800001 	mov	w1, #0x0                   	// #0
     e10:	17ffff98 	b	c70 <kprintf.constprop.0+0x698>
/home/jeferson/optee/optee_os-rpi4/lib/libutils/ext/snprintk.c:448
     e14:	11002094 	add	w20, w4, #0x8
     e18:	7100029f 	cmp	w20, #0x0
     e1c:	5400008d 	b.le	e2c <kprintf.constprop.0+0x854>
     e20:	91003c73 	add	x19, x3, #0xf
     e24:	927df273 	and	x19, x19, #0xfffffffffffffff8
     e28:	17ffffe4 	b	db8 <kprintf.constprop.0+0x7e0>
     e2c:	aa0303f3 	mov	x19, x3
     e30:	8b24c363 	add	x3, x27, w4, sxtw
     e34:	17ffffe1 	b	db8 <kprintf.constprop.0+0x7e0>
/home/jeferson/optee/optee_os-rpi4/lib/libutils/ext/snprintk.c:466
     e38:	aa0d03e0 	mov	x0, x13
     e3c:	f90053ed 	str	x13, [sp, #160]
     e40:	b900afeb 	str	w11, [sp, #172]
     e44:	f9005be9 	str	x9, [sp, #176]
     e48:	940001bf 	bl	1544 <strlen>
     e4c:	17ffff83 	b	c58 <kprintf.constprop.0+0x680>
/home/jeferson/optee/optee_os-rpi4/lib/libutils/ext/snprintk.c:470
     e50:	321c02b5 	orr	w21, w21, #0x10
/home/jeferson/optee/optee_os-rpi4/lib/libutils/ext/snprintk.c:473
     e54:	36380235 	tbz	w21, #7, e98 <kprintf.constprop.0+0x8c0>
     e58:	37f80364 	tbnz	w4, #31, ec4 <kprintf.constprop.0+0x8ec>
     e5c:	91003c73 	add	x19, x3, #0xf
     e60:	2a0403f4 	mov	w20, w4
     e64:	927df273 	and	x19, x19, #0xfffffffffffffff8
     e68:	f9400062 	ldr	x2, [x3]
/home/jeferson/optee/optee_os-rpi4/lib/libutils/ext/snprintk.c:488
     e6c:	52800001 	mov	w1, #0x0                   	// #0
/home/jeferson/optee/optee_os-rpi4/lib/libutils/ext/snprintk.c:494
     e70:	310004bf 	cmn	w5, #0x1
     e74:	54000f61 	b.ne	1060 <kprintf.constprop.0+0xa88>  // b.any
/home/jeferson/optee/optee_os-rpi4/lib/libutils/ext/snprintk.c:502
     e78:	910397e0 	add	x0, sp, #0xe5
/home/jeferson/optee/optee_os-rpi4/lib/libutils/ext/snprintk.c:523
     e7c:	d2800144 	mov	x4, #0xa                   	// #10
     e80:	d100040d 	sub	x13, x0, #0x1
/home/jeferson/optee/optee_os-rpi4/lib/libutils/ext/snprintk.c:522
     e84:	f100245f 	cmp	x2, #0x9
     e88:	54000f08 	b.hi	1068 <kprintf.constprop.0+0xa90>  // b.pmore
/home/jeferson/optee/optee_os-rpi4/lib/libutils/ext/snprintk.c:526
     e8c:	1100c042 	add	w2, w2, #0x30
     e90:	381ff002 	sturb	w2, [x0, #-1]
/home/jeferson/optee/optee_os-rpi4/lib/libutils/ext/snprintk.c:527
     e94:	17ffff19 	b	af8 <kprintf.constprop.0+0x520>
/home/jeferson/optee/optee_os-rpi4/lib/libutils/ext/snprintk.c:473
     e98:	3747fe15 	tbnz	w21, #8, e58 <kprintf.constprop.0+0x880>
     e9c:	374ffdf5 	tbnz	w21, #9, e58 <kprintf.constprop.0+0x880>
     ea0:	372ffdd5 	tbnz	w21, #5, e58 <kprintf.constprop.0+0x880>
     ea4:	3727fdb5 	tbnz	w21, #4, e58 <kprintf.constprop.0+0x880>
     ea8:	36300335 	tbz	w21, #6, f0c <kprintf.constprop.0+0x934>
     eac:	37f801e4 	tbnz	w4, #31, ee8 <kprintf.constprop.0+0x910>
     eb0:	91002c73 	add	x19, x3, #0xb
     eb4:	2a0403f4 	mov	w20, w4
     eb8:	927df273 	and	x19, x19, #0xfffffffffffffff8
     ebc:	79400062 	ldrh	w2, [x3]
     ec0:	17ffffeb 	b	e6c <kprintf.constprop.0+0x894>
     ec4:	11002094 	add	w20, w4, #0x8
     ec8:	7100029f 	cmp	w20, #0x0
     ecc:	5400008d 	b.le	edc <kprintf.constprop.0+0x904>
     ed0:	91003c73 	add	x19, x3, #0xf
     ed4:	927df273 	and	x19, x19, #0xfffffffffffffff8
     ed8:	17ffffe4 	b	e68 <kprintf.constprop.0+0x890>
     edc:	aa0303f3 	mov	x19, x3
     ee0:	8b24c363 	add	x3, x27, w4, sxtw
     ee4:	17ffffe1 	b	e68 <kprintf.constprop.0+0x890>
     ee8:	11002094 	add	w20, w4, #0x8
     eec:	7100029f 	cmp	w20, #0x0
     ef0:	5400008d 	b.le	f00 <kprintf.constprop.0+0x928>
     ef4:	91002c73 	add	x19, x3, #0xb
     ef8:	927df273 	and	x19, x19, #0xfffffffffffffff8
     efc:	17fffff0 	b	ebc <kprintf.constprop.0+0x8e4>
     f00:	aa0303f3 	mov	x19, x3
     f04:	8b24c363 	add	x3, x27, w4, sxtw
     f08:	17ffffed 	b	ebc <kprintf.constprop.0+0x8e4>
     f0c:	37f800c4 	tbnz	w4, #31, f24 <kprintf.constprop.0+0x94c>
     f10:	91002c73 	add	x19, x3, #0xb
     f14:	2a0403f4 	mov	w20, w4
     f18:	927df273 	and	x19, x19, #0xfffffffffffffff8
     f1c:	b9400062 	ldr	w2, [x3]
     f20:	17ffffd3 	b	e6c <kprintf.constprop.0+0x894>
     f24:	11002094 	add	w20, w4, #0x8
     f28:	7100029f 	cmp	w20, #0x0
     f2c:	5400008d 	b.le	f3c <kprintf.constprop.0+0x964>
     f30:	91002c73 	add	x19, x3, #0xb
     f34:	927df273 	and	x19, x19, #0xfffffffffffffff8
     f38:	17fffff9 	b	f1c <kprintf.constprop.0+0x944>
     f3c:	aa0303f3 	mov	x19, x3
     f40:	8b24c363 	add	x3, x27, w4, sxtw
     f44:	17fffff6 	b	f1c <kprintf.constprop.0+0x944>
/home/jeferson/optee/optee_os-rpi4/lib/libutils/ext/snprintk.c:297
     f48:	f0000077 	adrp	x23, f000 <__text_end+0x2508>
     f4c:	91161af7 	add	x23, x23, #0x586
     f50:	910046f7 	add	x23, x23, #0x11
/home/jeferson/optee/optee_os-rpi4/lib/libutils/ext/snprintk.c:481
     f54:	363801f5 	tbz	w21, #7, f90 <kprintf.constprop.0+0x9b8>
     f58:	37f80324 	tbnz	w4, #31, fbc <kprintf.constprop.0+0x9e4>
     f5c:	91003c73 	add	x19, x3, #0xf
     f60:	2a0403f4 	mov	w20, w4
     f64:	927df273 	and	x19, x19, #0xfffffffffffffff8
     f68:	f9400062 	ldr	x2, [x3]
/home/jeferson/optee/optee_os-rpi4/lib/libutils/ext/snprintk.c:484
     f6c:	3607f035 	tbz	w21, #0, d70 <kprintf.constprop.0+0x798>
     f70:	b4fff002 	cbz	x2, d70 <kprintf.constprop.0+0x798>
/home/jeferson/optee/optee_os-rpi4/lib/libutils/ext/snprintk.c:485
     f74:	321f02b5 	orr	w21, w21, #0x2
/home/jeferson/optee/optee_os-rpi4/lib/libutils/ext/snprintk.c:482
     f78:	52800040 	mov	w0, #0x2                   	// #2
/home/jeferson/optee/optee_os-rpi4/lib/libutils/ext/snprintk.c:488
     f7c:	52800001 	mov	w1, #0x0                   	// #0
     f80:	17fffe57 	b	8dc <kprintf.constprop.0+0x304>
/home/jeferson/optee/optee_os-rpi4/lib/libutils/ext/snprintk.c:480
     f84:	f0000077 	adrp	x23, f000 <__text_end+0x2508>
     f88:	91161af7 	add	x23, x23, #0x586
     f8c:	17fffff2 	b	f54 <kprintf.constprop.0+0x97c>
/home/jeferson/optee/optee_os-rpi4/lib/libutils/ext/snprintk.c:481
     f90:	3747fe55 	tbnz	w21, #8, f58 <kprintf.constprop.0+0x980>
     f94:	374ffe35 	tbnz	w21, #9, f58 <kprintf.constprop.0+0x980>
     f98:	372ffe15 	tbnz	w21, #5, f58 <kprintf.constprop.0+0x980>
     f9c:	3727fdf5 	tbnz	w21, #4, f58 <kprintf.constprop.0+0x980>
     fa0:	36300335 	tbz	w21, #6, 1004 <kprintf.constprop.0+0xa2c>
     fa4:	37f801e4 	tbnz	w4, #31, fe0 <kprintf.constprop.0+0xa08>
     fa8:	91002c73 	add	x19, x3, #0xb
     fac:	2a0403f4 	mov	w20, w4
     fb0:	927df273 	and	x19, x19, #0xfffffffffffffff8
     fb4:	79400062 	ldrh	w2, [x3]
     fb8:	17ffffed 	b	f6c <kprintf.constprop.0+0x994>
     fbc:	11002094 	add	w20, w4, #0x8
     fc0:	7100029f 	cmp	w20, #0x0
     fc4:	5400008d 	b.le	fd4 <kprintf.constprop.0+0x9fc>
     fc8:	91003c73 	add	x19, x3, #0xf
     fcc:	927df273 	and	x19, x19, #0xfffffffffffffff8
     fd0:	17ffffe6 	b	f68 <kprintf.constprop.0+0x990>
     fd4:	aa0303f3 	mov	x19, x3
     fd8:	8b24c363 	add	x3, x27, w4, sxtw
     fdc:	17ffffe3 	b	f68 <kprintf.constprop.0+0x990>
     fe0:	11002094 	add	w20, w4, #0x8
     fe4:	7100029f 	cmp	w20, #0x0
     fe8:	5400008d 	b.le	ff8 <kprintf.constprop.0+0xa20>
     fec:	91002c73 	add	x19, x3, #0xb
     ff0:	927df273 	and	x19, x19, #0xfffffffffffffff8
     ff4:	17fffff0 	b	fb4 <kprintf.constprop.0+0x9dc>
     ff8:	aa0303f3 	mov	x19, x3
     ffc:	8b24c363 	add	x3, x27, w4, sxtw
    1000:	17ffffed 	b	fb4 <kprintf.constprop.0+0x9dc>
    1004:	37f800c4 	tbnz	w4, #31, 101c <kprintf.constprop.0+0xa44>
    1008:	91002c73 	add	x19, x3, #0xb
    100c:	2a0403f4 	mov	w20, w4
    1010:	927df273 	and	x19, x19, #0xfffffffffffffff8
    1014:	b9400062 	ldr	w2, [x3]
    1018:	17ffffd5 	b	f6c <kprintf.constprop.0+0x994>
    101c:	11002094 	add	w20, w4, #0x8
    1020:	7100029f 	cmp	w20, #0x0
    1024:	5400008d 	b.le	1034 <kprintf.constprop.0+0xa5c>
    1028:	91002c73 	add	x19, x3, #0xb
    102c:	927df273 	and	x19, x19, #0xfffffffffffffff8
    1030:	17fffff9 	b	1014 <kprintf.constprop.0+0xa3c>
    1034:	aa0303f3 	mov	x19, x3
    1038:	8b24c363 	add	x3, x27, w4, sxtw
    103c:	17fffff6 	b	1014 <kprintf.constprop.0+0xa3c>
/home/jeferson/optee/optee_os-rpi4/lib/libutils/ext/snprintk.c:494
    1040:	52800000 	mov	w0, #0x0                   	// #0
/home/jeferson/optee/optee_os-rpi4/lib/libutils/ext/snprintk.c:503
    1044:	f100005f 	cmp	x2, #0x0
/home/jeferson/optee/optee_os-rpi4/lib/libutils/ext/snprintk.c:495
    1048:	12157ab5 	and	w21, w21, #0xfffffbff
/home/jeferson/optee/optee_os-rpi4/lib/libutils/ext/snprintk.c:503
    104c:	7a4008a0 	ccmp	w5, #0x0, #0x0, eq  // eq = none
    1050:	54ffc4a1 	b.ne	8e4 <kprintf.constprop.0+0x30c>  // b.any
/home/jeferson/optee/optee_os-rpi4/lib/libutils/ext/snprintk.c:502
    1054:	910397ed 	add	x13, sp, #0xe5
    1058:	52800005 	mov	w5, #0x0                   	// #0
    105c:	17fffea7 	b	af8 <kprintf.constprop.0+0x520>
/home/jeferson/optee/optee_os-rpi4/lib/libutils/ext/snprintk.c:494
    1060:	52800020 	mov	w0, #0x1                   	// #1
    1064:	17fffff8 	b	1044 <kprintf.constprop.0+0xa6c>
/home/jeferson/optee/optee_os-rpi4/lib/libutils/ext/snprintk.c:523
    1068:	9ac40846 	udiv	x6, x2, x4
    106c:	9b0488c2 	msub	x2, x6, x4, x2
    1070:	1100c042 	add	w2, w2, #0x30
    1074:	381ff002 	sturb	w2, [x0, #-1]
/home/jeferson/optee/optee_os-rpi4/lib/libutils/ext/snprintk.c:524
    1078:	aa0603e2 	mov	x2, x6
    107c:	aa0d03e0 	mov	x0, x13
    1080:	17ffff80 	b	e80 <kprintf.constprop.0+0x8a8>
/home/jeferson/optee/optee_os-rpi4/lib/libutils/ext/snprintk.c:547
    1084:	35ffb418 	cbnz	w24, 704 <kprintf.constprop.0+0x12c>
/home/jeferson/optee/optee_os-rpi4/lib/libutils/ext/snprintk.c:619
    1088:	b4000049 	cbz	x9, 1090 <kprintf.constprop.0+0xab8>
/home/jeferson/optee/optee_os-rpi4/lib/libutils/ext/snprintk.c:620
    108c:	f9000136 	str	x22, [x9]
/home/jeferson/optee/optee_os-rpi4/lib/libutils/ext/snprintk.c:622
    1090:	90000080 	adrp	x0, 11000 <_DYNAMIC>
    1094:	f9409800 	ldr	x0, [x0, #304]
    1098:	f94077e2 	ldr	x2, [sp, #232]
    109c:	f9400001 	ldr	x1, [x0]
    10a0:	eb010042 	subs	x2, x2, x1
    10a4:	d2800001 	mov	x1, #0x0                   	// #0
    10a8:	54000680 	b.eq	1178 <kprintf.constprop.0+0xba0>  // b.none
    10ac:	97fffcc4 	bl	3bc <__stack_chk_fail>
/home/jeferson/optee/optee_os-rpi4/lib/libutils/ext/snprintk.c:574
    10b0:	360fde95 	tbz	w21, #1, c80 <kprintf.constprop.0+0x6a8>
/home/jeferson/optee/optee_os-rpi4/lib/libutils/ext/snprintk.c:575
    10b4:	11000800 	add	w0, w0, #0x2
    10b8:	17fffef2 	b	c80 <kprintf.constprop.0+0x6a8>
/home/jeferson/optee/optee_os-rpi4/lib/libutils/ext/snprintk.c:584
    10bc:	b40000b6 	cbz	x22, 10d0 <kprintf.constprop.0+0xaf8>
    10c0:	f100013f 	cmp	x9, #0x0
    10c4:	fa561322 	ccmp	x25, x22, #0x2, ne  // ne = any
    10c8:	54000049 	b.ls	10d0 <kprintf.constprop.0+0xaf8>  // b.plast
    10cc:	380016c7 	strb	w7, [x22], #1
    10d0:	510004c6 	sub	w6, w6, #0x1
    10d4:	17fffef3 	b	ca0 <kprintf.constprop.0+0x6c8>
/home/jeferson/optee/optee_os-rpi4/lib/libutils/ext/snprintk.c:590
    10d8:	360fdf55 	tbz	w21, #1, cc0 <kprintf.constprop.0+0x6e8>
/home/jeferson/optee/optee_os-rpi4/lib/libutils/ext/snprintk.c:591
    10dc:	b4ffdf36 	cbz	x22, cc0 <kprintf.constprop.0+0x6e8>
    10e0:	f100013f 	cmp	x9, #0x0
    10e4:	1a9f17e6 	cset	w6, eq  // eq = none
    10e8:	710000df 	cmp	w6, #0x0
    10ec:	fa560322 	ccmp	x25, x22, #0x2, eq  // eq = none
    10f0:	54ffde89 	b.ls	cc0 <kprintf.constprop.0+0x6e8>  // b.plast
    10f4:	aa1603e1 	mov	x1, x22
    10f8:	52800607 	mov	w7, #0x30                  	// #48
/home/jeferson/optee/optee_os-rpi4/lib/libutils/ext/snprintk.c:592
    10fc:	710000df 	cmp	w6, #0x0
/home/jeferson/optee/optee_os-rpi4/lib/libutils/ext/snprintk.c:591
    1100:	38001427 	strb	w7, [x1], #1
/home/jeferson/optee/optee_os-rpi4/lib/libutils/ext/snprintk.c:592
    1104:	fa410322 	ccmp	x25, x1, #0x2, eq  // eq = none
    1108:	54000089 	b.ls	1118 <kprintf.constprop.0+0xb40>  // b.plast
    110c:	91000ad6 	add	x22, x22, #0x2
    1110:	381ff2d8 	sturb	w24, [x22, #-1]
    1114:	17fffeeb 	b	cc0 <kprintf.constprop.0+0x6e8>
    1118:	aa0103f6 	mov	x22, x1
    111c:	17fffee9 	b	cc0 <kprintf.constprop.0+0x6e8>
/home/jeferson/optee/optee_os-rpi4/lib/libutils/ext/snprintk.c:599
    1120:	b40000b6 	cbz	x22, 1134 <kprintf.constprop.0+0xb5c>
    1124:	f100013f 	cmp	x9, #0x0
    1128:	fa561322 	ccmp	x25, x22, #0x2, ne  // ne = any
    112c:	54000049 	b.ls	1134 <kprintf.constprop.0+0xb5c>  // b.plast
    1130:	380016c4 	strb	w4, [x22], #1
    1134:	51000421 	sub	w1, w1, #0x1
    1138:	17fffee6 	b	cd0 <kprintf.constprop.0+0x6f8>
/home/jeferson/optee/optee_os-rpi4/lib/libutils/ext/snprintk.c:605
    113c:	b40000b6 	cbz	x22, 1150 <kprintf.constprop.0+0xb78>
    1140:	f100013f 	cmp	x9, #0x0
    1144:	fa561322 	ccmp	x25, x22, #0x2, ne  // ne = any
    1148:	54000049 	b.ls	1150 <kprintf.constprop.0+0xb78>  // b.plast
    114c:	380016c1 	strb	w1, [x22], #1
    1150:	51000442 	sub	w2, w2, #0x1
    1154:	17fffee3 	b	ce0 <kprintf.constprop.0+0x708>
/home/jeferson/optee/optee_os-rpi4/lib/libutils/ext/snprintk.c:609
    1158:	b40000d6 	cbz	x22, 1170 <kprintf.constprop.0+0xb98>
    115c:	f100013f 	cmp	x9, #0x0
    1160:	fa561322 	ccmp	x25, x22, #0x2, ne  // ne = any
    1164:	54000069 	b.ls	1170 <kprintf.constprop.0+0xb98>  // b.plast
    1168:	386169a2 	ldrb	w2, [x13, x1]
    116c:	380016c2 	strb	w2, [x22], #1
/home/jeferson/optee/optee_os-rpi4/lib/libutils/ext/snprintk.c:608
    1170:	91000421 	add	x1, x1, #0x1
    1174:	17fffedf 	b	cf0 <kprintf.constprop.0+0x718>
/home/jeferson/optee/optee_os-rpi4/lib/libutils/ext/snprintk.c:622
    1178:	2a1a03e0 	mov	w0, w26
    117c:	a9437bfd 	ldp	x29, x30, [sp, #48]
    1180:	a94453f3 	ldp	x19, x20, [sp, #64]
    1184:	a9455bf5 	ldp	x21, x22, [sp, #80]
    1188:	a94663f7 	ldp	x23, x24, [sp, #96]
    118c:	a9476bf9 	ldp	x25, x26, [sp, #112]
    1190:	a94873fb 	ldp	x27, x28, [sp, #128]
    1194:	9103c3ff 	add	sp, sp, #0xf0
    1198:	d65f03c0 	ret

000000000000119c <__vsprintf>:
__vsprintf():
/home/jeferson/optee/optee_os-rpi4/lib/libutils/ext/snprintk.c:155
    119c:	a9bc7bfd 	stp	x29, x30, [sp, #-64]!
/home/jeferson/optee/optee_os-rpi4/lib/libutils/ext/snprintk.c:156
    11a0:	910083e3 	add	x3, sp, #0x20
/home/jeferson/optee/optee_os-rpi4/lib/libutils/ext/snprintk.c:155
    11a4:	910003fd 	mov	x29, sp
    11a8:	a90153f3 	stp	x19, x20, [sp, #16]
    11ac:	aa0003f4 	mov	x20, x0
    11b0:	aa0103f3 	mov	x19, x1
/home/jeferson/optee/optee_os-rpi4/lib/libutils/ext/snprintk.c:156
    11b4:	aa0303e0 	mov	x0, x3
/home/jeferson/optee/optee_os-rpi4/lib/libutils/ext/snprintk.c:155
    11b8:	aa0203e1 	mov	x1, x2
/home/jeferson/optee/optee_os-rpi4/lib/libutils/ext/snprintk.c:156
    11bc:	d2800402 	mov	x2, #0x20                  	// #32
    11c0:	97fffb98 	bl	20 <memcpy>
    11c4:	aa1403e2 	mov	x2, x20
    11c8:	aa0003e3 	mov	x3, x0
    11cc:	52800004 	mov	w4, #0x0                   	// #0
    11d0:	aa1303e0 	mov	x0, x19
    11d4:	d2800001 	mov	x1, #0x0                   	// #0
    11d8:	97fffd00 	bl	5d8 <kprintf.constprop.0>
/home/jeferson/optee/optee_os-rpi4/lib/libutils/ext/snprintk.c:157
    11dc:	a94153f3 	ldp	x19, x20, [sp, #16]
    11e0:	a8c47bfd 	ldp	x29, x30, [sp], #64
    11e4:	d65f03c0 	ret

00000000000011e8 <trace_set_level>:
trace_set_level():
/home/jeferson/optee/optee_os-rpi4/lib/libutils/ext/trace.c:28
    11e8:	7100141f 	cmp	w0, #0x5
    11ec:	52800081 	mov	w1, #0x4                   	// #4
    11f0:	1a813000 	csel	w0, w0, w1, cc  // cc = lo, ul, last
    11f4:	90000081 	adrp	x1, 11000 <_DYNAMIC>
    11f8:	f940a821 	ldr	x1, [x1, #336]
    11fc:	b9000020 	str	w0, [x1]
/home/jeferson/optee/optee_os-rpi4/lib/libutils/ext/trace.c:29
    1200:	d65f03c0 	ret

0000000000001204 <trace_get_level>:
trace_get_level():
/home/jeferson/optee/optee_os-rpi4/lib/libutils/ext/trace.c:33
    1204:	90000080 	adrp	x0, 11000 <_DYNAMIC>
/home/jeferson/optee/optee_os-rpi4/lib/libutils/ext/trace.c:34
    1208:	f940a800 	ldr	x0, [x0, #336]
    120c:	b9400000 	ldr	w0, [x0]
    1210:	d65f03c0 	ret

0000000000001214 <trace_vprintf>:
trace_vprintf():
/home/jeferson/optee/optee_os-rpi4/lib/libutils/ext/trace.c:113
    1214:	a9a77bfd 	stp	x29, x30, [sp, #-400]!
    1218:	910003fd 	mov	x29, sp
    121c:	a9046bf9 	stp	x25, x26, [sp, #64]
    1220:	2a0103f9 	mov	w25, w1
    1224:	90000081 	adrp	x1, 11000 <_DYNAMIC>
    1228:	a9025bf5 	stp	x21, x22, [sp, #32]
    122c:	aa0003f6 	mov	x22, x0
    1230:	aa0103f5 	mov	x21, x1
    1234:	f9409820 	ldr	x0, [x1, #304]
    1238:	a90153f3 	stp	x19, x20, [sp, #16]
    123c:	2a0203f3 	mov	w19, w2
    1240:	a90363f7 	stp	x23, x24, [sp, #48]
    1244:	aa0403f7 	mov	x23, x4
    1248:	aa0503f8 	mov	x24, x5
    124c:	a90573fb 	stp	x27, x28, [sp, #80]
/home/jeferson/optee/optee_os-rpi4/lib/libutils/ext/trace.c:118
    1250:	72001c7b 	ands	w27, w3, #0xff
/home/jeferson/optee/optee_os-rpi4/lib/libutils/ext/trace.c:113
    1254:	f9400002 	ldr	x2, [x0]
    1258:	f900c7e2 	str	x2, [sp, #392]
    125c:	d2800002 	mov	x2, #0x0                   	// #0
/home/jeferson/optee/optee_os-rpi4/lib/libutils/ext/trace.c:118
    1260:	54000b20 	b.eq	13c4 <trace_vprintf+0x1b0>  // b.none
/home/jeferson/optee/optee_os-rpi4/lib/libutils/ext/trace.c:118 (discriminator 1)
    1264:	f940a820 	ldr	x0, [x1, #336]
    1268:	b9400000 	ldr	w0, [x0]
    126c:	6b13001f 	cmp	w0, w19
    1270:	540009cb 	b.lt	13a8 <trace_vprintf+0x194>  // b.tstop
trace_level_to_string():
/home/jeferson/optee/optee_os-rpi4/lib/libutils/ext/trace.c:51
    1274:	7100127f 	cmp	w19, #0x4
/home/jeferson/optee/optee_os-rpi4/lib/libutils/ext/trace.c:54
    1278:	d0000060 	adrp	x0, f000 <__text_end+0x2508>
/home/jeferson/optee/optee_os-rpi4/lib/libutils/ext/trace.c:51
    127c:	1a9f9261 	csel	w1, w19, wzr, ls  // ls = plast
/home/jeferson/optee/optee_os-rpi4/lib/libutils/ext/trace.c:54
    1280:	912b5800 	add	x0, x0, #0xad6
    1284:	3861c803 	ldrb	w3, [x0, w1, sxtw]
trace_vprintf():
/home/jeferson/optee/optee_os-rpi4/lib/libutils/ext/trace.c:122
    1288:	910223f4 	add	x20, sp, #0x88
    128c:	d0000062 	adrp	x2, f000 <__text_end+0x2508>
    1290:	aa1403e0 	mov	x0, x20
    1294:	912af042 	add	x2, x2, #0xabc
    1298:	d2802001 	mov	x1, #0x100                 	// #256
    129c:	97fffc9b 	bl	508 <snprintk>
/home/jeferson/optee/optee_os-rpi4/lib/libutils/ext/trace.c:124
    12a0:	37f80840 	tbnz	w0, #31, 13a8 <trace_vprintf+0x194>
/home/jeferson/optee/optee_os-rpi4/lib/libutils/ext/trace.c:129
    12a4:	f940b2a3 	ldr	x3, [x21, #352]
    12a8:	d280201c 	mov	x28, #0x100                 	// #256
/home/jeferson/optee/optee_os-rpi4/lib/libutils/ext/trace.c:126
    12ac:	93407c1a 	sxtw	x26, w0
/home/jeferson/optee/optee_os-rpi4/lib/libutils/ext/trace.c:129
    12b0:	cb20c381 	sub	x1, x28, w0, sxtw
    12b4:	d0000062 	adrp	x2, f000 <__text_end+0x2508>
    12b8:	8b20c280 	add	x0, x20, w0, sxtw
    12bc:	912b0042 	add	x2, x2, #0xac0
    12c0:	97fffc92 	bl	508 <snprintk>
/home/jeferson/optee/optee_os-rpi4/lib/libutils/ext/trace.c:131
    12c4:	37f80720 	tbnz	w0, #31, 13a8 <trace_vprintf+0x194>
/home/jeferson/optee/optee_os-rpi4/lib/libutils/ext/trace.c:133
    12c8:	8b20c35a 	add	x26, x26, w0, sxtw
/home/jeferson/optee/optee_os-rpi4/lib/libutils/ext/trace.c:135
    12cc:	3400093b 	cbz	w27, 13f0 <trace_vprintf+0x1dc>
/home/jeferson/optee/optee_os-rpi4/lib/libutils/ext/trace.c:135 (discriminator 1)
    12d0:	52800340 	mov	w0, #0x1a                  	// #26
    12d4:	1ad32400 	lsr	w0, w0, w19
    12d8:	360008c0 	tbz	w0, #0, 13f0 <trace_vprintf+0x1dc>
print_thread_id():
/home/jeferson/optee/optee_os-rpi4/lib/libutils/ext/trace.c:66
    12dc:	940000ab 	bl	1588 <trace_ext_get_thread_id>
trace_vprintf():
/home/jeferson/optee/optee_os-rpi4/lib/libutils/ext/trace.c:137
    12e0:	8b1a029b 	add	x27, x20, x26
    12e4:	cb1a039c 	sub	x28, x28, x26
print_thread_id():
/home/jeferson/optee/optee_os-rpi4/lib/libutils/ext/trace.c:66
    12e8:	2a0003e4 	mov	w4, w0
/home/jeferson/optee/optee_os-rpi4/lib/libutils/ext/trace.c:68
    12ec:	37f80700 	tbnz	w0, #31, 13cc <trace_vprintf+0x1b8>
/home/jeferson/optee/optee_os-rpi4/lib/libutils/ext/trace.c:69
    12f0:	d0000062 	adrp	x2, f000 <__text_end+0x2508>
    12f4:	aa1c03e1 	mov	x1, x28
    12f8:	912b1042 	add	x2, x2, #0xac4
    12fc:	aa1b03e0 	mov	x0, x27
    1300:	52800023 	mov	w3, #0x1                   	// #1
    1304:	97fffc81 	bl	508 <snprintk>
trace_vprintf():
/home/jeferson/optee/optee_os-rpi4/lib/libutils/ext/trace.c:144
    1308:	37f80500 	tbnz	w0, #31, 13a8 <trace_vprintf+0x194>
/home/jeferson/optee/optee_os-rpi4/lib/libutils/ext/trace.c:146
    130c:	8b20c353 	add	x19, x26, w0, sxtw
/home/jeferson/optee/optee_os-rpi4/lib/libutils/ext/trace.c:148
    1310:	b4000176 	cbz	x22, 133c <trace_vprintf+0x128>
/home/jeferson/optee/optee_os-rpi4/lib/libutils/ext/trace.c:149
    1314:	d0000062 	adrp	x2, f000 <__text_end+0x2508>
    1318:	d2802001 	mov	x1, #0x100                 	// #256
    131c:	2a1903e4 	mov	w4, w25
    1320:	aa1603e3 	mov	x3, x22
    1324:	912b3c42 	add	x2, x2, #0xacf
    1328:	cb130021 	sub	x1, x1, x19
    132c:	8b130280 	add	x0, x20, x19
    1330:	97fffc76 	bl	508 <snprintk>
/home/jeferson/optee/optee_os-rpi4/lib/libutils/ext/trace.c:151
    1334:	37f803a0 	tbnz	w0, #31, 13a8 <trace_vprintf+0x194>
/home/jeferson/optee/optee_os-rpi4/lib/libutils/ext/trace.c:153
    1338:	8b20c273 	add	x19, x19, w0, sxtw
/home/jeferson/optee/optee_os-rpi4/lib/libutils/ext/trace.c:163
    133c:	910183e3 	add	x3, sp, #0x60
    1340:	aa1803e1 	mov	x1, x24
    1344:	aa0303e0 	mov	x0, x3
    1348:	d2800402 	mov	x2, #0x20                  	// #32
    134c:	97fffb35 	bl	20 <memcpy>
    1350:	aa0003e3 	mov	x3, x0
    1354:	d2802001 	mov	x1, #0x100                 	// #256
    1358:	aa1703e2 	mov	x2, x23
    135c:	cb130021 	sub	x1, x1, x19
    1360:	8b130280 	add	x0, x20, x19
    1364:	97fffc53 	bl	4b0 <vsnprintk>
/home/jeferson/optee/optee_os-rpi4/lib/libutils/ext/trace.c:164
    1368:	7100001f 	cmp	w0, #0x0
    136c:	5400004d 	b.le	1374 <trace_vprintf+0x160>
/home/jeferson/optee/optee_os-rpi4/lib/libutils/ext/trace.c:165
    1370:	8b20c273 	add	x19, x19, w0, sxtw
/home/jeferson/optee/optee_os-rpi4/lib/libutils/ext/trace.c:167
    1374:	f103fa7f 	cmp	x19, #0xfe
    1378:	d2801fc0 	mov	x0, #0xfe                  	// #254
    137c:	9a809273 	csel	x19, x19, x0, ls  // ls = plast
/home/jeferson/optee/optee_os-rpi4/lib/libutils/ext/trace.c:170
    1380:	52800140 	mov	w0, #0xa                   	// #10
    1384:	38336a80 	strb	w0, [x20, x19]
/home/jeferson/optee/optee_os-rpi4/lib/libutils/ext/trace.c:171
    1388:	b4000093 	cbz	x19, 1398 <trace_vprintf+0x184>
/home/jeferson/optee/optee_os-rpi4/lib/libutils/ext/trace.c:171 (discriminator 1)
    138c:	38736a80 	ldrb	w0, [x20, x19]
    1390:	7100281f 	cmp	w0, #0xa
    1394:	540003c0 	b.eq	140c <trace_vprintf+0x1f8>  // b.none
/home/jeferson/optee/optee_os-rpi4/lib/libutils/ext/trace.c:174
    1398:	91022be0 	add	x0, sp, #0x8a
    139c:	3833681f 	strb	wzr, [x0, x19]
/home/jeferson/optee/optee_os-rpi4/lib/libutils/ext/trace.c:176
    13a0:	aa1403e0 	mov	x0, x20
    13a4:	9400006f 	bl	1560 <trace_ext_puts>
/home/jeferson/optee/optee_os-rpi4/lib/libutils/ext/trace.c:177
    13a8:	f9409ab5 	ldr	x21, [x21, #304]
    13ac:	f940c7e0 	ldr	x0, [sp, #392]
    13b0:	f94002a1 	ldr	x1, [x21]
    13b4:	eb010000 	subs	x0, x0, x1
    13b8:	d2800001 	mov	x1, #0x0                   	// #0
    13bc:	540002c0 	b.eq	1414 <trace_vprintf+0x200>  // b.none
    13c0:	97fffbff 	bl	3bc <__stack_chk_fail>
trace_level_to_string():
/home/jeferson/optee/optee_os-rpi4/lib/libutils/ext/trace.c:49
    13c4:	528009a3 	mov	w3, #0x4d                  	// #77
    13c8:	17ffffb0 	b	1288 <trace_vprintf+0x74>
print_thread_id():
/home/jeferson/optee/optee_os-rpi4/lib/libutils/ext/trace.c:71
    13cc:	aa1c03e1 	mov	x1, x28
    13d0:	aa1b03e0 	mov	x0, x27
    13d4:	f0000064 	adrp	x4, 10000 <__func__.0+0x113>
    13d8:	52800023 	mov	w3, #0x1                   	// #1
    13dc:	910de484 	add	x4, x4, #0x379
    13e0:	d0000062 	adrp	x2, f000 <__text_end+0x2508>
    13e4:	912b2842 	add	x2, x2, #0xaca
    13e8:	97fffc48 	bl	508 <snprintk>
    13ec:	17ffffc7 	b	1308 <trace_vprintf+0xf4>
trace_vprintf():
/home/jeferson/optee/optee_os-rpi4/lib/libutils/ext/trace.c:157
    13f0:	f103fb5f 	cmp	x26, #0xfe
    13f4:	54fffda8 	b.hi	13a8 <trace_vprintf+0x194>  // b.pmore
/home/jeferson/optee/optee_os-rpi4/lib/libutils/ext/trace.c:159
    13f8:	91000753 	add	x19, x26, #0x1
    13fc:	52800400 	mov	w0, #0x20                  	// #32
    1400:	383a6a80 	strb	w0, [x20, x26]
/home/jeferson/optee/optee_os-rpi4/lib/libutils/ext/trace.c:160
    1404:	38336a9f 	strb	wzr, [x20, x19]
    1408:	17ffffcd 	b	133c <trace_vprintf+0x128>
/home/jeferson/optee/optee_os-rpi4/lib/libutils/ext/trace.c:172
    140c:	d1000673 	sub	x19, x19, #0x1
    1410:	17ffffde 	b	1388 <trace_vprintf+0x174>
/home/jeferson/optee/optee_os-rpi4/lib/libutils/ext/trace.c:177
    1414:	a94153f3 	ldp	x19, x20, [sp, #16]
    1418:	a9425bf5 	ldp	x21, x22, [sp, #32]
    141c:	a94363f7 	ldp	x23, x24, [sp, #48]
    1420:	a9446bf9 	ldp	x25, x26, [sp, #64]
    1424:	a94573fb 	ldp	x27, x28, [sp, #80]
    1428:	a8d97bfd 	ldp	x29, x30, [sp], #400
    142c:	d65f03c0 	ret

0000000000001430 <trace_printf>:
trace_printf():
/home/jeferson/optee/optee_os-rpi4/lib/libutils/ext/trace.c:104
    1430:	a9ad7bfd 	stp	x29, x30, [sp, #-304]!
    1434:	910003fd 	mov	x29, sp
    1438:	a90153f3 	stp	x19, x20, [sp, #16]
    143c:	90000093 	adrp	x19, 11000 <_DYNAMIC>
    1440:	aa0003f4 	mov	x20, x0
    1444:	f9409a60 	ldr	x0, [x19, #304]
    1448:	a9025bf5 	stp	x21, x22, [sp, #32]
    144c:	2a0103f5 	mov	w21, w1
    1450:	a90363f7 	stp	x23, x24, [sp, #48]
    1454:	2a0203f6 	mov	w22, w2
    1458:	12001c78 	and	w24, w3, #0xff
    145c:	3d8027e0 	str	q0, [sp, #144]
    1460:	aa0403f7 	mov	x23, x4
/home/jeferson/optee/optee_os-rpi4/lib/libutils/ext/trace.c:108
    1464:	d2800402 	mov	x2, #0x20                  	// #32
/home/jeferson/optee/optee_os-rpi4/lib/libutils/ext/trace.c:104
    1468:	3d802be1 	str	q1, [sp, #160]
    146c:	3d802fe2 	str	q2, [sp, #176]
    1470:	3d8033e3 	str	q3, [sp, #192]
    1474:	3d8037e4 	str	q4, [sp, #208]
    1478:	3d803be5 	str	q5, [sp, #224]
    147c:	3d803fe6 	str	q6, [sp, #240]
    1480:	3d8043e7 	str	q7, [sp, #256]
    1484:	a9119be5 	stp	x5, x6, [sp, #280]
/home/jeferson/optee/optee_os-rpi4/lib/libutils/ext/trace.c:108
    1488:	910103e5 	add	x5, sp, #0x40
/home/jeferson/optee/optee_os-rpi4/lib/libutils/ext/trace.c:104
    148c:	f90097e7 	str	x7, [sp, #296]
    1490:	f9400001 	ldr	x1, [x0]
    1494:	f90047e1 	str	x1, [sp, #136]
    1498:	d2800001 	mov	x1, #0x0                   	// #0
/home/jeferson/optee/optee_os-rpi4/lib/libutils/ext/trace.c:107
    149c:	9104c3e0 	add	x0, sp, #0x130
    14a0:	a90683e0 	stp	x0, x0, [sp, #104]
    14a4:	910443e0 	add	x0, sp, #0x110
/home/jeferson/optee/optee_os-rpi4/lib/libutils/ext/trace.c:108
    14a8:	9101a3e1 	add	x1, sp, #0x68
/home/jeferson/optee/optee_os-rpi4/lib/libutils/ext/trace.c:107
    14ac:	f9003fe0 	str	x0, [sp, #120]
    14b0:	128002e0 	mov	w0, #0xffffffe8            	// #-24
    14b4:	b90083e0 	str	w0, [sp, #128]
    14b8:	12800fe0 	mov	w0, #0xffffff80            	// #-128
    14bc:	b90087e0 	str	w0, [sp, #132]
/home/jeferson/optee/optee_os-rpi4/lib/libutils/ext/trace.c:108
    14c0:	aa0503e0 	mov	x0, x5
    14c4:	97fffad7 	bl	20 <memcpy>
    14c8:	aa0003e5 	mov	x5, x0
    14cc:	2a1503e1 	mov	w1, w21
    14d0:	aa1403e0 	mov	x0, x20
    14d4:	aa1703e4 	mov	x4, x23
    14d8:	2a1803e3 	mov	w3, w24
    14dc:	2a1603e2 	mov	w2, w22
    14e0:	97ffff4d 	bl	1214 <trace_vprintf>
/home/jeferson/optee/optee_os-rpi4/lib/libutils/ext/trace.c:110
    14e4:	f9409a73 	ldr	x19, [x19, #304]
    14e8:	f94047e0 	ldr	x0, [sp, #136]
    14ec:	f9400261 	ldr	x1, [x19]
    14f0:	eb010000 	subs	x0, x0, x1
    14f4:	d2800001 	mov	x1, #0x0                   	// #0
    14f8:	54000040 	b.eq	1500 <trace_printf+0xd0>  // b.none
    14fc:	97fffbb0 	bl	3bc <__stack_chk_fail>
    1500:	a94153f3 	ldp	x19, x20, [sp, #16]
    1504:	a9425bf5 	ldp	x21, x22, [sp, #32]
    1508:	a94363f7 	ldp	x23, x24, [sp, #48]
    150c:	a8d37bfd 	ldp	x29, x30, [sp], #304
    1510:	d65f03c0 	ret

0000000000001514 <dhex_dump>:
dhex_dump():
/home/jeferson/optee/optee_os-rpi4/lib/libutils/ext/trace.c:287
    1514:	d65f03c0 	ret

0000000000001518 <memchr>:
memchr():
/home/jeferson/optee/optee_os-rpi4/lib/libutils/isoc/newlib/memchr.c:109
    1518:	12001c21 	and	w1, w1, #0xff
/home/jeferson/optee/optee_os-rpi4/lib/libutils/isoc/newlib/memchr.c:153
    151c:	8b020002 	add	x2, x0, x2
    1520:	eb02001f 	cmp	x0, x2
    1524:	54000061 	b.ne	1530 <memchr+0x18>  // b.any
/home/jeferson/optee/optee_os-rpi4/lib/libutils/isoc/newlib/memchr.c:159
    1528:	d2800000 	mov	x0, #0x0                   	// #0
/home/jeferson/optee/optee_os-rpi4/lib/libutils/isoc/newlib/memchr.c:160
    152c:	d65f03c0 	ret
/home/jeferson/optee/optee_os-rpi4/lib/libutils/isoc/newlib/memchr.c:154
    1530:	39400003 	ldrb	w3, [x0]
    1534:	6b01007f 	cmp	w3, w1
    1538:	54ffffa0 	b.eq	152c <memchr+0x14>  // b.none
/home/jeferson/optee/optee_os-rpi4/lib/libutils/isoc/newlib/memchr.c:156
    153c:	91000400 	add	x0, x0, #0x1
    1540:	17fffff8 	b	1520 <memchr+0x8>

0000000000001544 <strlen>:
strlen():
/home/jeferson/optee/optee_os-rpi4/lib/libutils/isoc/newlib/strlen.c:117
    1544:	aa0003e1 	mov	x1, x0
    1548:	39400022 	ldrb	w2, [x1]
    154c:	35000062 	cbnz	w2, 1558 <strlen+0x14>
/home/jeferson/optee/optee_os-rpi4/lib/libutils/isoc/newlib/strlen.c:120
    1550:	cb000020 	sub	x0, x1, x0
    1554:	d65f03c0 	ret
/home/jeferson/optee/optee_os-rpi4/lib/libutils/isoc/newlib/strlen.c:118
    1558:	91000421 	add	x1, x1, #0x1
    155c:	17fffffb 	b	1548 <strlen+0x4>

0000000000001560 <trace_ext_puts>:
trace_ext_puts():
/home/jeferson/optee/optee_os-rpi4/lib/libutee/trace_ext.c:22
    1560:	a9be7bfd 	stp	x29, x30, [sp, #-32]!
    1564:	910003fd 	mov	x29, sp
    1568:	f9000bf3 	str	x19, [sp, #16]
    156c:	aa0003f3 	mov	x19, x0
/home/jeferson/optee/optee_os-rpi4/lib/libutee/trace_ext.c:26
    1570:	97fffff5 	bl	1544 <strlen>
    1574:	aa0003e1 	mov	x1, x0
    1578:	aa1303e0 	mov	x0, x19
/home/jeferson/optee/optee_os-rpi4/lib/libutee/trace_ext.c:28
    157c:	f9400bf3 	ldr	x19, [sp, #16]
    1580:	a8c27bfd 	ldp	x29, x30, [sp], #32
/home/jeferson/optee/optee_os-rpi4/lib/libutee/trace_ext.c:26
    1584:	14000124 	b	1a14 <_utee_log>

0000000000001588 <trace_ext_get_thread_id>:
trace_ext_get_thread_id():
/home/jeferson/optee/optee_os-rpi4/lib/libutee/trace_ext.c:33
    1588:	12800000 	mov	w0, #0xffffffff            	// #-1
    158c:	d65f03c0 	ret

0000000000001590 <printf>:
printf():
/home/jeferson/optee/optee_os-rpi4/lib/libutee/trace_ext.c:41
    1590:	d108c3ff 	sub	sp, sp, #0x230
    1594:	a9007bfd 	stp	x29, x30, [sp]
    1598:	910003fd 	mov	x29, sp
    159c:	a90153f3 	stp	x19, x20, [sp, #16]
    15a0:	aa0003f3 	mov	x19, x0
    15a4:	910823e0 	add	x0, sp, #0x208
    15a8:	a91f8be1 	stp	x1, x2, [sp, #504]
    15ac:	90000081 	adrp	x1, 11000 <_DYNAMIC>
    15b0:	3d805fe0 	str	q0, [sp, #368]
    15b4:	3d8063e1 	str	q1, [sp, #384]
    15b8:	3d8067e2 	str	q2, [sp, #400]
    15bc:	3d806be3 	str	q3, [sp, #416]
    15c0:	3d806fe4 	str	q4, [sp, #432]
    15c4:	3d8073e5 	str	q5, [sp, #448]
    15c8:	3d8077e6 	str	q6, [sp, #464]
    15cc:	3d807be7 	str	q7, [sp, #480]
    15d0:	f9409821 	ldr	x1, [x1, #304]
    15d4:	a9001003 	stp	x3, x4, [x0]
    15d8:	a9011805 	stp	x5, x6, [x0, #16]
    15dc:	f90117e7 	str	x7, [sp, #552]
    15e0:	f9400020 	ldr	x0, [x1]
    15e4:	f900b7e0 	str	x0, [sp, #360]
    15e8:	d2800000 	mov	x0, #0x0                   	// #0
/home/jeferson/optee/optee_os-rpi4/lib/libutee/trace_ext.c:46
    15ec:	97ffff06 	bl	1204 <trace_get_level>
    15f0:	7100001f 	cmp	w0, #0x0
    15f4:	5400040d 	b.le	1674 <printf+0xe4>
/home/jeferson/optee/optee_os-rpi4/lib/libutee/trace_ext.c:49
    15f8:	9108c3e0 	add	x0, sp, #0x230
/home/jeferson/optee/optee_os-rpi4/lib/libutee/trace_ext.c:50
    15fc:	910083e3 	add	x3, sp, #0x20
/home/jeferson/optee/optee_os-rpi4/lib/libutee/trace_ext.c:49
    1600:	a90483e0 	stp	x0, x0, [sp, #72]
    1604:	9107c3e0 	add	x0, sp, #0x1f0
/home/jeferson/optee/optee_os-rpi4/lib/libutee/trace_ext.c:50
    1608:	910123e1 	add	x1, sp, #0x48
/home/jeferson/optee/optee_os-rpi4/lib/libutee/trace_ext.c:49
    160c:	f9002fe0 	str	x0, [sp, #88]
    1610:	128006e0 	mov	w0, #0xffffffc8            	// #-56
    1614:	b90063e0 	str	w0, [sp, #96]
    1618:	12800fe0 	mov	w0, #0xffffff80            	// #-128
/home/jeferson/optee/optee_os-rpi4/lib/libutee/trace_ext.c:50
    161c:	d2800402 	mov	x2, #0x20                  	// #32
    1620:	9101a3f4 	add	x20, sp, #0x68
/home/jeferson/optee/optee_os-rpi4/lib/libutee/trace_ext.c:49
    1624:	b90067e0 	str	w0, [sp, #100]
/home/jeferson/optee/optee_os-rpi4/lib/libutee/trace_ext.c:50
    1628:	aa0303e0 	mov	x0, x3
    162c:	97fffa7d 	bl	20 <memcpy>
    1630:	aa0003e3 	mov	x3, x0
    1634:	aa1303e2 	mov	x2, x19
    1638:	aa1403e0 	mov	x0, x20
    163c:	d2802001 	mov	x1, #0x100                 	// #256
    1640:	97fffb49 	bl	364 <vsnprintf>
    1644:	2a0003f3 	mov	w19, w0
/home/jeferson/optee/optee_os-rpi4/lib/libutee/trace_ext.c:53
    1648:	37f80060 	tbnz	w0, #31, 1654 <printf+0xc4>
/home/jeferson/optee/optee_os-rpi4/lib/libutee/trace_ext.c:56
    164c:	aa1403e0 	mov	x0, x20
    1650:	97ffffc4 	bl	1560 <trace_ext_puts>
/home/jeferson/optee/optee_os-rpi4/lib/libutee/trace_ext.c:59
    1654:	90000081 	adrp	x1, 11000 <_DYNAMIC>
    1658:	f9409821 	ldr	x1, [x1, #304]
    165c:	f940b7e0 	ldr	x0, [sp, #360]
    1660:	f9400022 	ldr	x2, [x1]
    1664:	eb020000 	subs	x0, x0, x2
    1668:	d2800002 	mov	x2, #0x0                   	// #0
    166c:	54000080 	b.eq	167c <printf+0xec>  // b.none
    1670:	97fffb53 	bl	3bc <__stack_chk_fail>
/home/jeferson/optee/optee_os-rpi4/lib/libutee/trace_ext.c:47
    1674:	52800013 	mov	w19, #0x0                   	// #0
    1678:	17fffff7 	b	1654 <printf+0xc4>
/home/jeferson/optee/optee_os-rpi4/lib/libutee/trace_ext.c:59
    167c:	2a1303e0 	mov	w0, w19
    1680:	a9407bfd 	ldp	x29, x30, [sp]
    1684:	a94153f3 	ldp	x19, x20, [sp, #16]
    1688:	9108c3ff 	add	sp, sp, #0x230
    168c:	d65f03c0 	ret

0000000000001690 <puts>:
puts():
/home/jeferson/optee/optee_os-rpi4/lib/libutee/trace_ext.c:62
    1690:	a9be7bfd 	stp	x29, x30, [sp, #-32]!
    1694:	910003fd 	mov	x29, sp
    1698:	f9000bf3 	str	x19, [sp, #16]
    169c:	aa0003f3 	mov	x19, x0
/home/jeferson/optee/optee_os-rpi4/lib/libutee/trace_ext.c:63
    16a0:	97fffed9 	bl	1204 <trace_get_level>
    16a4:	7100001f 	cmp	w0, #0x0
    16a8:	540000cd 	b.le	16c0 <puts+0x30>
/home/jeferson/optee/optee_os-rpi4/lib/libutee/trace_ext.c:64
    16ac:	aa1303e0 	mov	x0, x19
    16b0:	97ffffac 	bl	1560 <trace_ext_puts>
/home/jeferson/optee/optee_os-rpi4/lib/libutee/trace_ext.c:65
    16b4:	f0000060 	adrp	x0, 10000 <__func__.0+0x113>
    16b8:	910de000 	add	x0, x0, #0x378
    16bc:	97ffffa9 	bl	1560 <trace_ext_puts>
/home/jeferson/optee/optee_os-rpi4/lib/libutee/trace_ext.c:68
    16c0:	52800020 	mov	w0, #0x1                   	// #1
    16c4:	f9400bf3 	ldr	x19, [sp, #16]
    16c8:	a8c27bfd 	ldp	x29, x30, [sp], #32
    16cc:	d65f03c0 	ret

00000000000016d0 <putchar>:
putchar():
/home/jeferson/optee/optee_os-rpi4/lib/libutee/trace_ext.c:71
    16d0:	a9bd7bfd 	stp	x29, x30, [sp, #-48]!
    16d4:	90000081 	adrp	x1, 11000 <_DYNAMIC>
    16d8:	910003fd 	mov	x29, sp
    16dc:	f9409821 	ldr	x1, [x1, #304]
    16e0:	f9000bf3 	str	x19, [sp, #16]
    16e4:	2a0003f3 	mov	w19, w0
    16e8:	f9400020 	ldr	x0, [x1]
    16ec:	f90017e0 	str	x0, [sp, #40]
    16f0:	d2800000 	mov	x0, #0x0                   	// #0
/home/jeferson/optee/optee_os-rpi4/lib/libutee/trace_ext.c:72
    16f4:	390083f3 	strb	w19, [sp, #32]
    16f8:	390087ff 	strb	wzr, [sp, #33]
/home/jeferson/optee/optee_os-rpi4/lib/libutee/trace_ext.c:74
    16fc:	97fffec2 	bl	1204 <trace_get_level>
    1700:	7100001f 	cmp	w0, #0x0
    1704:	5400006d 	b.le	1710 <putchar+0x40>
/home/jeferson/optee/optee_os-rpi4/lib/libutee/trace_ext.c:75
    1708:	910083e0 	add	x0, sp, #0x20
    170c:	97ffff95 	bl	1560 <trace_ext_puts>
/home/jeferson/optee/optee_os-rpi4/lib/libutee/trace_ext.c:82
    1710:	90000081 	adrp	x1, 11000 <_DYNAMIC>
/home/jeferson/optee/optee_os-rpi4/lib/libutee/trace_ext.c:81
    1714:	12001e60 	and	w0, w19, #0xff
/home/jeferson/optee/optee_os-rpi4/lib/libutee/trace_ext.c:82
    1718:	f9409821 	ldr	x1, [x1, #304]
    171c:	f94017e3 	ldr	x3, [sp, #40]
    1720:	f9400022 	ldr	x2, [x1]
    1724:	eb020063 	subs	x3, x3, x2
    1728:	d2800002 	mov	x2, #0x0                   	// #0
    172c:	54000040 	b.eq	1734 <putchar+0x64>  // b.none
    1730:	97fffb23 	bl	3bc <__stack_chk_fail>
    1734:	f9400bf3 	ldr	x19, [sp, #16]
    1738:	a8c37bfd 	ldp	x29, x30, [sp], #48
    173c:	d65f03c0 	ret

0000000000001740 <invoke_system_pta>:
invoke_system_pta():
/home/jeferson/optee/optee_os-rpi4/lib/libutee/tee_system_pta.c:16
    1740:	a9bd7bfd 	stp	x29, x30, [sp, #-48]!
    1744:	910003fd 	mov	x29, sp
    1748:	a9025bf5 	stp	x21, x22, [sp, #32]
/home/jeferson/optee/optee_os-rpi4/lib/libutee/tee_system_pta.c:20
    174c:	90000096 	adrp	x22, 11000 <_DYNAMIC>
/home/jeferson/optee/optee_os-rpi4/lib/libutee/tee_system_pta.c:16
    1750:	aa0203f5 	mov	x21, x2
    1754:	a90153f3 	stp	x19, x20, [sp, #16]
    1758:	2a0003f3 	mov	w19, w0
    175c:	2a0103f4 	mov	w20, w1
/home/jeferson/optee/optee_os-rpi4/lib/libutee/tee_system_pta.c:20
    1760:	f942f2c0 	ldr	x0, [x22, #1504]
    1764:	b4000160 	cbz	x0, 1790 <invoke_system_pta+0x50>
/home/jeferson/optee/optee_os-rpi4/lib/libutee/tee_system_pta.c:28
    1768:	f942f2c0 	ldr	x0, [x22, #1504]
    176c:	aa1503e4 	mov	x4, x21
    1770:	2a1403e3 	mov	w3, w20
    1774:	2a1303e2 	mov	w2, w19
/home/jeferson/optee/optee_os-rpi4/lib/libutee/tee_system_pta.c:30
    1778:	a94153f3 	ldp	x19, x20, [sp, #16]
/home/jeferson/optee/optee_os-rpi4/lib/libutee/tee_system_pta.c:28
    177c:	d2800005 	mov	x5, #0x0                   	// #0
/home/jeferson/optee/optee_os-rpi4/lib/libutee/tee_system_pta.c:30
    1780:	a9425bf5 	ldp	x21, x22, [sp, #32]
/home/jeferson/optee/optee_os-rpi4/lib/libutee/tee_system_pta.c:28
    1784:	12800001 	mov	w1, #0xffffffff            	// #-1
/home/jeferson/optee/optee_os-rpi4/lib/libutee/tee_system_pta.c:30
    1788:	a8c37bfd 	ldp	x29, x30, [sp], #48
/home/jeferson/optee/optee_os-rpi4/lib/libutee/tee_system_pta.c:28
    178c:	14000611 	b	2fd0 <TEE_InvokeTACommand>
/home/jeferson/optee/optee_os-rpi4/lib/libutee/tee_system_pta.c:21
    1790:	d0000060 	adrp	x0, f000 <__text_end+0x2508>
    1794:	911782c4 	add	x4, x22, #0x5e0
    1798:	9116a000 	add	x0, x0, #0x5a8
    179c:	d2800005 	mov	x5, #0x0                   	// #0
    17a0:	d2800003 	mov	x3, #0x0                   	// #0
    17a4:	52800002 	mov	w2, #0x0                   	// #0
    17a8:	12800001 	mov	w1, #0xffffffff            	// #-1
    17ac:	94000562 	bl	2d34 <TEE_OpenTASession>
/home/jeferson/optee/optee_os-rpi4/lib/libutee/tee_system_pta.c:24
    17b0:	34fffdc0 	cbz	w0, 1768 <invoke_system_pta+0x28>
/home/jeferson/optee/optee_os-rpi4/lib/libutee/tee_system_pta.c:30
    17b4:	a94153f3 	ldp	x19, x20, [sp, #16]
    17b8:	a9425bf5 	ldp	x21, x22, [sp, #32]
    17bc:	a8c37bfd 	ldp	x29, x30, [sp], #48
    17c0:	d65f03c0 	ret

00000000000017c4 <tee_map_zi>:
tee_map_zi():
/home/jeferson/optee/optee_os-rpi4/lib/libutee/tee_system_pta.c:33
    17c4:	a9ba7bfd 	stp	x29, x30, [sp, #-96]!
    17c8:	90000082 	adrp	x2, 11000 <_DYNAMIC>
/home/jeferson/optee/optee_os-rpi4/lib/libutee/tee_system_pta.c:38
    17cc:	4f000400 	movi	v0.4s, #0x0
/home/jeferson/optee/optee_os-rpi4/lib/libutee/tee_system_pta.c:33
    17d0:	910003fd 	mov	x29, sp
    17d4:	f9409842 	ldr	x2, [x2, #304]
    17d8:	f9400043 	ldr	x3, [x2]
    17dc:	f9002fe3 	str	x3, [sp, #88]
    17e0:	d2800003 	mov	x3, #0x0                   	// #0
/home/jeferson/optee/optee_os-rpi4/lib/libutee/tee_system_pta.c:38
    17e4:	910063e2 	add	x2, sp, #0x18
    17e8:	ad000040 	stp	q0, q0, [x2]
/home/jeferson/optee/optee_os-rpi4/lib/libutee/tee_system_pta.c:41
    17ec:	b9001be0 	str	w0, [sp, #24]
/home/jeferson/optee/optee_os-rpi4/lib/libutee/tee_system_pta.c:38
    17f0:	ad010040 	stp	q0, q0, [x2, #32]
/home/jeferson/optee/optee_os-rpi4/lib/libutee/tee_system_pta.c:42
    17f4:	f2607c1f 	tst	x0, #0xffffffff00000000
    17f8:	54000060 	b.eq	1804 <tee_map_zi+0x40>  // b.none
/home/jeferson/optee/optee_os-rpi4/lib/libutee/tee_system_pta.c:44
    17fc:	d2800000 	mov	x0, #0x0                   	// #0
    1800:	1400000c 	b	1830 <tee_map_zi+0x6c>
    1804:	340000a1 	cbz	w1, 1818 <tee_map_zi+0x54>
    1808:	7100103f 	cmp	w1, #0x4
    180c:	54ffff81 	b.ne	17fc <tee_map_zi+0x38>  // b.any
/home/jeferson/optee/optee_os-rpi4/lib/libutee/tee_system_pta.c:48
    1810:	52800020 	mov	w0, #0x1                   	// #1
    1814:	b9001fe0 	str	w0, [sp, #28]
/home/jeferson/optee/optee_os-rpi4/lib/libutee/tee_system_pta.c:54
    1818:	52802621 	mov	w1, #0x131                 	// #305
    181c:	52800040 	mov	w0, #0x2                   	// #2
    1820:	97ffffc8 	bl	1740 <invoke_system_pta>
/home/jeferson/optee/optee_os-rpi4/lib/libutee/tee_system_pta.c:55
    1824:	35fffec0 	cbnz	w0, 17fc <tee_map_zi+0x38>
reg_pair_to_64():
/home/jeferson/optee/optee_os-rpi4/lib/libutils/ext/include/util.h:166
    1828:	294507e0 	ldp	w0, w1, [sp, #40]
    182c:	aa008020 	orr	x0, x1, x0, lsl #32
tee_map_zi():
/home/jeferson/optee/optee_os-rpi4/lib/libutee/tee_system_pta.c:60
    1830:	90000082 	adrp	x2, 11000 <_DYNAMIC>
    1834:	f9409842 	ldr	x2, [x2, #304]
    1838:	f9402fe1 	ldr	x1, [sp, #88]
    183c:	f9400043 	ldr	x3, [x2]
    1840:	eb030021 	subs	x1, x1, x3
    1844:	d2800003 	mov	x3, #0x0                   	// #0
    1848:	54000040 	b.eq	1850 <tee_map_zi+0x8c>  // b.none
    184c:	97fffadc 	bl	3bc <__stack_chk_fail>
    1850:	a8c67bfd 	ldp	x29, x30, [sp], #96
    1854:	d65f03c0 	ret

0000000000001858 <tee_unmap>:
tee_unmap():
/home/jeferson/optee/optee_os-rpi4/lib/libutee/tee_system_pta.c:63
    1858:	a9b87bfd 	stp	x29, x30, [sp, #-128]!
    185c:	90000082 	adrp	x2, 11000 <_DYNAMIC>
/home/jeferson/optee/optee_os-rpi4/lib/libutee/tee_system_pta.c:69
    1860:	4f000400 	movi	v0.4s, #0x0
/home/jeferson/optee/optee_os-rpi4/lib/libutee/tee_system_pta.c:63
    1864:	910003fd 	mov	x29, sp
    1868:	f9409842 	ldr	x2, [x2, #304]
    186c:	a90153f3 	stp	x19, x20, [sp, #16]
    1870:	aa0003f3 	mov	x19, x0
    1874:	f90013f5 	str	x21, [sp, #32]
    1878:	aa0103f5 	mov	x21, x1
    187c:	f9400040 	ldr	x0, [x2]
    1880:	f9003fe0 	str	x0, [sp, #120]
    1884:	d2800000 	mov	x0, #0x0                   	// #0
/home/jeferson/optee/optee_os-rpi4/lib/libutee/tee_system_pta.c:69
    1888:	9100e3e2 	add	x2, sp, #0x38
reg_pair_from_64():
/home/jeferson/optee/optee_os-rpi4/lib/libutils/ext/include/util.h:172
    188c:	d360fe60 	lsr	x0, x19, #32
tee_unmap():
/home/jeferson/optee/optee_os-rpi4/lib/libutee/tee_system_pta.c:69
    1890:	ad000040 	stp	q0, q0, [x2]
    1894:	ad010040 	stp	q0, q0, [x2, #32]
/home/jeferson/optee/optee_os-rpi4/lib/libutee/tee_system_pta.c:71
    1898:	b9003be1 	str	w1, [sp, #56]
/home/jeferson/optee/optee_os-rpi4/lib/libutee/tee_system_pta.c:74
    189c:	52800221 	mov	w1, #0x11                  	// #17
reg_pair_from_64():
/home/jeferson/optee/optee_os-rpi4/lib/libutils/ext/include/util.h:173
    18a0:	29094fe0 	stp	w0, w19, [sp, #72]
tee_unmap():
/home/jeferson/optee/optee_os-rpi4/lib/libutee/tee_system_pta.c:74
    18a4:	52800060 	mov	w0, #0x3                   	// #3
    18a8:	97ffffa6 	bl	1740 <invoke_system_pta>
    18ac:	2a0003f4 	mov	w20, w0
/home/jeferson/optee/optee_os-rpi4/lib/libutee/tee_system_pta.c:75
    18b0:	34000180 	cbz	w0, 18e0 <tee_unmap+0x88>
/home/jeferson/optee/optee_os-rpi4/lib/libutee/tee_system_pta.c:76
    18b4:	d0000060 	adrp	x0, f000 <__text_end+0x2508>
    18b8:	9116a000 	add	x0, x0, #0x5a8
    18bc:	d0000064 	adrp	x4, f000 <__text_end+0x2508>
    18c0:	aa1503e6 	mov	x6, x21
    18c4:	aa1303e5 	mov	x5, x19
    18c8:	912b6c84 	add	x4, x4, #0xadb
    18cc:	91004000 	add	x0, x0, #0x10
    18d0:	52800023 	mov	w3, #0x1                   	// #1
    18d4:	52800022 	mov	w2, #0x1                   	// #1
    18d8:	52800981 	mov	w1, #0x4c                  	// #76
    18dc:	97fffed5 	bl	1430 <trace_printf>
/home/jeferson/optee/optee_os-rpi4/lib/libutee/tee_system_pta.c:79
    18e0:	90000082 	adrp	x2, 11000 <_DYNAMIC>
    18e4:	f9409842 	ldr	x2, [x2, #304]
    18e8:	f9403fe0 	ldr	x0, [sp, #120]
    18ec:	f9400041 	ldr	x1, [x2]
    18f0:	eb010000 	subs	x0, x0, x1
    18f4:	d2800001 	mov	x1, #0x0                   	// #0
    18f8:	54000040 	b.eq	1900 <tee_unmap+0xa8>  // b.none
    18fc:	97fffab0 	bl	3bc <__stack_chk_fail>
    1900:	2a1403e0 	mov	w0, w20
    1904:	a94153f3 	ldp	x19, x20, [sp, #16]
    1908:	f94013f5 	ldr	x21, [sp, #32]
    190c:	a8c87bfd 	ldp	x29, x30, [sp], #128
    1910:	d65f03c0 	ret

0000000000001914 <tee_invoke_supp_plugin>:
tee_invoke_supp_plugin():
/home/jeferson/optee/optee_os-rpi4/lib/libutee/tee_system_pta.c:84
    1914:	a9b97bfd 	stp	x29, x30, [sp, #-112]!
    1918:	90000086 	adrp	x6, 11000 <_DYNAMIC>
    191c:	2a0203e7 	mov	w7, w2
/home/jeferson/optee/optee_os-rpi4/lib/libutee/tee_system_pta.c:90
    1920:	4f000400 	movi	v0.4s, #0x0
/home/jeferson/optee/optee_os-rpi4/lib/libutee/tee_system_pta.c:84
    1924:	910003fd 	mov	x29, sp
    1928:	f94098c6 	ldr	x6, [x6, #304]
    192c:	a90153f3 	stp	x19, x20, [sp, #16]
    1930:	f94000c2 	ldr	x2, [x6]
    1934:	f90037e2 	str	x2, [sp, #104]
    1938:	d2800002 	mov	x2, #0x0                   	// #0
/home/jeferson/optee/optee_os-rpi4/lib/libutee/tee_system_pta.c:90
    193c:	9100a3e2 	add	x2, sp, #0x28
    1940:	ad000040 	stp	q0, q0, [x2]
    1944:	ad010040 	stp	q0, q0, [x2, #32]
/home/jeferson/optee/optee_os-rpi4/lib/libutee/tee_system_pta.c:92
    1948:	b40004e0 	cbz	x0, 19e4 <tee_invoke_supp_plugin+0xd0>
/home/jeferson/optee/optee_os-rpi4/lib/libutee/tee_system_pta.c:92 (discriminator 1)
    194c:	f100009f 	cmp	x4, #0x0
    1950:	fa401860 	ccmp	x3, #0x0, #0x0, ne  // ne = any
    1954:	54000480 	b.eq	19e4 <tee_invoke_supp_plugin+0xd0>  // b.none
/home/jeferson/optee/optee_os-rpi4/lib/libutee/tee_system_pta.c:92 (discriminator 2)
    1958:	f100009f 	cmp	x4, #0x0
    195c:	fa400864 	ccmp	x3, #0x0, #0x4, eq  // eq = none
    1960:	54000421 	b.ne	19e4 <tee_invoke_supp_plugin+0xd0>  // b.any
/home/jeferson/optee/optee_os-rpi4/lib/libutee/tee_system_pta.c:95
    1964:	f90017e0 	str	x0, [sp, #40]
/home/jeferson/optee/optee_os-rpi4/lib/libutee/tee_system_pta.c:96
    1968:	d2800200 	mov	x0, #0x10                  	// #16
    196c:	aa0503f4 	mov	x20, x5
    1970:	f9001be0 	str	x0, [sp, #48]
/home/jeferson/optee/optee_os-rpi4/lib/libutee/tee_system_pta.c:102
    1974:	528001a0 	mov	w0, #0xd                   	// #13
/home/jeferson/optee/optee_os-rpi4/lib/libutee/tee_system_pta.c:98
    1978:	29071fe1 	stp	w1, w7, [sp, #56]
/home/jeferson/optee/optee_os-rpi4/lib/libutee/tee_system_pta.c:102
    197c:	5284e2a1 	mov	w1, #0x2715                	// #10005
/home/jeferson/optee/optee_os-rpi4/lib/libutee/tee_system_pta.c:100
    1980:	a90493e3 	stp	x3, x4, [sp, #72]
/home/jeferson/optee/optee_os-rpi4/lib/libutee/tee_system_pta.c:102
    1984:	97ffff6f 	bl	1740 <invoke_system_pta>
    1988:	2a0003f3 	mov	w19, w0
/home/jeferson/optee/optee_os-rpi4/lib/libutee/tee_system_pta.c:104
    198c:	34000160 	cbz	w0, 19b8 <tee_invoke_supp_plugin+0xa4>
/home/jeferson/optee/optee_os-rpi4/lib/libutee/tee_system_pta.c:105
    1990:	2a0003e5 	mov	w5, w0
    1994:	d0000060 	adrp	x0, f000 <__text_end+0x2508>
    1998:	9116a000 	add	x0, x0, #0x5a8
    199c:	d0000064 	adrp	x4, f000 <__text_end+0x2508>
    19a0:	91006800 	add	x0, x0, #0x1a
    19a4:	912c1484 	add	x4, x4, #0xb05
    19a8:	52800023 	mov	w3, #0x1                   	// #1
    19ac:	52800022 	mov	w2, #0x1                   	// #1
    19b0:	52800d21 	mov	w1, #0x69                  	// #105
    19b4:	97fffe9f 	bl	1430 <trace_printf>
/home/jeferson/optee/optee_os-rpi4/lib/libutee/tee_system_pta.c:107
    19b8:	b4000074 	cbz	x20, 19c4 <tee_invoke_supp_plugin+0xb0>
/home/jeferson/optee/optee_os-rpi4/lib/libutee/tee_system_pta.c:108
    19bc:	b9405be0 	ldr	w0, [sp, #88]
    19c0:	f9000280 	str	x0, [x20]
/home/jeferson/optee/optee_os-rpi4/lib/libutee/tee_system_pta.c:111
    19c4:	90000086 	adrp	x6, 11000 <_DYNAMIC>
    19c8:	f94098c6 	ldr	x6, [x6, #304]
    19cc:	f94037e0 	ldr	x0, [sp, #104]
    19d0:	f94000c1 	ldr	x1, [x6]
    19d4:	eb010000 	subs	x0, x0, x1
    19d8:	d2800001 	mov	x1, #0x0                   	// #0
    19dc:	54000080 	b.eq	19ec <tee_invoke_supp_plugin+0xd8>  // b.none
    19e0:	97fffa77 	bl	3bc <__stack_chk_fail>
/home/jeferson/optee/optee_os-rpi4/lib/libutee/tee_system_pta.c:93
    19e4:	129fff33 	mov	w19, #0xffff0006            	// #-65530
    19e8:	17fffff7 	b	19c4 <tee_invoke_supp_plugin+0xb0>
/home/jeferson/optee/optee_os-rpi4/lib/libutee/tee_system_pta.c:111
    19ec:	2a1303e0 	mov	w0, w19
    19f0:	a94153f3 	ldp	x19, x20, [sp, #16]
    19f4:	a8c77bfd 	ldp	x29, x30, [sp], #112
    19f8:	d65f03c0 	ret

00000000000019fc <_utee_panic>:
_utee_panic():
/home/jeferson/optee/optee_os-rpi4/lib/libutee/arch/arm/utee_syscalls_a64.S:41
    19fc:	a9bf7bfd 	stp	x29, x30, [sp, #-16]!
/home/jeferson/optee/optee_os-rpi4/lib/libutee/arch/arm/utee_syscalls_a64.S:42
    1a00:	910003e1 	mov	x1, sp
/home/jeferson/optee/optee_os-rpi4/lib/libutee/arch/arm/utee_syscalls_a64.S:43
    1a04:	94000007 	bl	1a20 <__utee_panic>

0000000000001a08 <_utee_return>:
_utee_return():
/home/jeferson/optee/optee_os-rpi4/lib/libutee/include/utee_syscalls_asm.S:8
    1a08:	d2800008 	mov	x8, #0x0                   	// #0
    1a0c:	d4000001 	svc	#0x0
    1a10:	d65f03c0 	ret

0000000000001a14 <_utee_log>:
_utee_log():
/home/jeferson/optee/optee_os-rpi4/lib/libutee/include/utee_syscalls_asm.S:10
    1a14:	d2800028 	mov	x8, #0x1                   	// #1
    1a18:	d4000001 	svc	#0x0
    1a1c:	d65f03c0 	ret

0000000000001a20 <__utee_panic>:
__utee_panic():
/home/jeferson/optee/optee_os-rpi4/lib/libutee/include/utee_syscalls_asm.S:12
    1a20:	d2800048 	mov	x8, #0x2                   	// #2
    1a24:	d4000001 	svc	#0x0
    1a28:	d65f03c0 	ret

0000000000001a2c <_utee_get_property>:
_utee_get_property():
/home/jeferson/optee/optee_os-rpi4/lib/libutee/include/utee_syscalls_asm.S:14
    1a2c:	d2800068 	mov	x8, #0x3                   	// #3
    1a30:	d4000001 	svc	#0x0
    1a34:	d65f03c0 	ret

0000000000001a38 <_utee_get_property_name_to_index>:
_utee_get_property_name_to_index():
/home/jeferson/optee/optee_os-rpi4/lib/libutee/include/utee_syscalls_asm.S:16
    1a38:	d2800088 	mov	x8, #0x4                   	// #4
    1a3c:	d4000001 	svc	#0x0
    1a40:	d65f03c0 	ret

0000000000001a44 <_utee_open_ta_session>:
_utee_open_ta_session():
/home/jeferson/optee/optee_os-rpi4/lib/libutee/include/utee_syscalls_asm.S:19
    1a44:	d28000a8 	mov	x8, #0x5                   	// #5
    1a48:	d4000001 	svc	#0x0
    1a4c:	d65f03c0 	ret

0000000000001a50 <_utee_close_ta_session>:
_utee_close_ta_session():
/home/jeferson/optee/optee_os-rpi4/lib/libutee/include/utee_syscalls_asm.S:21
    1a50:	d28000c8 	mov	x8, #0x6                   	// #6
    1a54:	d4000001 	svc	#0x0
    1a58:	d65f03c0 	ret

0000000000001a5c <_utee_invoke_ta_command>:
_utee_invoke_ta_command():
/home/jeferson/optee/optee_os-rpi4/lib/libutee/include/utee_syscalls_asm.S:23
    1a5c:	d28000e8 	mov	x8, #0x7                   	// #7
    1a60:	d4000001 	svc	#0x0
    1a64:	d65f03c0 	ret

0000000000001a68 <_utee_get_cancellation_flag>:
_utee_get_cancellation_flag():
/home/jeferson/optee/optee_os-rpi4/lib/libutee/include/utee_syscalls_asm.S:25
    1a68:	d2800128 	mov	x8, #0x9                   	// #9
    1a6c:	d4000001 	svc	#0x0
    1a70:	d65f03c0 	ret

0000000000001a74 <_utee_check_access_rights>:
_utee_check_access_rights():
/home/jeferson/optee/optee_os-rpi4/lib/libutee/include/utee_syscalls_asm.S:28
    1a74:	d2800108 	mov	x8, #0x8                   	// #8
    1a78:	d4000001 	svc	#0x0
    1a7c:	d65f03c0 	ret

0000000000001a80 <_utee_unmask_cancellation>:
_utee_unmask_cancellation():
/home/jeferson/optee/optee_os-rpi4/lib/libutee/include/utee_syscalls_asm.S:30
    1a80:	d2800148 	mov	x8, #0xa                   	// #10
    1a84:	d4000001 	svc	#0x0
    1a88:	d65f03c0 	ret

0000000000001a8c <_utee_mask_cancellation>:
_utee_mask_cancellation():
/home/jeferson/optee/optee_os-rpi4/lib/libutee/include/utee_syscalls_asm.S:32
    1a8c:	d2800168 	mov	x8, #0xb                   	// #11
    1a90:	d4000001 	svc	#0x0
    1a94:	d65f03c0 	ret

0000000000001a98 <_utee_wait>:
_utee_wait():
/home/jeferson/optee/optee_os-rpi4/lib/libutee/include/utee_syscalls_asm.S:34
    1a98:	d2800188 	mov	x8, #0xc                   	// #12
    1a9c:	d4000001 	svc	#0x0
    1aa0:	d65f03c0 	ret

0000000000001aa4 <_utee_get_time>:
_utee_get_time():
/home/jeferson/optee/optee_os-rpi4/lib/libutee/include/utee_syscalls_asm.S:36
    1aa4:	d28001a8 	mov	x8, #0xd                   	// #13
    1aa8:	d4000001 	svc	#0x0
    1aac:	d65f03c0 	ret

0000000000001ab0 <_utee_set_ta_time>:
_utee_set_ta_time():
/home/jeferson/optee/optee_os-rpi4/lib/libutee/include/utee_syscalls_asm.S:38
    1ab0:	d28001c8 	mov	x8, #0xe                   	// #14
    1ab4:	d4000001 	svc	#0x0
    1ab8:	d65f03c0 	ret

0000000000001abc <_utee_cryp_state_alloc>:
_utee_cryp_state_alloc():
/home/jeferson/optee/optee_os-rpi4/lib/libutee/include/utee_syscalls_asm.S:40
    1abc:	d28001e8 	mov	x8, #0xf                   	// #15
    1ac0:	d4000001 	svc	#0x0
    1ac4:	d65f03c0 	ret

0000000000001ac8 <_utee_cryp_state_copy>:
_utee_cryp_state_copy():
/home/jeferson/optee/optee_os-rpi4/lib/libutee/include/utee_syscalls_asm.S:42
    1ac8:	d2800208 	mov	x8, #0x10                  	// #16
    1acc:	d4000001 	svc	#0x0
    1ad0:	d65f03c0 	ret

0000000000001ad4 <_utee_cryp_state_free>:
_utee_cryp_state_free():
/home/jeferson/optee/optee_os-rpi4/lib/libutee/include/utee_syscalls_asm.S:44
    1ad4:	d2800228 	mov	x8, #0x11                  	// #17
    1ad8:	d4000001 	svc	#0x0
    1adc:	d65f03c0 	ret

0000000000001ae0 <_utee_hash_init>:
_utee_hash_init():
/home/jeferson/optee/optee_os-rpi4/lib/libutee/include/utee_syscalls_asm.S:46
    1ae0:	d2800248 	mov	x8, #0x12                  	// #18
    1ae4:	d4000001 	svc	#0x0
    1ae8:	d65f03c0 	ret

0000000000001aec <_utee_hash_update>:
_utee_hash_update():
/home/jeferson/optee/optee_os-rpi4/lib/libutee/include/utee_syscalls_asm.S:48
    1aec:	d2800268 	mov	x8, #0x13                  	// #19
    1af0:	d4000001 	svc	#0x0
    1af4:	d65f03c0 	ret

0000000000001af8 <_utee_hash_final>:
_utee_hash_final():
/home/jeferson/optee/optee_os-rpi4/lib/libutee/include/utee_syscalls_asm.S:50
    1af8:	d2800288 	mov	x8, #0x14                  	// #20
    1afc:	d4000001 	svc	#0x0
    1b00:	d65f03c0 	ret

0000000000001b04 <_utee_cipher_init>:
_utee_cipher_init():
/home/jeferson/optee/optee_os-rpi4/lib/libutee/include/utee_syscalls_asm.S:52
    1b04:	d28002a8 	mov	x8, #0x15                  	// #21
    1b08:	d4000001 	svc	#0x0
    1b0c:	d65f03c0 	ret

0000000000001b10 <_utee_cipher_update>:
_utee_cipher_update():
/home/jeferson/optee/optee_os-rpi4/lib/libutee/include/utee_syscalls_asm.S:54
    1b10:	d28002c8 	mov	x8, #0x16                  	// #22
    1b14:	d4000001 	svc	#0x0
    1b18:	d65f03c0 	ret

0000000000001b1c <_utee_cipher_final>:
_utee_cipher_final():
/home/jeferson/optee/optee_os-rpi4/lib/libutee/include/utee_syscalls_asm.S:56
    1b1c:	d28002e8 	mov	x8, #0x17                  	// #23
    1b20:	d4000001 	svc	#0x0
    1b24:	d65f03c0 	ret

0000000000001b28 <_utee_cryp_obj_get_info>:
_utee_cryp_obj_get_info():
/home/jeferson/optee/optee_os-rpi4/lib/libutee/include/utee_syscalls_asm.S:58
    1b28:	d2800308 	mov	x8, #0x18                  	// #24
    1b2c:	d4000001 	svc	#0x0
    1b30:	d65f03c0 	ret

0000000000001b34 <_utee_cryp_obj_restrict_usage>:
_utee_cryp_obj_restrict_usage():
/home/jeferson/optee/optee_os-rpi4/lib/libutee/include/utee_syscalls_asm.S:60
    1b34:	d2800328 	mov	x8, #0x19                  	// #25
    1b38:	d4000001 	svc	#0x0
    1b3c:	d65f03c0 	ret

0000000000001b40 <_utee_cryp_obj_get_attr>:
_utee_cryp_obj_get_attr():
/home/jeferson/optee/optee_os-rpi4/lib/libutee/include/utee_syscalls_asm.S:63
    1b40:	d2800348 	mov	x8, #0x1a                  	// #26
    1b44:	d4000001 	svc	#0x0
    1b48:	d65f03c0 	ret

0000000000001b4c <_utee_cryp_obj_alloc>:
_utee_cryp_obj_alloc():
/home/jeferson/optee/optee_os-rpi4/lib/libutee/include/utee_syscalls_asm.S:65
    1b4c:	d2800368 	mov	x8, #0x1b                  	// #27
    1b50:	d4000001 	svc	#0x0
    1b54:	d65f03c0 	ret

0000000000001b58 <_utee_cryp_obj_close>:
_utee_cryp_obj_close():
/home/jeferson/optee/optee_os-rpi4/lib/libutee/include/utee_syscalls_asm.S:67
    1b58:	d2800388 	mov	x8, #0x1c                  	// #28
    1b5c:	d4000001 	svc	#0x0
    1b60:	d65f03c0 	ret

0000000000001b64 <_utee_cryp_obj_reset>:
_utee_cryp_obj_reset():
/home/jeferson/optee/optee_os-rpi4/lib/libutee/include/utee_syscalls_asm.S:69
    1b64:	d28003a8 	mov	x8, #0x1d                  	// #29
    1b68:	d4000001 	svc	#0x0
    1b6c:	d65f03c0 	ret

0000000000001b70 <_utee_cryp_obj_populate>:
_utee_cryp_obj_populate():
/home/jeferson/optee/optee_os-rpi4/lib/libutee/include/utee_syscalls_asm.S:71
    1b70:	d28003c8 	mov	x8, #0x1e                  	// #30
    1b74:	d4000001 	svc	#0x0
    1b78:	d65f03c0 	ret

0000000000001b7c <_utee_cryp_obj_copy>:
_utee_cryp_obj_copy():
/home/jeferson/optee/optee_os-rpi4/lib/libutee/include/utee_syscalls_asm.S:73
    1b7c:	d28003e8 	mov	x8, #0x1f                  	// #31
    1b80:	d4000001 	svc	#0x0
    1b84:	d65f03c0 	ret

0000000000001b88 <_utee_cryp_derive_key>:
_utee_cryp_derive_key():
/home/jeferson/optee/optee_os-rpi4/lib/libutee/include/utee_syscalls_asm.S:75
    1b88:	d2800408 	mov	x8, #0x20                  	// #32
    1b8c:	d4000001 	svc	#0x0
    1b90:	d65f03c0 	ret

0000000000001b94 <_utee_cryp_random_number_generate>:
_utee_cryp_random_number_generate():
/home/jeferson/optee/optee_os-rpi4/lib/libutee/include/utee_syscalls_asm.S:77
    1b94:	d2800428 	mov	x8, #0x21                  	// #33
    1b98:	d4000001 	svc	#0x0
    1b9c:	d65f03c0 	ret

0000000000001ba0 <_utee_authenc_init>:
_utee_authenc_init():
/home/jeferson/optee/optee_os-rpi4/lib/libutee/include/utee_syscalls_asm.S:80
    1ba0:	d2800448 	mov	x8, #0x22                  	// #34
    1ba4:	d4000001 	svc	#0x0
    1ba8:	d65f03c0 	ret

0000000000001bac <_utee_authenc_update_aad>:
_utee_authenc_update_aad():
/home/jeferson/optee/optee_os-rpi4/lib/libutee/include/utee_syscalls_asm.S:82
    1bac:	d2800468 	mov	x8, #0x23                  	// #35
    1bb0:	d4000001 	svc	#0x0
    1bb4:	d65f03c0 	ret

0000000000001bb8 <_utee_authenc_update_payload>:
_utee_authenc_update_payload():
/home/jeferson/optee/optee_os-rpi4/lib/libutee/include/utee_syscalls_asm.S:84
    1bb8:	d2800488 	mov	x8, #0x24                  	// #36
    1bbc:	d4000001 	svc	#0x0
    1bc0:	d65f03c0 	ret

0000000000001bc4 <_utee_authenc_enc_final>:
_utee_authenc_enc_final():
/home/jeferson/optee/optee_os-rpi4/lib/libutee/include/utee_syscalls_asm.S:87
    1bc4:	d28004a8 	mov	x8, #0x25                  	// #37
    1bc8:	d4000001 	svc	#0x0
    1bcc:	d65f03c0 	ret

0000000000001bd0 <_utee_authenc_dec_final>:
_utee_authenc_dec_final():
/home/jeferson/optee/optee_os-rpi4/lib/libutee/include/utee_syscalls_asm.S:89
    1bd0:	d28004c8 	mov	x8, #0x26                  	// #38
    1bd4:	d4000001 	svc	#0x0
    1bd8:	d65f03c0 	ret

0000000000001bdc <_utee_asymm_operate>:
_utee_asymm_operate():
/home/jeferson/optee/optee_os-rpi4/lib/libutee/include/utee_syscalls_asm.S:91
    1bdc:	d28004e8 	mov	x8, #0x27                  	// #39
    1be0:	d4000001 	svc	#0x0
    1be4:	d65f03c0 	ret

0000000000001be8 <_utee_asymm_verify>:
_utee_asymm_verify():
/home/jeferson/optee/optee_os-rpi4/lib/libutee/include/utee_syscalls_asm.S:93
    1be8:	d2800508 	mov	x8, #0x28                  	// #40
    1bec:	d4000001 	svc	#0x0
    1bf0:	d65f03c0 	ret

0000000000001bf4 <_utee_storage_obj_open>:
_utee_storage_obj_open():
/home/jeferson/optee/optee_os-rpi4/lib/libutee/include/utee_syscalls_asm.S:95
    1bf4:	d2800528 	mov	x8, #0x29                  	// #41
    1bf8:	d4000001 	svc	#0x0
    1bfc:	d65f03c0 	ret

0000000000001c00 <_utee_storage_obj_create>:
_utee_storage_obj_create():
/home/jeferson/optee/optee_os-rpi4/lib/libutee/include/utee_syscalls_asm.S:97
    1c00:	d2800548 	mov	x8, #0x2a                  	// #42
    1c04:	d4000001 	svc	#0x0
    1c08:	d65f03c0 	ret

0000000000001c0c <_utee_storage_obj_del>:
_utee_storage_obj_del():
/home/jeferson/optee/optee_os-rpi4/lib/libutee/include/utee_syscalls_asm.S:99
    1c0c:	d2800568 	mov	x8, #0x2b                  	// #43
    1c10:	d4000001 	svc	#0x0
    1c14:	d65f03c0 	ret

0000000000001c18 <_utee_storage_obj_rename>:
_utee_storage_obj_rename():
/home/jeferson/optee/optee_os-rpi4/lib/libutee/include/utee_syscalls_asm.S:101
    1c18:	d2800588 	mov	x8, #0x2c                  	// #44
    1c1c:	d4000001 	svc	#0x0
    1c20:	d65f03c0 	ret

0000000000001c24 <_utee_storage_alloc_enum>:
_utee_storage_alloc_enum():
/home/jeferson/optee/optee_os-rpi4/lib/libutee/include/utee_syscalls_asm.S:103
    1c24:	d28005a8 	mov	x8, #0x2d                  	// #45
    1c28:	d4000001 	svc	#0x0
    1c2c:	d65f03c0 	ret

0000000000001c30 <_utee_storage_free_enum>:
_utee_storage_free_enum():
/home/jeferson/optee/optee_os-rpi4/lib/libutee/include/utee_syscalls_asm.S:105
    1c30:	d28005c8 	mov	x8, #0x2e                  	// #46
    1c34:	d4000001 	svc	#0x0
    1c38:	d65f03c0 	ret

0000000000001c3c <_utee_storage_reset_enum>:
_utee_storage_reset_enum():
/home/jeferson/optee/optee_os-rpi4/lib/libutee/include/utee_syscalls_asm.S:107
    1c3c:	d28005e8 	mov	x8, #0x2f                  	// #47
    1c40:	d4000001 	svc	#0x0
    1c44:	d65f03c0 	ret

0000000000001c48 <_utee_storage_start_enum>:
_utee_storage_start_enum():
/home/jeferson/optee/optee_os-rpi4/lib/libutee/include/utee_syscalls_asm.S:109
    1c48:	d2800608 	mov	x8, #0x30                  	// #48
    1c4c:	d4000001 	svc	#0x0
    1c50:	d65f03c0 	ret

0000000000001c54 <_utee_storage_next_enum>:
_utee_storage_next_enum():
/home/jeferson/optee/optee_os-rpi4/lib/libutee/include/utee_syscalls_asm.S:111
    1c54:	d2800628 	mov	x8, #0x31                  	// #49
    1c58:	d4000001 	svc	#0x0
    1c5c:	d65f03c0 	ret

0000000000001c60 <_utee_storage_obj_read>:
_utee_storage_obj_read():
/home/jeferson/optee/optee_os-rpi4/lib/libutee/include/utee_syscalls_asm.S:113
    1c60:	d2800648 	mov	x8, #0x32                  	// #50
    1c64:	d4000001 	svc	#0x0
    1c68:	d65f03c0 	ret

0000000000001c6c <_utee_storage_obj_write>:
_utee_storage_obj_write():
/home/jeferson/optee/optee_os-rpi4/lib/libutee/include/utee_syscalls_asm.S:115
    1c6c:	d2800668 	mov	x8, #0x33                  	// #51
    1c70:	d4000001 	svc	#0x0
    1c74:	d65f03c0 	ret

0000000000001c78 <_utee_storage_obj_trunc>:
_utee_storage_obj_trunc():
/home/jeferson/optee/optee_os-rpi4/lib/libutee/include/utee_syscalls_asm.S:117
    1c78:	d2800688 	mov	x8, #0x34                  	// #52
    1c7c:	d4000001 	svc	#0x0
    1c80:	d65f03c0 	ret

0000000000001c84 <_utee_storage_obj_seek>:
_utee_storage_obj_seek():
/home/jeferson/optee/optee_os-rpi4/lib/libutee/include/utee_syscalls_asm.S:119
    1c84:	d28006a8 	mov	x8, #0x35                  	// #53
    1c88:	d4000001 	svc	#0x0
    1c8c:	d65f03c0 	ret

0000000000001c90 <_utee_cryp_obj_generate_key>:
_utee_cryp_obj_generate_key():
/home/jeferson/optee/optee_os-rpi4/lib/libutee/include/utee_syscalls_asm.S:121
    1c90:	d28006c8 	mov	x8, #0x36                  	// #54
    1c94:	d4000001 	svc	#0x0
    1c98:	d65f03c0 	ret

0000000000001c9c <_utee_cache_operation>:
_utee_cache_operation():
/home/jeferson/optee/optee_os-rpi4/lib/libutee/include/utee_syscalls_asm.S:124
    1c9c:	d28008c8 	mov	x8, #0x46                  	// #70
    1ca0:	d4000001 	svc	#0x0
    1ca4:	d65f03c0 	ret

0000000000001ca8 <_get_fn_array>:
_get_fn_array():
/home/jeferson/optee/optee_os-rpi4/lib/libutee/arch/arm/user_ta_entry.c:84
    1ca8:	79403009 	ldrh	w9, [x0, #24]
/home/jeferson/optee/optee_os-rpi4/lib/libutee/arch/arm/user_ta_entry.c:95
    1cac:	93407c21 	sxtw	x1, w1
/home/jeferson/optee/optee_os-rpi4/lib/libutee/arch/arm/user_ta_entry.c:98
    1cb0:	93407c42 	sxtw	x2, w2
/home/jeferson/optee/optee_os-rpi4/lib/libutee/arch/arm/user_ta_entry.c:84
    1cb4:	d2800007 	mov	x7, #0x0                   	// #0
/home/jeferson/optee/optee_os-rpi4/lib/libutee/arch/arm/user_ta_entry.c:85
    1cb8:	d280070a 	mov	x10, #0x38                  	// #56
/home/jeferson/optee/optee_os-rpi4/lib/libutee/arch/arm/user_ta_entry.c:84 (discriminator 1)
    1cbc:	eb07013f 	cmp	x9, x7
    1cc0:	54000048 	b.hi	1cc8 <_get_fn_array+0x20>  // b.pmore
/home/jeferson/optee/optee_os-rpi4/lib/libutee/arch/arm/user_ta_entry.c:104
    1cc4:	d65f03c0 	ret
/home/jeferson/optee/optee_os-rpi4/lib/libutee/arch/arm/user_ta_entry.c:85
    1cc8:	9b0a7ce5 	mul	x5, x7, x10
    1ccc:	f9400808 	ldr	x8, [x0, #16]
    1cd0:	8b050106 	add	x6, x8, x5
/home/jeferson/optee/optee_os-rpi4/lib/libutee/arch/arm/user_ta_entry.c:86
    1cd4:	b8656905 	ldr	w5, [x8, x5]
    1cd8:	710008bf 	cmp	w5, #0x2
    1cdc:	54000060 	b.eq	1ce8 <_get_fn_array+0x40>  // b.none
/home/jeferson/optee/optee_os-rpi4/lib/libutee/arch/arm/user_ta_entry.c:84
    1ce0:	910004e7 	add	x7, x7, #0x1
    1ce4:	17fffff6 	b	1cbc <_get_fn_array+0x14>
/home/jeferson/optee/optee_os-rpi4/lib/libutee/arch/arm/user_ta_entry.c:89
    1ce8:	f9400008 	ldr	x8, [x0]
    1cec:	f94008c5 	ldr	x5, [x6, #16]
/home/jeferson/optee/optee_os-rpi4/lib/libutee/arch/arm/user_ta_entry.c:88
    1cf0:	f94014c6 	ldr	x6, [x6, #40]
/home/jeferson/optee/optee_os-rpi4/lib/libutee/arch/arm/user_ta_entry.c:89
    1cf4:	8b0800a5 	add	x5, x5, x8
/home/jeferson/optee/optee_os-rpi4/lib/libutee/arch/arm/user_ta_entry.c:90
    1cf8:	927cecc6 	and	x6, x6, #0xfffffffffffffff0
    1cfc:	8b0500c6 	add	x6, x6, x5
/home/jeferson/optee/optee_os-rpi4/lib/libutee/arch/arm/user_ta_entry.c:90 (discriminator 1)
    1d00:	eb0600bf 	cmp	x5, x6
    1d04:	54fffee0 	b.eq	1ce0 <_get_fn_array+0x38>  // b.none
/home/jeferson/optee/optee_os-rpi4/lib/libutee/arch/arm/user_ta_entry.c:91
    1d08:	f9400068 	ldr	x8, [x3]
    1d0c:	b4000068 	cbz	x8, 1d18 <_get_fn_array+0x70>
/home/jeferson/optee/optee_os-rpi4/lib/libutee/arch/arm/user_ta_entry.c:91 (discriminator 1)
    1d10:	f9400088 	ldr	x8, [x4]
    1d14:	b5fffe68 	cbnz	x8, 1ce0 <_get_fn_array+0x38>
/home/jeferson/optee/optee_os-rpi4/lib/libutee/arch/arm/user_ta_entry.c:93
    1d18:	f94000a8 	ldr	x8, [x5]
    1d1c:	b4fffe28 	cbz	x8, 1ce0 <_get_fn_array+0x38>
/home/jeferson/optee/optee_os-rpi4/lib/libutee/arch/arm/user_ta_entry.c:95
    1d20:	eb01011f 	cmp	x8, x1
    1d24:	540000e1 	b.ne	1d40 <_get_fn_array+0x98>  // b.any
/home/jeferson/optee/optee_os-rpi4/lib/libutee/arch/arm/user_ta_entry.c:96
    1d28:	f940000b 	ldr	x11, [x0]
    1d2c:	f94004a8 	ldr	x8, [x5, #8]
    1d30:	8b0b0108 	add	x8, x8, x11
    1d34:	f9000068 	str	x8, [x3]
/home/jeferson/optee/optee_os-rpi4/lib/libutee/arch/arm/user_ta_entry.c:101 (discriminator 2)
    1d38:	910040a5 	add	x5, x5, #0x10
/home/jeferson/optee/optee_os-rpi4/lib/libutee/arch/arm/user_ta_entry.c:90 (discriminator 2)
    1d3c:	17fffff1 	b	1d00 <_get_fn_array+0x58>
/home/jeferson/optee/optee_os-rpi4/lib/libutee/arch/arm/user_ta_entry.c:98
    1d40:	eb02011f 	cmp	x8, x2
    1d44:	54ffffa1 	b.ne	1d38 <_get_fn_array+0x90>  // b.any
/home/jeferson/optee/optee_os-rpi4/lib/libutee/arch/arm/user_ta_entry.c:99
    1d48:	f94004a8 	ldr	x8, [x5, #8]
    1d4c:	d343fd08 	lsr	x8, x8, #3
    1d50:	f9000088 	str	x8, [x4]
    1d54:	17fffff9 	b	1d38 <_get_fn_array+0x90>

0000000000001d58 <_fini_iterate_phdr_cb>:
_fini_iterate_phdr_cb():
/home/jeferson/optee/optee_os-rpi4/lib/libutee/arch/arm/user_ta_entry.c:140
    1d58:	a9bc7bfd 	stp	x29, x30, [sp, #-64]!
    1d5c:	90000081 	adrp	x1, 11000 <_DYNAMIC>
    1d60:	910003fd 	mov	x29, sp
    1d64:	f9409821 	ldr	x1, [x1, #304]
    1d68:	f9000bf3 	str	x19, [sp, #16]
/home/jeferson/optee/optee_os-rpi4/lib/libutee/arch/arm/user_ta_entry.c:145
    1d6c:	9100c3e4 	add	x4, sp, #0x30
    1d70:	9100a3e3 	add	x3, sp, #0x28
/home/jeferson/optee/optee_os-rpi4/lib/libutee/arch/arm/user_ta_entry.c:140
    1d74:	f9400022 	ldr	x2, [x1]
    1d78:	f9001fe2 	str	x2, [sp, #56]
    1d7c:	d2800002 	mov	x2, #0x0                   	// #0
/home/jeferson/optee/optee_os-rpi4/lib/libutee/arch/arm/user_ta_entry.c:147
    1d80:	d2800033 	mov	x19, #0x1                   	// #1
/home/jeferson/optee/optee_os-rpi4/lib/libutee/arch/arm/user_ta_entry.c:145
    1d84:	52800382 	mov	w2, #0x1c                  	// #28
    1d88:	52800341 	mov	w1, #0x1a                  	// #26
/home/jeferson/optee/optee_os-rpi4/lib/libutee/arch/arm/user_ta_entry.c:142
    1d8c:	a902ffff 	stp	xzr, xzr, [sp, #40]
/home/jeferson/optee/optee_os-rpi4/lib/libutee/arch/arm/user_ta_entry.c:145
    1d90:	97ffffc6 	bl	1ca8 <_get_fn_array>
/home/jeferson/optee/optee_os-rpi4/lib/libutee/arch/arm/user_ta_entry.c:147 (discriminator 1)
    1d94:	f9401be0 	ldr	x0, [sp, #48]
    1d98:	eb13001f 	cmp	x0, x19
    1d9c:	54000122 	b.cs	1dc0 <_fini_iterate_phdr_cb+0x68>  // b.hs, b.nlast
/home/jeferson/optee/optee_os-rpi4/lib/libutee/arch/arm/user_ta_entry.c:151
    1da0:	90000081 	adrp	x1, 11000 <_DYNAMIC>
    1da4:	f9409821 	ldr	x1, [x1, #304]
    1da8:	f9401fe0 	ldr	x0, [sp, #56]
    1dac:	f9400022 	ldr	x2, [x1]
    1db0:	eb020000 	subs	x0, x0, x2
    1db4:	d2800002 	mov	x2, #0x0                   	// #0
    1db8:	54000100 	b.eq	1dd8 <_fini_iterate_phdr_cb+0x80>  // b.none
    1dbc:	97fff980 	bl	3bc <__stack_chk_fail>
/home/jeferson/optee/optee_os-rpi4/lib/libutee/arch/arm/user_ta_entry.c:148 (discriminator 3)
    1dc0:	f94017e1 	ldr	x1, [sp, #40]
    1dc4:	cb130000 	sub	x0, x0, x19
/home/jeferson/optee/optee_os-rpi4/lib/libutee/arch/arm/user_ta_entry.c:147 (discriminator 3)
    1dc8:	91000673 	add	x19, x19, #0x1
/home/jeferson/optee/optee_os-rpi4/lib/libutee/arch/arm/user_ta_entry.c:148 (discriminator 3)
    1dcc:	f8607820 	ldr	x0, [x1, x0, lsl #3]
    1dd0:	d63f0000 	blr	x0
/home/jeferson/optee/optee_os-rpi4/lib/libutee/arch/arm/user_ta_entry.c:147 (discriminator 3)
    1dd4:	17fffff0 	b	1d94 <_fini_iterate_phdr_cb+0x3c>
/home/jeferson/optee/optee_os-rpi4/lib/libutee/arch/arm/user_ta_entry.c:151
    1dd8:	52800000 	mov	w0, #0x0                   	// #0
    1ddc:	f9400bf3 	ldr	x19, [sp, #16]
    1de0:	a8c47bfd 	ldp	x29, x30, [sp], #64
    1de4:	d65f03c0 	ret

0000000000001de8 <ta_header_get_session>:
ta_header_get_session():
/home/jeferson/optee/optee_os-rpi4/lib/libutee/arch/arm/user_ta_entry.c:208
    1de8:	2a0003e1 	mov	w1, w0
/home/jeferson/optee/optee_os-rpi4/lib/libutee/arch/arm/user_ta_entry.c:211
    1dec:	90000080 	adrp	x0, 11000 <_DYNAMIC>
    1df0:	f9426800 	ldr	x0, [x0, #1232]
/home/jeferson/optee/optee_os-rpi4/lib/libutee/arch/arm/user_ta_entry.c:211 (discriminator 1)
    1df4:	b5000040 	cbnz	x0, 1dfc <ta_header_get_session+0x14>
/home/jeferson/optee/optee_os-rpi4/lib/libutee/arch/arm/user_ta_entry.c:216
    1df8:	d65f03c0 	ret
/home/jeferson/optee/optee_os-rpi4/lib/libutee/arch/arm/user_ta_entry.c:212
    1dfc:	b9400002 	ldr	w2, [x0]
    1e00:	6b01005f 	cmp	w2, w1
    1e04:	54ffffa0 	b.eq	1df8 <ta_header_get_session+0x10>  // b.none
/home/jeferson/optee/optee_os-rpi4/lib/libutee/arch/arm/user_ta_entry.c:211 (discriminator 2)
    1e08:	f9400800 	ldr	x0, [x0, #16]
    1e0c:	17fffffa 	b	1df4 <ta_header_get_session+0xc>

0000000000001e10 <to_utee_params>:
to_utee_params():
/home/jeferson/optee/optee_os-rpi4/lib/libutee/arch/arm/user_ta_entry.c:270
    1e10:	2a0103e3 	mov	w3, w1
    1e14:	f8008403 	str	x3, [x0], #8
    1e18:	52800003 	mov	w3, #0x0                   	// #0
/home/jeferson/optee/optee_os-rpi4/lib/libutee/arch/arm/user_ta_entry.c:272
    1e1c:	1ac32425 	lsr	w5, w1, w3
    1e20:	12000ca4 	and	w4, w5, #0xf
    1e24:	721e04bf 	tst	w5, #0xc
    1e28:	54000181 	b.ne	1e58 <to_utee_params+0x48>  // b.any
    1e2c:	340001c4 	cbz	w4, 1e64 <to_utee_params+0x54>
/home/jeferson/optee/optee_os-rpi4/lib/libutee/arch/arm/user_ta_entry.c:276
    1e30:	b9400044 	ldr	w4, [x2]
    1e34:	f9000004 	str	x4, [x0]
/home/jeferson/optee/optee_os-rpi4/lib/libutee/arch/arm/user_ta_entry.c:277
    1e38:	b9400444 	ldr	w4, [x2, #4]
/home/jeferson/optee/optee_os-rpi4/lib/libutee/arch/arm/user_ta_entry.c:271 (discriminator 2)
    1e3c:	11001063 	add	w3, w3, #0x4
/home/jeferson/optee/optee_os-rpi4/lib/libutee/arch/arm/user_ta_entry.c:277 (discriminator 2)
    1e40:	f9000404 	str	x4, [x0, #8]
/home/jeferson/optee/optee_os-rpi4/lib/libutee/arch/arm/user_ta_entry.c:271 (discriminator 2)
    1e44:	91004042 	add	x2, x2, #0x10
    1e48:	91004000 	add	x0, x0, #0x10
    1e4c:	7100407f 	cmp	w3, #0x10
    1e50:	54fffe61 	b.ne	1e1c <to_utee_params+0xc>  // b.any
/home/jeferson/optee/optee_os-rpi4/lib/libutee/arch/arm/user_ta_entry.c:291
    1e54:	d65f03c0 	ret
/home/jeferson/optee/optee_os-rpi4/lib/libutee/arch/arm/user_ta_entry.c:272
    1e58:	51001484 	sub	w4, w4, #0x5
    1e5c:	7100089f 	cmp	w4, #0x2
    1e60:	54000089 	b.ls	1e70 <to_utee_params+0x60>  // b.plast
/home/jeferson/optee/optee_os-rpi4/lib/libutee/arch/arm/user_ta_entry.c:288
    1e64:	d2800004 	mov	x4, #0x0                   	// #0
/home/jeferson/optee/optee_os-rpi4/lib/libutee/arch/arm/user_ta_entry.c:286
    1e68:	f900001f 	str	xzr, [x0]
/home/jeferson/optee/optee_os-rpi4/lib/libutee/arch/arm/user_ta_entry.c:288
    1e6c:	17fffff4 	b	1e3c <to_utee_params+0x2c>
/home/jeferson/optee/optee_os-rpi4/lib/libutee/arch/arm/user_ta_entry.c:282
    1e70:	f9400044 	ldr	x4, [x2]
    1e74:	f9000004 	str	x4, [x0]
/home/jeferson/optee/optee_os-rpi4/lib/libutee/arch/arm/user_ta_entry.c:283
    1e78:	f9400444 	ldr	x4, [x2, #8]
/home/jeferson/optee/optee_os-rpi4/lib/libutee/arch/arm/user_ta_entry.c:284
    1e7c:	17fffff0 	b	1e3c <to_utee_params+0x2c>

0000000000001e80 <from_utee_params>:
from_utee_params():
/home/jeferson/optee/optee_os-rpi4/lib/libutee/arch/arm/user_ta_entry.c:298
    1e80:	f8408445 	ldr	x5, [x2], #8
    1e84:	52800003 	mov	w3, #0x0                   	// #0
    1e88:	2a0503e9 	mov	w9, w5
/home/jeferson/optee/optee_os-rpi4/lib/libutee/arch/arm/user_ta_entry.c:304
    1e8c:	1ac32528 	lsr	w8, w9, w3
    1e90:	12000d04 	and	w4, w8, #0xf
/home/jeferson/optee/optee_os-rpi4/lib/libutee/arch/arm/user_ta_entry.c:302
    1e94:	a9401847 	ldp	x7, x6, [x2]
/home/jeferson/optee/optee_os-rpi4/lib/libutee/arch/arm/user_ta_entry.c:304
    1e98:	721e051f 	tst	w8, #0xc
    1e9c:	54000081 	b.ne	1eac <from_utee_params+0x2c>  // b.any
    1ea0:	340000c4 	cbz	w4, 1eb8 <from_utee_params+0x38>
/home/jeferson/optee/optee_os-rpi4/lib/libutee/arch/arm/user_ta_entry.c:309
    1ea4:	29001807 	stp	w7, w6, [x0]
/home/jeferson/optee/optee_os-rpi4/lib/libutee/arch/arm/user_ta_entry.c:310
    1ea8:	14000004 	b	1eb8 <from_utee_params+0x38>
/home/jeferson/optee/optee_os-rpi4/lib/libutee/arch/arm/user_ta_entry.c:304
    1eac:	51001484 	sub	w4, w4, #0x5
    1eb0:	7100089f 	cmp	w4, #0x2
    1eb4:	54000109 	b.ls	1ed4 <from_utee_params+0x54>  // b.plast
/home/jeferson/optee/optee_os-rpi4/lib/libutee/arch/arm/user_ta_entry.c:300 (discriminator 2)
    1eb8:	11001063 	add	w3, w3, #0x4
    1ebc:	91004042 	add	x2, x2, #0x10
    1ec0:	91004000 	add	x0, x0, #0x10
    1ec4:	7100407f 	cmp	w3, #0x10
    1ec8:	54fffe21 	b.ne	1e8c <from_utee_params+0xc>  // b.any
/home/jeferson/optee/optee_os-rpi4/lib/libutee/arch/arm/user_ta_entry.c:323
    1ecc:	b9000025 	str	w5, [x1]
/home/jeferson/optee/optee_os-rpi4/lib/libutee/arch/arm/user_ta_entry.c:324
    1ed0:	d65f03c0 	ret
/home/jeferson/optee/optee_os-rpi4/lib/libutee/arch/arm/user_ta_entry.c:315
    1ed4:	a9001807 	stp	x7, x6, [x0]
/home/jeferson/optee/optee_os-rpi4/lib/libutee/arch/arm/user_ta_entry.c:316
    1ed8:	17fffff8 	b	1eb8 <from_utee_params+0x38>

0000000000001edc <_init_iterate_phdr_cb>:
_init_iterate_phdr_cb():
/home/jeferson/optee/optee_os-rpi4/lib/libutee/arch/arm/user_ta_entry.c:60
    1edc:	a9bd7bfd 	stp	x29, x30, [sp, #-48]!
    1ee0:	910003fd 	mov	x29, sp
    1ee4:	a90153f3 	stp	x19, x20, [sp, #16]
    1ee8:	aa0203f4 	mov	x20, x2
    1eec:	f90013f5 	str	x21, [sp, #32]
    1ef0:	aa0003f5 	mov	x21, x0
/home/jeferson/optee/optee_os-rpi4/lib/libutee/arch/arm/user_ta_entry.c:64
    1ef4:	d2800a00 	mov	x0, #0x50                  	// #80
    1ef8:	9400294f 	bl	c434 <malloc>
/home/jeferson/optee/optee_os-rpi4/lib/libutee/arch/arm/user_ta_entry.c:65
    1efc:	b5000140 	cbnz	x0, 1f24 <_init_iterate_phdr_cb+0x48>
/home/jeferson/optee/optee_os-rpi4/lib/libutee/arch/arm/user_ta_entry.c:66
    1f00:	d0000064 	adrp	x4, f000 <__text_end+0x2508>
    1f04:	d0000060 	adrp	x0, f000 <__text_end+0x2508>
    1f08:	912cc084 	add	x4, x4, #0xb30
    1f0c:	912dfc00 	add	x0, x0, #0xb7f
    1f10:	52800023 	mov	w3, #0x1                   	// #1
    1f14:	52800022 	mov	w2, #0x1                   	// #1
    1f18:	52800841 	mov	w1, #0x42                  	// #66
    1f1c:	97fffd45 	bl	1430 <trace_printf>
/home/jeferson/optee/optee_os-rpi4/lib/libutee/arch/arm/user_ta_entry.c:67
    1f20:	940001b7 	bl	25fc <abort>
    1f24:	aa0003f3 	mov	x19, x0
/home/jeferson/optee/optee_os-rpi4/lib/libutee/arch/arm/user_ta_entry.c:69
    1f28:	aa1503e1 	mov	x1, x21
    1f2c:	d2800802 	mov	x2, #0x40                  	// #64
    1f30:	97fff83c 	bl	20 <memcpy>
/home/jeferson/optee/optee_os-rpi4/lib/libutee/arch/arm/user_ta_entry.c:70
    1f34:	90000080 	adrp	x0, 11000 <_DYNAMIC>
    1f38:	91134000 	add	x0, x0, #0x4d0
/home/jeferson/optee/optee_os-rpi4/lib/libutee/arch/arm/user_ta_entry.c:73
    1f3c:	f94013f5 	ldr	x21, [sp, #32]
/home/jeferson/optee/optee_os-rpi4/lib/libutee/arch/arm/user_ta_entry.c:70
    1f40:	f9400c01 	ldr	x1, [x0, #24]
    1f44:	a904067f 	stp	xzr, x1, [x19, #64]
    1f48:	f9000033 	str	x19, [x1]
    1f4c:	91010273 	add	x19, x19, #0x40
    1f50:	f9000c13 	str	x19, [x0, #24]
/home/jeferson/optee/optee_os-rpi4/lib/libutee/arch/arm/user_ta_entry.c:71
    1f54:	f9400280 	ldr	x0, [x20]
    1f58:	91000400 	add	x0, x0, #0x1
    1f5c:	f9000280 	str	x0, [x20]
/home/jeferson/optee/optee_os-rpi4/lib/libutee/arch/arm/user_ta_entry.c:73
    1f60:	52800000 	mov	w0, #0x0                   	// #0
    1f64:	a94153f3 	ldp	x19, x20, [sp, #16]
    1f68:	a8c37bfd 	ldp	x29, x30, [sp], #48
    1f6c:	d65f03c0 	ret

0000000000001f70 <__utee_call_elf_init_fn>:
__utee_call_elf_init_fn():
/home/jeferson/optee/optee_os-rpi4/lib/libutee/arch/arm/user_ta_entry.c:107
    1f70:	a9b97bfd 	stp	x29, x30, [sp, #-112]!
    1f74:	90000080 	adrp	x0, 11000 <_DYNAMIC>
    1f78:	910003fd 	mov	x29, sp
    1f7c:	f9409800 	ldr	x0, [x0, #304]
    1f80:	a90153f3 	stp	x19, x20, [sp, #16]
/home/jeferson/optee/optee_os-rpi4/lib/libutee/arch/arm/user_ta_entry.c:119
    1f84:	90000094 	adrp	x20, 11000 <_DYNAMIC>
/home/jeferson/optee/optee_os-rpi4/lib/libutee/arch/arm/user_ta_entry.c:107
    1f88:	a9025bf5 	stp	x21, x22, [sp, #32]
/home/jeferson/optee/optee_os-rpi4/lib/libutee/arch/arm/user_ta_entry.c:111
    1f8c:	d2800013 	mov	x19, #0x0                   	// #0
/home/jeferson/optee/optee_os-rpi4/lib/libutee/arch/arm/user_ta_entry.c:107
    1f90:	a90363f7 	stp	x23, x24, [sp, #48]
/home/jeferson/optee/optee_os-rpi4/lib/libutee/arch/arm/user_ta_entry.c:122
    1f94:	910183f8 	add	x24, sp, #0x60
/home/jeferson/optee/optee_os-rpi4/lib/libutee/arch/arm/user_ta_entry.c:120
    1f98:	90000097 	adrp	x23, 11000 <_DYNAMIC>
/home/jeferson/optee/optee_os-rpi4/lib/libutee/arch/arm/user_ta_entry.c:107
    1f9c:	f90023f9 	str	x25, [sp, #64]
/home/jeferson/optee/optee_os-rpi4/lib/libutee/arch/arm/user_ta_entry.c:122
    1fa0:	910143f9 	add	x25, sp, #0x50
/home/jeferson/optee/optee_os-rpi4/lib/libutee/arch/arm/user_ta_entry.c:107
    1fa4:	f9400001 	ldr	x1, [x0]
    1fa8:	f90037e1 	str	x1, [sp, #104]
    1fac:	d2800001 	mov	x1, #0x0                   	// #0
/home/jeferson/optee/optee_os-rpi4/lib/libutee/arch/arm/user_ta_entry.c:116
    1fb0:	90000000 	adrp	x0, 1000 <kprintf.constprop.0+0xa28>
    1fb4:	910163e1 	add	x1, sp, #0x58
    1fb8:	913b7000 	add	x0, x0, #0xedc
/home/jeferson/optee/optee_os-rpi4/lib/libutee/arch/arm/user_ta_entry.c:109
    1fbc:	a9057fff 	stp	xzr, xzr, [sp, #80]
/home/jeferson/optee/optee_os-rpi4/lib/libutee/arch/arm/user_ta_entry.c:110
    1fc0:	f90033ff 	str	xzr, [sp, #96]
/home/jeferson/optee/optee_os-rpi4/lib/libutee/arch/arm/user_ta_entry.c:116
    1fc4:	94001321 	bl	6c48 <dl_iterate_phdr>
/home/jeferson/optee/optee_os-rpi4/lib/libutee/arch/arm/user_ta_entry.c:119
    1fc8:	91134280 	add	x0, x20, #0x4d0
    1fcc:	f9400c00 	ldr	x0, [x0, #24]
    1fd0:	f9400400 	ldr	x0, [x0, #8]
    1fd4:	f9400015 	ldr	x21, [x0]
/home/jeferson/optee/optee_os-rpi4/lib/libutee/arch/arm/user_ta_entry.c:120 (discriminator 1)
    1fd8:	f942f6e1 	ldr	x1, [x23, #1512]
/home/jeferson/optee/optee_os-rpi4/lib/libutee/arch/arm/user_ta_entry.c:119 (discriminator 1)
    1fdc:	b5000155 	cbnz	x21, 2004 <__utee_call_elf_init_fn+0x94>
/home/jeferson/optee/optee_os-rpi4/lib/libutee/arch/arm/user_ta_entry.c:132
    1fe0:	91134294 	add	x20, x20, #0x4d0
/home/jeferson/optee/optee_os-rpi4/lib/libutee/arch/arm/user_ta_entry.c:130
    1fe4:	8b010273 	add	x19, x19, x1
    1fe8:	f902f6f3 	str	x19, [x23, #1512]
/home/jeferson/optee/optee_os-rpi4/lib/libutee/arch/arm/user_ta_entry.c:132
    1fec:	f9400a80 	ldr	x0, [x20, #16]
/home/jeferson/optee/optee_os-rpi4/lib/libutee/arch/arm/user_ta_entry.c:132 (discriminator 2)
    1ff0:	b40004a0 	cbz	x0, 2084 <__utee_call_elf_init_fn+0x114>
/home/jeferson/optee/optee_os-rpi4/lib/libutee/arch/arm/user_ta_entry.c:133 (discriminator 3)
    1ff4:	a9440413 	ldp	x19, x1, [x0, #64]
    1ff8:	b50003b3 	cbnz	x19, 206c <__utee_call_elf_init_fn+0xfc>
/home/jeferson/optee/optee_os-rpi4/lib/libutee/arch/arm/user_ta_entry.c:133 (discriminator 2)
    1ffc:	f9000e81 	str	x1, [x20, #24]
    2000:	1400001c 	b	2070 <__utee_call_elf_init_fn+0x100>
/home/jeferson/optee/optee_os-rpi4/lib/libutee/arch/arm/user_ta_entry.c:120
    2004:	f9402fe0 	ldr	x0, [sp, #88]
    2008:	cb010000 	sub	x0, x0, x1
    200c:	eb13001f 	cmp	x0, x19
    2010:	54fffe80 	b.eq	1fe0 <__utee_call_elf_init_fn+0x70>  // b.none
/home/jeferson/optee/optee_os-rpi4/lib/libutee/arch/arm/user_ta_entry.c:124
    2014:	d2800016 	mov	x22, #0x0                   	// #0
/home/jeferson/optee/optee_os-rpi4/lib/libutee/arch/arm/user_ta_entry.c:122
    2018:	aa1803e4 	mov	x4, x24
    201c:	aa1903e3 	mov	x3, x25
    2020:	aa1503e0 	mov	x0, x21
    2024:	52800362 	mov	w2, #0x1b                  	// #27
    2028:	52800321 	mov	w1, #0x19                  	// #25
    202c:	97ffff1f 	bl	1ca8 <_get_fn_array>
/home/jeferson/optee/optee_os-rpi4/lib/libutee/arch/arm/user_ta_entry.c:124 (discriminator 1)
    2030:	f94033e0 	ldr	x0, [sp, #96]
    2034:	eb16001f 	cmp	x0, x22
    2038:	54000108 	b.hi	2058 <__utee_call_elf_init_fn+0xe8>  // b.pmore
/home/jeferson/optee/optee_os-rpi4/lib/libutee/arch/arm/user_ta_entry.c:119 (discriminator 2)
    203c:	f94026a0 	ldr	x0, [x21, #72]
/home/jeferson/optee/optee_os-rpi4/lib/libutee/arch/arm/user_ta_entry.c:128 (discriminator 2)
    2040:	91000673 	add	x19, x19, #0x1
/home/jeferson/optee/optee_os-rpi4/lib/libutee/arch/arm/user_ta_entry.c:126 (discriminator 2)
    2044:	f9002bff 	str	xzr, [sp, #80]
/home/jeferson/optee/optee_os-rpi4/lib/libutee/arch/arm/user_ta_entry.c:127 (discriminator 2)
    2048:	f90033ff 	str	xzr, [sp, #96]
/home/jeferson/optee/optee_os-rpi4/lib/libutee/arch/arm/user_ta_entry.c:119 (discriminator 2)
    204c:	f9400400 	ldr	x0, [x0, #8]
    2050:	f9400015 	ldr	x21, [x0]
    2054:	17ffffe1 	b	1fd8 <__utee_call_elf_init_fn+0x68>
/home/jeferson/optee/optee_os-rpi4/lib/libutee/arch/arm/user_ta_entry.c:125 (discriminator 3)
    2058:	f9402be0 	ldr	x0, [sp, #80]
    205c:	f8767800 	ldr	x0, [x0, x22, lsl #3]
/home/jeferson/optee/optee_os-rpi4/lib/libutee/arch/arm/user_ta_entry.c:124 (discriminator 3)
    2060:	910006d6 	add	x22, x22, #0x1
/home/jeferson/optee/optee_os-rpi4/lib/libutee/arch/arm/user_ta_entry.c:125 (discriminator 3)
    2064:	d63f0000 	blr	x0
/home/jeferson/optee/optee_os-rpi4/lib/libutee/arch/arm/user_ta_entry.c:124 (discriminator 3)
    2068:	17fffff2 	b	2030 <__utee_call_elf_init_fn+0xc0>
/home/jeferson/optee/optee_os-rpi4/lib/libutee/arch/arm/user_ta_entry.c:133 (discriminator 1)
    206c:	f9002661 	str	x1, [x19, #72]
/home/jeferson/optee/optee_os-rpi4/lib/libutee/arch/arm/user_ta_entry.c:133 (discriminator 4)
    2070:	f9402401 	ldr	x1, [x0, #72]
    2074:	f9000033 	str	x19, [x1]
/home/jeferson/optee/optee_os-rpi4/lib/libutee/arch/arm/user_ta_entry.c:134 (discriminator 4)
    2078:	9400290f 	bl	c4b4 <free>
/home/jeferson/optee/optee_os-rpi4/lib/libutee/arch/arm/user_ta_entry.c:132 (discriminator 4)
    207c:	aa1303e0 	mov	x0, x19
    2080:	17ffffdc 	b	1ff0 <__utee_call_elf_init_fn+0x80>
/home/jeferson/optee/optee_os-rpi4/lib/libutee/arch/arm/user_ta_entry.c:136
    2084:	f0000060 	adrp	x0, 11000 <_DYNAMIC>
    2088:	f9409800 	ldr	x0, [x0, #304]
    208c:	f94037e2 	ldr	x2, [sp, #104]
    2090:	f9400001 	ldr	x1, [x0]
    2094:	eb010042 	subs	x2, x2, x1
    2098:	d2800001 	mov	x1, #0x0                   	// #0
    209c:	54000040 	b.eq	20a4 <__utee_call_elf_init_fn+0x134>  // b.none
    20a0:	97fff8c7 	bl	3bc <__stack_chk_fail>
    20a4:	a94153f3 	ldp	x19, x20, [sp, #16]
    20a8:	a9425bf5 	ldp	x21, x22, [sp, #32]
    20ac:	a94363f7 	ldp	x23, x24, [sp, #48]
    20b0:	f94023f9 	ldr	x25, [sp, #64]
    20b4:	a8c77bfd 	ldp	x29, x30, [sp], #112
    20b8:	d65f03c0 	ret

00000000000020bc <__utee_call_elf_fini_fn>:
__utee_call_elf_fini_fn():
/home/jeferson/optee/optee_os-rpi4/lib/libutee/arch/arm/user_ta_entry.c:155
    20bc:	d2800001 	mov	x1, #0x0                   	// #0
    20c0:	f0ffffe0 	adrp	x0, 1000 <kprintf.constprop.0+0xa28>
    20c4:	91356000 	add	x0, x0, #0xd58
    20c8:	140012e0 	b	6c48 <dl_iterate_phdr>

00000000000020cc <ta_header_remove_session>:
ta_header_remove_session():
/home/jeferson/optee/optee_os-rpi4/lib/libutee/arch/arm/user_ta_entry.c:245
    20cc:	a9be7bfd 	stp	x29, x30, [sp, #-32]!
    20d0:	2a0003e2 	mov	w2, w0
    20d4:	910003fd 	mov	x29, sp
    20d8:	f9000bf3 	str	x19, [sp, #16]
/home/jeferson/optee/optee_os-rpi4/lib/libutee/arch/arm/user_ta_entry.c:249
    20dc:	f0000073 	adrp	x19, 11000 <_DYNAMIC>
    20e0:	f9426a60 	ldr	x0, [x19, #1232]
/home/jeferson/optee/optee_os-rpi4/lib/libutee/arch/arm/user_ta_entry.c:249 (discriminator 1)
    20e4:	b5000080 	cbnz	x0, 20f4 <ta_header_remove_session+0x28>
/home/jeferson/optee/optee_os-rpi4/lib/libutee/arch/arm/user_ta_entry.c:263
    20e8:	f9400bf3 	ldr	x19, [sp, #16]
    20ec:	a8c27bfd 	ldp	x29, x30, [sp], #32
    20f0:	d65f03c0 	ret
/home/jeferson/optee/optee_os-rpi4/lib/libutee/arch/arm/user_ta_entry.c:250
    20f4:	b9400003 	ldr	w3, [x0]
/home/jeferson/optee/optee_os-rpi4/lib/libutee/arch/arm/user_ta_entry.c:251
    20f8:	f9400801 	ldr	x1, [x0, #16]
/home/jeferson/optee/optee_os-rpi4/lib/libutee/arch/arm/user_ta_entry.c:250
    20fc:	6b02007f 	cmp	w3, w2
    2100:	540002c1 	b.ne	2158 <ta_header_remove_session+0x8c>  // b.any
/home/jeferson/optee/optee_os-rpi4/lib/libutee/arch/arm/user_ta_entry.c:251
    2104:	f9400c02 	ldr	x2, [x0, #24]
    2108:	b4000221 	cbz	x1, 214c <ta_header_remove_session+0x80>
/home/jeferson/optee/optee_os-rpi4/lib/libutee/arch/arm/user_ta_entry.c:251 (discriminator 1)
    210c:	f9000c22 	str	x2, [x1, #24]
/home/jeferson/optee/optee_os-rpi4/lib/libutee/arch/arm/user_ta_entry.c:251 (discriminator 4)
    2110:	f9400c02 	ldr	x2, [x0, #24]
    2114:	f9000041 	str	x1, [x2]
/home/jeferson/optee/optee_os-rpi4/lib/libutee/arch/arm/user_ta_entry.c:252 (discriminator 4)
    2118:	9400051b 	bl	3584 <TEE_Free>
/home/jeferson/optee/optee_os-rpi4/lib/libutee/arch/arm/user_ta_entry.c:255 (discriminator 4)
    211c:	f0000060 	adrp	x0, 11000 <_DYNAMIC>
    2120:	f940e800 	ldr	x0, [x0, #464]
    2124:	f9400801 	ldr	x1, [x0, #16]
/home/jeferson/optee/optee_os-rpi4/lib/libutee/arch/arm/user_ta_entry.c:257 (discriminator 4)
    2128:	f9426a60 	ldr	x0, [x19, #1232]
    212c:	b5fffde0 	cbnz	x0, 20e8 <ta_header_remove_session+0x1c>
/home/jeferson/optee/optee_os-rpi4/lib/libutee/arch/arm/user_ta_entry.c:257 (discriminator 1)
    2130:	d2c00280 	mov	x0, #0x1400000000          	// #85899345920
    2134:	ea21001f 	bics	xzr, x0, x1
    2138:	54fffd80 	b.eq	20e8 <ta_header_remove_session+0x1c>  // b.none
uninit_instance():
/home/jeferson/optee/optee_os-rpi4/lib/libutee/arch/arm/user_ta_entry.c:192
    213c:	97fff7f6 	bl	114 <TA_DestroyEntryPoint>
ta_header_remove_session():
/home/jeferson/optee/optee_os-rpi4/lib/libutee/arch/arm/user_ta_entry.c:263
    2140:	f9400bf3 	ldr	x19, [sp, #16]
    2144:	a8c27bfd 	ldp	x29, x30, [sp], #32
uninit_instance():
/home/jeferson/optee/optee_os-rpi4/lib/libutee/arch/arm/user_ta_entry.c:193
    2148:	17ffffdd 	b	20bc <__utee_call_elf_fini_fn>
ta_header_remove_session():
/home/jeferson/optee/optee_os-rpi4/lib/libutee/arch/arm/user_ta_entry.c:251 (discriminator 2)
    214c:	91134263 	add	x3, x19, #0x4d0
    2150:	f9000462 	str	x2, [x3, #8]
    2154:	17ffffef 	b	2110 <ta_header_remove_session+0x44>
/home/jeferson/optee/optee_os-rpi4/lib/libutee/arch/arm/user_ta_entry.c:251
    2158:	aa0103e0 	mov	x0, x1
    215c:	17ffffe2 	b	20e4 <ta_header_remove_session+0x18>

0000000000002160 <__utee_entry>:
__utee_entry():
/home/jeferson/optee/optee_os-rpi4/lib/libutee/arch/arm/user_ta_entry.c:421
    2160:	a9b77bfd 	stp	x29, x30, [sp, #-144]!
    2164:	f0000064 	adrp	x4, 11000 <_DYNAMIC>
/home/jeferson/optee/optee_os-rpi4/lib/libutee/arch/arm/user_ta_entry.c:424
    2168:	f100041f 	cmp	x0, #0x1
/home/jeferson/optee/optee_os-rpi4/lib/libutee/arch/arm/user_ta_entry.c:421
    216c:	910003fd 	mov	x29, sp
    2170:	a9025bf5 	stp	x21, x22, [sp, #32]
    2174:	aa0103f5 	mov	x21, x1
    2178:	aa0203f6 	mov	x22, x2
    217c:	f9409881 	ldr	x1, [x4, #304]
    2180:	a90153f3 	stp	x19, x20, [sp, #16]
    2184:	aa0403f4 	mov	x20, x4
    2188:	a90363f7 	stp	x23, x24, [sp, #48]
    218c:	f9400022 	ldr	x2, [x1]
    2190:	f90047e2 	str	x2, [sp, #136]
    2194:	d2800002 	mov	x2, #0x0                   	// #0
/home/jeferson/optee/optee_os-rpi4/lib/libutee/arch/arm/user_ta_entry.c:424
    2198:	54000ca0 	b.eq	232c <__utee_entry+0x1cc>  // b.none
    219c:	f100081f 	cmp	x0, #0x2
    21a0:	54000d80 	b.eq	2350 <__utee_entry+0x1f0>  // b.none
    21a4:	b50010e0 	cbnz	x0, 23c0 <__utee_entry+0x260>
ta_header_add_session():
/home/jeferson/optee/optee_os-rpi4/lib/libutee/arch/arm/user_ta_entry.c:220
    21a8:	2a1503e0 	mov	w0, w21
    21ac:	97ffff0f 	bl	1de8 <ta_header_get_session>
/home/jeferson/optee/optee_os-rpi4/lib/libutee/arch/arm/user_ta_entry.c:223
    21b0:	b5000840 	cbnz	x0, 22b8 <__utee_entry+0x158>
/home/jeferson/optee/optee_os-rpi4/lib/libutee/arch/arm/user_ta_entry.c:226
    21b4:	f0000060 	adrp	x0, 11000 <_DYNAMIC>
    21b8:	9117a000 	add	x0, x0, #0x5e8
    21bc:	39402001 	ldrb	w1, [x0, #8]
    21c0:	340000e1 	cbz	w1, 21dc <__utee_entry+0x7c>
/home/jeferson/optee/optee_os-rpi4/lib/libutee/arch/arm/user_ta_entry.c:233
    21c4:	52b00001 	mov	w1, #0x80000000            	// #-2147483648
    21c8:	d2800400 	mov	x0, #0x20                  	// #32
    21cc:	940004a3 	bl	3458 <TEE_Malloc>
/home/jeferson/optee/optee_os-rpi4/lib/libutee/arch/arm/user_ta_entry.c:235
    21d0:	b5000620 	cbnz	x0, 2294 <__utee_entry+0x134>
/home/jeferson/optee/optee_os-rpi4/lib/libutee/arch/arm/user_ta_entry.c:236
    21d4:	129ffe73 	mov	w19, #0xffff000c            	// #-65524
    21d8:	14000022 	b	2260 <__utee_entry+0x100>
/home/jeferson/optee/optee_os-rpi4/lib/libutee/arch/arm/user_ta_entry.c:227
    21dc:	52800021 	mov	w1, #0x1                   	// #1
    21e0:	39002001 	strb	w1, [x0, #8]
init_instance():
/home/jeferson/optee/optee_os-rpi4/lib/libutee/arch/arm/user_ta_entry.c:170
    21e4:	97fff823 	bl	270 <tahead_get_trace_level>
    21e8:	97fffc00 	bl	11e8 <trace_set_level>
/home/jeferson/optee/optee_os-rpi4/lib/libutee/arch/arm/user_ta_entry.c:172
    21ec:	f9409e80 	ldr	x0, [x20, #312]
    21f0:	f9400001 	ldr	x1, [x0]
    21f4:	f940be80 	ldr	x0, [x20, #376]
    21f8:	9400297c 	bl	c7e8 <malloc_add_pool>
/home/jeferson/optee/optee_os-rpi4/lib/libutee/arch/arm/user_ta_entry.c:173
    21fc:	f940a280 	ldr	x0, [x20, #320]
    2200:	f9400017 	ldr	x23, [x0]
    2204:	b4000177 	cbz	x23, 2230 <__utee_entry+0xd0>
/home/jeferson/optee/optee_os-rpi4/lib/libutee/arch/arm/user_ta_entry.c:174
    2208:	940028b3 	bl	c4d4 <raw_malloc_get_ctx_size>
    220c:	9400288a 	bl	c434 <malloc>
    2210:	f940da93 	ldr	x19, [x20, #432]
    2214:	f9000260 	str	x0, [x19]
/home/jeferson/optee/optee_os-rpi4/lib/libutee/arch/arm/user_ta_entry.c:175
    2218:	b40000c0 	cbz	x0, 2230 <__utee_entry+0xd0>
/home/jeferson/optee/optee_os-rpi4/lib/libutee/arch/arm/user_ta_entry.c:176
    221c:	940028b0 	bl	c4dc <raw_malloc_init_ctx>
/home/jeferson/optee/optee_os-rpi4/lib/libutee/arch/arm/user_ta_entry.c:177
    2220:	f940de81 	ldr	x1, [x20, #440]
    2224:	aa1703e2 	mov	x2, x23
    2228:	f9400260 	ldr	x0, [x19]
    222c:	940028b3 	bl	c4f8 <raw_malloc_add_pool>
get_memtag_implementation():
/home/jeferson/optee/optee_os-rpi4/lib/libutee/arch/arm/user_ta_entry.c:163
    2230:	910113e2 	add	x2, sp, #0x44
    2234:	b0000061 	adrp	x1, f000 <__text_end+0x2508>
    2238:	912d2421 	add	x1, x1, #0xb49
    223c:	12800040 	mov	w0, #0xfffffffd            	// #-3
/home/jeferson/optee/optee_os-rpi4/lib/libutee/arch/arm/user_ta_entry.c:161
    2240:	b90047ff 	str	wzr, [sp, #68]
/home/jeferson/optee/optee_os-rpi4/lib/libutee/arch/arm/user_ta_entry.c:163
    2244:	94000fe0 	bl	61c4 <TEE_GetPropertyAsU32>
init_instance():
/home/jeferson/optee/optee_os-rpi4/lib/libutee/arch/arm/user_ta_entry.c:183
    2248:	9400073e 	bl	3f40 <_TEE_MathAPI_Init>
/home/jeferson/optee/optee_os-rpi4/lib/libutee/arch/arm/user_ta_entry.c:184
    224c:	940011e8 	bl	69ec <__utee_tcb_init>
/home/jeferson/optee/optee_os-rpi4/lib/libutee/arch/arm/user_ta_entry.c:185
    2250:	97ffff48 	bl	1f70 <__utee_call_elf_init_fn>
/home/jeferson/optee/optee_os-rpi4/lib/libutee/arch/arm/user_ta_entry.c:186
    2254:	97fff7ae 	bl	10c <TA_CreateEntryPoint>
    2258:	2a0003f3 	mov	w19, w0
ta_header_add_session():
/home/jeferson/optee/optee_os-rpi4/lib/libutee/arch/arm/user_ta_entry.c:229
    225c:	34fffb40 	cbz	w0, 21c4 <__utee_entry+0x64>
ta_header_save_params():
/home/jeferson/optee/optee_os-rpi4/lib/libutee/arch/arm/user_ta_entry.c:199
    2260:	f940d280 	ldr	x0, [x20, #416]
/home/jeferson/optee/optee_os-rpi4/lib/libutee/arch/arm/user_ta_entry.c:204
    2264:	4f000400 	movi	v0.4s, #0x0
/home/jeferson/optee/optee_os-rpi4/lib/libutee/arch/arm/user_ta_entry.c:199
    2268:	b900001f 	str	wzr, [x0]
/home/jeferson/optee/optee_os-rpi4/lib/libutee/arch/arm/user_ta_entry.c:204
    226c:	f940e280 	ldr	x0, [x20, #448]
__utee_entry():
/home/jeferson/optee/optee_os-rpi4/lib/libutee/arch/arm/user_ta_entry.c:446
    2270:	f9409a94 	ldr	x20, [x20, #304]
ta_header_save_params():
/home/jeferson/optee/optee_os-rpi4/lib/libutee/arch/arm/user_ta_entry.c:204
    2274:	ad000000 	stp	q0, q0, [x0]
    2278:	ad010000 	stp	q0, q0, [x0, #32]
__utee_entry():
/home/jeferson/optee/optee_os-rpi4/lib/libutee/arch/arm/user_ta_entry.c:446
    227c:	f94047e0 	ldr	x0, [sp, #136]
    2280:	f9400281 	ldr	x1, [x20]
    2284:	eb010000 	subs	x0, x0, x1
    2288:	d2800001 	mov	x1, #0x0                   	// #0
    228c:	54000a20 	b.eq	23d0 <__utee_entry+0x270>  // b.none
    2290:	97fff84b 	bl	3bc <__stack_chk_fail>
ta_header_add_session():
/home/jeferson/optee/optee_os-rpi4/lib/libutee/arch/arm/user_ta_entry.c:239
    2294:	f0000061 	adrp	x1, 11000 <_DYNAMIC>
    2298:	91134021 	add	x1, x1, #0x4d0
    229c:	f9400422 	ldr	x2, [x1, #8]
/home/jeferson/optee/optee_os-rpi4/lib/libutee/arch/arm/user_ta_entry.c:237
    22a0:	b9000015 	str	w21, [x0]
/home/jeferson/optee/optee_os-rpi4/lib/libutee/arch/arm/user_ta_entry.c:239
    22a4:	a900fc1f 	stp	xzr, xzr, [x0, #8]
    22a8:	f9000c02 	str	x2, [x0, #24]
    22ac:	f9000040 	str	x0, [x2]
    22b0:	91004000 	add	x0, x0, #0x10
    22b4:	f9000420 	str	x0, [x1, #8]
entry_open_session():
/home/jeferson/optee/optee_os-rpi4/lib/libutee/arch/arm/user_ta_entry.c:338
    22b8:	2a1503e0 	mov	w0, w21
    22bc:	97fffecb 	bl	1de8 <ta_header_get_session>
    22c0:	aa0003f3 	mov	x19, x0
/home/jeferson/optee/optee_os-rpi4/lib/libutee/arch/arm/user_ta_entry.c:339
    22c4:	b4000820 	cbz	x0, 23c8 <__utee_entry+0x268>
/home/jeferson/optee/optee_os-rpi4/lib/libutee/arch/arm/user_ta_entry.c:342
    22c8:	910123f7 	add	x23, sp, #0x48
    22cc:	aa1603e2 	mov	x2, x22
    22d0:	910113e1 	add	x1, sp, #0x44
    22d4:	aa1703e0 	mov	x0, x23
    22d8:	97fffeea 	bl	1e80 <from_utee_params>
/home/jeferson/optee/optee_os-rpi4/lib/libutee/arch/arm/user_ta_entry.c:343
    22dc:	b94047f8 	ldr	w24, [sp, #68]
ta_header_save_params():
/home/jeferson/optee/optee_os-rpi4/lib/libutee/arch/arm/user_ta_entry.c:199
    22e0:	f940d280 	ldr	x0, [x20, #416]
/home/jeferson/optee/optee_os-rpi4/lib/libutee/arch/arm/user_ta_entry.c:202
    22e4:	aa1703e1 	mov	x1, x23
    22e8:	d2800802 	mov	x2, #0x40                  	// #64
/home/jeferson/optee/optee_os-rpi4/lib/libutee/arch/arm/user_ta_entry.c:199
    22ec:	b9000018 	str	w24, [x0]
/home/jeferson/optee/optee_os-rpi4/lib/libutee/arch/arm/user_ta_entry.c:202
    22f0:	f940e280 	ldr	x0, [x20, #448]
    22f4:	97fff74b 	bl	20 <memcpy>
entry_open_session():
/home/jeferson/optee/optee_os-rpi4/lib/libutee/arch/arm/user_ta_entry.c:345
    22f8:	91002262 	add	x2, x19, #0x8
    22fc:	aa1703e1 	mov	x1, x23
    2300:	2a1803e0 	mov	w0, w24
    2304:	97fff7dd 	bl	278 <TA_OpenSessionEntryPoint>
/home/jeferson/optee/optee_os-rpi4/lib/libutee/arch/arm/user_ta_entry.c:348
    2308:	aa1703e2 	mov	x2, x23
/home/jeferson/optee/optee_os-rpi4/lib/libutee/arch/arm/user_ta_entry.c:345
    230c:	2a0003f3 	mov	w19, w0
/home/jeferson/optee/optee_os-rpi4/lib/libutee/arch/arm/user_ta_entry.c:348
    2310:	2a1803e1 	mov	w1, w24
    2314:	aa1603e0 	mov	x0, x22
    2318:	97fffebe 	bl	1e10 <to_utee_params>
/home/jeferson/optee/optee_os-rpi4/lib/libutee/arch/arm/user_ta_entry.c:350
    231c:	34fffa33 	cbz	w19, 2260 <__utee_entry+0x100>
/home/jeferson/optee/optee_os-rpi4/lib/libutee/arch/arm/user_ta_entry.c:351
    2320:	2a1503e0 	mov	w0, w21
    2324:	97ffff6a 	bl	20cc <ta_header_remove_session>
    2328:	17ffffce 	b	2260 <__utee_entry+0x100>
entry_close_session():
/home/jeferson/optee/optee_os-rpi4/lib/libutee/arch/arm/user_ta_entry.c:357
    232c:	2a1503e0 	mov	w0, w21
    2330:	97fffeae 	bl	1de8 <ta_header_get_session>
/home/jeferson/optee/optee_os-rpi4/lib/libutee/arch/arm/user_ta_entry.c:359
    2334:	b40004a0 	cbz	x0, 23c8 <__utee_entry+0x268>
/home/jeferson/optee/optee_os-rpi4/lib/libutee/arch/arm/user_ta_entry.c:362
    2338:	f9400400 	ldr	x0, [x0, #8]
/home/jeferson/optee/optee_os-rpi4/lib/libutee/arch/arm/user_ta_entry.c:365
    233c:	52800013 	mov	w19, #0x0                   	// #0
/home/jeferson/optee/optee_os-rpi4/lib/libutee/arch/arm/user_ta_entry.c:362
    2340:	97fff77a 	bl	128 <TA_CloseSessionEntryPoint>
/home/jeferson/optee/optee_os-rpi4/lib/libutee/arch/arm/user_ta_entry.c:364
    2344:	2a1503e0 	mov	w0, w21
    2348:	97ffff61 	bl	20cc <ta_header_remove_session>
/home/jeferson/optee/optee_os-rpi4/lib/libutee/arch/arm/user_ta_entry.c:365
    234c:	17ffffc5 	b	2260 <__utee_entry+0x100>
entry_invoke_command():
/home/jeferson/optee/optee_os-rpi4/lib/libutee/arch/arm/user_ta_entry.c:374
    2350:	2a1503e0 	mov	w0, w21
    2354:	97fffea5 	bl	1de8 <ta_header_get_session>
    2358:	aa0003f3 	mov	x19, x0
/home/jeferson/optee/optee_os-rpi4/lib/libutee/arch/arm/user_ta_entry.c:376
    235c:	b4000360 	cbz	x0, 23c8 <__utee_entry+0x268>
/home/jeferson/optee/optee_os-rpi4/lib/libutee/arch/arm/user_ta_entry.c:379
    2360:	910123f5 	add	x21, sp, #0x48
    2364:	aa0303f7 	mov	x23, x3
    2368:	aa1603e2 	mov	x2, x22
    236c:	910113e1 	add	x1, sp, #0x44
    2370:	aa1503e0 	mov	x0, x21
    2374:	97fffec3 	bl	1e80 <from_utee_params>
ta_header_save_params():
/home/jeferson/optee/optee_os-rpi4/lib/libutee/arch/arm/user_ta_entry.c:199
    2378:	f940d280 	ldr	x0, [x20, #416]
/home/jeferson/optee/optee_os-rpi4/lib/libutee/arch/arm/user_ta_entry.c:202
    237c:	aa1503e1 	mov	x1, x21
entry_invoke_command():
/home/jeferson/optee/optee_os-rpi4/lib/libutee/arch/arm/user_ta_entry.c:380
    2380:	b94047f8 	ldr	w24, [sp, #68]
ta_header_save_params():
/home/jeferson/optee/optee_os-rpi4/lib/libutee/arch/arm/user_ta_entry.c:202
    2384:	d2800802 	mov	x2, #0x40                  	// #64
/home/jeferson/optee/optee_os-rpi4/lib/libutee/arch/arm/user_ta_entry.c:199
    2388:	b9000018 	str	w24, [x0]
/home/jeferson/optee/optee_os-rpi4/lib/libutee/arch/arm/user_ta_entry.c:202
    238c:	f940e280 	ldr	x0, [x20, #448]
    2390:	97fff724 	bl	20 <memcpy>
entry_invoke_command():
/home/jeferson/optee/optee_os-rpi4/lib/libutee/arch/arm/user_ta_entry.c:382
    2394:	f9400660 	ldr	x0, [x19, #8]
    2398:	aa1503e3 	mov	x3, x21
    239c:	2a1803e2 	mov	w2, w24
    23a0:	2a1703e1 	mov	w1, w23
    23a4:	97fff7b8 	bl	284 <TA_InvokeCommandEntryPoint>
    23a8:	2a0003f3 	mov	w19, w0
/home/jeferson/optee/optee_os-rpi4/lib/libutee/arch/arm/user_ta_entry.c:385
    23ac:	aa1503e2 	mov	x2, x21
    23b0:	2a1803e1 	mov	w1, w24
    23b4:	aa1603e0 	mov	x0, x22
    23b8:	97fffe96 	bl	1e10 <to_utee_params>
/home/jeferson/optee/optee_os-rpi4/lib/libutee/arch/arm/user_ta_entry.c:386
    23bc:	17ffffa9 	b	2260 <__utee_entry+0x100>
__utee_entry():
/home/jeferson/optee/optee_os-rpi4/lib/libutee/arch/arm/user_ta_entry.c:424
    23c0:	129ffeb3 	mov	w19, #0xffff000a            	// #-65526
    23c4:	17ffffa7 	b	2260 <__utee_entry+0x100>
entry_close_session():
/home/jeferson/optee/optee_os-rpi4/lib/libutee/arch/arm/user_ta_entry.c:360
    23c8:	129fff13 	mov	w19, #0xffff0007            	// #-65529
    23cc:	17ffffa5 	b	2260 <__utee_entry+0x100>
__utee_entry():
/home/jeferson/optee/optee_os-rpi4/lib/libutee/arch/arm/user_ta_entry.c:446
    23d0:	2a1303e0 	mov	w0, w19
    23d4:	a94153f3 	ldp	x19, x20, [sp, #16]
    23d8:	a9425bf5 	ldp	x21, x22, [sp, #32]
    23dc:	a94363f7 	ldp	x23, x24, [sp, #48]
    23e0:	a8c97bfd 	ldp	x29, x30, [sp], #144
    23e4:	d65f03c0 	ret

00000000000023e8 <to_gp11_param>:
to_gp11_param():
/home/jeferson/optee/optee_os-rpi4/lib/libutee/arch/arm/user_ta_entry_compat.c:11
    23e8:	52800003 	mov	w3, #0x0                   	// #0
/home/jeferson/optee/optee_os-rpi4/lib/libutee/arch/arm/user_ta_entry_compat.c:15
    23ec:	1ac32405 	lsr	w5, w0, w3
    23f0:	12000ca4 	and	w4, w5, #0xf
    23f4:	721e04bf 	tst	w5, #0xc
    23f8:	540000e1 	b.ne	2414 <to_gp11_param+0x2c>  // b.any
    23fc:	34000124 	cbz	w4, 2420 <to_gp11_param+0x38>
/home/jeferson/optee/optee_os-rpi4/lib/libutee/arch/arm/user_ta_entry_compat.c:19
    2400:	b9400024 	ldr	w4, [x1]
    2404:	b9000044 	str	w4, [x2]
/home/jeferson/optee/optee_os-rpi4/lib/libutee/arch/arm/user_ta_entry_compat.c:20
    2408:	b9400424 	ldr	w4, [x1, #4]
    240c:	b9000444 	str	w4, [x2, #4]
/home/jeferson/optee/optee_os-rpi4/lib/libutee/arch/arm/user_ta_entry_compat.c:21
    2410:	14000004 	b	2420 <to_gp11_param+0x38>
/home/jeferson/optee/optee_os-rpi4/lib/libutee/arch/arm/user_ta_entry_compat.c:15
    2414:	51001484 	sub	w4, w4, #0x5
    2418:	7100089f 	cmp	w4, #0x2
    241c:	540000e9 	b.ls	2438 <to_gp11_param+0x50>  // b.plast
/home/jeferson/optee/optee_os-rpi4/lib/libutee/arch/arm/user_ta_entry_compat.c:14 (discriminator 2)
    2420:	11001063 	add	w3, w3, #0x4
    2424:	91004021 	add	x1, x1, #0x10
    2428:	91004042 	add	x2, x2, #0x10
    242c:	7100407f 	cmp	w3, #0x10
    2430:	54fffde1 	b.ne	23ec <to_gp11_param+0x4>  // b.any
/home/jeferson/optee/optee_os-rpi4/lib/libutee/arch/arm/user_ta_entry_compat.c:32
    2434:	d65f03c0 	ret
/home/jeferson/optee/optee_os-rpi4/lib/libutee/arch/arm/user_ta_entry_compat.c:25
    2438:	f9400024 	ldr	x4, [x1]
    243c:	f9000044 	str	x4, [x2]
/home/jeferson/optee/optee_os-rpi4/lib/libutee/arch/arm/user_ta_entry_compat.c:26
    2440:	f9400424 	ldr	x4, [x1, #8]
    2444:	b9000844 	str	w4, [x2, #8]
/home/jeferson/optee/optee_os-rpi4/lib/libutee/arch/arm/user_ta_entry_compat.c:27
    2448:	17fffff6 	b	2420 <to_gp11_param+0x38>

000000000000244c <from_gp11_param>:
from_gp11_param():
/home/jeferson/optee/optee_os-rpi4/lib/libutee/arch/arm/user_ta_entry_compat.c:37
    244c:	52800003 	mov	w3, #0x0                   	// #0
/home/jeferson/optee/optee_os-rpi4/lib/libutee/arch/arm/user_ta_entry_compat.c:41
    2450:	1ac32405 	lsr	w5, w0, w3
    2454:	12000ca4 	and	w4, w5, #0xf
    2458:	721e04bf 	tst	w5, #0xc
    245c:	540000e1 	b.ne	2478 <from_gp11_param+0x2c>  // b.any
    2460:	34000124 	cbz	w4, 2484 <from_gp11_param+0x38>
/home/jeferson/optee/optee_os-rpi4/lib/libutee/arch/arm/user_ta_entry_compat.c:45
    2464:	b9400024 	ldr	w4, [x1]
    2468:	b9000044 	str	w4, [x2]
/home/jeferson/optee/optee_os-rpi4/lib/libutee/arch/arm/user_ta_entry_compat.c:46
    246c:	b9400424 	ldr	w4, [x1, #4]
    2470:	b9000444 	str	w4, [x2, #4]
/home/jeferson/optee/optee_os-rpi4/lib/libutee/arch/arm/user_ta_entry_compat.c:47
    2474:	14000004 	b	2484 <from_gp11_param+0x38>
/home/jeferson/optee/optee_os-rpi4/lib/libutee/arch/arm/user_ta_entry_compat.c:41
    2478:	51001484 	sub	w4, w4, #0x5
    247c:	7100089f 	cmp	w4, #0x2
    2480:	540000e9 	b.ls	249c <from_gp11_param+0x50>  // b.plast
/home/jeferson/optee/optee_os-rpi4/lib/libutee/arch/arm/user_ta_entry_compat.c:40 (discriminator 2)
    2484:	11001063 	add	w3, w3, #0x4
    2488:	91004021 	add	x1, x1, #0x10
    248c:	91004042 	add	x2, x2, #0x10
    2490:	7100407f 	cmp	w3, #0x10
    2494:	54fffde1 	b.ne	2450 <from_gp11_param+0x4>  // b.any
/home/jeferson/optee/optee_os-rpi4/lib/libutee/arch/arm/user_ta_entry_compat.c:58
    2498:	d65f03c0 	ret
/home/jeferson/optee/optee_os-rpi4/lib/libutee/arch/arm/user_ta_entry_compat.c:51
    249c:	f9400024 	ldr	x4, [x1]
    24a0:	f9000044 	str	x4, [x2]
/home/jeferson/optee/optee_os-rpi4/lib/libutee/arch/arm/user_ta_entry_compat.c:52
    24a4:	b9400824 	ldr	w4, [x1, #8]
    24a8:	f9000444 	str	x4, [x2, #8]
/home/jeferson/optee/optee_os-rpi4/lib/libutee/arch/arm/user_ta_entry_compat.c:53
    24ac:	17fffff6 	b	2484 <from_gp11_param+0x38>

00000000000024b0 <__ta_open_sess>:
__ta_open_sess():
/home/jeferson/optee/optee_os-rpi4/lib/libutee/arch/arm/user_ta_entry_compat.c:70
    24b0:	a9b87bfd 	stp	x29, x30, [sp, #-128]!
    24b4:	aa0203e7 	mov	x7, x2
    24b8:	aa0303e6 	mov	x6, x3
/home/jeferson/optee/optee_os-rpi4/lib/libutee/arch/arm/user_ta_entry_compat.c:71
    24bc:	4f000400 	movi	v0.4s, #0x0
/home/jeferson/optee/optee_os-rpi4/lib/libutee/arch/arm/user_ta_entry_compat.c:70
    24c0:	910003fd 	mov	x29, sp
    24c4:	a90153f3 	stp	x19, x20, [sp, #16]
    24c8:	f0000074 	adrp	x20, 11000 <_DYNAMIC>
/home/jeferson/optee/optee_os-rpi4/lib/libutee/arch/arm/user_ta_entry_compat.c:71
    24cc:	9100e3f3 	add	x19, sp, #0x38
/home/jeferson/optee/optee_os-rpi4/lib/libutee/arch/arm/user_ta_entry_compat.c:70
    24d0:	f9409a82 	ldr	x2, [x20, #304]
    24d4:	a9025bf5 	stp	x21, x22, [sp, #32]
    24d8:	aa0103f6 	mov	x22, x1
    24dc:	f9400043 	ldr	x3, [x2]
    24e0:	f9003fe3 	str	x3, [sp, #120]
    24e4:	d2800003 	mov	x3, #0x0                   	// #0
/home/jeferson/optee/optee_os-rpi4/lib/libutee/arch/arm/user_ta_entry_compat.c:74
    24e8:	aa1303e2 	mov	x2, x19
/home/jeferson/optee/optee_os-rpi4/lib/libutee/arch/arm/user_ta_entry_compat.c:71
    24ec:	ad000260 	stp	q0, q0, [x19]
/home/jeferson/optee/optee_os-rpi4/lib/libutee/arch/arm/user_ta_entry_compat.c:70
    24f0:	2a0003f5 	mov	w21, w0
/home/jeferson/optee/optee_os-rpi4/lib/libutee/arch/arm/user_ta_entry_compat.c:71
    24f4:	ad010260 	stp	q0, q0, [x19, #32]
/home/jeferson/optee/optee_os-rpi4/lib/libutee/arch/arm/user_ta_entry_compat.c:74
    24f8:	97ffffbc 	bl	23e8 <to_gp11_param>
/home/jeferson/optee/optee_os-rpi4/lib/libutee/arch/arm/user_ta_entry_compat.c:75
    24fc:	aa0703e2 	mov	x2, x7
    2500:	aa1303e1 	mov	x1, x19
    2504:	d63f00c0 	blr	x6
/home/jeferson/optee/optee_os-rpi4/lib/libutee/arch/arm/user_ta_entry_compat.c:76
    2508:	aa1303e1 	mov	x1, x19
/home/jeferson/optee/optee_os-rpi4/lib/libutee/arch/arm/user_ta_entry_compat.c:75
    250c:	2a0003e6 	mov	w6, w0
/home/jeferson/optee/optee_os-rpi4/lib/libutee/arch/arm/user_ta_entry_compat.c:76
    2510:	aa1603e2 	mov	x2, x22
    2514:	2a1503e0 	mov	w0, w21
    2518:	97ffffcd 	bl	244c <from_gp11_param>
/home/jeferson/optee/optee_os-rpi4/lib/libutee/arch/arm/user_ta_entry_compat.c:79
    251c:	f9409a94 	ldr	x20, [x20, #304]
    2520:	f9403fe0 	ldr	x0, [sp, #120]
    2524:	f9400281 	ldr	x1, [x20]
    2528:	eb010000 	subs	x0, x0, x1
    252c:	d2800001 	mov	x1, #0x0                   	// #0
    2530:	54000040 	b.eq	2538 <__ta_open_sess+0x88>  // b.none
    2534:	97fff7a2 	bl	3bc <__stack_chk_fail>
    2538:	2a0603e0 	mov	w0, w6
    253c:	a94153f3 	ldp	x19, x20, [sp, #16]
    2540:	a9425bf5 	ldp	x21, x22, [sp, #32]
    2544:	a8c87bfd 	ldp	x29, x30, [sp], #128
    2548:	d65f03c0 	ret

000000000000254c <__ta_invoke_cmd>:
__ta_invoke_cmd():
/home/jeferson/optee/optee_os-rpi4/lib/libutee/arch/arm/user_ta_entry_compat.c:90
    254c:	a9b87bfd 	stp	x29, x30, [sp, #-128]!
    2550:	aa0003e7 	mov	x7, x0
    2554:	2a0103e8 	mov	w8, w1
    2558:	910003fd 	mov	x29, sp
    255c:	a9025bf5 	stp	x21, x22, [sp, #32]
    2560:	f0000075 	adrp	x21, 11000 <_DYNAMIC>
    2564:	aa0403e6 	mov	x6, x4
    2568:	f9409aa0 	ldr	x0, [x21, #304]
    256c:	a90153f3 	stp	x19, x20, [sp, #16]
/home/jeferson/optee/optee_os-rpi4/lib/libutee/arch/arm/user_ta_entry_compat.c:91
    2570:	9100e3f3 	add	x19, sp, #0x38
    2574:	4f000400 	movi	v0.4s, #0x0
/home/jeferson/optee/optee_os-rpi4/lib/libutee/arch/arm/user_ta_entry_compat.c:90
    2578:	f9400001 	ldr	x1, [x0]
    257c:	f9003fe1 	str	x1, [sp, #120]
    2580:	d2800001 	mov	x1, #0x0                   	// #0
    2584:	2a0203f4 	mov	w20, w2
    2588:	aa0303f6 	mov	x22, x3
/home/jeferson/optee/optee_os-rpi4/lib/libutee/arch/arm/user_ta_entry_compat.c:94
    258c:	aa0303e1 	mov	x1, x3
    2590:	aa1303e2 	mov	x2, x19
    2594:	2a1403e0 	mov	w0, w20
/home/jeferson/optee/optee_os-rpi4/lib/libutee/arch/arm/user_ta_entry_compat.c:91
    2598:	ad000260 	stp	q0, q0, [x19]
    259c:	ad010260 	stp	q0, q0, [x19, #32]
/home/jeferson/optee/optee_os-rpi4/lib/libutee/arch/arm/user_ta_entry_compat.c:94
    25a0:	97ffff92 	bl	23e8 <to_gp11_param>
/home/jeferson/optee/optee_os-rpi4/lib/libutee/arch/arm/user_ta_entry_compat.c:95
    25a4:	aa1303e3 	mov	x3, x19
    25a8:	2a1403e2 	mov	w2, w20
    25ac:	2a0803e1 	mov	w1, w8
    25b0:	aa0703e0 	mov	x0, x7
    25b4:	d63f00c0 	blr	x6
/home/jeferson/optee/optee_os-rpi4/lib/libutee/arch/arm/user_ta_entry_compat.c:96
    25b8:	aa1303e1 	mov	x1, x19
/home/jeferson/optee/optee_os-rpi4/lib/libutee/arch/arm/user_ta_entry_compat.c:95
    25bc:	2a0003e6 	mov	w6, w0
/home/jeferson/optee/optee_os-rpi4/lib/libutee/arch/arm/user_ta_entry_compat.c:96
    25c0:	aa1603e2 	mov	x2, x22
    25c4:	2a1403e0 	mov	w0, w20
    25c8:	97ffffa1 	bl	244c <from_gp11_param>
/home/jeferson/optee/optee_os-rpi4/lib/libutee/arch/arm/user_ta_entry_compat.c:99
    25cc:	f9409ab5 	ldr	x21, [x21, #304]
    25d0:	f9403fe0 	ldr	x0, [sp, #120]
    25d4:	f94002a1 	ldr	x1, [x21]
    25d8:	eb010000 	subs	x0, x0, x1
    25dc:	d2800001 	mov	x1, #0x0                   	// #0
    25e0:	54000040 	b.eq	25e8 <__ta_invoke_cmd+0x9c>  // b.none
    25e4:	97fff776 	bl	3bc <__stack_chk_fail>
    25e8:	2a0603e0 	mov	w0, w6
    25ec:	a94153f3 	ldp	x19, x20, [sp, #16]
    25f0:	a9425bf5 	ldp	x21, x22, [sp, #32]
    25f4:	a8c87bfd 	ldp	x29, x30, [sp], #128
    25f8:	d65f03c0 	ret

00000000000025fc <abort>:
abort():
/home/jeferson/optee/optee_os-rpi4/lib/libutee/abort.c:12
    25fc:	a9bf7bfd 	stp	x29, x30, [sp, #-16]!
/home/jeferson/optee/optee_os-rpi4/lib/libutee/abort.c:13
    2600:	b0000060 	adrp	x0, f000 <__text_end+0x2508>
    2604:	912e5400 	add	x0, x0, #0xb95
/home/jeferson/optee/optee_os-rpi4/lib/libutee/abort.c:12
    2608:	910003fd 	mov	x29, sp
/home/jeferson/optee/optee_os-rpi4/lib/libutee/abort.c:13
    260c:	97fffc21 	bl	1690 <puts>
/home/jeferson/optee/optee_os-rpi4/lib/libutee/abort.c:14
    2610:	d2800000 	mov	x0, #0x0                   	// #0
    2614:	97fffcfa 	bl	19fc <_utee_panic>
/home/jeferson/optee/optee_os-rpi4/lib/libutee/abort.c:16 (discriminator 1)
    2618:	14000000 	b	2618 <abort+0x1c>

000000000000261c <copy_param>:
copy_param():
/home/jeferson/optee/optee_os-rpi4/lib/libutee/tee_api.c:43
    261c:	2a0103e3 	mov	w3, w1
    2620:	52800004 	mov	w4, #0x0                   	// #0
    2624:	f8008403 	str	x3, [x0], #8
/home/jeferson/optee/optee_os-rpi4/lib/libutee/tee_api.c:45
    2628:	1ac42425 	lsr	w5, w1, w4
    262c:	12000ca3 	and	w3, w5, #0xf
    2630:	71000c7f 	cmp	w3, #0x3
    2634:	540001a0 	b.eq	2668 <copy_param+0x4c>  // b.none
    2638:	721e04bf 	tst	w5, #0xc
    263c:	540000c1 	b.ne	2654 <copy_param+0x38>  // b.any
    2640:	7100047f 	cmp	w3, #0x1
    2644:	54000120 	b.eq	2668 <copy_param+0x4c>  // b.none
    2648:	d2800003 	mov	x3, #0x0                   	// #0
    264c:	d2800005 	mov	x5, #0x0                   	// #0
    2650:	14000007 	b	266c <copy_param+0x50>
    2654:	51001463 	sub	w3, w3, #0x5
    2658:	7100087f 	cmp	w3, #0x2
    265c:	54ffff68 	b.hi	2648 <copy_param+0x2c>  // b.pmore
/home/jeferson/optee/optee_os-rpi4/lib/libutee/tee_api.c:55
    2660:	a9400c45 	ldp	x5, x3, [x2]
/home/jeferson/optee/optee_os-rpi4/lib/libutee/tee_api.c:56
    2664:	14000002 	b	266c <copy_param+0x50>
/home/jeferson/optee/optee_os-rpi4/lib/libutee/tee_api.c:49
    2668:	29400c45 	ldp	w5, w3, [x2]
/home/jeferson/optee/optee_os-rpi4/lib/libutee/tee_api.c:44 (discriminator 2)
    266c:	11001084 	add	w4, w4, #0x4
/home/jeferson/optee/optee_os-rpi4/lib/libutee/tee_api.c:62 (discriminator 2)
    2670:	a9000c05 	stp	x5, x3, [x0]
/home/jeferson/optee/optee_os-rpi4/lib/libutee/tee_api.c:44 (discriminator 2)
    2674:	91004042 	add	x2, x2, #0x10
    2678:	91004000 	add	x0, x0, #0x10
    267c:	7100409f 	cmp	w4, #0x10
    2680:	54fffd41 	b.ne	2628 <copy_param+0xc>  // b.any
/home/jeferson/optee/optee_os-rpi4/lib/libutee/tee_api.c:64
    2684:	d65f03c0 	ret

0000000000002688 <copy_gp11_param>:
copy_gp11_param():
/home/jeferson/optee/optee_os-rpi4/lib/libutee/tee_api.c:73
    2688:	2a0103e3 	mov	w3, w1
    268c:	52800004 	mov	w4, #0x0                   	// #0
    2690:	f8008403 	str	x3, [x0], #8
/home/jeferson/optee/optee_os-rpi4/lib/libutee/tee_api.c:75
    2694:	1ac42425 	lsr	w5, w1, w4
    2698:	12000ca3 	and	w3, w5, #0xf
    269c:	71000c7f 	cmp	w3, #0x3
    26a0:	540001c0 	b.eq	26d8 <copy_gp11_param+0x50>  // b.none
    26a4:	721e04bf 	tst	w5, #0xc
    26a8:	540000c1 	b.ne	26c0 <copy_gp11_param+0x38>  // b.any
    26ac:	7100047f 	cmp	w3, #0x1
    26b0:	54000140 	b.eq	26d8 <copy_gp11_param+0x50>  // b.none
    26b4:	d2800003 	mov	x3, #0x0                   	// #0
    26b8:	d2800005 	mov	x5, #0x0                   	// #0
    26bc:	14000008 	b	26dc <copy_gp11_param+0x54>
    26c0:	51001463 	sub	w3, w3, #0x5
    26c4:	7100087f 	cmp	w3, #0x2
    26c8:	54ffff68 	b.hi	26b4 <copy_gp11_param+0x2c>  // b.pmore
/home/jeferson/optee/optee_os-rpi4/lib/libutee/tee_api.c:85
    26cc:	b9400843 	ldr	w3, [x2, #8]
/home/jeferson/optee/optee_os-rpi4/lib/libutee/tee_api.c:84
    26d0:	f9400045 	ldr	x5, [x2]
/home/jeferson/optee/optee_os-rpi4/lib/libutee/tee_api.c:86
    26d4:	14000002 	b	26dc <copy_gp11_param+0x54>
/home/jeferson/optee/optee_os-rpi4/lib/libutee/tee_api.c:79
    26d8:	29400c45 	ldp	w5, w3, [x2]
/home/jeferson/optee/optee_os-rpi4/lib/libutee/tee_api.c:74 (discriminator 2)
    26dc:	11001084 	add	w4, w4, #0x4
/home/jeferson/optee/optee_os-rpi4/lib/libutee/tee_api.c:92 (discriminator 2)
    26e0:	a9000c05 	stp	x5, x3, [x0]
/home/jeferson/optee/optee_os-rpi4/lib/libutee/tee_api.c:74 (discriminator 2)
    26e4:	91004042 	add	x2, x2, #0x10
    26e8:	91004000 	add	x0, x0, #0x10
    26ec:	7100409f 	cmp	w4, #0x10
    26f0:	54fffd21 	b.ne	2694 <copy_gp11_param+0xc>  // b.any
/home/jeferson/optee/optee_os-rpi4/lib/libutee/tee_api.c:94
    26f4:	d65f03c0 	ret

00000000000026f8 <check_mem_access_rights_params>:
check_mem_access_rights_params():
/home/jeferson/optee/optee_os-rpi4/lib/libutee/tee_api.c:261
    26f8:	f0000063 	adrp	x3, 11000 <_DYNAMIC>
bufs_intersect():
/home/jeferson/optee/optee_os-rpi4/lib/libutee/tee_api.c:241
    26fc:	d1000447 	sub	x7, x2, #0x1
    2700:	8b0100e7 	add	x7, x7, x1
check_mem_access_rights_params():
/home/jeferson/optee/optee_os-rpi4/lib/libutee/tee_api.c:261
    2704:	52800005 	mov	w5, #0x0                   	// #0
    2708:	f940d064 	ldr	x4, [x3, #416]
    270c:	f940e063 	ldr	x3, [x3, #448]
    2710:	b9400089 	ldr	w9, [x4]
    2714:	1ac52524 	lsr	w4, w9, w5
    2718:	12000c84 	and	w4, w4, #0xf
    271c:	7100149f 	cmp	w4, #0x5
    2720:	54000300 	b.eq	2780 <check_mem_access_rights_params+0x88>  // b.none
    2724:	51001884 	sub	w4, w4, #0x6
    2728:	7100049f 	cmp	w4, #0x1
    272c:	540001e8 	b.hi	2768 <check_mem_access_rights_params+0x70>  // b.pmore
    2730:	528000c6 	mov	w6, #0x6                   	// #6
/home/jeferson/optee/optee_os-rpi4/lib/libutee/tee_api.c:268
    2734:	f9400464 	ldr	x4, [x3, #8]
bufs_intersect():
/home/jeferson/optee/optee_os-rpi4/lib/libutee/tee_api.c:244
    2738:	f100005f 	cmp	x2, #0x0
    273c:	fa401884 	ccmp	x4, #0x0, #0x4, ne  // ne = any
    2740:	54000140 	b.eq	2768 <check_mem_access_rights_params+0x70>  // b.none
/home/jeferson/optee/optee_os-rpi4/lib/libutee/tee_api.c:240
    2744:	f9400068 	ldr	x8, [x3]
/home/jeferson/optee/optee_os-rpi4/lib/libutee/tee_api.c:242
    2748:	d1000484 	sub	x4, x4, #0x1
    274c:	8b080084 	add	x4, x4, x8
/home/jeferson/optee/optee_os-rpi4/lib/libutee/tee_api.c:247
    2750:	eb07011f 	cmp	x8, x7
    2754:	fa449022 	ccmp	x1, x4, #0x2, ls  // ls = plast
    2758:	54000088 	b.hi	2768 <check_mem_access_rights_params+0x70>  // b.pmore
check_mem_access_rights_params():
/home/jeferson/optee/optee_os-rpi4/lib/libutee/tee_api.c:267
    275c:	320000c6 	orr	w6, w6, #0x1
/home/jeferson/optee/optee_os-rpi4/lib/libutee/tee_api.c:271
    2760:	6a26001f 	bics	wzr, w0, w6
    2764:	54000121 	b.ne	2788 <check_mem_access_rights_params+0x90>  // b.any
/home/jeferson/optee/optee_os-rpi4/lib/libutee/tee_api.c:258 (discriminator 2)
    2768:	110010a5 	add	w5, w5, #0x4
    276c:	91004063 	add	x3, x3, #0x10
    2770:	710040bf 	cmp	w5, #0x10
    2774:	54fffd01 	b.ne	2714 <check_mem_access_rights_params+0x1c>  // b.any
/home/jeferson/optee/optee_os-rpi4/lib/libutee/tee_api.c:280
    2778:	52800000 	mov	w0, #0x0                   	// #0
/home/jeferson/optee/optee_os-rpi4/lib/libutee/tee_api.c:281
    277c:	d65f03c0 	ret
/home/jeferson/optee/optee_os-rpi4/lib/libutee/tee_api.c:259
    2780:	52800086 	mov	w6, #0x4                   	// #4
    2784:	17ffffec 	b	2734 <check_mem_access_rights_params+0x3c>
/home/jeferson/optee/optee_os-rpi4/lib/libutee/tee_api.c:272
    2788:	129fffc0 	mov	w0, #0xffff0001            	// #-65535
    278c:	17fffffc 	b	277c <check_mem_access_rights_params+0x84>

0000000000002790 <buf_overlaps_no_share_heap>:
buf_overlaps_no_share_heap():
/home/jeferson/optee/optee_os-rpi4/lib/libutee/tee_api.c:284
    2790:	aa0003e3 	mov	x3, x0
/home/jeferson/optee/optee_os-rpi4/lib/libutee/tee_api.c:285
    2794:	f0000060 	adrp	x0, 11000 <_DYNAMIC>
    2798:	f940d800 	ldr	x0, [x0, #432]
    279c:	f9400000 	ldr	x0, [x0]
/home/jeferson/optee/optee_os-rpi4/lib/libutee/tee_api.c:287
    27a0:	b4000140 	cbz	x0, 27c8 <buf_overlaps_no_share_heap+0x38>
/home/jeferson/optee/optee_os-rpi4/lib/libutee/tee_api.c:284 (discriminator 1)
    27a4:	a9bf7bfd 	stp	x29, x30, [sp, #-16]!
    27a8:	aa0103e2 	mov	x2, x1
/home/jeferson/optee/optee_os-rpi4/lib/libutee/tee_api.c:287 (discriminator 1)
    27ac:	aa0303e1 	mov	x1, x3
/home/jeferson/optee/optee_os-rpi4/lib/libutee/tee_api.c:284 (discriminator 1)
    27b0:	910003fd 	mov	x29, sp
/home/jeferson/optee/optee_os-rpi4/lib/libutee/tee_api.c:287 (discriminator 1)
    27b4:	94002786 	bl	c5cc <raw_malloc_buffer_overlaps_heap>
    27b8:	12001c00 	and	w0, w0, #0xff
/home/jeferson/optee/optee_os-rpi4/lib/libutee/tee_api.c:288 (discriminator 1)
    27bc:	12000000 	and	w0, w0, #0x1
    27c0:	a8c17bfd 	ldp	x29, x30, [sp], #16
    27c4:	d65f03c0 	ret
/home/jeferson/optee/optee_os-rpi4/lib/libutee/tee_api.c:287
    27c8:	52800000 	mov	w0, #0x0                   	// #0
/home/jeferson/optee/optee_os-rpi4/lib/libutee/tee_api.c:288
    27cc:	12000000 	and	w0, w0, #0x1
    27d0:	d65f03c0 	ret

00000000000027d4 <check_invoke_param>:
check_invoke_param():
/home/jeferson/optee/optee_os-rpi4/lib/libutee/tee_api.c:291
    27d4:	a9bc7bfd 	stp	x29, x30, [sp, #-64]!
    27d8:	910003fd 	mov	x29, sp
    27dc:	a90153f3 	stp	x19, x20, [sp, #16]
    27e0:	aa0103f3 	mov	x19, x1
    27e4:	52800014 	mov	w20, #0x0                   	// #0
    27e8:	a9025bf5 	stp	x21, x22, [sp, #32]
    27ec:	2a0003f5 	mov	w21, w0
    27f0:	f9001bf7 	str	x23, [sp, #48]
/home/jeferson/optee/optee_os-rpi4/lib/libutee/tee_api.c:299
    27f4:	1ad426a1 	lsr	w1, w21, w20
    27f8:	12000c21 	and	w1, w1, #0xf
    27fc:	7100143f 	cmp	w1, #0x5
    2800:	540003a0 	b.eq	2874 <check_invoke_param+0xa0>  // b.none
    2804:	51001821 	sub	w1, w1, #0x6
    2808:	7100043f 	cmp	w1, #0x1
    280c:	54000228 	b.hi	2850 <check_invoke_param+0x7c>  // b.pmore
    2810:	528000c0 	mov	w0, #0x6                   	// #6
/home/jeferson/optee/optee_os-rpi4/lib/libutee/tee_api.c:297
    2814:	a9405e76 	ldp	x22, x23, [x19]
/home/jeferson/optee/optee_os-rpi4/lib/libutee/tee_api.c:306
    2818:	32000000 	orr	w0, w0, #0x1
    281c:	aa1703e2 	mov	x2, x23
    2820:	aa1603e1 	mov	x1, x22
    2824:	97ffffb5 	bl	26f8 <check_mem_access_rights_params>
    2828:	34000060 	cbz	w0, 2834 <check_invoke_param+0x60>
/home/jeferson/optee/optee_os-rpi4/lib/libutee/tee_api.c:307
    282c:	52800000 	mov	w0, #0x0                   	// #0
    2830:	94000c06 	bl	5848 <TEE_Panic>
/home/jeferson/optee/optee_os-rpi4/lib/libutee/tee_api.c:308
    2834:	aa1703e1 	mov	x1, x23
    2838:	aa1603e0 	mov	x0, x22
    283c:	97ffffd5 	bl	2790 <buf_overlaps_no_share_heap>
    2840:	72001c1f 	tst	w0, #0xff
    2844:	54000060 	b.eq	2850 <check_invoke_param+0x7c>  // b.none
/home/jeferson/optee/optee_os-rpi4/lib/libutee/tee_api.c:309
    2848:	52800000 	mov	w0, #0x0                   	// #0
    284c:	94000bff 	bl	5848 <TEE_Panic>
/home/jeferson/optee/optee_os-rpi4/lib/libutee/tee_api.c:294 (discriminator 2)
    2850:	11001294 	add	w20, w20, #0x4
    2854:	91004273 	add	x19, x19, #0x10
    2858:	7100429f 	cmp	w20, #0x10
    285c:	54fffcc1 	b.ne	27f4 <check_invoke_param+0x20>  // b.any
/home/jeferson/optee/optee_os-rpi4/lib/libutee/tee_api.c:315
    2860:	a94153f3 	ldp	x19, x20, [sp, #16]
    2864:	a9425bf5 	ldp	x21, x22, [sp, #32]
    2868:	f9401bf7 	ldr	x23, [sp, #48]
    286c:	a8c47bfd 	ldp	x29, x30, [sp], #64
    2870:	d65f03c0 	ret
/home/jeferson/optee/optee_os-rpi4/lib/libutee/tee_api.c:295
    2874:	52800080 	mov	w0, #0x4                   	// #4
    2878:	17ffffe7 	b	2814 <check_invoke_param+0x40>

000000000000287c <update_out_param>:
update_out_param():
/home/jeferson/optee/optee_os-rpi4/lib/libutee/tee_api.c:180
    287c:	a9bc7bfd 	stp	x29, x30, [sp, #-64]!
    2880:	910003fd 	mov	x29, sp
    2884:	a90153f3 	stp	x19, x20, [sp, #16]
/home/jeferson/optee/optee_os-rpi4/lib/libutee/tee_api.c:182
    2888:	aa0203f4 	mov	x20, x2
    288c:	aa0003f3 	mov	x19, x0
/home/jeferson/optee/optee_os-rpi4/lib/libutee/tee_api.c:180
    2890:	a90363f7 	stp	x23, x24, [sp, #48]
    2894:	aa0103f8 	mov	x24, x1
/home/jeferson/optee/optee_os-rpi4/lib/libutee/tee_api.c:182
    2898:	f8408697 	ldr	x23, [x20], #8
/home/jeferson/optee/optee_os-rpi4/lib/libutee/tee_api.c:180
    289c:	a9025bf5 	stp	x21, x22, [sp, #32]
/home/jeferson/optee/optee_os-rpi4/lib/libutee/tee_api.c:184
    28a0:	d2800015 	mov	x21, #0x0                   	// #0
/home/jeferson/optee/optee_os-rpi4/lib/libutee/tee_api.c:188
    28a4:	531e76a0 	lsl	w0, w21, #2
/home/jeferson/optee/optee_os-rpi4/lib/libutee/tee_api.c:186
    28a8:	a9405a82 	ldp	x2, x22, [x20]
/home/jeferson/optee/optee_os-rpi4/lib/libutee/tee_api.c:188
    28ac:	1ac026e0 	lsr	w0, w23, w0
    28b0:	12000c01 	and	w1, w0, #0xf
    28b4:	721e041f 	tst	w0, #0xc
    28b8:	540000a1 	b.ne	28cc <update_out_param+0x50>  // b.any
    28bc:	721f081f 	tst	w0, #0xe
    28c0:	540000c0 	b.eq	28d8 <update_out_param+0x5c>  // b.none
/home/jeferson/optee/optee_os-rpi4/lib/libutee/tee_api.c:192
    28c4:	29005a62 	stp	w2, w22, [x19]
/home/jeferson/optee/optee_os-rpi4/lib/libutee/tee_api.c:193
    28c8:	14000004 	b	28d8 <update_out_param+0x5c>
/home/jeferson/optee/optee_os-rpi4/lib/libutee/tee_api.c:188
    28cc:	51001820 	sub	w0, w1, #0x6
    28d0:	7100041f 	cmp	w0, #0x1
    28d4:	54000169 	b.ls	2900 <update_out_param+0x84>  // b.plast
/home/jeferson/optee/optee_os-rpi4/lib/libutee/tee_api.c:184 (discriminator 2)
    28d8:	910006b5 	add	x21, x21, #0x1
    28dc:	91004294 	add	x20, x20, #0x10
    28e0:	91004273 	add	x19, x19, #0x10
    28e4:	f10012bf 	cmp	x21, #0x4
    28e8:	54fffde1 	b.ne	28a4 <update_out_param+0x28>  // b.any
/home/jeferson/optee/optee_os-rpi4/lib/libutee/tee_api.c:205
    28ec:	a94153f3 	ldp	x19, x20, [sp, #16]
    28f0:	a9425bf5 	ldp	x21, x22, [sp, #32]
    28f4:	a94363f7 	ldp	x23, x24, [sp, #48]
    28f8:	a8c47bfd 	ldp	x29, x30, [sp], #64
    28fc:	d65f03c0 	ret
/home/jeferson/optee/optee_os-rpi4/lib/libutee/tee_api.c:196
    2900:	f8757b01 	ldr	x1, [x24, x21, lsl #3]
    2904:	b40000a1 	cbz	x1, 2918 <update_out_param+0x9c>
/home/jeferson/optee/optee_os-rpi4/lib/libutee/tee_api.c:198
    2908:	a9400a60 	ldp	x0, x2, [x19]
    290c:	eb16005f 	cmp	x2, x22
/home/jeferson/optee/optee_os-rpi4/lib/libutee/tee_api.c:197
    2910:	9a969042 	csel	x2, x2, x22, ls  // ls = plast
    2914:	97fff5c3 	bl	20 <memcpy>
/home/jeferson/optee/optee_os-rpi4/lib/libutee/tee_api.c:199
    2918:	f9000676 	str	x22, [x19, #8]
/home/jeferson/optee/optee_os-rpi4/lib/libutee/tee_api.c:200
    291c:	17ffffef 	b	28d8 <update_out_param+0x5c>

0000000000002920 <update_out_gp11_param>:
update_out_gp11_param():
/home/jeferson/optee/optee_os-rpi4/lib/libutee/tee_api.c:210
    2920:	a9bc7bfd 	stp	x29, x30, [sp, #-64]!
    2924:	910003fd 	mov	x29, sp
    2928:	a90153f3 	stp	x19, x20, [sp, #16]
/home/jeferson/optee/optee_os-rpi4/lib/libutee/tee_api.c:212
    292c:	aa0203f4 	mov	x20, x2
    2930:	aa0003f3 	mov	x19, x0
/home/jeferson/optee/optee_os-rpi4/lib/libutee/tee_api.c:210
    2934:	a90363f7 	stp	x23, x24, [sp, #48]
    2938:	aa0103f8 	mov	x24, x1
/home/jeferson/optee/optee_os-rpi4/lib/libutee/tee_api.c:212
    293c:	f8408697 	ldr	x23, [x20], #8
/home/jeferson/optee/optee_os-rpi4/lib/libutee/tee_api.c:210
    2940:	a9025bf5 	stp	x21, x22, [sp, #32]
/home/jeferson/optee/optee_os-rpi4/lib/libutee/tee_api.c:214
    2944:	d2800015 	mov	x21, #0x0                   	// #0
/home/jeferson/optee/optee_os-rpi4/lib/libutee/tee_api.c:218
    2948:	531e76a0 	lsl	w0, w21, #2
/home/jeferson/optee/optee_os-rpi4/lib/libutee/tee_api.c:216
    294c:	a9405a82 	ldp	x2, x22, [x20]
/home/jeferson/optee/optee_os-rpi4/lib/libutee/tee_api.c:218
    2950:	1ac026e0 	lsr	w0, w23, w0
    2954:	12000c01 	and	w1, w0, #0xf
    2958:	721e041f 	tst	w0, #0xc
    295c:	540000a1 	b.ne	2970 <update_out_gp11_param+0x50>  // b.any
    2960:	721f081f 	tst	w0, #0xe
    2964:	540000c0 	b.eq	297c <update_out_gp11_param+0x5c>  // b.none
/home/jeferson/optee/optee_os-rpi4/lib/libutee/tee_api.c:222
    2968:	29005a62 	stp	w2, w22, [x19]
/home/jeferson/optee/optee_os-rpi4/lib/libutee/tee_api.c:223
    296c:	14000004 	b	297c <update_out_gp11_param+0x5c>
/home/jeferson/optee/optee_os-rpi4/lib/libutee/tee_api.c:218
    2970:	51001820 	sub	w0, w1, #0x6
    2974:	7100041f 	cmp	w0, #0x1
    2978:	54000169 	b.ls	29a4 <update_out_gp11_param+0x84>  // b.plast
/home/jeferson/optee/optee_os-rpi4/lib/libutee/tee_api.c:214 (discriminator 2)
    297c:	910006b5 	add	x21, x21, #0x1
    2980:	91004294 	add	x20, x20, #0x10
    2984:	91004273 	add	x19, x19, #0x10
    2988:	f10012bf 	cmp	x21, #0x4
    298c:	54fffde1 	b.ne	2948 <update_out_gp11_param+0x28>  // b.any
/home/jeferson/optee/optee_os-rpi4/lib/libutee/tee_api.c:235
    2990:	a94153f3 	ldp	x19, x20, [sp, #16]
    2994:	a9425bf5 	ldp	x21, x22, [sp, #32]
    2998:	a94363f7 	ldp	x23, x24, [sp, #48]
    299c:	a8c47bfd 	ldp	x29, x30, [sp], #64
    29a0:	d65f03c0 	ret
/home/jeferson/optee/optee_os-rpi4/lib/libutee/tee_api.c:226
    29a4:	f8757b01 	ldr	x1, [x24, x21, lsl #3]
    29a8:	b40000c1 	cbz	x1, 29c0 <update_out_gp11_param+0xa0>
/home/jeferson/optee/optee_os-rpi4/lib/libutee/tee_api.c:228
    29ac:	b9400a62 	ldr	w2, [x19, #8]
/home/jeferson/optee/optee_os-rpi4/lib/libutee/tee_api.c:227
    29b0:	f9400260 	ldr	x0, [x19]
/home/jeferson/optee/optee_os-rpi4/lib/libutee/tee_api.c:228
    29b4:	eb16005f 	cmp	x2, x22
/home/jeferson/optee/optee_os-rpi4/lib/libutee/tee_api.c:227
    29b8:	9a969042 	csel	x2, x2, x22, ls  // ls = plast
    29bc:	97fff599 	bl	20 <memcpy>
/home/jeferson/optee/optee_os-rpi4/lib/libutee/tee_api.c:229
    29c0:	b9000a76 	str	w22, [x19, #8]
/home/jeferson/optee/optee_os-rpi4/lib/libutee/tee_api.c:230
    29c4:	17ffffee 	b	297c <update_out_gp11_param+0x5c>

00000000000029c8 <TEE_CloseTASession>:
TEE_CloseTASession():
/home/jeferson/optee/optee_os-rpi4/lib/libutee/tee_api.c:415
    29c8:	b4000120 	cbz	x0, 29ec <TEE_CloseTASession+0x24>
/home/jeferson/optee/optee_os-rpi4/lib/libutee/tee_api.c:414
    29cc:	a9bf7bfd 	stp	x29, x30, [sp, #-16]!
    29d0:	910003fd 	mov	x29, sp
/home/jeferson/optee/optee_os-rpi4/lib/libutee/tee_api.c:416
    29d4:	97fffc1f 	bl	1a50 <_utee_close_ta_session>
/home/jeferson/optee/optee_os-rpi4/lib/libutee/tee_api.c:418
    29d8:	34000060 	cbz	w0, 29e4 <TEE_CloseTASession+0x1c>
/home/jeferson/optee/optee_os-rpi4/lib/libutee/tee_api.c:421
    29dc:	a8c17bfd 	ldp	x29, x30, [sp], #16
/home/jeferson/optee/optee_os-rpi4/lib/libutee/tee_api.c:419
    29e0:	14000b9a 	b	5848 <TEE_Panic>
/home/jeferson/optee/optee_os-rpi4/lib/libutee/tee_api.c:421
    29e4:	a8c17bfd 	ldp	x29, x30, [sp], #16
    29e8:	d65f03c0 	ret
    29ec:	d65f03c0 	ret

00000000000029f0 <TEE_GetCancellationFlag>:
TEE_GetCancellationFlag():
/home/jeferson/optee/optee_os-rpi4/lib/libutee/tee_api.c:530
    29f0:	a9be7bfd 	stp	x29, x30, [sp, #-32]!
    29f4:	f0000061 	adrp	x1, 11000 <_DYNAMIC>
    29f8:	910003fd 	mov	x29, sp
    29fc:	f9409821 	ldr	x1, [x1, #304]
    2a00:	f9400020 	ldr	x0, [x1]
    2a04:	f9000fe0 	str	x0, [sp, #24]
    2a08:	d2800000 	mov	x0, #0x0                   	// #0
/home/jeferson/optee/optee_os-rpi4/lib/libutee/tee_api.c:532
    2a0c:	910053e0 	add	x0, sp, #0x14
    2a10:	97fffc16 	bl	1a68 <_utee_get_cancellation_flag>
/home/jeferson/optee/optee_os-rpi4/lib/libutee/tee_api.c:534
    2a14:	34000040 	cbz	w0, 2a1c <TEE_GetCancellationFlag+0x2c>
/home/jeferson/optee/optee_os-rpi4/lib/libutee/tee_api.c:535
    2a18:	b90017ff 	str	wzr, [sp, #20]
/home/jeferson/optee/optee_os-rpi4/lib/libutee/tee_api.c:537
    2a1c:	f0000061 	adrp	x1, 11000 <_DYNAMIC>
/home/jeferson/optee/optee_os-rpi4/lib/libutee/tee_api.c:536
    2a20:	b94017e0 	ldr	w0, [sp, #20]
/home/jeferson/optee/optee_os-rpi4/lib/libutee/tee_api.c:537
    2a24:	f9409821 	ldr	x1, [x1, #304]
/home/jeferson/optee/optee_os-rpi4/lib/libutee/tee_api.c:536
    2a28:	7100001f 	cmp	w0, #0x0
    2a2c:	1a9f07e0 	cset	w0, ne  // ne = any
/home/jeferson/optee/optee_os-rpi4/lib/libutee/tee_api.c:537
    2a30:	f9400fe3 	ldr	x3, [sp, #24]
    2a34:	f9400022 	ldr	x2, [x1]
    2a38:	eb020063 	subs	x3, x3, x2
    2a3c:	d2800002 	mov	x2, #0x0                   	// #0
    2a40:	54000040 	b.eq	2a48 <TEE_GetCancellationFlag+0x58>  // b.none
    2a44:	97fff65e 	bl	3bc <__stack_chk_fail>
    2a48:	a8c27bfd 	ldp	x29, x30, [sp], #32
    2a4c:	d65f03c0 	ret

0000000000002a50 <TEE_UnmaskCancellation>:
TEE_UnmaskCancellation():
/home/jeferson/optee/optee_os-rpi4/lib/libutee/tee_api.c:540
    2a50:	a9be7bfd 	stp	x29, x30, [sp, #-32]!
    2a54:	f0000061 	adrp	x1, 11000 <_DYNAMIC>
    2a58:	910003fd 	mov	x29, sp
    2a5c:	f9409821 	ldr	x1, [x1, #304]
    2a60:	f9400020 	ldr	x0, [x1]
    2a64:	f9000fe0 	str	x0, [sp, #24]
    2a68:	d2800000 	mov	x0, #0x0                   	// #0
/home/jeferson/optee/optee_os-rpi4/lib/libutee/tee_api.c:542
    2a6c:	910053e0 	add	x0, sp, #0x14
    2a70:	97fffc04 	bl	1a80 <_utee_unmask_cancellation>
/home/jeferson/optee/optee_os-rpi4/lib/libutee/tee_api.c:544
    2a74:	34000040 	cbz	w0, 2a7c <TEE_UnmaskCancellation+0x2c>
/home/jeferson/optee/optee_os-rpi4/lib/libutee/tee_api.c:545
    2a78:	94000b74 	bl	5848 <TEE_Panic>
/home/jeferson/optee/optee_os-rpi4/lib/libutee/tee_api.c:547
    2a7c:	f0000061 	adrp	x1, 11000 <_DYNAMIC>
/home/jeferson/optee/optee_os-rpi4/lib/libutee/tee_api.c:546
    2a80:	b94017e0 	ldr	w0, [sp, #20]
/home/jeferson/optee/optee_os-rpi4/lib/libutee/tee_api.c:547
    2a84:	f9409821 	ldr	x1, [x1, #304]
/home/jeferson/optee/optee_os-rpi4/lib/libutee/tee_api.c:546
    2a88:	7100001f 	cmp	w0, #0x0
    2a8c:	1a9f07e0 	cset	w0, ne  // ne = any
/home/jeferson/optee/optee_os-rpi4/lib/libutee/tee_api.c:547
    2a90:	f9400fe3 	ldr	x3, [sp, #24]
    2a94:	f9400022 	ldr	x2, [x1]
    2a98:	eb020063 	subs	x3, x3, x2
    2a9c:	d2800002 	mov	x2, #0x0                   	// #0
    2aa0:	54000040 	b.eq	2aa8 <TEE_UnmaskCancellation+0x58>  // b.none
    2aa4:	97fff646 	bl	3bc <__stack_chk_fail>
    2aa8:	a8c27bfd 	ldp	x29, x30, [sp], #32
    2aac:	d65f03c0 	ret

0000000000002ab0 <TEE_MaskCancellation>:
TEE_MaskCancellation():
/home/jeferson/optee/optee_os-rpi4/lib/libutee/tee_api.c:550
    2ab0:	a9be7bfd 	stp	x29, x30, [sp, #-32]!
    2ab4:	f0000061 	adrp	x1, 11000 <_DYNAMIC>
    2ab8:	910003fd 	mov	x29, sp
    2abc:	f9409821 	ldr	x1, [x1, #304]
    2ac0:	f9400020 	ldr	x0, [x1]
    2ac4:	f9000fe0 	str	x0, [sp, #24]
    2ac8:	d2800000 	mov	x0, #0x0                   	// #0
/home/jeferson/optee/optee_os-rpi4/lib/libutee/tee_api.c:552
    2acc:	910053e0 	add	x0, sp, #0x14
    2ad0:	97fffbef 	bl	1a8c <_utee_mask_cancellation>
/home/jeferson/optee/optee_os-rpi4/lib/libutee/tee_api.c:554
    2ad4:	34000040 	cbz	w0, 2adc <TEE_MaskCancellation+0x2c>
/home/jeferson/optee/optee_os-rpi4/lib/libutee/tee_api.c:555
    2ad8:	94000b5c 	bl	5848 <TEE_Panic>
/home/jeferson/optee/optee_os-rpi4/lib/libutee/tee_api.c:557
    2adc:	f0000061 	adrp	x1, 11000 <_DYNAMIC>
/home/jeferson/optee/optee_os-rpi4/lib/libutee/tee_api.c:556
    2ae0:	b94017e0 	ldr	w0, [sp, #20]
/home/jeferson/optee/optee_os-rpi4/lib/libutee/tee_api.c:557
    2ae4:	f9409821 	ldr	x1, [x1, #304]
/home/jeferson/optee/optee_os-rpi4/lib/libutee/tee_api.c:556
    2ae8:	7100001f 	cmp	w0, #0x0
    2aec:	1a9f07e0 	cset	w0, ne  // ne = any
/home/jeferson/optee/optee_os-rpi4/lib/libutee/tee_api.c:557
    2af0:	f9400fe3 	ldr	x3, [sp, #24]
    2af4:	f9400022 	ldr	x2, [x1]
    2af8:	eb020063 	subs	x3, x3, x2
    2afc:	d2800002 	mov	x2, #0x0                   	// #0
    2b00:	54000040 	b.eq	2b08 <TEE_MaskCancellation+0x58>  // b.none
    2b04:	97fff62e 	bl	3bc <__stack_chk_fail>
    2b08:	a8c27bfd 	ldp	x29, x30, [sp], #32
    2b0c:	d65f03c0 	ret

0000000000002b10 <TEE_CheckMemoryAccessRights>:
TEE_CheckMemoryAccessRights():
/home/jeferson/optee/optee_os-rpi4/lib/libutee/tee_api.c:566
    2b10:	b5000102 	cbnz	x2, 2b30 <TEE_CheckMemoryAccessRights+0x20>
/home/jeferson/optee/optee_os-rpi4/lib/libutee/tee_api.c:567
    2b14:	52800000 	mov	w0, #0x0                   	// #0
/home/jeferson/optee/optee_os-rpi4/lib/libutee/tee_api.c:592
    2b18:	d65f03c0 	ret
/home/jeferson/optee/optee_os-rpi4/lib/libutee/tee_api.c:567
    2b1c:	52800000 	mov	w0, #0x0                   	// #0
/home/jeferson/optee/optee_os-rpi4/lib/libutee/tee_api.c:592
    2b20:	a94153f3 	ldp	x19, x20, [sp, #16]
    2b24:	f94013f5 	ldr	x21, [sp, #32]
    2b28:	a8c37bfd 	ldp	x29, x30, [sp], #48
    2b2c:	d65f03c0 	ret
/home/jeferson/optee/optee_os-rpi4/lib/libutee/tee_api.c:563
    2b30:	a9bd7bfd 	stp	x29, x30, [sp, #-48]!
    2b34:	910003fd 	mov	x29, sp
    2b38:	a90153f3 	stp	x19, x20, [sp, #16]
    2b3c:	aa0103f4 	mov	x20, x1
    2b40:	aa0203f3 	mov	x19, x2
    2b44:	f90013f5 	str	x21, [sp, #32]
    2b48:	2a0003f5 	mov	w21, w0
/home/jeferson/optee/optee_os-rpi4/lib/libutee/tee_api.c:573
    2b4c:	97fffbca 	bl	1a74 <_utee_check_access_rights>
    2b50:	35000200 	cbnz	w0, 2b90 <TEE_CheckMemoryAccessRights+0x80>
/home/jeferson/optee/optee_os-rpi4/lib/libutee/tee_api.c:584
    2b54:	aa1303e2 	mov	x2, x19
    2b58:	aa1403e1 	mov	x1, x20
    2b5c:	12000aa0 	and	w0, w21, #0x7
    2b60:	97fffee6 	bl	26f8 <check_mem_access_rights_params>
    2b64:	35000160 	cbnz	w0, 2b90 <TEE_CheckMemoryAccessRights+0x80>
/home/jeferson/optee/optee_os-rpi4/lib/libutee/tee_api.c:587
    2b68:	aa1303e1 	mov	x1, x19
    2b6c:	aa1403e0 	mov	x0, x20
    2b70:	94002728 	bl	c810 <malloc_buffer_overlaps_heap>
    2b74:	72001c1f 	tst	w0, #0xff
    2b78:	54fffd20 	b.eq	2b1c <TEE_CheckMemoryAccessRights+0xc>  // b.none
/home/jeferson/optee/optee_os-rpi4/lib/libutee/tee_api.c:588
    2b7c:	aa1303e1 	mov	x1, x19
    2b80:	aa1403e0 	mov	x0, x20
    2b84:	9400271e 	bl	c7fc <malloc_buffer_is_within_alloced>
/home/jeferson/optee/optee_os-rpi4/lib/libutee/tee_api.c:587
    2b88:	72001c1f 	tst	w0, #0xff
    2b8c:	54fffc81 	b.ne	2b1c <TEE_CheckMemoryAccessRights+0xc>  // b.any
/home/jeferson/optee/optee_os-rpi4/lib/libutee/tee_api.c:589
    2b90:	129fffc0 	mov	w0, #0xffff0001            	// #-65535
    2b94:	17ffffe3 	b	2b20 <TEE_CheckMemoryAccessRights+0x10>

0000000000002b98 <map_tmp_param>:
map_tmp_param():
/home/jeferson/optee/optee_os-rpi4/lib/libutee/tee_api.c:98
    2b98:	a9b87bfd 	stp	x29, x30, [sp, #-128]!
    2b9c:	f0000064 	adrp	x4, 11000 <_DYNAMIC>
    2ba0:	910003fd 	mov	x29, sp
    2ba4:	f9409884 	ldr	x4, [x4, #304]
    2ba8:	a90153f3 	stp	x19, x20, [sp, #16]
/home/jeferson/optee/optee_os-rpi4/lib/libutee/tee_api.c:116
    2bac:	d2800013 	mov	x19, #0x0                   	// #0
/home/jeferson/optee/optee_os-rpi4/lib/libutee/tee_api.c:98
    2bb0:	a9025bf5 	stp	x21, x22, [sp, #32]
    2bb4:	aa0203f6 	mov	x22, x2
    2bb8:	aa0303f5 	mov	x21, x3
    2bbc:	a90363f7 	stp	x23, x24, [sp, #48]
    2bc0:	aa0103f7 	mov	x23, x1
/home/jeferson/optee/optee_os-rpi4/lib/libutee/tee_api.c:135
    2bc4:	52800023 	mov	w3, #0x1                   	// #1
/home/jeferson/optee/optee_os-rpi4/lib/libutee/tee_api.c:98
    2bc8:	a9046bf9 	stp	x25, x26, [sp, #64]
    2bcc:	aa0003f9 	mov	x25, x0
    2bd0:	91002338 	add	x24, x25, #0x8
    2bd4:	a90573fb 	stp	x27, x28, [sp, #80]
/home/jeferson/optee/optee_os-rpi4/lib/libutee/tee_api.c:115
    2bd8:	aa1803fb 	mov	x27, x24
/home/jeferson/optee/optee_os-rpi4/lib/libutee/tee_api.c:135
    2bdc:	9101c3fc 	add	x28, sp, #0x70
/home/jeferson/optee/optee_os-rpi4/lib/libutee/tee_api.c:98
    2be0:	f9400080 	ldr	x0, [x4]
    2be4:	f9003fe0 	str	x0, [sp, #120]
    2be8:	d2800000 	mov	x0, #0x0                   	// #0
/home/jeferson/optee/optee_os-rpi4/lib/libutee/tee_api.c:114
    2bec:	f900003f 	str	xzr, [x1]
/home/jeferson/optee/optee_os-rpi4/lib/libutee/tee_api.c:101
    2bf0:	d280001a 	mov	x26, #0x0                   	// #0
/home/jeferson/optee/optee_os-rpi4/lib/libutee/tee_api.c:115
    2bf4:	f900005f 	str	xzr, [x2]
/home/jeferson/optee/optee_os-rpi4/lib/libutee/tee_api.c:103
    2bf8:	b90073ff 	str	wzr, [sp, #112]
/home/jeferson/optee/optee_os-rpi4/lib/libutee/tee_api.c:118
    2bfc:	f9400321 	ldr	x1, [x25]
    2c00:	531e7660 	lsl	w0, w19, #2
/home/jeferson/optee/optee_os-rpi4/lib/libutee/tee_api.c:117
    2c04:	f8337abf 	str	xzr, [x21, x19, lsl #3]
/home/jeferson/optee/optee_os-rpi4/lib/libutee/tee_api.c:118
    2c08:	1ac02421 	lsr	w1, w1, w0
    2c0c:	12000c21 	and	w1, w1, #0xf
    2c10:	51001421 	sub	w1, w1, #0x5
    2c14:	7100083f 	cmp	w1, #0x2
    2c18:	540001e8 	b.hi	2c54 <map_tmp_param+0xbc>  // b.pmore
/home/jeferson/optee/optee_os-rpi4/lib/libutee/tee_api.c:123
    2c1c:	a9405361 	ldp	x1, x20, [x27]
/home/jeferson/optee/optee_os-rpi4/lib/libutee/tee_api.c:133
    2c20:	f100003f 	cmp	x1, #0x0
    2c24:	fa401a84 	ccmp	x20, #0x0, #0x4, ne  // ne = any
    2c28:	54000160 	b.eq	2c54 <map_tmp_param+0xbc>  // b.none
/home/jeferson/optee/optee_os-rpi4/lib/libutee/tee_api.c:134 (discriminator 1)
    2c2c:	aa1403e2 	mov	x2, x20
    2c30:	52800020 	mov	w0, #0x1                   	// #1
    2c34:	b9006fe3 	str	w3, [sp, #108]
    2c38:	97ffffb6 	bl	2b10 <TEE_CheckMemoryAccessRights>
/home/jeferson/optee/optee_os-rpi4/lib/libutee/tee_api.c:133 (discriminator 1)
    2c3c:	b9406fe3 	ldr	w3, [sp, #108]
    2c40:	350000a0 	cbnz	w0, 2c54 <map_tmp_param+0xbc>
/home/jeferson/optee/optee_os-rpi4/lib/libutee/tee_api.c:136
    2c44:	91003e94 	add	x20, x20, #0xf
/home/jeferson/optee/optee_os-rpi4/lib/libutee/tee_api.c:135
    2c48:	383c6a63 	strb	w3, [x19, x28]
/home/jeferson/optee/optee_os-rpi4/lib/libutee/tee_api.c:136
    2c4c:	927cee94 	and	x20, x20, #0xfffffffffffffff0
    2c50:	8b14035a 	add	x26, x26, x20
/home/jeferson/optee/optee_os-rpi4/lib/libutee/tee_api.c:116 (discriminator 2)
    2c54:	91000673 	add	x19, x19, #0x1
    2c58:	9100437b 	add	x27, x27, #0x10
    2c5c:	f100127f 	cmp	x19, #0x4
    2c60:	54fffce1 	b.ne	2bfc <map_tmp_param+0x64>  // b.any
/home/jeferson/optee/optee_os-rpi4/lib/libutee/tee_api.c:144
    2c64:	b400053a 	cbz	x26, 2d08 <map_tmp_param+0x170>
/home/jeferson/optee/optee_os-rpi4/lib/libutee/tee_api.c:145
    2c68:	2a1303e1 	mov	w1, w19
    2c6c:	aa1a03e0 	mov	x0, x26
    2c70:	97fffad5 	bl	17c4 <tee_map_zi>
/home/jeferson/optee/optee_os-rpi4/lib/libutee/tee_api.c:146
    2c74:	b40004e0 	cbz	x0, 2d10 <map_tmp_param+0x178>
/home/jeferson/optee/optee_os-rpi4/lib/libutee/tee_api.c:148
    2c78:	f90002e0 	str	x0, [x23]
/home/jeferson/optee/optee_os-rpi4/lib/libutee/tee_api.c:149
    2c7c:	f90002da 	str	x26, [x22]
/home/jeferson/optee/optee_os-rpi4/lib/libutee/tee_api.c:157
    2c80:	9101c3f6 	add	x22, sp, #0x70
/home/jeferson/optee/optee_os-rpi4/lib/libutee/tee_api.c:100
    2c84:	d2800013 	mov	x19, #0x0                   	// #0
/home/jeferson/optee/optee_os-rpi4/lib/libutee/tee_api.c:153
    2c88:	f9400323 	ldr	x3, [x25]
    2c8c:	531e7661 	lsl	w1, w19, #2
    2c90:	1ac12463 	lsr	w3, w3, w1
    2c94:	12000c63 	and	w3, w3, #0xf
    2c98:	51001461 	sub	w1, w3, #0x5
    2c9c:	7100083f 	cmp	w1, #0x2
    2ca0:	540001a8 	b.hi	2cd4 <map_tmp_param+0x13c>  // b.pmore
/home/jeferson/optee/optee_os-rpi4/lib/libutee/tee_api.c:157
    2ca4:	38766a61 	ldrb	w1, [x19, x22]
    2ca8:	34000161 	cbz	w1, 2cd4 <map_tmp_param+0x13c>
/home/jeferson/optee/optee_os-rpi4/lib/libutee/tee_api.c:159
    2cac:	a9400b01 	ldp	x1, x2, [x24]
/home/jeferson/optee/optee_os-rpi4/lib/libutee/tee_api.c:161
    2cb0:	f8337aa0 	str	x0, [x21, x19, lsl #3]
/home/jeferson/optee/optee_os-rpi4/lib/libutee/tee_api.c:163
    2cb4:	f9000300 	str	x0, [x24]
/home/jeferson/optee/optee_os-rpi4/lib/libutee/tee_api.c:162
    2cb8:	91003c54 	add	x20, x2, #0xf
    2cbc:	927cee94 	and	x20, x20, #0xfffffffffffffff0
    2cc0:	8b140014 	add	x20, x0, x20
/home/jeferson/optee/optee_os-rpi4/lib/libutee/tee_api.c:164
    2cc4:	7100187f 	cmp	w3, #0x6
    2cc8:	54000040 	b.eq	2cd0 <map_tmp_param+0x138>  // b.none
/home/jeferson/optee/optee_os-rpi4/lib/libutee/tee_api.c:166
    2ccc:	97fff4d5 	bl	20 <memcpy>
/home/jeferson/optee/optee_os-rpi4/lib/libutee/tee_api.c:162
    2cd0:	aa1403e0 	mov	x0, x20
/home/jeferson/optee/optee_os-rpi4/lib/libutee/tee_api.c:152 (discriminator 2)
    2cd4:	91000673 	add	x19, x19, #0x1
    2cd8:	91004318 	add	x24, x24, #0x10
    2cdc:	f100127f 	cmp	x19, #0x4
    2ce0:	54fffd41 	b.ne	2c88 <map_tmp_param+0xf0>  // b.any
/home/jeferson/optee/optee_os-rpi4/lib/libutee/tee_api.c:173
    2ce4:	52800000 	mov	w0, #0x0                   	// #0
/home/jeferson/optee/optee_os-rpi4/lib/libutee/tee_api.c:175
    2ce8:	f0000064 	adrp	x4, 11000 <_DYNAMIC>
    2cec:	f9409884 	ldr	x4, [x4, #304]
    2cf0:	f9403fe1 	ldr	x1, [sp, #120]
    2cf4:	f9400082 	ldr	x2, [x4]
    2cf8:	eb020021 	subs	x1, x1, x2
    2cfc:	d2800002 	mov	x2, #0x0                   	// #0
    2d00:	540000c0 	b.eq	2d18 <map_tmp_param+0x180>  // b.none
    2d04:	97fff5ae 	bl	3bc <__stack_chk_fail>
/home/jeferson/optee/optee_os-rpi4/lib/libutee/tee_api.c:100
    2d08:	d2800000 	mov	x0, #0x0                   	// #0
    2d0c:	17ffffdd 	b	2c80 <map_tmp_param+0xe8>
/home/jeferson/optee/optee_os-rpi4/lib/libutee/tee_api.c:147
    2d10:	129ffe60 	mov	w0, #0xffff000c            	// #-65524
    2d14:	17fffff5 	b	2ce8 <map_tmp_param+0x150>
/home/jeferson/optee/optee_os-rpi4/lib/libutee/tee_api.c:175
    2d18:	a94153f3 	ldp	x19, x20, [sp, #16]
    2d1c:	a9425bf5 	ldp	x21, x22, [sp, #32]
    2d20:	a94363f7 	ldp	x23, x24, [sp, #48]
    2d24:	a9446bf9 	ldp	x25, x26, [sp, #64]
    2d28:	a94573fb 	ldp	x27, x28, [sp, #80]
    2d2c:	a8c87bfd 	ldp	x29, x30, [sp], #128
    2d30:	d65f03c0 	ret

0000000000002d34 <TEE_OpenTASession>:
TEE_OpenTASession():
/home/jeferson/optee/optee_os-rpi4/lib/libutee/tee_api.c:323
    2d34:	a9b27bfd 	stp	x29, x30, [sp, #-224]!
    2d38:	f0000066 	adrp	x6, 11000 <_DYNAMIC>
    2d3c:	910003fd 	mov	x29, sp
    2d40:	f94098c6 	ldr	x6, [x6, #304]
    2d44:	a90153f3 	stp	x19, x20, [sp, #16]
    2d48:	2a0203f3 	mov	w19, w2
    2d4c:	a9025bf5 	stp	x21, x22, [sp, #32]
    2d50:	aa0303f4 	mov	x20, x3
    2d54:	aa0403f5 	mov	x21, x4
    2d58:	a90363f7 	stp	x23, x24, [sp, #48]
    2d5c:	aa0003f7 	mov	x23, x0
    2d60:	2a0103f8 	mov	w24, w1
    2d64:	a9046bf9 	stp	x25, x26, [sp, #64]
    2d68:	aa0503f9 	mov	x25, x5
    2d6c:	f94000c0 	ldr	x0, [x6]
    2d70:	f9006fe0 	str	x0, [sp, #216]
    2d74:	d2800000 	mov	x0, #0x0                   	// #0
/home/jeferson/optee/optee_os-rpi4/lib/libutee/tee_api.c:326
    2d78:	b9005fff 	str	wzr, [sp, #92]
/home/jeferson/optee/optee_os-rpi4/lib/libutee/tee_api.c:328
    2d7c:	a9067fff 	stp	xzr, xzr, [sp, #96]
/home/jeferson/optee/optee_os-rpi4/lib/libutee/tee_api.c:329
    2d80:	a9077fff 	stp	xzr, xzr, [sp, #112]
    2d84:	a9087fff 	stp	xzr, xzr, [sp, #128]
/home/jeferson/optee/optee_os-rpi4/lib/libutee/tee_api.c:325
    2d88:	a9097fff 	stp	xzr, xzr, [sp, #144]
    2d8c:	a90a7fff 	stp	xzr, xzr, [sp, #160]
    2d90:	a90b7fff 	stp	xzr, xzr, [sp, #176]
    2d94:	a90c7fff 	stp	xzr, xzr, [sp, #192]
    2d98:	f9006bff 	str	xzr, [sp, #208]
/home/jeferson/optee/optee_os-rpi4/lib/libutee/tee_api.c:331
    2d9c:	340000e2 	cbz	w2, 2db8 <TEE_OpenTASession+0x84>
/home/jeferson/optee/optee_os-rpi4/lib/libutee/tee_api.c:332
    2da0:	aa0303e0 	mov	x0, x3
    2da4:	d2800801 	mov	x1, #0x40                  	// #64
    2da8:	94000b18 	bl	5a08 <__utee_check_inout_annotation>
/home/jeferson/optee/optee_os-rpi4/lib/libutee/tee_api.c:335
    2dac:	aa1403e1 	mov	x1, x20
    2db0:	2a1303e0 	mov	w0, w19
    2db4:	97fffe88 	bl	27d4 <check_invoke_param>
/home/jeferson/optee/optee_os-rpi4/lib/libutee/tee_api.c:337
    2db8:	aa1503e0 	mov	x0, x21
/home/jeferson/optee/optee_os-rpi4/lib/libutee/tee_api.c:339
    2dbc:	910243f6 	add	x22, sp, #0x90
/home/jeferson/optee/optee_os-rpi4/lib/libutee/tee_api.c:337
    2dc0:	d2800101 	mov	x1, #0x8                   	// #8
    2dc4:	94000aff 	bl	59c0 <__utee_check_out_annotation>
/home/jeferson/optee/optee_os-rpi4/lib/libutee/tee_api.c:339
    2dc8:	2a1303e1 	mov	w1, w19
    2dcc:	aa1403e2 	mov	x2, x20
    2dd0:	aa1603e0 	mov	x0, x22
/home/jeferson/optee/optee_os-rpi4/lib/libutee/tee_api.c:340
    2dd4:	9101c3fa 	add	x26, sp, #0x70
/home/jeferson/optee/optee_os-rpi4/lib/libutee/tee_api.c:339
    2dd8:	97fffe11 	bl	261c <copy_param>
/home/jeferson/optee/optee_os-rpi4/lib/libutee/tee_api.c:340
    2ddc:	910183e1 	add	x1, sp, #0x60
    2de0:	aa1a03e3 	mov	x3, x26
    2de4:	9101a3e2 	add	x2, sp, #0x68
    2de8:	aa1603e0 	mov	x0, x22
    2dec:	97ffff6b 	bl	2b98 <map_tmp_param>
    2df0:	2a0003f3 	mov	w19, w0
/home/jeferson/optee/optee_os-rpi4/lib/libutee/tee_api.c:341
    2df4:	35000260 	cbnz	w0, 2e40 <TEE_OpenTASession+0x10c>
/home/jeferson/optee/optee_os-rpi4/lib/libutee/tee_api.c:343
    2df8:	aa1903e4 	mov	x4, x25
    2dfc:	910173e3 	add	x3, sp, #0x5c
    2e00:	aa1603e2 	mov	x2, x22
    2e04:	2a1803e1 	mov	w1, w24
    2e08:	aa1703e0 	mov	x0, x23
    2e0c:	97fffb0e 	bl	1a44 <_utee_open_ta_session>
/home/jeferson/optee/optee_os-rpi4/lib/libutee/tee_api.c:345
    2e10:	aa1603e2 	mov	x2, x22
/home/jeferson/optee/optee_os-rpi4/lib/libutee/tee_api.c:343
    2e14:	2a0003f3 	mov	w19, w0
/home/jeferson/optee/optee_os-rpi4/lib/libutee/tee_api.c:345
    2e18:	aa1a03e1 	mov	x1, x26
    2e1c:	aa1403e0 	mov	x0, x20
    2e20:	97fffe97 	bl	287c <update_out_param>
/home/jeferson/optee/optee_os-rpi4/lib/libutee/tee_api.c:346
    2e24:	f94033e0 	ldr	x0, [sp, #96]
    2e28:	b40000a0 	cbz	x0, 2e3c <TEE_OpenTASession+0x108>
/home/jeferson/optee/optee_os-rpi4/lib/libutee/tee_api.c:347
    2e2c:	f94037e1 	ldr	x1, [sp, #104]
    2e30:	97fffa8a 	bl	1858 <tee_unmap>
/home/jeferson/optee/optee_os-rpi4/lib/libutee/tee_api.c:349
    2e34:	34000040 	cbz	w0, 2e3c <TEE_OpenTASession+0x108>
/home/jeferson/optee/optee_os-rpi4/lib/libutee/tee_api.c:350
    2e38:	94000a84 	bl	5848 <TEE_Panic>
/home/jeferson/optee/optee_os-rpi4/lib/libutee/tee_api.c:359
    2e3c:	34000053 	cbz	w19, 2e44 <TEE_OpenTASession+0x110>
/home/jeferson/optee/optee_os-rpi4/lib/libutee/tee_api.c:360
    2e40:	b9005fff 	str	wzr, [sp, #92]
/home/jeferson/optee/optee_os-rpi4/lib/libutee/tee_api.c:364
    2e44:	f0000066 	adrp	x6, 11000 <_DYNAMIC>
/home/jeferson/optee/optee_os-rpi4/lib/libutee/tee_api.c:362
    2e48:	b9405fe0 	ldr	w0, [sp, #92]
    2e4c:	f90002a0 	str	x0, [x21]
/home/jeferson/optee/optee_os-rpi4/lib/libutee/tee_api.c:364
    2e50:	f94098c6 	ldr	x6, [x6, #304]
    2e54:	f9406fe0 	ldr	x0, [sp, #216]
    2e58:	f94000c1 	ldr	x1, [x6]
    2e5c:	eb010000 	subs	x0, x0, x1
    2e60:	d2800001 	mov	x1, #0x0                   	// #0
    2e64:	54000040 	b.eq	2e6c <TEE_OpenTASession+0x138>  // b.none
    2e68:	97fff555 	bl	3bc <__stack_chk_fail>
    2e6c:	2a1303e0 	mov	w0, w19
    2e70:	a94153f3 	ldp	x19, x20, [sp, #16]
    2e74:	a9425bf5 	ldp	x21, x22, [sp, #32]
    2e78:	a94363f7 	ldp	x23, x24, [sp, #48]
    2e7c:	a9446bf9 	ldp	x25, x26, [sp, #64]
    2e80:	a8ce7bfd 	ldp	x29, x30, [sp], #224
    2e84:	d65f03c0 	ret

0000000000002e88 <__GP11_TEE_OpenTASession>:
__GP11_TEE_OpenTASession():
/home/jeferson/optee/optee_os-rpi4/lib/libutee/tee_api.c:372
    2e88:	a9b27bfd 	stp	x29, x30, [sp, #-224]!
    2e8c:	f0000066 	adrp	x6, 11000 <_DYNAMIC>
    2e90:	910003fd 	mov	x29, sp
    2e94:	f94098c6 	ldr	x6, [x6, #304]
    2e98:	a90153f3 	stp	x19, x20, [sp, #16]
    2e9c:	2a0203f3 	mov	w19, w2
    2ea0:	a9025bf5 	stp	x21, x22, [sp, #32]
    2ea4:	aa0303f4 	mov	x20, x3
    2ea8:	aa0403f5 	mov	x21, x4
    2eac:	a90363f7 	stp	x23, x24, [sp, #48]
    2eb0:	aa0003f7 	mov	x23, x0
    2eb4:	2a0103f8 	mov	w24, w1
    2eb8:	a9046bf9 	stp	x25, x26, [sp, #64]
    2ebc:	aa0503f9 	mov	x25, x5
    2ec0:	f94000c0 	ldr	x0, [x6]
    2ec4:	f9006fe0 	str	x0, [sp, #216]
    2ec8:	d2800000 	mov	x0, #0x0                   	// #0
/home/jeferson/optee/optee_os-rpi4/lib/libutee/tee_api.c:375
    2ecc:	b9005fff 	str	wzr, [sp, #92]
/home/jeferson/optee/optee_os-rpi4/lib/libutee/tee_api.c:377
    2ed0:	a9067fff 	stp	xzr, xzr, [sp, #96]
/home/jeferson/optee/optee_os-rpi4/lib/libutee/tee_api.c:378
    2ed4:	a9077fff 	stp	xzr, xzr, [sp, #112]
    2ed8:	a9087fff 	stp	xzr, xzr, [sp, #128]
/home/jeferson/optee/optee_os-rpi4/lib/libutee/tee_api.c:374
    2edc:	a9097fff 	stp	xzr, xzr, [sp, #144]
    2ee0:	a90a7fff 	stp	xzr, xzr, [sp, #160]
    2ee4:	a90b7fff 	stp	xzr, xzr, [sp, #176]
    2ee8:	a90c7fff 	stp	xzr, xzr, [sp, #192]
    2eec:	f9006bff 	str	xzr, [sp, #208]
/home/jeferson/optee/optee_os-rpi4/lib/libutee/tee_api.c:380
    2ef0:	34000082 	cbz	w2, 2f00 <__GP11_TEE_OpenTASession+0x78>
/home/jeferson/optee/optee_os-rpi4/lib/libutee/tee_api.c:381
    2ef4:	aa0303e0 	mov	x0, x3
    2ef8:	d2800801 	mov	x1, #0x40                  	// #64
    2efc:	94000ac3 	bl	5a08 <__utee_check_inout_annotation>
/home/jeferson/optee/optee_os-rpi4/lib/libutee/tee_api.c:384
    2f00:	aa1503e0 	mov	x0, x21
/home/jeferson/optee/optee_os-rpi4/lib/libutee/tee_api.c:386
    2f04:	910243f6 	add	x22, sp, #0x90
/home/jeferson/optee/optee_os-rpi4/lib/libutee/tee_api.c:384
    2f08:	d2800101 	mov	x1, #0x8                   	// #8
    2f0c:	94000aad 	bl	59c0 <__utee_check_out_annotation>
/home/jeferson/optee/optee_os-rpi4/lib/libutee/tee_api.c:386
    2f10:	2a1303e1 	mov	w1, w19
    2f14:	aa1403e2 	mov	x2, x20
    2f18:	aa1603e0 	mov	x0, x22
/home/jeferson/optee/optee_os-rpi4/lib/libutee/tee_api.c:387
    2f1c:	9101c3fa 	add	x26, sp, #0x70
/home/jeferson/optee/optee_os-rpi4/lib/libutee/tee_api.c:386
    2f20:	97fffdda 	bl	2688 <copy_gp11_param>
/home/jeferson/optee/optee_os-rpi4/lib/libutee/tee_api.c:387
    2f24:	910183e1 	add	x1, sp, #0x60
    2f28:	aa1a03e3 	mov	x3, x26
    2f2c:	9101a3e2 	add	x2, sp, #0x68
    2f30:	aa1603e0 	mov	x0, x22
    2f34:	97ffff19 	bl	2b98 <map_tmp_param>
    2f38:	2a0003f3 	mov	w19, w0
/home/jeferson/optee/optee_os-rpi4/lib/libutee/tee_api.c:388
    2f3c:	35000260 	cbnz	w0, 2f88 <__GP11_TEE_OpenTASession+0x100>
/home/jeferson/optee/optee_os-rpi4/lib/libutee/tee_api.c:390
    2f40:	aa1903e4 	mov	x4, x25
    2f44:	910173e3 	add	x3, sp, #0x5c
    2f48:	aa1603e2 	mov	x2, x22
    2f4c:	2a1803e1 	mov	w1, w24
    2f50:	aa1703e0 	mov	x0, x23
    2f54:	97fffabc 	bl	1a44 <_utee_open_ta_session>
/home/jeferson/optee/optee_os-rpi4/lib/libutee/tee_api.c:392
    2f58:	aa1603e2 	mov	x2, x22
/home/jeferson/optee/optee_os-rpi4/lib/libutee/tee_api.c:390
    2f5c:	2a0003f3 	mov	w19, w0
/home/jeferson/optee/optee_os-rpi4/lib/libutee/tee_api.c:392
    2f60:	aa1a03e1 	mov	x1, x26
    2f64:	aa1403e0 	mov	x0, x20
    2f68:	97fffe6e 	bl	2920 <update_out_gp11_param>
/home/jeferson/optee/optee_os-rpi4/lib/libutee/tee_api.c:393
    2f6c:	f94033e0 	ldr	x0, [sp, #96]
    2f70:	b40000a0 	cbz	x0, 2f84 <__GP11_TEE_OpenTASession+0xfc>
/home/jeferson/optee/optee_os-rpi4/lib/libutee/tee_api.c:394
    2f74:	f94037e1 	ldr	x1, [sp, #104]
    2f78:	97fffa38 	bl	1858 <tee_unmap>
/home/jeferson/optee/optee_os-rpi4/lib/libutee/tee_api.c:396
    2f7c:	34000040 	cbz	w0, 2f84 <__GP11_TEE_OpenTASession+0xfc>
/home/jeferson/optee/optee_os-rpi4/lib/libutee/tee_api.c:397
    2f80:	94000a32 	bl	5848 <TEE_Panic>
/home/jeferson/optee/optee_os-rpi4/lib/libutee/tee_api.c:406
    2f84:	34000053 	cbz	w19, 2f8c <__GP11_TEE_OpenTASession+0x104>
/home/jeferson/optee/optee_os-rpi4/lib/libutee/tee_api.c:407
    2f88:	b9005fff 	str	wzr, [sp, #92]
/home/jeferson/optee/optee_os-rpi4/lib/libutee/tee_api.c:411
    2f8c:	f0000066 	adrp	x6, 11000 <_DYNAMIC>
/home/jeferson/optee/optee_os-rpi4/lib/libutee/tee_api.c:409
    2f90:	b9405fe0 	ldr	w0, [sp, #92]
    2f94:	f90002a0 	str	x0, [x21]
/home/jeferson/optee/optee_os-rpi4/lib/libutee/tee_api.c:411
    2f98:	f94098c6 	ldr	x6, [x6, #304]
    2f9c:	f9406fe0 	ldr	x0, [sp, #216]
    2fa0:	f94000c1 	ldr	x1, [x6]
    2fa4:	eb010000 	subs	x0, x0, x1
    2fa8:	d2800001 	mov	x1, #0x0                   	// #0
    2fac:	54000040 	b.eq	2fb4 <__GP11_TEE_OpenTASession+0x12c>  // b.none
    2fb0:	97fff503 	bl	3bc <__stack_chk_fail>
    2fb4:	2a1303e0 	mov	w0, w19
    2fb8:	a94153f3 	ldp	x19, x20, [sp, #16]
    2fbc:	a9425bf5 	ldp	x21, x22, [sp, #32]
    2fc0:	a94363f7 	ldp	x23, x24, [sp, #48]
    2fc4:	a9446bf9 	ldp	x25, x26, [sp, #64]
    2fc8:	a8ce7bfd 	ldp	x29, x30, [sp], #224
    2fcc:	d65f03c0 	ret

0000000000002fd0 <TEE_InvokeTACommand>:
TEE_InvokeTACommand():
/home/jeferson/optee/optee_os-rpi4/lib/libutee/tee_api.c:428
    2fd0:	a9b27bfd 	stp	x29, x30, [sp, #-224]!
    2fd4:	f0000066 	adrp	x6, 11000 <_DYNAMIC>
    2fd8:	910003fd 	mov	x29, sp
    2fdc:	f94098c6 	ldr	x6, [x6, #304]
    2fe0:	a90153f3 	stp	x19, x20, [sp, #16]
    2fe4:	2a0303f3 	mov	w19, w3
    2fe8:	a9025bf5 	stp	x21, x22, [sp, #32]
    2fec:	aa0003f6 	mov	x22, x0
    2ff0:	aa0403f5 	mov	x21, x4
    2ff4:	a90363f7 	stp	x23, x24, [sp, #48]
    2ff8:	aa0503f4 	mov	x20, x5
    2ffc:	2a0103f7 	mov	w23, w1
    3000:	a9046bf9 	stp	x25, x26, [sp, #64]
    3004:	2a0203f8 	mov	w24, w2
    3008:	f94000c0 	ldr	x0, [x6]
    300c:	f9006fe0 	str	x0, [sp, #216]
    3010:	d2800000 	mov	x0, #0x0                   	// #0
/home/jeferson/optee/optee_os-rpi4/lib/libutee/tee_api.c:433
    3014:	a9067fff 	stp	xzr, xzr, [sp, #96]
/home/jeferson/optee/optee_os-rpi4/lib/libutee/tee_api.c:430
    3018:	52800060 	mov	w0, #0x3                   	// #3
    301c:	b9005fe0 	str	w0, [sp, #92]
/home/jeferson/optee/optee_os-rpi4/lib/libutee/tee_api.c:434
    3020:	a9077fff 	stp	xzr, xzr, [sp, #112]
    3024:	a9087fff 	stp	xzr, xzr, [sp, #128]
/home/jeferson/optee/optee_os-rpi4/lib/libutee/tee_api.c:431
    3028:	a9097fff 	stp	xzr, xzr, [sp, #144]
    302c:	a90a7fff 	stp	xzr, xzr, [sp, #160]
    3030:	a90b7fff 	stp	xzr, xzr, [sp, #176]
    3034:	a90c7fff 	stp	xzr, xzr, [sp, #192]
    3038:	f9006bff 	str	xzr, [sp, #208]
/home/jeferson/optee/optee_os-rpi4/lib/libutee/tee_api.c:436
    303c:	340000e3 	cbz	w3, 3058 <TEE_InvokeTACommand+0x88>
/home/jeferson/optee/optee_os-rpi4/lib/libutee/tee_api.c:437
    3040:	aa0403e0 	mov	x0, x4
    3044:	d2800801 	mov	x1, #0x40                  	// #64
    3048:	94000a70 	bl	5a08 <__utee_check_inout_annotation>
/home/jeferson/optee/optee_os-rpi4/lib/libutee/tee_api.c:440
    304c:	aa1503e1 	mov	x1, x21
    3050:	2a1303e0 	mov	w0, w19
    3054:	97fffde0 	bl	27d4 <check_invoke_param>
/home/jeferson/optee/optee_os-rpi4/lib/libutee/tee_api.c:442
    3058:	b4000094 	cbz	x20, 3068 <TEE_InvokeTACommand+0x98>
/home/jeferson/optee/optee_os-rpi4/lib/libutee/tee_api.c:443
    305c:	aa1403e0 	mov	x0, x20
    3060:	d2800081 	mov	x1, #0x4                   	// #4
    3064:	94000a57 	bl	59c0 <__utee_check_out_annotation>
/home/jeferson/optee/optee_os-rpi4/lib/libutee/tee_api.c:446
    3068:	910243f9 	add	x25, sp, #0x90
    306c:	2a1303e1 	mov	w1, w19
    3070:	aa1503e2 	mov	x2, x21
    3074:	aa1903e0 	mov	x0, x25
/home/jeferson/optee/optee_os-rpi4/lib/libutee/tee_api.c:447
    3078:	9101c3fa 	add	x26, sp, #0x70
/home/jeferson/optee/optee_os-rpi4/lib/libutee/tee_api.c:446
    307c:	97fffd68 	bl	261c <copy_param>
/home/jeferson/optee/optee_os-rpi4/lib/libutee/tee_api.c:447
    3080:	aa1a03e3 	mov	x3, x26
    3084:	9101a3e2 	add	x2, sp, #0x68
    3088:	910183e1 	add	x1, sp, #0x60
    308c:	aa1903e0 	mov	x0, x25
    3090:	97fffec2 	bl	2b98 <map_tmp_param>
    3094:	2a0003f3 	mov	w19, w0
/home/jeferson/optee/optee_os-rpi4/lib/libutee/tee_api.c:448
    3098:	35000240 	cbnz	w0, 30e0 <TEE_InvokeTACommand+0x110>
/home/jeferson/optee/optee_os-rpi4/lib/libutee/tee_api.c:450
    309c:	910173e4 	add	x4, sp, #0x5c
    30a0:	aa1903e3 	mov	x3, x25
    30a4:	2a1803e2 	mov	w2, w24
    30a8:	2a1703e1 	mov	w1, w23
    30ac:	aa1603e0 	mov	x0, x22
    30b0:	97fffa6b 	bl	1a5c <_utee_invoke_ta_command>
/home/jeferson/optee/optee_os-rpi4/lib/libutee/tee_api.c:453
    30b4:	aa1903e2 	mov	x2, x25
/home/jeferson/optee/optee_os-rpi4/lib/libutee/tee_api.c:450
    30b8:	2a0003f3 	mov	w19, w0
/home/jeferson/optee/optee_os-rpi4/lib/libutee/tee_api.c:453
    30bc:	aa1a03e1 	mov	x1, x26
    30c0:	aa1503e0 	mov	x0, x21
    30c4:	97fffdee 	bl	287c <update_out_param>
/home/jeferson/optee/optee_os-rpi4/lib/libutee/tee_api.c:454
    30c8:	f94033e0 	ldr	x0, [sp, #96]
    30cc:	b40000a0 	cbz	x0, 30e0 <TEE_InvokeTACommand+0x110>
/home/jeferson/optee/optee_os-rpi4/lib/libutee/tee_api.c:455
    30d0:	f94037e1 	ldr	x1, [sp, #104]
    30d4:	97fff9e1 	bl	1858 <tee_unmap>
/home/jeferson/optee/optee_os-rpi4/lib/libutee/tee_api.c:457
    30d8:	34000040 	cbz	w0, 30e0 <TEE_InvokeTACommand+0x110>
/home/jeferson/optee/optee_os-rpi4/lib/libutee/tee_api.c:458
    30dc:	940009db 	bl	5848 <TEE_Panic>
/home/jeferson/optee/optee_os-rpi4/lib/libutee/tee_api.c:463
    30e0:	b9405fe0 	ldr	w0, [sp, #92]
/home/jeferson/optee/optee_os-rpi4/lib/libutee/tee_api.c:462
    30e4:	b4000054 	cbz	x20, 30ec <TEE_InvokeTACommand+0x11c>
/home/jeferson/optee/optee_os-rpi4/lib/libutee/tee_api.c:463
    30e8:	b9000280 	str	w0, [x20]
/home/jeferson/optee/optee_os-rpi4/lib/libutee/tee_api.c:465
    30ec:	7100101f 	cmp	w0, #0x4
    30f0:	54000140 	b.eq	3118 <TEE_InvokeTACommand+0x148>  // b.none
/home/jeferson/optee/optee_os-rpi4/lib/libutee/tee_api.c:468
    30f4:	7100027f 	cmp	w19, #0x0
    30f8:	129ffe60 	mov	w0, #0xffff000c            	// #-65524
    30fc:	7a401264 	ccmp	w19, w0, #0x4, ne  // ne = any
    3100:	540000c0 	b.eq	3118 <TEE_InvokeTACommand+0x148>  // b.none
/home/jeferson/optee/optee_os-rpi4/lib/libutee/tee_api.c:469
    3104:	1299fb60 	mov	w0, #0xffff3024            	// #-53212
    3108:	6b00027f 	cmp	w19, w0
    310c:	54000060 	b.eq	3118 <TEE_InvokeTACommand+0x148>  // b.none
/home/jeferson/optee/optee_os-rpi4/lib/libutee/tee_api.c:471
    3110:	2a1303e0 	mov	w0, w19
    3114:	940009cd 	bl	5848 <TEE_Panic>
/home/jeferson/optee/optee_os-rpi4/lib/libutee/tee_api.c:474
    3118:	d0000066 	adrp	x6, 11000 <_DYNAMIC>
    311c:	f94098c6 	ldr	x6, [x6, #304]
    3120:	f9406fe0 	ldr	x0, [sp, #216]
    3124:	f94000c1 	ldr	x1, [x6]
    3128:	eb010000 	subs	x0, x0, x1
    312c:	d2800001 	mov	x1, #0x0                   	// #0
    3130:	54000040 	b.eq	3138 <TEE_InvokeTACommand+0x168>  // b.none
    3134:	97fff4a2 	bl	3bc <__stack_chk_fail>
    3138:	2a1303e0 	mov	w0, w19
    313c:	a94153f3 	ldp	x19, x20, [sp, #16]
    3140:	a9425bf5 	ldp	x21, x22, [sp, #32]
    3144:	a94363f7 	ldp	x23, x24, [sp, #48]
    3148:	a9446bf9 	ldp	x25, x26, [sp, #64]
    314c:	a8ce7bfd 	ldp	x29, x30, [sp], #224
    3150:	d65f03c0 	ret

0000000000003154 <__GP11_TEE_InvokeTACommand>:
__GP11_TEE_InvokeTACommand():
/home/jeferson/optee/optee_os-rpi4/lib/libutee/tee_api.c:481
    3154:	a9b27bfd 	stp	x29, x30, [sp, #-224]!
    3158:	d0000066 	adrp	x6, 11000 <_DYNAMIC>
    315c:	910003fd 	mov	x29, sp
    3160:	f94098c6 	ldr	x6, [x6, #304]
    3164:	a90153f3 	stp	x19, x20, [sp, #16]
    3168:	2a0303f3 	mov	w19, w3
    316c:	a9025bf5 	stp	x21, x22, [sp, #32]
    3170:	aa0503f4 	mov	x20, x5
    3174:	aa0403f5 	mov	x21, x4
    3178:	a90363f7 	stp	x23, x24, [sp, #48]
    317c:	aa0003f7 	mov	x23, x0
    3180:	2a0103f8 	mov	w24, w1
    3184:	a9046bf9 	stp	x25, x26, [sp, #64]
    3188:	2a0203f9 	mov	w25, w2
    318c:	f94000c0 	ldr	x0, [x6]
    3190:	f9006fe0 	str	x0, [sp, #216]
    3194:	d2800000 	mov	x0, #0x0                   	// #0
/home/jeferson/optee/optee_os-rpi4/lib/libutee/tee_api.c:486
    3198:	a9067fff 	stp	xzr, xzr, [sp, #96]
/home/jeferson/optee/optee_os-rpi4/lib/libutee/tee_api.c:483
    319c:	52800060 	mov	w0, #0x3                   	// #3
    31a0:	b9005fe0 	str	w0, [sp, #92]
/home/jeferson/optee/optee_os-rpi4/lib/libutee/tee_api.c:487
    31a4:	a9077fff 	stp	xzr, xzr, [sp, #112]
    31a8:	a9087fff 	stp	xzr, xzr, [sp, #128]
/home/jeferson/optee/optee_os-rpi4/lib/libutee/tee_api.c:484
    31ac:	a9097fff 	stp	xzr, xzr, [sp, #144]
    31b0:	a90a7fff 	stp	xzr, xzr, [sp, #160]
    31b4:	a90b7fff 	stp	xzr, xzr, [sp, #176]
    31b8:	a90c7fff 	stp	xzr, xzr, [sp, #192]
    31bc:	f9006bff 	str	xzr, [sp, #208]
/home/jeferson/optee/optee_os-rpi4/lib/libutee/tee_api.c:489
    31c0:	34000083 	cbz	w3, 31d0 <__GP11_TEE_InvokeTACommand+0x7c>
/home/jeferson/optee/optee_os-rpi4/lib/libutee/tee_api.c:490
    31c4:	aa0403e0 	mov	x0, x4
    31c8:	d2800801 	mov	x1, #0x40                  	// #64
    31cc:	94000a0f 	bl	5a08 <__utee_check_inout_annotation>
/home/jeferson/optee/optee_os-rpi4/lib/libutee/tee_api.c:493
    31d0:	b4000094 	cbz	x20, 31e0 <__GP11_TEE_InvokeTACommand+0x8c>
/home/jeferson/optee/optee_os-rpi4/lib/libutee/tee_api.c:494
    31d4:	aa1403e0 	mov	x0, x20
    31d8:	d2800081 	mov	x1, #0x4                   	// #4
    31dc:	940009f9 	bl	59c0 <__utee_check_out_annotation>
/home/jeferson/optee/optee_os-rpi4/lib/libutee/tee_api.c:497
    31e0:	910243f6 	add	x22, sp, #0x90
    31e4:	2a1303e1 	mov	w1, w19
    31e8:	aa1503e2 	mov	x2, x21
    31ec:	aa1603e0 	mov	x0, x22
/home/jeferson/optee/optee_os-rpi4/lib/libutee/tee_api.c:498
    31f0:	9101c3fa 	add	x26, sp, #0x70
/home/jeferson/optee/optee_os-rpi4/lib/libutee/tee_api.c:497
    31f4:	97fffd25 	bl	2688 <copy_gp11_param>
/home/jeferson/optee/optee_os-rpi4/lib/libutee/tee_api.c:498
    31f8:	aa1a03e3 	mov	x3, x26
    31fc:	9101a3e2 	add	x2, sp, #0x68
    3200:	910183e1 	add	x1, sp, #0x60
    3204:	aa1603e0 	mov	x0, x22
    3208:	97fffe64 	bl	2b98 <map_tmp_param>
    320c:	2a0003f3 	mov	w19, w0
/home/jeferson/optee/optee_os-rpi4/lib/libutee/tee_api.c:499
    3210:	35000240 	cbnz	w0, 3258 <__GP11_TEE_InvokeTACommand+0x104>
/home/jeferson/optee/optee_os-rpi4/lib/libutee/tee_api.c:501
    3214:	910173e4 	add	x4, sp, #0x5c
    3218:	aa1603e3 	mov	x3, x22
    321c:	2a1903e2 	mov	w2, w25
    3220:	2a1803e1 	mov	w1, w24
    3224:	aa1703e0 	mov	x0, x23
    3228:	97fffa0d 	bl	1a5c <_utee_invoke_ta_command>
/home/jeferson/optee/optee_os-rpi4/lib/libutee/tee_api.c:504
    322c:	aa1603e2 	mov	x2, x22
/home/jeferson/optee/optee_os-rpi4/lib/libutee/tee_api.c:501
    3230:	2a0003f3 	mov	w19, w0
/home/jeferson/optee/optee_os-rpi4/lib/libutee/tee_api.c:504
    3234:	aa1a03e1 	mov	x1, x26
    3238:	aa1503e0 	mov	x0, x21
    323c:	97fffdb9 	bl	2920 <update_out_gp11_param>
/home/jeferson/optee/optee_os-rpi4/lib/libutee/tee_api.c:505
    3240:	f94033e0 	ldr	x0, [sp, #96]
    3244:	b40000a0 	cbz	x0, 3258 <__GP11_TEE_InvokeTACommand+0x104>
/home/jeferson/optee/optee_os-rpi4/lib/libutee/tee_api.c:506
    3248:	f94037e1 	ldr	x1, [sp, #104]
    324c:	97fff983 	bl	1858 <tee_unmap>
/home/jeferson/optee/optee_os-rpi4/lib/libutee/tee_api.c:508
    3250:	34000040 	cbz	w0, 3258 <__GP11_TEE_InvokeTACommand+0x104>
/home/jeferson/optee/optee_os-rpi4/lib/libutee/tee_api.c:509
    3254:	9400097d 	bl	5848 <TEE_Panic>
/home/jeferson/optee/optee_os-rpi4/lib/libutee/tee_api.c:514
    3258:	b9405fe0 	ldr	w0, [sp, #92]
/home/jeferson/optee/optee_os-rpi4/lib/libutee/tee_api.c:513
    325c:	b4000054 	cbz	x20, 3264 <__GP11_TEE_InvokeTACommand+0x110>
/home/jeferson/optee/optee_os-rpi4/lib/libutee/tee_api.c:514
    3260:	b9000280 	str	w0, [x20]
/home/jeferson/optee/optee_os-rpi4/lib/libutee/tee_api.c:516
    3264:	7100101f 	cmp	w0, #0x4
    3268:	54000140 	b.eq	3290 <__GP11_TEE_InvokeTACommand+0x13c>  // b.none
/home/jeferson/optee/optee_os-rpi4/lib/libutee/tee_api.c:519
    326c:	7100027f 	cmp	w19, #0x0
    3270:	129ffe60 	mov	w0, #0xffff000c            	// #-65524
    3274:	7a401264 	ccmp	w19, w0, #0x4, ne  // ne = any
    3278:	540000c0 	b.eq	3290 <__GP11_TEE_InvokeTACommand+0x13c>  // b.none
/home/jeferson/optee/optee_os-rpi4/lib/libutee/tee_api.c:520
    327c:	1299fb60 	mov	w0, #0xffff3024            	// #-53212
    3280:	6b00027f 	cmp	w19, w0
    3284:	54000060 	b.eq	3290 <__GP11_TEE_InvokeTACommand+0x13c>  // b.none
/home/jeferson/optee/optee_os-rpi4/lib/libutee/tee_api.c:522
    3288:	2a1303e0 	mov	w0, w19
    328c:	9400096f 	bl	5848 <TEE_Panic>
/home/jeferson/optee/optee_os-rpi4/lib/libutee/tee_api.c:525
    3290:	d0000066 	adrp	x6, 11000 <_DYNAMIC>
    3294:	f94098c6 	ldr	x6, [x6, #304]
    3298:	f9406fe0 	ldr	x0, [sp, #216]
    329c:	f94000c1 	ldr	x1, [x6]
    32a0:	eb010000 	subs	x0, x0, x1
    32a4:	d2800001 	mov	x1, #0x0                   	// #0
    32a8:	54000040 	b.eq	32b0 <__GP11_TEE_InvokeTACommand+0x15c>  // b.none
    32ac:	97fff444 	bl	3bc <__stack_chk_fail>
    32b0:	2a1303e0 	mov	w0, w19
    32b4:	a94153f3 	ldp	x19, x20, [sp, #16]
    32b8:	a9425bf5 	ldp	x21, x22, [sp, #32]
    32bc:	a94363f7 	ldp	x23, x24, [sp, #48]
    32c0:	a9446bf9 	ldp	x25, x26, [sp, #64]
    32c4:	a8ce7bfd 	ldp	x29, x30, [sp], #224
    32c8:	d65f03c0 	ret

00000000000032cc <__GP11_TEE_CheckMemoryAccessRights>:
__GP11_TEE_CheckMemoryAccessRights():
/home/jeferson/optee/optee_os-rpi4/lib/libutee/tee_api.c:597
    32cc:	2a0203e2 	mov	w2, w2
    32d0:	17fffe10 	b	2b10 <TEE_CheckMemoryAccessRights>

00000000000032d4 <TEE_SetInstanceData>:
TEE_SetInstanceData():
/home/jeferson/optee/optee_os-rpi4/lib/libutee/tee_api.c:602
    32d4:	d0000061 	adrp	x1, 11000 <_DYNAMIC>
    32d8:	f9032c20 	str	x0, [x1, #1624]
/home/jeferson/optee/optee_os-rpi4/lib/libutee/tee_api.c:603
    32dc:	d65f03c0 	ret

00000000000032e0 <TEE_GetInstanceData>:
TEE_GetInstanceData():
/home/jeferson/optee/optee_os-rpi4/lib/libutee/tee_api.c:608
    32e0:	d0000060 	adrp	x0, 11000 <_DYNAMIC>
    32e4:	f9432c00 	ldr	x0, [x0, #1624]
    32e8:	d65f03c0 	ret

00000000000032ec <TEE_MemMove>:
TEE_MemMove():
/home/jeferson/optee/optee_os-rpi4/lib/libutee/tee_api.c:612
    32ec:	1400254e 	b	c824 <memmove>

00000000000032f0 <__GP11_TEE_MemMove>:
__GP11_TEE_MemMove():
/home/jeferson/optee/optee_os-rpi4/lib/libutee/tee_api.c:617
    32f0:	2a0203e2 	mov	w2, w2
    32f4:	17fffffe 	b	32ec <TEE_MemMove>

00000000000032f8 <TEE_MemCompare>:
TEE_MemCompare():
/home/jeferson/optee/optee_os-rpi4/lib/libutee/tee_api.c:622
    32f8:	140025e4 	b	ca88 <consttime_memcmp>

00000000000032fc <__GP11_TEE_MemCompare>:
__GP11_TEE_MemCompare():
/home/jeferson/optee/optee_os-rpi4/lib/libutee/tee_api.c:628
    32fc:	2a0203e2 	mov	w2, w2
    3300:	17fffffe 	b	32f8 <TEE_MemCompare>

0000000000003304 <TEE_MemFill>:
TEE_MemFill():
/home/jeferson/optee/optee_os-rpi4/lib/libutee/tee_api.c:633
    3304:	1400255f 	b	c880 <memset>

0000000000003308 <__GP11_TEE_MemFill>:
__GP11_TEE_MemFill():
/home/jeferson/optee/optee_os-rpi4/lib/libutee/tee_api.c:638
    3308:	2a0203e2 	mov	w2, w2
    330c:	17fffffe 	b	3304 <TEE_MemFill>

0000000000003310 <TEE_GetSystemTime>:
TEE_GetSystemTime():
/home/jeferson/optee/optee_os-rpi4/lib/libutee/tee_api.c:644
    3310:	a9bf7bfd 	stp	x29, x30, [sp, #-16]!
/home/jeferson/optee/optee_os-rpi4/lib/libutee/tee_api.c:645
    3314:	aa0003e1 	mov	x1, x0
    3318:	d2800000 	mov	x0, #0x0                   	// #0
/home/jeferson/optee/optee_os-rpi4/lib/libutee/tee_api.c:644
    331c:	910003fd 	mov	x29, sp
/home/jeferson/optee/optee_os-rpi4/lib/libutee/tee_api.c:645
    3320:	97fff9e1 	bl	1aa4 <_utee_get_time>
/home/jeferson/optee/optee_os-rpi4/lib/libutee/tee_api.c:647
    3324:	34000060 	cbz	w0, 3330 <TEE_GetSystemTime+0x20>
/home/jeferson/optee/optee_os-rpi4/lib/libutee/tee_api.c:649
    3328:	a8c17bfd 	ldp	x29, x30, [sp], #16
/home/jeferson/optee/optee_os-rpi4/lib/libutee/tee_api.c:648
    332c:	14000947 	b	5848 <TEE_Panic>
/home/jeferson/optee/optee_os-rpi4/lib/libutee/tee_api.c:649
    3330:	a8c17bfd 	ldp	x29, x30, [sp], #16
    3334:	d65f03c0 	ret

0000000000003338 <TEE_Wait>:
TEE_Wait():
/home/jeferson/optee/optee_os-rpi4/lib/libutee/tee_api.c:652
    3338:	a9be7bfd 	stp	x29, x30, [sp, #-32]!
/home/jeferson/optee/optee_os-rpi4/lib/libutee/tee_api.c:653
    333c:	2a0003e0 	mov	w0, w0
/home/jeferson/optee/optee_os-rpi4/lib/libutee/tee_api.c:652
    3340:	910003fd 	mov	x29, sp
    3344:	f9000bf3 	str	x19, [sp, #16]
/home/jeferson/optee/optee_os-rpi4/lib/libutee/tee_api.c:653
    3348:	97fff9d4 	bl	1a98 <_utee_wait>
/home/jeferson/optee/optee_os-rpi4/lib/libutee/tee_api.c:655
    334c:	7100001f 	cmp	w0, #0x0
    3350:	129fffa1 	mov	w1, #0xffff0002            	// #-65534
/home/jeferson/optee/optee_os-rpi4/lib/libutee/tee_api.c:653
    3354:	2a0003f3 	mov	w19, w0
/home/jeferson/optee/optee_os-rpi4/lib/libutee/tee_api.c:655
    3358:	7a411004 	ccmp	w0, w1, #0x4, ne  // ne = any
    335c:	54000040 	b.eq	3364 <TEE_Wait+0x2c>  // b.none
/home/jeferson/optee/optee_os-rpi4/lib/libutee/tee_api.c:656
    3360:	9400093a 	bl	5848 <TEE_Panic>
/home/jeferson/optee/optee_os-rpi4/lib/libutee/tee_api.c:659
    3364:	2a1303e0 	mov	w0, w19
    3368:	f9400bf3 	ldr	x19, [sp, #16]
    336c:	a8c27bfd 	ldp	x29, x30, [sp], #32
    3370:	d65f03c0 	ret

0000000000003374 <TEE_GetTAPersistentTime>:
TEE_GetTAPersistentTime():
/home/jeferson/optee/optee_os-rpi4/lib/libutee/tee_api.c:662
    3374:	a9be7bfd 	stp	x29, x30, [sp, #-32]!
/home/jeferson/optee/optee_os-rpi4/lib/libutee/tee_api.c:665
    3378:	aa0003e1 	mov	x1, x0
/home/jeferson/optee/optee_os-rpi4/lib/libutee/tee_api.c:662
    337c:	910003fd 	mov	x29, sp
    3380:	a90153f3 	stp	x19, x20, [sp, #16]
    3384:	aa0003f4 	mov	x20, x0
/home/jeferson/optee/optee_os-rpi4/lib/libutee/tee_api.c:665
    3388:	d2800020 	mov	x0, #0x1                   	// #1
    338c:	97fff9c6 	bl	1aa4 <_utee_get_time>
/home/jeferson/optee/optee_os-rpi4/lib/libutee/tee_api.c:667
    3390:	7100001f 	cmp	w0, #0x0
/home/jeferson/optee/optee_os-rpi4/lib/libutee/tee_api.c:665
    3394:	2a0003f3 	mov	w19, w0
/home/jeferson/optee/optee_os-rpi4/lib/libutee/tee_api.c:667
    3398:	1a9f07e2 	cset	w2, ne  // ne = any
    339c:	1299fe00 	mov	w0, #0xffff300f            	// #-53233
    33a0:	6b00027f 	cmp	w19, w0
    33a4:	1a9f07e0 	cset	w0, ne  // ne = any
    33a8:	6a000040 	ands	w0, w2, w0
    33ac:	54000040 	b.eq	33b4 <TEE_GetTAPersistentTime+0x40>  // b.none
/home/jeferson/optee/optee_os-rpi4/lib/libutee/tee_api.c:669
    33b0:	29007e9f 	stp	wzr, wzr, [x20]
/home/jeferson/optee/optee_os-rpi4/lib/libutee/tee_api.c:673
    33b4:	11402e61 	add	w1, w19, #0xb, lsl #12
/home/jeferson/optee/optee_os-rpi4/lib/libutee/tee_api.c:672
    33b8:	7100005f 	cmp	w2, #0x0
    33bc:	7a411820 	ccmp	w1, #0x1, #0x0, ne  // ne = any
    33c0:	540000e9 	b.ls	33dc <TEE_GetTAPersistentTime+0x68>  // b.plast
/home/jeferson/optee/optee_os-rpi4/lib/libutee/tee_api.c:674
    33c4:	340000c0 	cbz	w0, 33dc <TEE_GetTAPersistentTime+0x68>
/home/jeferson/optee/optee_os-rpi4/lib/libutee/tee_api.c:675
    33c8:	129ffe60 	mov	w0, #0xffff000c            	// #-65524
    33cc:	6b00027f 	cmp	w19, w0
    33d0:	54000060 	b.eq	33dc <TEE_GetTAPersistentTime+0x68>  // b.none
/home/jeferson/optee/optee_os-rpi4/lib/libutee/tee_api.c:677
    33d4:	2a1303e0 	mov	w0, w19
    33d8:	9400091c 	bl	5848 <TEE_Panic>
/home/jeferson/optee/optee_os-rpi4/lib/libutee/tee_api.c:680
    33dc:	2a1303e0 	mov	w0, w19
    33e0:	a94153f3 	ldp	x19, x20, [sp, #16]
    33e4:	a8c27bfd 	ldp	x29, x30, [sp], #32
    33e8:	d65f03c0 	ret

00000000000033ec <TEE_SetTAPersistentTime>:
TEE_SetTAPersistentTime():
/home/jeferson/optee/optee_os-rpi4/lib/libutee/tee_api.c:683
    33ec:	a9be7bfd 	stp	x29, x30, [sp, #-32]!
    33f0:	910003fd 	mov	x29, sp
    33f4:	f9000bf3 	str	x19, [sp, #16]
/home/jeferson/optee/optee_os-rpi4/lib/libutee/tee_api.c:686
    33f8:	97fff9ae 	bl	1ab0 <_utee_set_ta_time>
/home/jeferson/optee/optee_os-rpi4/lib/libutee/tee_api.c:688
    33fc:	7100001f 	cmp	w0, #0x0
    3400:	129ffe61 	mov	w1, #0xffff000c            	// #-65524
/home/jeferson/optee/optee_os-rpi4/lib/libutee/tee_api.c:686
    3404:	2a0003f3 	mov	w19, w0
/home/jeferson/optee/optee_os-rpi4/lib/libutee/tee_api.c:688
    3408:	7a411004 	ccmp	w0, w1, #0x4, ne  // ne = any
    340c:	540000a0 	b.eq	3420 <TEE_SetTAPersistentTime+0x34>  // b.none
/home/jeferson/optee/optee_os-rpi4/lib/libutee/tee_api.c:689
    3410:	1299f7c1 	mov	w1, #0xffff3041            	// #-53183
    3414:	6b01001f 	cmp	w0, w1
    3418:	54000040 	b.eq	3420 <TEE_SetTAPersistentTime+0x34>  // b.none
/home/jeferson/optee/optee_os-rpi4/lib/libutee/tee_api.c:691
    341c:	9400090b 	bl	5848 <TEE_Panic>
/home/jeferson/optee/optee_os-rpi4/lib/libutee/tee_api.c:694
    3420:	2a1303e0 	mov	w0, w19
    3424:	f9400bf3 	ldr	x19, [sp, #16]
    3428:	a8c27bfd 	ldp	x29, x30, [sp], #32
    342c:	d65f03c0 	ret

0000000000003430 <TEE_GetREETime>:
TEE_GetREETime():
/home/jeferson/optee/optee_os-rpi4/lib/libutee/tee_api.c:697
    3430:	a9bf7bfd 	stp	x29, x30, [sp, #-16]!
/home/jeferson/optee/optee_os-rpi4/lib/libutee/tee_api.c:698
    3434:	aa0003e1 	mov	x1, x0
    3438:	d2800040 	mov	x0, #0x2                   	// #2
/home/jeferson/optee/optee_os-rpi4/lib/libutee/tee_api.c:697
    343c:	910003fd 	mov	x29, sp
/home/jeferson/optee/optee_os-rpi4/lib/libutee/tee_api.c:698
    3440:	97fff999 	bl	1aa4 <_utee_get_time>
/home/jeferson/optee/optee_os-rpi4/lib/libutee/tee_api.c:700
    3444:	34000060 	cbz	w0, 3450 <TEE_GetREETime+0x20>
/home/jeferson/optee/optee_os-rpi4/lib/libutee/tee_api.c:702
    3448:	a8c17bfd 	ldp	x29, x30, [sp], #16
/home/jeferson/optee/optee_os-rpi4/lib/libutee/tee_api.c:701
    344c:	140008ff 	b	5848 <TEE_Panic>
/home/jeferson/optee/optee_os-rpi4/lib/libutee/tee_api.c:702
    3450:	a8c17bfd 	ldp	x29, x30, [sp], #16
    3454:	d65f03c0 	ret

0000000000003458 <TEE_Malloc>:
TEE_Malloc():
/home/jeferson/optee/optee_os-rpi4/lib/libutee/tee_api.c:705
    3458:	a9be7bfd 	stp	x29, x30, [sp, #-32]!
    345c:	aa0003e2 	mov	x2, x0
    3460:	910003fd 	mov	x29, sp
    3464:	f9000bf3 	str	x19, [sp, #16]
    3468:	2a0103f3 	mov	w19, w1
/home/jeferson/optee/optee_os-rpi4/lib/libutee/tee_api.c:706
    346c:	71000c3f 	cmp	w1, #0x3
    3470:	54000148 	b.hi	3498 <TEE_Malloc+0x40>  // b.pmore
    3474:	51000421 	sub	w1, w1, #0x1
    3478:	7100083f 	cmp	w1, #0x2
    347c:	54000308 	b.hi	34dc <TEE_Malloc+0x84>  // b.pmore
    3480:	90000060 	adrp	x0, f000 <__text_end+0x2508>
    3484:	9112e000 	add	x0, x0, #0x4b8
    3488:	38614800 	ldrb	w0, [x0, w1, uxtw]
    348c:	10000061 	adr	x1, 3498 <TEE_Malloc+0x40>
    3490:	8b208820 	add	x0, x1, w0, sxtb #2
    3494:	d61f0000 	br	x0
    3498:	52b00001 	mov	w1, #0x80000000            	// #-2147483648
    349c:	6b01027f 	cmp	w19, w1
    34a0:	540005e0 	b.eq	355c <TEE_Malloc+0x104>  // b.none
/home/jeferson/optee/optee_os-rpi4/lib/libutee/tee_api.c:739
    34a4:	2a1303e5 	mov	w5, w19
    34a8:	90000064 	adrp	x4, f000 <__text_end+0x2508>
    34ac:	52800023 	mov	w3, #0x1                   	// #1
    34b0:	912e7084 	add	x4, x4, #0xb9c
    34b4:	52800022 	mov	w2, #0x1                   	// #1
    34b8:	52805c61 	mov	w1, #0x2e3                 	// #739
    34bc:	90000060 	adrp	x0, f000 <__text_end+0x2508>
    34c0:	91130000 	add	x0, x0, #0x4c0
    34c4:	97fff7db 	bl	1430 <trace_printf>
/home/jeferson/optee/optee_os-rpi4/lib/libutee/tee_api.c:741
    34c8:	d2800004 	mov	x4, #0x0                   	// #0
/home/jeferson/optee/optee_os-rpi4/lib/libutee/tee_api.c:742
    34cc:	aa0403e0 	mov	x0, x4
    34d0:	f9400bf3 	ldr	x19, [sp, #16]
    34d4:	a8c27bfd 	ldp	x29, x30, [sp], #32
    34d8:	d65f03c0 	ret
/home/jeferson/optee/optee_os-rpi4/lib/libutee/tee_api.c:708
    34dc:	b40004c0 	cbz	x0, 3574 <TEE_Malloc+0x11c>
/home/jeferson/optee/optee_os-rpi4/lib/libutee/tee_api.c:742
    34e0:	f9400bf3 	ldr	x19, [sp, #16]
/home/jeferson/optee/optee_os-rpi4/lib/libutee/tee_api.c:710
    34e4:	aa0003e1 	mov	x1, x0
/home/jeferson/optee/optee_os-rpi4/lib/libutee/tee_api.c:742
    34e8:	a8c27bfd 	ldp	x29, x30, [sp], #32
/home/jeferson/optee/optee_os-rpi4/lib/libutee/tee_api.c:710
    34ec:	d2800020 	mov	x0, #0x1                   	// #1
    34f0:	140023d7 	b	c44c <calloc>
/home/jeferson/optee/optee_os-rpi4/lib/libutee/tee_api.c:713
    34f4:	52800000 	mov	w0, #0x0                   	// #0
    34f8:	940008d4 	bl	5848 <TEE_Panic>
/home/jeferson/optee/optee_os-rpi4/lib/libutee/tee_api.c:714
    34fc:	17ffffea 	b	34a4 <TEE_Malloc+0x4c>
/home/jeferson/optee/optee_os-rpi4/lib/libutee/tee_api.c:717
    3500:	b4000362 	cbz	x2, 356c <TEE_Malloc+0x114>
/home/jeferson/optee/optee_os-rpi4/lib/libutee/tee_api.c:719
    3504:	d0000060 	adrp	x0, 11000 <_DYNAMIC>
    3508:	f940d800 	ldr	x0, [x0, #432]
    350c:	f9400004 	ldr	x4, [x0]
    3510:	b4fffde4 	cbz	x4, 34cc <TEE_Malloc+0x74>
/home/jeferson/optee/optee_os-rpi4/lib/libutee/tee_api.c:742
    3514:	f9400bf3 	ldr	x19, [sp, #16]
/home/jeferson/optee/optee_os-rpi4/lib/libutee/tee_api.c:721
    3518:	aa0203e3 	mov	x3, x2
/home/jeferson/optee/optee_os-rpi4/lib/libutee/tee_api.c:742
    351c:	a8c27bfd 	ldp	x29, x30, [sp], #32
/home/jeferson/optee/optee_os-rpi4/lib/libutee/tee_api.c:721
    3520:	d2800022 	mov	x2, #0x1                   	// #1
    3524:	d2800001 	mov	x1, #0x0                   	// #0
    3528:	d2800000 	mov	x0, #0x0                   	// #0
    352c:	14002369 	b	c2d0 <raw_calloc>
/home/jeferson/optee/optee_os-rpi4/lib/libutee/tee_api.c:724
    3530:	b40001e2 	cbz	x2, 356c <TEE_Malloc+0x114>
/home/jeferson/optee/optee_os-rpi4/lib/libutee/tee_api.c:726
    3534:	d0000060 	adrp	x0, 11000 <_DYNAMIC>
    3538:	f940d800 	ldr	x0, [x0, #432]
    353c:	f9400004 	ldr	x4, [x0]
    3540:	b4fffc64 	cbz	x4, 34cc <TEE_Malloc+0x74>
/home/jeferson/optee/optee_os-rpi4/lib/libutee/tee_api.c:742
    3544:	f9400bf3 	ldr	x19, [sp, #16]
/home/jeferson/optee/optee_os-rpi4/lib/libutee/tee_api.c:728
    3548:	aa0403e3 	mov	x3, x4
/home/jeferson/optee/optee_os-rpi4/lib/libutee/tee_api.c:742
    354c:	a8c27bfd 	ldp	x29, x30, [sp], #32
/home/jeferson/optee/optee_os-rpi4/lib/libutee/tee_api.c:728
    3550:	d2800001 	mov	x1, #0x0                   	// #0
    3554:	d2800000 	mov	x0, #0x0                   	// #0
    3558:	14002356 	b	c2b0 <raw_malloc>
/home/jeferson/optee/optee_os-rpi4/lib/libutee/tee_api.c:731
    355c:	b40000c0 	cbz	x0, 3574 <TEE_Malloc+0x11c>
/home/jeferson/optee/optee_os-rpi4/lib/libutee/tee_api.c:742
    3560:	f9400bf3 	ldr	x19, [sp, #16]
    3564:	a8c27bfd 	ldp	x29, x30, [sp], #32
/home/jeferson/optee/optee_os-rpi4/lib/libutee/tee_api.c:733
    3568:	140023b3 	b	c434 <malloc>
/home/jeferson/optee/optee_os-rpi4/lib/libutee/tee_api.c:718
    356c:	d2800044 	mov	x4, #0x2                   	// #2
    3570:	17ffffd7 	b	34cc <TEE_Malloc+0x74>
/home/jeferson/optee/optee_os-rpi4/lib/libutee/tee_api.c:709
    3574:	d2800024 	mov	x4, #0x1                   	// #1
    3578:	17ffffd5 	b	34cc <TEE_Malloc+0x74>

000000000000357c <__GP11_TEE_Malloc>:
__GP11_TEE_Malloc():
/home/jeferson/optee/optee_os-rpi4/lib/libutee/tee_api.c:746
    357c:	2a0003e0 	mov	w0, w0
    3580:	17ffffb6 	b	3458 <TEE_Malloc>

0000000000003584 <TEE_Free>:
TEE_Free():
/home/jeferson/optee/optee_os-rpi4/lib/libutee/tee_api.c:787
    3584:	d1000401 	sub	x1, x0, #0x1
    3588:	f100043f 	cmp	x1, #0x1
    358c:	540002a9 	b.ls	35e0 <TEE_Free+0x5c>  // b.plast
/home/jeferson/optee/optee_os-rpi4/lib/libutee/tee_api.c:786
    3590:	a9be7bfd 	stp	x29, x30, [sp, #-32]!
addr_is_in_no_share_heap():
/home/jeferson/optee/optee_os-rpi4/lib/libutee/tee_api.c:751
    3594:	d2800021 	mov	x1, #0x1                   	// #1
TEE_Free():
/home/jeferson/optee/optee_os-rpi4/lib/libutee/tee_api.c:786
    3598:	910003fd 	mov	x29, sp
    359c:	f9000bf3 	str	x19, [sp, #16]
    35a0:	aa0003f3 	mov	x19, x0
addr_is_in_no_share_heap():
/home/jeferson/optee/optee_os-rpi4/lib/libutee/tee_api.c:751
    35a4:	97fffc7b 	bl	2790 <buf_overlaps_no_share_heap>
TEE_Free():
/home/jeferson/optee/optee_os-rpi4/lib/libutee/tee_api.c:789
    35a8:	72001c1f 	tst	w0, #0xff
    35ac:	54000120 	b.eq	35d0 <TEE_Free+0x4c>  // b.none
/home/jeferson/optee/optee_os-rpi4/lib/libutee/tee_api.c:790
    35b0:	d0000060 	adrp	x0, 11000 <_DYNAMIC>
    35b4:	52800002 	mov	w2, #0x0                   	// #0
    35b8:	f940d800 	ldr	x0, [x0, #432]
    35bc:	f9400001 	ldr	x1, [x0]
    35c0:	aa1303e0 	mov	x0, x19
/home/jeferson/optee/optee_os-rpi4/lib/libutee/tee_api.c:794
    35c4:	f9400bf3 	ldr	x19, [sp, #16]
    35c8:	a8c27bfd 	ldp	x29, x30, [sp], #32
/home/jeferson/optee/optee_os-rpi4/lib/libutee/tee_api.c:790
    35cc:	1400233d 	b	c2c0 <raw_free>
/home/jeferson/optee/optee_os-rpi4/lib/libutee/tee_api.c:792
    35d0:	aa1303e0 	mov	x0, x19
/home/jeferson/optee/optee_os-rpi4/lib/libutee/tee_api.c:794
    35d4:	f9400bf3 	ldr	x19, [sp, #16]
    35d8:	a8c27bfd 	ldp	x29, x30, [sp], #32
/home/jeferson/optee/optee_os-rpi4/lib/libutee/tee_api.c:792
    35dc:	140023b6 	b	c4b4 <free>
    35e0:	d65f03c0 	ret

00000000000035e4 <TEE_Realloc>:
TEE_Realloc():
/home/jeferson/optee/optee_os-rpi4/lib/libutee/tee_api.c:755
    35e4:	a9be7bfd 	stp	x29, x30, [sp, #-32]!
    35e8:	910003fd 	mov	x29, sp
    35ec:	a90153f3 	stp	x19, x20, [sp, #16]
    35f0:	aa0003f3 	mov	x19, x0
/home/jeferson/optee/optee_os-rpi4/lib/libutee/tee_api.c:756
    35f4:	b5000161 	cbnz	x1, 3620 <TEE_Realloc+0x3c>
/home/jeferson/optee/optee_os-rpi4/lib/libutee/tee_api.c:757
    35f8:	97ffffe3 	bl	3584 <TEE_Free>
addr_is_in_no_share_heap():
/home/jeferson/optee/optee_os-rpi4/lib/libutee/tee_api.c:751
    35fc:	aa1303e0 	mov	x0, x19
    3600:	d2800021 	mov	x1, #0x1                   	// #1
    3604:	97fffc63 	bl	2790 <buf_overlaps_no_share_heap>
TEE_Realloc():
/home/jeferson/optee/optee_os-rpi4/lib/libutee/tee_api.c:762
    3608:	72001c1f 	tst	w0, #0xff
    360c:	9a9f07e0 	cset	x0, ne  // ne = any
    3610:	91000400 	add	x0, x0, #0x1
/home/jeferson/optee/optee_os-rpi4/lib/libutee/tee_api.c:778
    3614:	a94153f3 	ldp	x19, x20, [sp, #16]
    3618:	a8c27bfd 	ldp	x29, x30, [sp], #32
    361c:	d65f03c0 	ret
/home/jeferson/optee/optee_os-rpi4/lib/libutee/tee_api.c:765
    3620:	f100041f 	cmp	x0, #0x1
    3624:	54000081 	b.ne	3634 <TEE_Realloc+0x50>  // b.any
/home/jeferson/optee/optee_os-rpi4/lib/libutee/tee_api.c:778
    3628:	a94153f3 	ldp	x19, x20, [sp, #16]
    362c:	a8c27bfd 	ldp	x29, x30, [sp], #32
/home/jeferson/optee/optee_os-rpi4/lib/libutee/tee_api.c:766
    3630:	14002387 	b	c44c <calloc>
    3634:	aa0103f4 	mov	x20, x1
/home/jeferson/optee/optee_os-rpi4/lib/libutee/tee_api.c:767
    3638:	f100081f 	cmp	x0, #0x2
    363c:	540001a1 	b.ne	3670 <TEE_Realloc+0x8c>  // b.any
/home/jeferson/optee/optee_os-rpi4/lib/libutee/tee_api.c:768
    3640:	d0000060 	adrp	x0, 11000 <_DYNAMIC>
    3644:	f940d800 	ldr	x0, [x0, #432]
    3648:	f9400000 	ldr	x0, [x0]
    364c:	b4fffe40 	cbz	x0, 3614 <TEE_Realloc+0x30>
/home/jeferson/optee/optee_os-rpi4/lib/libutee/tee_api.c:778
    3650:	a94153f3 	ldp	x19, x20, [sp, #16]
/home/jeferson/optee/optee_os-rpi4/lib/libutee/tee_api.c:770
    3654:	aa0003e4 	mov	x4, x0
/home/jeferson/optee/optee_os-rpi4/lib/libutee/tee_api.c:778
    3658:	a8c27bfd 	ldp	x29, x30, [sp], #32
/home/jeferson/optee/optee_os-rpi4/lib/libutee/tee_api.c:770
    365c:	aa0103e3 	mov	x3, x1
    3660:	d2800022 	mov	x2, #0x1                   	// #1
    3664:	d2800001 	mov	x1, #0x0                   	// #0
    3668:	d2800000 	mov	x0, #0x0                   	// #0
    366c:	14002319 	b	c2d0 <raw_calloc>
addr_is_in_no_share_heap():
/home/jeferson/optee/optee_os-rpi4/lib/libutee/tee_api.c:751
    3670:	d2800021 	mov	x1, #0x1                   	// #1
    3674:	97fffc47 	bl	2790 <buf_overlaps_no_share_heap>
TEE_Realloc():
/home/jeferson/optee/optee_os-rpi4/lib/libutee/tee_api.c:773
    3678:	72001c1f 	tst	w0, #0xff
    367c:	54000160 	b.eq	36a8 <TEE_Realloc+0xc4>  // b.none
/home/jeferson/optee/optee_os-rpi4/lib/libutee/tee_api.c:774
    3680:	d0000060 	adrp	x0, 11000 <_DYNAMIC>
    3684:	aa1403e3 	mov	x3, x20
    3688:	d2800002 	mov	x2, #0x0                   	// #0
    368c:	d2800001 	mov	x1, #0x0                   	// #0
    3690:	f940d800 	ldr	x0, [x0, #432]
    3694:	f9400004 	ldr	x4, [x0]
    3698:	aa1303e0 	mov	x0, x19
/home/jeferson/optee/optee_os-rpi4/lib/libutee/tee_api.c:778
    369c:	a94153f3 	ldp	x19, x20, [sp, #16]
    36a0:	a8c27bfd 	ldp	x29, x30, [sp], #32
/home/jeferson/optee/optee_os-rpi4/lib/libutee/tee_api.c:774
    36a4:	14002327 	b	c340 <raw_realloc>
/home/jeferson/optee/optee_os-rpi4/lib/libutee/tee_api.c:777
    36a8:	aa1403e1 	mov	x1, x20
    36ac:	aa1303e0 	mov	x0, x19
/home/jeferson/optee/optee_os-rpi4/lib/libutee/tee_api.c:778
    36b0:	a94153f3 	ldp	x19, x20, [sp, #16]
    36b4:	a8c27bfd 	ldp	x29, x30, [sp], #32
/home/jeferson/optee/optee_os-rpi4/lib/libutee/tee_api.c:777
    36b8:	1400236c 	b	c468 <realloc>

00000000000036bc <__GP11_TEE_Realloc>:
__GP11_TEE_Realloc():
/home/jeferson/optee/optee_os-rpi4/lib/libutee/tee_api.c:782
    36bc:	2a0103e1 	mov	w1, w1
    36c0:	17ffffc9 	b	35e4 <TEE_Realloc>

00000000000036c4 <TEE_CacheClean>:
TEE_CacheClean():
/home/jeferson/optee/optee_os-rpi4/lib/libutee/tee_api.c:799
    36c4:	d2800002 	mov	x2, #0x0                   	// #0
    36c8:	17fff975 	b	1c9c <_utee_cache_operation>

00000000000036cc <TEE_CacheFlush>:
TEE_CacheFlush():
/home/jeferson/optee/optee_os-rpi4/lib/libutee/tee_api.c:803
    36cc:	d2800022 	mov	x2, #0x1                   	// #1
    36d0:	17fff973 	b	1c9c <_utee_cache_operation>

00000000000036d4 <TEE_CacheInvalidate>:
TEE_CacheInvalidate():
/home/jeferson/optee/optee_os-rpi4/lib/libutee/tee_api.c:808
    36d4:	d2800042 	mov	x2, #0x2                   	// #2
    36d8:	17fff971 	b	1c9c <_utee_cache_operation>

00000000000036dc <api_panic>:
api_panic():
/home/jeferson/optee/optee_os-rpi4/lib/libutee/tee_api_arith_mpi.c:19
    36dc:	a9bf7bfd 	stp	x29, x30, [sp, #-16]!
/home/jeferson/optee/optee_os-rpi4/lib/libutee/tee_api_arith_mpi.c:20
    36e0:	aa0203e3 	mov	x3, x2
    36e4:	2a0103e2 	mov	w2, w1
    36e8:	aa0003e1 	mov	x1, x0
/home/jeferson/optee/optee_os-rpi4/lib/libutee/tee_api_arith_mpi.c:19
    36ec:	910003fd 	mov	x29, sp
/home/jeferson/optee/optee_os-rpi4/lib/libutee/tee_api_arith_mpi.c:20
    36f0:	90000060 	adrp	x0, f000 <__text_end+0x2508>
    36f4:	912eb400 	add	x0, x0, #0xbad
    36f8:	97fff7a6 	bl	1590 <printf>
/home/jeferson/optee/optee_os-rpi4/lib/libutee/tee_api_arith_mpi.c:21
    36fc:	528c24e0 	mov	w0, #0x6127                	// #24871
    3700:	72a01620 	movk	w0, #0xb1, lsl #16
    3704:	94000851 	bl	5848 <TEE_Panic>
/home/jeferson/optee/optee_os-rpi4/lib/libutee/tee_api_arith_mpi.c:22 (discriminator 1)
    3708:	14000000 	b	3708 <api_panic+0x2c>

000000000000370c <mpi_panic>:
mpi_panic():
/home/jeferson/optee/optee_os-rpi4/lib/libutee/tee_api_arith_mpi.c:29
    370c:	a9bf7bfd 	stp	x29, x30, [sp, #-16]!
/home/jeferson/optee/optee_os-rpi4/lib/libutee/tee_api_arith_mpi.c:30
    3710:	2a0203e3 	mov	w3, w2
    3714:	2a0103e2 	mov	w2, w1
    3718:	aa0003e1 	mov	x1, x0
/home/jeferson/optee/optee_os-rpi4/lib/libutee/tee_api_arith_mpi.c:29
    371c:	910003fd 	mov	x29, sp
/home/jeferson/optee/optee_os-rpi4/lib/libutee/tee_api_arith_mpi.c:30
    3720:	90000060 	adrp	x0, f000 <__text_end+0x2508>
    3724:	912f3400 	add	x0, x0, #0xbcd
    3728:	97fff79a 	bl	1590 <printf>
/home/jeferson/optee/optee_os-rpi4/lib/libutee/tee_api_arith_mpi.c:31
    372c:	528c24e0 	mov	w0, #0x6127                	// #24871
    3730:	72a01620 	movk	w0, #0xb1, lsl #16
    3734:	94000845 	bl	5848 <TEE_Panic>
/home/jeferson/optee/optee_os-rpi4/lib/libutee/tee_api_arith_mpi.c:32 (discriminator 1)
    3738:	14000000 	b	3738 <mpi_panic+0x2c>

000000000000373c <get_mpi>:
get_mpi():
/home/jeferson/optee/optee_os-rpi4/lib/libutee/tee_api_arith_mpi.c:86
    373c:	a9bd7bfd 	stp	x29, x30, [sp, #-48]!
    3740:	910003fd 	mov	x29, sp
    3744:	a90153f3 	stp	x19, x20, [sp, #16]
    3748:	aa0103f3 	mov	x19, x1
    374c:	a9025bf5 	stp	x21, x22, [sp, #32]
    3750:	aa0003f5 	mov	x21, x0
/home/jeferson/optee/optee_os-rpi4/lib/libutee/tee_api_arith_mpi.c:101
    3754:	9400101c 	bl	77c4 <mbedtls_mpi_init_mempool>
/home/jeferson/optee/optee_os-rpi4/lib/libutee/tee_api_arith_mpi.c:103
    3758:	b4000373 	cbz	x19, 37c4 <get_mpi+0x88>
/home/jeferson/optee/optee_os-rpi4/lib/libutee/tee_api_arith_mpi.c:106
    375c:	79400e74 	ldrh	w20, [x19, #6]
/home/jeferson/optee/optee_os-rpi4/lib/libutee/tee_api_arith_mpi.c:105
    3760:	91002276 	add	x22, x19, #0x8
/home/jeferson/optee/optee_os-rpi4/lib/libutee/tee_api_arith_mpi.c:109
    3764:	91001261 	add	x1, x19, #0x4
    3768:	b4000074 	cbz	x20, 3774 <get_mpi+0x38>
/home/jeferson/optee/optee_os-rpi4/lib/libutee/tee_api_arith_mpi.c:109 (discriminator 1)
    376c:	b8747820 	ldr	w0, [x1, x20, lsl #2]
    3770:	34000140 	cbz	w0, 3798 <get_mpi+0x5c>
/home/jeferson/optee/optee_os-rpi4/lib/libutee/tee_api_arith_mpi.c:112
    3774:	aa1403e1 	mov	x1, x20
    3778:	aa1503e0 	mov	x0, x21
    377c:	94001037 	bl	7858 <mbedtls_mpi_grow>
    3780:	2a0003e2 	mov	w2, w0
    3784:	340000e0 	cbz	w0, 37a0 <get_mpi+0x64>
/home/jeferson/optee/optee_os-rpi4/lib/libutee/tee_api_arith_mpi.c:112 (discriminator 1)
    3788:	90000060 	adrp	x0, f000 <__text_end+0x2508>
    378c:	52800e01 	mov	w1, #0x70                  	// #112
    3790:	9131d800 	add	x0, x0, #0xc76
    3794:	97ffffde 	bl	370c <mpi_panic>
/home/jeferson/optee/optee_os-rpi4/lib/libutee/tee_api_arith_mpi.c:110
    3798:	d1000694 	sub	x20, x20, #0x1
    379c:	17fffff3 	b	3768 <get_mpi+0x2c>
/home/jeferson/optee/optee_os-rpi4/lib/libutee/tee_api_arith_mpi.c:113 (discriminator 2)
    37a0:	b9400260 	ldr	w0, [x19]
/home/jeferson/optee/optee_os-rpi4/lib/libutee/tee_api_arith_mpi.c:114 (discriminator 2)
    37a4:	d37ef682 	lsl	x2, x20, #2
/home/jeferson/optee/optee_os-rpi4/lib/libutee/tee_api_arith_mpi.c:113 (discriminator 2)
    37a8:	790002a0 	strh	w0, [x21]
/home/jeferson/optee/optee_os-rpi4/lib/libutee/tee_api_arith_mpi.c:114 (discriminator 2)
    37ac:	aa1603e1 	mov	x1, x22
/home/jeferson/optee/optee_os-rpi4/lib/libutee/tee_api_arith_mpi.c:116 (discriminator 2)
    37b0:	a94153f3 	ldp	x19, x20, [sp, #16]
/home/jeferson/optee/optee_os-rpi4/lib/libutee/tee_api_arith_mpi.c:114 (discriminator 2)
    37b4:	f9400aa0 	ldr	x0, [x21, #16]
/home/jeferson/optee/optee_os-rpi4/lib/libutee/tee_api_arith_mpi.c:116 (discriminator 2)
    37b8:	a9425bf5 	ldp	x21, x22, [sp, #32]
    37bc:	a8c37bfd 	ldp	x29, x30, [sp], #48
/home/jeferson/optee/optee_os-rpi4/lib/libutee/tee_api_arith_mpi.c:114 (discriminator 2)
    37c0:	17fff218 	b	20 <memcpy>
/home/jeferson/optee/optee_os-rpi4/lib/libutee/tee_api_arith_mpi.c:116
    37c4:	a94153f3 	ldp	x19, x20, [sp, #16]
    37c8:	a9425bf5 	ldp	x21, x22, [sp, #32]
    37cc:	a8c37bfd 	ldp	x29, x30, [sp], #48
    37d0:	d65f03c0 	ret

00000000000037d4 <copy_mpi_to_bigint>:
copy_mpi_to_bigint():
/home/jeferson/optee/optee_os-rpi4/lib/libutee/tee_api_arith_mpi.c:61
    37d4:	aa0003e4 	mov	x4, x0
    37d8:	aa0103e0 	mov	x0, x1
/home/jeferson/optee/optee_os-rpi4/lib/libutee/tee_api_arith_mpi.c:66
    37dc:	a9408482 	ldp	x2, x1, [x4, #8]
/home/jeferson/optee/optee_os-rpi4/lib/libutee/tee_api_arith_mpi.c:63
    37e0:	aa0203e3 	mov	x3, x2
/home/jeferson/optee/optee_os-rpi4/lib/libutee/tee_api_arith_mpi.c:66
    37e4:	b40000e3 	cbz	x3, 3800 <copy_mpi_to_bigint+0x2c>
/home/jeferson/optee/optee_os-rpi4/lib/libutee/tee_api_arith_mpi.c:66 (discriminator 1)
    37e8:	8b030825 	add	x5, x1, x3, lsl #2
    37ec:	b85fc0a5 	ldur	w5, [x5, #-4]
    37f0:	340001c5 	cbz	w5, 3828 <copy_mpi_to_bigint+0x54>
/home/jeferson/optee/optee_os-rpi4/lib/libutee/tee_api_arith_mpi.c:69
    37f4:	79400805 	ldrh	w5, [x0, #4]
    37f8:	eb0300bf 	cmp	x5, x3
    37fc:	540001a3 	b.cc	3830 <copy_mpi_to_bigint+0x5c>  // b.lo, b.ul, b.last
/home/jeferson/optee/optee_os-rpi4/lib/libutee/tee_api_arith_mpi.c:61
    3800:	a9bf7bfd 	stp	x29, x30, [sp, #-16]!
/home/jeferson/optee/optee_os-rpi4/lib/libutee/tee_api_arith_mpi.c:74
    3804:	d37ef442 	lsl	x2, x2, #2
/home/jeferson/optee/optee_os-rpi4/lib/libutee/tee_api_arith_mpi.c:61
    3808:	910003fd 	mov	x29, sp
/home/jeferson/optee/optee_os-rpi4/lib/libutee/tee_api_arith_mpi.c:72
    380c:	79000c03 	strh	w3, [x0, #6]
/home/jeferson/optee/optee_os-rpi4/lib/libutee/tee_api_arith_mpi.c:73
    3810:	79c00083 	ldrsh	w3, [x4]
    3814:	b8008403 	str	w3, [x0], #8
/home/jeferson/optee/optee_os-rpi4/lib/libutee/tee_api_arith_mpi.c:74
    3818:	97fff202 	bl	20 <memcpy>
/home/jeferson/optee/optee_os-rpi4/lib/libutee/tee_api_arith_mpi.c:76
    381c:	52800000 	mov	w0, #0x0                   	// #0
/home/jeferson/optee/optee_os-rpi4/lib/libutee/tee_api_arith_mpi.c:77
    3820:	a8c17bfd 	ldp	x29, x30, [sp], #16
    3824:	d65f03c0 	ret
/home/jeferson/optee/optee_os-rpi4/lib/libutee/tee_api_arith_mpi.c:67
    3828:	d1000463 	sub	x3, x3, #0x1
    382c:	17ffffee 	b	37e4 <copy_mpi_to_bigint+0x10>
/home/jeferson/optee/optee_os-rpi4/lib/libutee/tee_api_arith_mpi.c:70
    3830:	1299fe00 	mov	w0, #0xffff300f            	// #-53233
/home/jeferson/optee/optee_os-rpi4/lib/libutee/tee_api_arith_mpi.c:77
    3834:	d65f03c0 	ret

0000000000003838 <bigint_binary>:
bigint_binary():
/home/jeferson/optee/optee_os-rpi4/lib/libutee/tee_api_arith_mpi.c:402
    3838:	a9b67bfd 	stp	x29, x30, [sp, #-160]!
    383c:	d0000064 	adrp	x4, 11000 <_DYNAMIC>
    3840:	910003fd 	mov	x29, sp
    3844:	f9409884 	ldr	x4, [x4, #304]
    3848:	a90153f3 	stp	x19, x20, [sp, #16]
    384c:	aa0003f4 	mov	x20, x0
    3850:	a9025bf5 	stp	x21, x22, [sp, #32]
/home/jeferson/optee/optee_os-rpi4/lib/libutee/tee_api_arith_mpi.c:409
    3854:	910143f3 	add	x19, sp, #0x50
/home/jeferson/optee/optee_os-rpi4/lib/libutee/tee_api_arith_mpi.c:402
    3858:	aa0203f5 	mov	x21, x2
    385c:	a90363f7 	stp	x23, x24, [sp, #48]
    3860:	aa0103f7 	mov	x23, x1
/home/jeferson/optee/optee_os-rpi4/lib/libutee/tee_api_arith_mpi.c:409
    3864:	aa1403e1 	mov	x1, x20
/home/jeferson/optee/optee_os-rpi4/lib/libutee/tee_api_arith_mpi.c:402
    3868:	a9046bf9 	stp	x25, x26, [sp, #64]
    386c:	aa0303f9 	mov	x25, x3
    3870:	9101a3fa 	add	x26, sp, #0x68
    3874:	f9400080 	ldr	x0, [x4]
    3878:	f9004fe0 	str	x0, [sp, #152]
    387c:	d2800000 	mov	x0, #0x0                   	// #0
/home/jeferson/optee/optee_os-rpi4/lib/libutee/tee_api_arith_mpi.c:409
    3880:	aa1303e0 	mov	x0, x19
    3884:	97ffffae 	bl	373c <get_mpi>
/home/jeferson/optee/optee_os-rpi4/lib/libutee/tee_api_arith_mpi.c:411
    3888:	eb17029f 	cmp	x20, x23
    388c:	54000320 	b.eq	38f0 <bigint_binary+0xb8>  // b.none
/home/jeferson/optee/optee_os-rpi4/lib/libutee/tee_api_arith_mpi.c:406
    3890:	aa1a03f6 	mov	x22, x26
/home/jeferson/optee/optee_os-rpi4/lib/libutee/tee_api_arith_mpi.c:414
    3894:	aa1703e1 	mov	x1, x23
    3898:	aa1a03e0 	mov	x0, x26
    389c:	97ffffa8 	bl	373c <get_mpi>
/home/jeferson/optee/optee_os-rpi4/lib/libutee/tee_api_arith_mpi.c:416
    38a0:	eb15029f 	cmp	x20, x21
    38a4:	910203f8 	add	x24, sp, #0x80
    38a8:	54000280 	b.eq	38f8 <bigint_binary+0xc0>  // b.none
/home/jeferson/optee/optee_os-rpi4/lib/libutee/tee_api_arith_mpi.c:418
    38ac:	eb1502ff 	cmp	x23, x21
    38b0:	54000280 	b.eq	3900 <bigint_binary+0xc8>  // b.none
/home/jeferson/optee/optee_os-rpi4/lib/libutee/tee_api_arith_mpi.c:421
    38b4:	aa1503e1 	mov	x1, x21
/home/jeferson/optee/optee_os-rpi4/lib/libutee/tee_api_arith_mpi.c:407
    38b8:	aa1803f5 	mov	x21, x24
/home/jeferson/optee/optee_os-rpi4/lib/libutee/tee_api_arith_mpi.c:421
    38bc:	aa1803e0 	mov	x0, x24
    38c0:	97ffff9f 	bl	373c <get_mpi>
/home/jeferson/optee/optee_os-rpi4/lib/libutee/tee_api_arith_mpi.c:423
    38c4:	aa1503e2 	mov	x2, x21
    38c8:	aa1603e1 	mov	x1, x22
    38cc:	aa1303e0 	mov	x0, x19
    38d0:	d63f0320 	blr	x25
    38d4:	2a0003e2 	mov	w2, w0
    38d8:	34000180 	cbz	w0, 3908 <bigint_binary+0xd0>
/home/jeferson/optee/optee_os-rpi4/lib/libutee/tee_api_arith_mpi.c:423 (discriminator 1)
    38dc:	528034e1 	mov	w1, #0x1a7                 	// #423
/home/jeferson/optee/optee_os-rpi4/lib/libutee/tee_api_arith_mpi.c:425 (discriminator 1)
    38e0:	90000060 	adrp	x0, f000 <__text_end+0x2508>
    38e4:	9131d800 	add	x0, x0, #0xc76
    38e8:	91002000 	add	x0, x0, #0x8
    38ec:	97ffff88 	bl	370c <mpi_panic>
/home/jeferson/optee/optee_os-rpi4/lib/libutee/tee_api_arith_mpi.c:412
    38f0:	aa1303f6 	mov	x22, x19
    38f4:	17ffffeb 	b	38a0 <bigint_binary+0x68>
/home/jeferson/optee/optee_os-rpi4/lib/libutee/tee_api_arith_mpi.c:417
    38f8:	aa1303f5 	mov	x21, x19
    38fc:	17fffff2 	b	38c4 <bigint_binary+0x8c>
/home/jeferson/optee/optee_os-rpi4/lib/libutee/tee_api_arith_mpi.c:419
    3900:	aa1603f5 	mov	x21, x22
    3904:	17fffff0 	b	38c4 <bigint_binary+0x8c>
/home/jeferson/optee/optee_os-rpi4/lib/libutee/tee_api_arith_mpi.c:425 (discriminator 2)
    3908:	aa1403e1 	mov	x1, x20
    390c:	aa1303e0 	mov	x0, x19
    3910:	97ffffb1 	bl	37d4 <copy_mpi_to_bigint>
    3914:	2a0003e2 	mov	w2, w0
    3918:	34000060 	cbz	w0, 3924 <bigint_binary+0xec>
/home/jeferson/optee/optee_os-rpi4/lib/libutee/tee_api_arith_mpi.c:425 (discriminator 1)
    391c:	52803521 	mov	w1, #0x1a9                 	// #425
    3920:	17fffff0 	b	38e0 <bigint_binary+0xa8>
/home/jeferson/optee/optee_os-rpi4/lib/libutee/tee_api_arith_mpi.c:426 (discriminator 2)
    3924:	aa1303e0 	mov	x0, x19
    3928:	94000fb1 	bl	77ec <mbedtls_mpi_free>
/home/jeferson/optee/optee_os-rpi4/lib/libutee/tee_api_arith_mpi.c:427 (discriminator 2)
    392c:	eb1a02df 	cmp	x22, x26
    3930:	54000061 	b.ne	393c <bigint_binary+0x104>  // b.any
/home/jeferson/optee/optee_os-rpi4/lib/libutee/tee_api_arith_mpi.c:428
    3934:	aa1603e0 	mov	x0, x22
    3938:	94000fad 	bl	77ec <mbedtls_mpi_free>
/home/jeferson/optee/optee_os-rpi4/lib/libutee/tee_api_arith_mpi.c:429
    393c:	eb1802bf 	cmp	x21, x24
    3940:	54000061 	b.ne	394c <bigint_binary+0x114>  // b.any
/home/jeferson/optee/optee_os-rpi4/lib/libutee/tee_api_arith_mpi.c:430
    3944:	aa1503e0 	mov	x0, x21
    3948:	94000fa9 	bl	77ec <mbedtls_mpi_free>
/home/jeferson/optee/optee_os-rpi4/lib/libutee/tee_api_arith_mpi.c:431
    394c:	d0000064 	adrp	x4, 11000 <_DYNAMIC>
    3950:	f9409884 	ldr	x4, [x4, #304]
    3954:	f9404fe0 	ldr	x0, [sp, #152]
    3958:	f9400081 	ldr	x1, [x4]
    395c:	eb010000 	subs	x0, x0, x1
    3960:	d2800001 	mov	x1, #0x0                   	// #0
    3964:	54000040 	b.eq	396c <bigint_binary+0x134>  // b.none
    3968:	97fff295 	bl	3bc <__stack_chk_fail>
    396c:	a94153f3 	ldp	x19, x20, [sp, #16]
    3970:	a9425bf5 	ldp	x21, x22, [sp, #32]
    3974:	a94363f7 	ldp	x23, x24, [sp, #48]
    3978:	a9446bf9 	ldp	x25, x26, [sp, #64]
    397c:	a8ca7bfd 	ldp	x29, x30, [sp], #160
    3980:	d65f03c0 	ret

0000000000003984 <mpi_is_odd>:
mpi_is_odd():
/home/jeferson/optee/optee_os-rpi4/lib/libutee/tee_api_arith_mpi.c:674
    3984:	a9bf7bfd 	stp	x29, x30, [sp, #-16]!
/home/jeferson/optee/optee_os-rpi4/lib/libutee/tee_api_arith_mpi.c:675
    3988:	d2800001 	mov	x1, #0x0                   	// #0
/home/jeferson/optee/optee_os-rpi4/lib/libutee/tee_api_arith_mpi.c:674
    398c:	910003fd 	mov	x29, sp
/home/jeferson/optee/optee_os-rpi4/lib/libutee/tee_api_arith_mpi.c:675
    3990:	940010bd 	bl	7c84 <mbedtls_mpi_get_bit>
    3994:	7100001f 	cmp	w0, #0x0
/home/jeferson/optee/optee_os-rpi4/lib/libutee/tee_api_arith_mpi.c:676
    3998:	1a9f07e0 	cset	w0, ne  // ne = any
    399c:	a8c17bfd 	ldp	x29, x30, [sp], #16
    39a0:	d65f03c0 	ret

00000000000039a4 <rng_read>:
rng_read():
/home/jeferson/optee/optee_os-rpi4/lib/libutee/tee_api_arith_mpi.c:885
    39a4:	a9bf7bfd 	stp	x29, x30, [sp, #-16]!
    39a8:	aa0103e0 	mov	x0, x1
    39ac:	aa0203e1 	mov	x1, x2
    39b0:	910003fd 	mov	x29, sp
/home/jeferson/optee/optee_os-rpi4/lib/libutee/tee_api_arith_mpi.c:886
    39b4:	97fff878 	bl	1b94 <_utee_cryp_random_number_generate>
/home/jeferson/optee/optee_os-rpi4/lib/libutee/tee_api_arith_mpi.c:887
    39b8:	7100001f 	cmp	w0, #0x0
/home/jeferson/optee/optee_os-rpi4/lib/libutee/tee_api_arith_mpi.c:889
    39bc:	a8c17bfd 	ldp	x29, x30, [sp], #16
    39c0:	12800020 	mov	w0, #0xfffffffe            	// #-2
    39c4:	1a9f1000 	csel	w0, w0, wzr, ne  // ne = any
    39c8:	d65f03c0 	ret

00000000000039cc <mpi_egcd>:
mpi_egcd():
/home/jeferson/optee/optee_os-rpi4/lib/libutee/tee_api_arith_mpi.c:735
    39cc:	a9ae7bfd 	stp	x29, x30, [sp, #-288]!
    39d0:	910003fd 	mov	x29, sp
    39d4:	a9025bf5 	stp	x21, x22, [sp, #32]
    39d8:	aa0003f5 	mov	x21, x0
    39dc:	d0000060 	adrp	x0, 11000 <_DYNAMIC>
    39e0:	a90153f3 	stp	x19, x20, [sp, #16]
get_mpi():
/home/jeferson/optee/optee_os-rpi4/lib/libutee/tee_api_arith_mpi.c:101
    39e4:	910283f4 	add	x20, sp, #0xa0
    39e8:	9102e3f3 	add	x19, sp, #0xb8
mpi_egcd():
/home/jeferson/optee/optee_os-rpi4/lib/libutee/tee_api_arith_mpi.c:735
    39ec:	f9409800 	ldr	x0, [x0, #304]
    39f0:	a90363f7 	stp	x23, x24, [sp, #48]
get_mpi():
/home/jeferson/optee/optee_os-rpi4/lib/libutee/tee_api_arith_mpi.c:101
    39f4:	9101c3f8 	add	x24, sp, #0x70
mpi_egcd():
/home/jeferson/optee/optee_os-rpi4/lib/libutee/tee_api_arith_mpi.c:735
    39f8:	a9046bf9 	stp	x25, x26, [sp, #64]
get_mpi():
/home/jeferson/optee/optee_os-rpi4/lib/libutee/tee_api_arith_mpi.c:101
    39fc:	910223f7 	add	x23, sp, #0x88
    3a00:	910343fa 	add	x26, sp, #0xd0
mpi_egcd():
/home/jeferson/optee/optee_os-rpi4/lib/libutee/tee_api_arith_mpi.c:735
    3a04:	a90573fb 	stp	x27, x28, [sp, #80]
    3a08:	aa0103fb 	mov	x27, x1
    3a0c:	aa0303fc 	mov	x28, x3
    3a10:	a90613e2 	stp	x2, x4, [sp, #96]
get_mpi():
/home/jeferson/optee/optee_os-rpi4/lib/libutee/tee_api_arith_mpi.c:101
    3a14:	9103a3f9 	add	x25, sp, #0xe8
    3a18:	910403f6 	add	x22, sp, #0x100
mpi_egcd():
/home/jeferson/optee/optee_os-rpi4/lib/libutee/tee_api_arith_mpi.c:735
    3a1c:	f9400001 	ldr	x1, [x0]
    3a20:	f9008fe1 	str	x1, [sp, #280]
    3a24:	d2800001 	mov	x1, #0x0                   	// #0
get_mpi():
/home/jeferson/optee/optee_os-rpi4/lib/libutee/tee_api_arith_mpi.c:101
    3a28:	aa1803e0 	mov	x0, x24
    3a2c:	94000f66 	bl	77c4 <mbedtls_mpi_init_mempool>
    3a30:	aa1703e0 	mov	x0, x23
    3a34:	94000f64 	bl	77c4 <mbedtls_mpi_init_mempool>
    3a38:	aa1403e0 	mov	x0, x20
    3a3c:	94000f62 	bl	77c4 <mbedtls_mpi_init_mempool>
    3a40:	aa1303e0 	mov	x0, x19
    3a44:	94000f60 	bl	77c4 <mbedtls_mpi_init_mempool>
    3a48:	aa1a03e0 	mov	x0, x26
    3a4c:	94000f5e 	bl	77c4 <mbedtls_mpi_init_mempool>
    3a50:	aa1903e0 	mov	x0, x25
    3a54:	94000f5c 	bl	77c4 <mbedtls_mpi_init_mempool>
    3a58:	aa1603e0 	mov	x0, x22
    3a5c:	94000f5a 	bl	77c4 <mbedtls_mpi_init_mempool>
mpi_egcd():
/home/jeferson/optee/optee_os-rpi4/lib/libutee/tee_api_arith_mpi.c:754
    3a60:	f94037e0 	ldr	x0, [sp, #104]
    3a64:	52800001 	mov	w1, #0x0                   	// #0
    3a68:	94001255 	bl	83bc <mbedtls_mpi_cmp_int>
    3a6c:	35000320 	cbnz	w0, 3ad0 <mpi_egcd+0x104>
/home/jeferson/optee/optee_os-rpi4/lib/libutee/tee_api_arith_mpi.c:755
    3a70:	aa1b03e0 	mov	x0, x27
    3a74:	52800021 	mov	w1, #0x1                   	// #1
    3a78:	94001069 	bl	7c1c <mbedtls_mpi_lset>
    3a7c:	2a0003e2 	mov	w2, w0
    3a80:	340000c0 	cbz	w0, 3a98 <mpi_egcd+0xcc>
/home/jeferson/optee/optee_os-rpi4/lib/libutee/tee_api_arith_mpi.c:755 (discriminator 1)
    3a84:	52805e61 	mov	w1, #0x2f3                 	// #755
/home/jeferson/optee/optee_os-rpi4/lib/libutee/tee_api_arith_mpi.c:756 (discriminator 1)
    3a88:	90000060 	adrp	x0, f000 <__text_end+0x2508>
    3a8c:	9131d800 	add	x0, x0, #0xc76
    3a90:	91005800 	add	x0, x0, #0x16
    3a94:	97ffff1e 	bl	370c <mpi_panic>
/home/jeferson/optee/optee_os-rpi4/lib/libutee/tee_api_arith_mpi.c:756 (discriminator 2)
    3a98:	f94033e0 	ldr	x0, [sp, #96]
    3a9c:	52800001 	mov	w1, #0x0                   	// #0
    3aa0:	9400105f 	bl	7c1c <mbedtls_mpi_lset>
    3aa4:	2a0003e2 	mov	w2, w0
    3aa8:	34000060 	cbz	w0, 3ab4 <mpi_egcd+0xe8>
/home/jeferson/optee/optee_os-rpi4/lib/libutee/tee_api_arith_mpi.c:756 (discriminator 1)
    3aac:	52805e81 	mov	w1, #0x2f4                 	// #756
    3ab0:	17fffff6 	b	3a88 <mpi_egcd+0xbc>
/home/jeferson/optee/optee_os-rpi4/lib/libutee/tee_api_arith_mpi.c:757 (discriminator 2)
    3ab4:	aa1c03e1 	mov	x1, x28
    3ab8:	aa1503e0 	mov	x0, x21
    3abc:	94001002 	bl	7ac4 <mbedtls_mpi_copy>
    3ac0:	2a0003e2 	mov	w2, w0
    3ac4:	34002040 	cbz	w0, 3ecc <mpi_egcd+0x500>
/home/jeferson/optee/optee_os-rpi4/lib/libutee/tee_api_arith_mpi.c:757 (discriminator 1)
    3ac8:	52805ea1 	mov	w1, #0x2f5                 	// #757
    3acc:	17ffffef 	b	3a88 <mpi_egcd+0xbc>
/home/jeferson/optee/optee_os-rpi4/lib/libutee/tee_api_arith_mpi.c:761
    3ad0:	aa1c03e1 	mov	x1, x28
    3ad4:	aa1a03e0 	mov	x0, x26
    3ad8:	94000ffb 	bl	7ac4 <mbedtls_mpi_copy>
    3adc:	2a0003e2 	mov	w2, w0
    3ae0:	34000060 	cbz	w0, 3aec <mpi_egcd+0x120>
/home/jeferson/optee/optee_os-rpi4/lib/libutee/tee_api_arith_mpi.c:761 (discriminator 1)
    3ae4:	52805f21 	mov	w1, #0x2f9                 	// #761
    3ae8:	17ffffe8 	b	3a88 <mpi_egcd+0xbc>
/home/jeferson/optee/optee_os-rpi4/lib/libutee/tee_api_arith_mpi.c:762 (discriminator 2)
    3aec:	f94037e1 	ldr	x1, [sp, #104]
    3af0:	aa1903e0 	mov	x0, x25
/home/jeferson/optee/optee_os-rpi4/lib/libutee/tee_api_arith_mpi.c:764 (discriminator 2)
    3af4:	5280001c 	mov	w28, #0x0                   	// #0
/home/jeferson/optee/optee_os-rpi4/lib/libutee/tee_api_arith_mpi.c:762 (discriminator 2)
    3af8:	94000ff3 	bl	7ac4 <mbedtls_mpi_copy>
    3afc:	2a0003e2 	mov	w2, w0
    3b00:	34000140 	cbz	w0, 3b28 <mpi_egcd+0x15c>
/home/jeferson/optee/optee_os-rpi4/lib/libutee/tee_api_arith_mpi.c:762 (discriminator 1)
    3b04:	52805f41 	mov	w1, #0x2fa                 	// #762
    3b08:	17ffffe0 	b	3a88 <mpi_egcd+0xbc>
/home/jeferson/optee/optee_os-rpi4/lib/libutee/tee_api_arith_mpi.c:768 (discriminator 2)
    3b0c:	aa1903e0 	mov	x0, x25
    3b10:	d2800021 	mov	x1, #0x1                   	// #1
    3b14:	9400119f 	bl	8190 <mbedtls_mpi_shift_r>
    3b18:	2a0003e2 	mov	w2, w0
    3b1c:	34000060 	cbz	w0, 3b28 <mpi_egcd+0x15c>
/home/jeferson/optee/optee_os-rpi4/lib/libutee/tee_api_arith_mpi.c:768 (discriminator 1)
    3b20:	52806001 	mov	w1, #0x300                 	// #768
    3b24:	17ffffd9 	b	3a88 <mpi_egcd+0xbc>
mpi_is_even():
/home/jeferson/optee/optee_os-rpi4/lib/libutee/tee_api_arith_mpi.c:680 (discriminator 2)
    3b28:	aa1a03e0 	mov	x0, x26
    3b2c:	97ffff96 	bl	3984 <mpi_is_odd>
mpi_egcd():
/home/jeferson/optee/optee_os-rpi4/lib/libutee/tee_api_arith_mpi.c:765 (discriminator 2)
    3b30:	72001c1f 	tst	w0, #0xff
    3b34:	54000100 	b.eq	3b54 <mpi_egcd+0x188>  // b.none
/home/jeferson/optee/optee_os-rpi4/lib/libutee/tee_api_arith_mpi.c:771
    3b38:	aa1a03e1 	mov	x1, x26
    3b3c:	aa1603e0 	mov	x0, x22
    3b40:	94000fe1 	bl	7ac4 <mbedtls_mpi_copy>
    3b44:	2a0003e2 	mov	w2, w0
    3b48:	340001e0 	cbz	w0, 3b84 <mpi_egcd+0x1b8>
/home/jeferson/optee/optee_os-rpi4/lib/libutee/tee_api_arith_mpi.c:771 (discriminator 1)
    3b4c:	52806061 	mov	w1, #0x303                 	// #771
    3b50:	17ffffce 	b	3a88 <mpi_egcd+0xbc>
mpi_is_even():
/home/jeferson/optee/optee_os-rpi4/lib/libutee/tee_api_arith_mpi.c:680
    3b54:	aa1903e0 	mov	x0, x25
    3b58:	97ffff8b 	bl	3984 <mpi_is_odd>
mpi_egcd():
/home/jeferson/optee/optee_os-rpi4/lib/libutee/tee_api_arith_mpi.c:765
    3b5c:	72001c1f 	tst	w0, #0xff
    3b60:	54fffec1 	b.ne	3b38 <mpi_egcd+0x16c>  // b.any
/home/jeferson/optee/optee_os-rpi4/lib/libutee/tee_api_arith_mpi.c:767
    3b64:	aa1a03e0 	mov	x0, x26
    3b68:	d2800021 	mov	x1, #0x1                   	// #1
/home/jeferson/optee/optee_os-rpi4/lib/libutee/tee_api_arith_mpi.c:766
    3b6c:	1100079c 	add	w28, w28, #0x1
/home/jeferson/optee/optee_os-rpi4/lib/libutee/tee_api_arith_mpi.c:767
    3b70:	94001188 	bl	8190 <mbedtls_mpi_shift_r>
    3b74:	2a0003e2 	mov	w2, w0
    3b78:	34fffca0 	cbz	w0, 3b0c <mpi_egcd+0x140>
/home/jeferson/optee/optee_os-rpi4/lib/libutee/tee_api_arith_mpi.c:767 (discriminator 1)
    3b7c:	52805fe1 	mov	w1, #0x2ff                 	// #767
    3b80:	17ffffc2 	b	3a88 <mpi_egcd+0xbc>
/home/jeferson/optee/optee_os-rpi4/lib/libutee/tee_api_arith_mpi.c:772 (discriminator 2)
    3b84:	aa1903e1 	mov	x1, x25
    3b88:	aa1503e0 	mov	x0, x21
    3b8c:	94000fce 	bl	7ac4 <mbedtls_mpi_copy>
    3b90:	2a0003e2 	mov	w2, w0
    3b94:	34000060 	cbz	w0, 3ba0 <mpi_egcd+0x1d4>
/home/jeferson/optee/optee_os-rpi4/lib/libutee/tee_api_arith_mpi.c:772 (discriminator 1)
    3b98:	52806081 	mov	w1, #0x304                 	// #772
    3b9c:	17ffffbb 	b	3a88 <mpi_egcd+0xbc>
/home/jeferson/optee/optee_os-rpi4/lib/libutee/tee_api_arith_mpi.c:773 (discriminator 2)
    3ba0:	aa1803e0 	mov	x0, x24
    3ba4:	52800021 	mov	w1, #0x1                   	// #1
    3ba8:	9400101d 	bl	7c1c <mbedtls_mpi_lset>
    3bac:	2a0003e2 	mov	w2, w0
    3bb0:	34000060 	cbz	w0, 3bbc <mpi_egcd+0x1f0>
/home/jeferson/optee/optee_os-rpi4/lib/libutee/tee_api_arith_mpi.c:773 (discriminator 1)
    3bb4:	528060a1 	mov	w1, #0x305                 	// #773
    3bb8:	17ffffb4 	b	3a88 <mpi_egcd+0xbc>
/home/jeferson/optee/optee_os-rpi4/lib/libutee/tee_api_arith_mpi.c:774 (discriminator 2)
    3bbc:	aa1703e0 	mov	x0, x23
    3bc0:	52800001 	mov	w1, #0x0                   	// #0
    3bc4:	94001016 	bl	7c1c <mbedtls_mpi_lset>
    3bc8:	2a0003e2 	mov	w2, w0
    3bcc:	34000060 	cbz	w0, 3bd8 <mpi_egcd+0x20c>
/home/jeferson/optee/optee_os-rpi4/lib/libutee/tee_api_arith_mpi.c:774 (discriminator 1)
    3bd0:	528060c1 	mov	w1, #0x306                 	// #774
    3bd4:	17ffffad 	b	3a88 <mpi_egcd+0xbc>
/home/jeferson/optee/optee_os-rpi4/lib/libutee/tee_api_arith_mpi.c:775 (discriminator 2)
    3bd8:	aa1403e0 	mov	x0, x20
    3bdc:	52800001 	mov	w1, #0x0                   	// #0
    3be0:	9400100f 	bl	7c1c <mbedtls_mpi_lset>
    3be4:	2a0003e2 	mov	w2, w0
    3be8:	34000060 	cbz	w0, 3bf4 <mpi_egcd+0x228>
/home/jeferson/optee/optee_os-rpi4/lib/libutee/tee_api_arith_mpi.c:775 (discriminator 1)
    3bec:	528060e1 	mov	w1, #0x307                 	// #775
    3bf0:	17ffffa6 	b	3a88 <mpi_egcd+0xbc>
/home/jeferson/optee/optee_os-rpi4/lib/libutee/tee_api_arith_mpi.c:776 (discriminator 2)
    3bf4:	aa1303e0 	mov	x0, x19
    3bf8:	52800021 	mov	w1, #0x1                   	// #1
    3bfc:	94001008 	bl	7c1c <mbedtls_mpi_lset>
    3c00:	2a0003e2 	mov	w2, w0
    3c04:	34001320 	cbz	w0, 3e68 <mpi_egcd+0x49c>
/home/jeferson/optee/optee_os-rpi4/lib/libutee/tee_api_arith_mpi.c:776 (discriminator 1)
    3c08:	52806101 	mov	w1, #0x308                 	// #776
    3c0c:	17ffff9f 	b	3a88 <mpi_egcd+0xbc>
/home/jeferson/optee/optee_os-rpi4/lib/libutee/tee_api_arith_mpi.c:780
    3c10:	aa1603e0 	mov	x0, x22
    3c14:	d2800021 	mov	x1, #0x1                   	// #1
    3c18:	9400115e 	bl	8190 <mbedtls_mpi_shift_r>
    3c1c:	2a0003e2 	mov	w2, w0
    3c20:	34000060 	cbz	w0, 3c2c <mpi_egcd+0x260>
/home/jeferson/optee/optee_os-rpi4/lib/libutee/tee_api_arith_mpi.c:780 (discriminator 1)
    3c24:	52806181 	mov	w1, #0x30c                 	// #780
    3c28:	17ffff98 	b	3a88 <mpi_egcd+0xbc>
/home/jeferson/optee/optee_os-rpi4/lib/libutee/tee_api_arith_mpi.c:781 (discriminator 2)
    3c2c:	aa1803e0 	mov	x0, x24
    3c30:	97ffff55 	bl	3984 <mpi_is_odd>
    3c34:	72001c1f 	tst	w0, #0xff
    3c38:	54000120 	b.eq	3c5c <mpi_egcd+0x290>  // b.none
/home/jeferson/optee/optee_os-rpi4/lib/libutee/tee_api_arith_mpi.c:782
    3c3c:	aa1903e2 	mov	x2, x25
    3c40:	aa1803e1 	mov	x1, x24
    3c44:	aa1803e0 	mov	x0, x24
    3c48:	9400129a 	bl	86b0 <mbedtls_mpi_add_mpi>
    3c4c:	2a0003e2 	mov	w2, w0
    3c50:	340001c0 	cbz	w0, 3c88 <mpi_egcd+0x2bc>
/home/jeferson/optee/optee_os-rpi4/lib/libutee/tee_api_arith_mpi.c:782 (discriminator 1)
    3c54:	528061c1 	mov	w1, #0x30e                 	// #782
    3c58:	17ffff8c 	b	3a88 <mpi_egcd+0xbc>
/home/jeferson/optee/optee_os-rpi4/lib/libutee/tee_api_arith_mpi.c:781 (discriminator 1)
    3c5c:	aa1703e0 	mov	x0, x23
    3c60:	97ffff49 	bl	3984 <mpi_is_odd>
    3c64:	72001c1f 	tst	w0, #0xff
    3c68:	54fffea1 	b.ne	3c3c <mpi_egcd+0x270>  // b.any
/home/jeferson/optee/optee_os-rpi4/lib/libutee/tee_api_arith_mpi.c:785
    3c6c:	aa1803e0 	mov	x0, x24
    3c70:	d2800021 	mov	x1, #0x1                   	// #1
    3c74:	94001147 	bl	8190 <mbedtls_mpi_shift_r>
    3c78:	2a0003e2 	mov	w2, w0
    3c7c:	34000160 	cbz	w0, 3ca8 <mpi_egcd+0x2dc>
/home/jeferson/optee/optee_os-rpi4/lib/libutee/tee_api_arith_mpi.c:785 (discriminator 1)
    3c80:	52806221 	mov	w1, #0x311                 	// #785
    3c84:	17ffff81 	b	3a88 <mpi_egcd+0xbc>
/home/jeferson/optee/optee_os-rpi4/lib/libutee/tee_api_arith_mpi.c:783 (discriminator 2)
    3c88:	aa1a03e2 	mov	x2, x26
    3c8c:	aa1703e1 	mov	x1, x23
    3c90:	aa1703e0 	mov	x0, x23
    3c94:	940012a9 	bl	8738 <mbedtls_mpi_sub_mpi>
    3c98:	2a0003e2 	mov	w2, w0
    3c9c:	34fffe80 	cbz	w0, 3c6c <mpi_egcd+0x2a0>
/home/jeferson/optee/optee_os-rpi4/lib/libutee/tee_api_arith_mpi.c:783 (discriminator 1)
    3ca0:	528061e1 	mov	w1, #0x30f                 	// #783
    3ca4:	17ffff79 	b	3a88 <mpi_egcd+0xbc>
/home/jeferson/optee/optee_os-rpi4/lib/libutee/tee_api_arith_mpi.c:786 (discriminator 2)
    3ca8:	aa1703e0 	mov	x0, x23
    3cac:	d2800021 	mov	x1, #0x1                   	// #1
    3cb0:	94001138 	bl	8190 <mbedtls_mpi_shift_r>
    3cb4:	2a0003e2 	mov	w2, w0
    3cb8:	34000060 	cbz	w0, 3cc4 <mpi_egcd+0x2f8>
/home/jeferson/optee/optee_os-rpi4/lib/libutee/tee_api_arith_mpi.c:786 (discriminator 1)
    3cbc:	52806241 	mov	w1, #0x312                 	// #786
    3cc0:	17ffff72 	b	3a88 <mpi_egcd+0xbc>
mpi_is_even():
/home/jeferson/optee/optee_os-rpi4/lib/libutee/tee_api_arith_mpi.c:680 (discriminator 2)
    3cc4:	aa1603e0 	mov	x0, x22
    3cc8:	97ffff2f 	bl	3984 <mpi_is_odd>
mpi_egcd():
/home/jeferson/optee/optee_os-rpi4/lib/libutee/tee_api_arith_mpi.c:779 (discriminator 2)
    3ccc:	72001c1f 	tst	w0, #0xff
    3cd0:	54fffa00 	b.eq	3c10 <mpi_egcd+0x244>  // b.none
mpi_is_even():
/home/jeferson/optee/optee_os-rpi4/lib/libutee/tee_api_arith_mpi.c:680 (discriminator 2)
    3cd4:	aa1503e0 	mov	x0, x21
    3cd8:	97ffff2b 	bl	3984 <mpi_is_odd>
mpi_egcd():
/home/jeferson/optee/optee_os-rpi4/lib/libutee/tee_api_arith_mpi.c:789 (discriminator 2)
    3cdc:	72001c1f 	tst	w0, #0xff
    3ce0:	540001a0 	b.eq	3d14 <mpi_egcd+0x348>  // b.none
/home/jeferson/optee/optee_os-rpi4/lib/libutee/tee_api_arith_mpi.c:800
    3ce4:	aa1503e1 	mov	x1, x21
    3ce8:	aa1603e0 	mov	x0, x22
    3cec:	94001180 	bl	82ec <mbedtls_mpi_cmp_mpi>
    3cf0:	37f808c0 	tbnz	w0, #31, 3e08 <mpi_egcd+0x43c>
/home/jeferson/optee/optee_os-rpi4/lib/libutee/tee_api_arith_mpi.c:801
    3cf4:	aa1503e2 	mov	x2, x21
    3cf8:	aa1603e1 	mov	x1, x22
    3cfc:	aa1603e0 	mov	x0, x22
    3d00:	9400128e 	bl	8738 <mbedtls_mpi_sub_mpi>
    3d04:	2a0003e2 	mov	w2, w0
    3d08:	34000600 	cbz	w0, 3dc8 <mpi_egcd+0x3fc>
/home/jeferson/optee/optee_os-rpi4/lib/libutee/tee_api_arith_mpi.c:801 (discriminator 1)
    3d0c:	52806421 	mov	w1, #0x321                 	// #801
    3d10:	17ffff5e 	b	3a88 <mpi_egcd+0xbc>
/home/jeferson/optee/optee_os-rpi4/lib/libutee/tee_api_arith_mpi.c:790
    3d14:	aa1503e0 	mov	x0, x21
    3d18:	d2800021 	mov	x1, #0x1                   	// #1
    3d1c:	9400111d 	bl	8190 <mbedtls_mpi_shift_r>
    3d20:	2a0003e2 	mov	w2, w0
    3d24:	34000060 	cbz	w0, 3d30 <mpi_egcd+0x364>
/home/jeferson/optee/optee_os-rpi4/lib/libutee/tee_api_arith_mpi.c:790 (discriminator 1)
    3d28:	528062c1 	mov	w1, #0x316                 	// #790
    3d2c:	17ffff57 	b	3a88 <mpi_egcd+0xbc>
/home/jeferson/optee/optee_os-rpi4/lib/libutee/tee_api_arith_mpi.c:791 (discriminator 2)
    3d30:	aa1403e0 	mov	x0, x20
    3d34:	97ffff14 	bl	3984 <mpi_is_odd>
    3d38:	72001c1f 	tst	w0, #0xff
    3d3c:	54000120 	b.eq	3d60 <mpi_egcd+0x394>  // b.none
/home/jeferson/optee/optee_os-rpi4/lib/libutee/tee_api_arith_mpi.c:792
    3d40:	aa1903e2 	mov	x2, x25
    3d44:	aa1403e1 	mov	x1, x20
    3d48:	aa1403e0 	mov	x0, x20
    3d4c:	94001259 	bl	86b0 <mbedtls_mpi_add_mpi>
    3d50:	2a0003e2 	mov	w2, w0
    3d54:	340001c0 	cbz	w0, 3d8c <mpi_egcd+0x3c0>
/home/jeferson/optee/optee_os-rpi4/lib/libutee/tee_api_arith_mpi.c:792 (discriminator 1)
    3d58:	52806301 	mov	w1, #0x318                 	// #792
    3d5c:	17ffff4b 	b	3a88 <mpi_egcd+0xbc>
/home/jeferson/optee/optee_os-rpi4/lib/libutee/tee_api_arith_mpi.c:791 (discriminator 1)
    3d60:	aa1303e0 	mov	x0, x19
    3d64:	97ffff08 	bl	3984 <mpi_is_odd>
    3d68:	72001c1f 	tst	w0, #0xff
    3d6c:	54fffea1 	b.ne	3d40 <mpi_egcd+0x374>  // b.any
/home/jeferson/optee/optee_os-rpi4/lib/libutee/tee_api_arith_mpi.c:795
    3d70:	aa1403e0 	mov	x0, x20
    3d74:	d2800021 	mov	x1, #0x1                   	// #1
    3d78:	94001106 	bl	8190 <mbedtls_mpi_shift_r>
    3d7c:	2a0003e2 	mov	w2, w0
    3d80:	34000160 	cbz	w0, 3dac <mpi_egcd+0x3e0>
/home/jeferson/optee/optee_os-rpi4/lib/libutee/tee_api_arith_mpi.c:795 (discriminator 1)
    3d84:	52806361 	mov	w1, #0x31b                 	// #795
    3d88:	17ffff40 	b	3a88 <mpi_egcd+0xbc>
/home/jeferson/optee/optee_os-rpi4/lib/libutee/tee_api_arith_mpi.c:793 (discriminator 2)
    3d8c:	aa1a03e2 	mov	x2, x26
    3d90:	aa1303e1 	mov	x1, x19
    3d94:	aa1303e0 	mov	x0, x19
    3d98:	94001268 	bl	8738 <mbedtls_mpi_sub_mpi>
    3d9c:	2a0003e2 	mov	w2, w0
    3da0:	34fffe80 	cbz	w0, 3d70 <mpi_egcd+0x3a4>
/home/jeferson/optee/optee_os-rpi4/lib/libutee/tee_api_arith_mpi.c:793 (discriminator 1)
    3da4:	52806321 	mov	w1, #0x319                 	// #793
    3da8:	17ffff38 	b	3a88 <mpi_egcd+0xbc>
/home/jeferson/optee/optee_os-rpi4/lib/libutee/tee_api_arith_mpi.c:796 (discriminator 2)
    3dac:	aa1303e0 	mov	x0, x19
    3db0:	d2800021 	mov	x1, #0x1                   	// #1
    3db4:	940010f7 	bl	8190 <mbedtls_mpi_shift_r>
    3db8:	2a0003e2 	mov	w2, w0
    3dbc:	34fff8c0 	cbz	w0, 3cd4 <mpi_egcd+0x308>
/home/jeferson/optee/optee_os-rpi4/lib/libutee/tee_api_arith_mpi.c:796 (discriminator 1)
    3dc0:	52806381 	mov	w1, #0x31c                 	// #796
    3dc4:	17ffff31 	b	3a88 <mpi_egcd+0xbc>
/home/jeferson/optee/optee_os-rpi4/lib/libutee/tee_api_arith_mpi.c:802 (discriminator 2)
    3dc8:	aa1403e2 	mov	x2, x20
    3dcc:	aa1803e1 	mov	x1, x24
    3dd0:	aa1803e0 	mov	x0, x24
    3dd4:	94001259 	bl	8738 <mbedtls_mpi_sub_mpi>
    3dd8:	2a0003e2 	mov	w2, w0
    3ddc:	34000060 	cbz	w0, 3de8 <mpi_egcd+0x41c>
/home/jeferson/optee/optee_os-rpi4/lib/libutee/tee_api_arith_mpi.c:802 (discriminator 1)
    3de0:	52806441 	mov	w1, #0x322                 	// #802
    3de4:	17ffff29 	b	3a88 <mpi_egcd+0xbc>
/home/jeferson/optee/optee_os-rpi4/lib/libutee/tee_api_arith_mpi.c:803 (discriminator 2)
    3de8:	aa1303e2 	mov	x2, x19
    3dec:	aa1703e1 	mov	x1, x23
    3df0:	aa1703e0 	mov	x0, x23
    3df4:	94001251 	bl	8738 <mbedtls_mpi_sub_mpi>
    3df8:	2a0003e2 	mov	w2, w0
    3dfc:	34000360 	cbz	w0, 3e68 <mpi_egcd+0x49c>
/home/jeferson/optee/optee_os-rpi4/lib/libutee/tee_api_arith_mpi.c:803 (discriminator 1)
    3e00:	52806461 	mov	w1, #0x323                 	// #803
    3e04:	17ffff21 	b	3a88 <mpi_egcd+0xbc>
/home/jeferson/optee/optee_os-rpi4/lib/libutee/tee_api_arith_mpi.c:805
    3e08:	aa1603e2 	mov	x2, x22
    3e0c:	aa1503e1 	mov	x1, x21
    3e10:	aa1503e0 	mov	x0, x21
    3e14:	94001249 	bl	8738 <mbedtls_mpi_sub_mpi>
    3e18:	2a0003e2 	mov	w2, w0
    3e1c:	34000060 	cbz	w0, 3e28 <mpi_egcd+0x45c>
/home/jeferson/optee/optee_os-rpi4/lib/libutee/tee_api_arith_mpi.c:805 (discriminator 1)
    3e20:	528064a1 	mov	w1, #0x325                 	// #805
    3e24:	17ffff19 	b	3a88 <mpi_egcd+0xbc>
/home/jeferson/optee/optee_os-rpi4/lib/libutee/tee_api_arith_mpi.c:806 (discriminator 2)
    3e28:	aa1803e2 	mov	x2, x24
    3e2c:	aa1403e1 	mov	x1, x20
    3e30:	aa1403e0 	mov	x0, x20
    3e34:	94001241 	bl	8738 <mbedtls_mpi_sub_mpi>
    3e38:	2a0003e2 	mov	w2, w0
    3e3c:	34000060 	cbz	w0, 3e48 <mpi_egcd+0x47c>
/home/jeferson/optee/optee_os-rpi4/lib/libutee/tee_api_arith_mpi.c:806 (discriminator 1)
    3e40:	528064c1 	mov	w1, #0x326                 	// #806
    3e44:	17ffff11 	b	3a88 <mpi_egcd+0xbc>
/home/jeferson/optee/optee_os-rpi4/lib/libutee/tee_api_arith_mpi.c:807 (discriminator 2)
    3e48:	aa1703e2 	mov	x2, x23
    3e4c:	aa1303e1 	mov	x1, x19
    3e50:	aa1303e0 	mov	x0, x19
    3e54:	94001239 	bl	8738 <mbedtls_mpi_sub_mpi>
    3e58:	2a0003e2 	mov	w2, w0
    3e5c:	34000060 	cbz	w0, 3e68 <mpi_egcd+0x49c>
/home/jeferson/optee/optee_os-rpi4/lib/libutee/tee_api_arith_mpi.c:807 (discriminator 1)
    3e60:	528064e1 	mov	w1, #0x327                 	// #807
    3e64:	17ffff09 	b	3a88 <mpi_egcd+0xbc>
/home/jeferson/optee/optee_os-rpi4/lib/libutee/tee_api_arith_mpi.c:778 (discriminator 2)
    3e68:	aa1603e0 	mov	x0, x22
    3e6c:	52800001 	mov	w1, #0x0                   	// #0
    3e70:	94001153 	bl	83bc <mbedtls_mpi_cmp_int>
    3e74:	35fff280 	cbnz	w0, 3cc4 <mpi_egcd+0x2f8>
/home/jeferson/optee/optee_os-rpi4/lib/libutee/tee_api_arith_mpi.c:811
    3e78:	aa1403e1 	mov	x1, x20
    3e7c:	aa1b03e0 	mov	x0, x27
    3e80:	94000f11 	bl	7ac4 <mbedtls_mpi_copy>
    3e84:	2a0003e2 	mov	w2, w0
    3e88:	34000060 	cbz	w0, 3e94 <mpi_egcd+0x4c8>
/home/jeferson/optee/optee_os-rpi4/lib/libutee/tee_api_arith_mpi.c:811 (discriminator 1)
    3e8c:	52806561 	mov	w1, #0x32b                 	// #811
    3e90:	17fffefe 	b	3a88 <mpi_egcd+0xbc>
/home/jeferson/optee/optee_os-rpi4/lib/libutee/tee_api_arith_mpi.c:812 (discriminator 2)
    3e94:	f94033e0 	ldr	x0, [sp, #96]
    3e98:	aa1303e1 	mov	x1, x19
    3e9c:	94000f0a 	bl	7ac4 <mbedtls_mpi_copy>
    3ea0:	2a0003e2 	mov	w2, w0
    3ea4:	34000060 	cbz	w0, 3eb0 <mpi_egcd+0x4e4>
/home/jeferson/optee/optee_os-rpi4/lib/libutee/tee_api_arith_mpi.c:812 (discriminator 1)
    3ea8:	52806581 	mov	w1, #0x32c                 	// #812
    3eac:	17fffef7 	b	3a88 <mpi_egcd+0xbc>
/home/jeferson/optee/optee_os-rpi4/lib/libutee/tee_api_arith_mpi.c:813 (discriminator 2)
    3eb0:	2a1c03e1 	mov	w1, w28
    3eb4:	aa1503e0 	mov	x0, x21
    3eb8:	94001072 	bl	8080 <mbedtls_mpi_shift_l>
    3ebc:	2a0003e2 	mov	w2, w0
    3ec0:	34000060 	cbz	w0, 3ecc <mpi_egcd+0x500>
/home/jeferson/optee/optee_os-rpi4/lib/libutee/tee_api_arith_mpi.c:813 (discriminator 1)
    3ec4:	528065a1 	mov	w1, #0x32d                 	// #813
    3ec8:	17fffef0 	b	3a88 <mpi_egcd+0xbc>
/home/jeferson/optee/optee_os-rpi4/lib/libutee/tee_api_arith_mpi.c:816
    3ecc:	aa1803e0 	mov	x0, x24
    3ed0:	94000e47 	bl	77ec <mbedtls_mpi_free>
/home/jeferson/optee/optee_os-rpi4/lib/libutee/tee_api_arith_mpi.c:817
    3ed4:	aa1703e0 	mov	x0, x23
    3ed8:	94000e45 	bl	77ec <mbedtls_mpi_free>
/home/jeferson/optee/optee_os-rpi4/lib/libutee/tee_api_arith_mpi.c:818
    3edc:	aa1403e0 	mov	x0, x20
    3ee0:	94000e43 	bl	77ec <mbedtls_mpi_free>
/home/jeferson/optee/optee_os-rpi4/lib/libutee/tee_api_arith_mpi.c:819
    3ee4:	aa1303e0 	mov	x0, x19
    3ee8:	94000e41 	bl	77ec <mbedtls_mpi_free>
/home/jeferson/optee/optee_os-rpi4/lib/libutee/tee_api_arith_mpi.c:820
    3eec:	aa1a03e0 	mov	x0, x26
    3ef0:	94000e3f 	bl	77ec <mbedtls_mpi_free>
/home/jeferson/optee/optee_os-rpi4/lib/libutee/tee_api_arith_mpi.c:821
    3ef4:	aa1903e0 	mov	x0, x25
    3ef8:	94000e3d 	bl	77ec <mbedtls_mpi_free>
/home/jeferson/optee/optee_os-rpi4/lib/libutee/tee_api_arith_mpi.c:822
    3efc:	aa1603e0 	mov	x0, x22
    3f00:	94000e3b 	bl	77ec <mbedtls_mpi_free>
/home/jeferson/optee/optee_os-rpi4/lib/libutee/tee_api_arith_mpi.c:823
    3f04:	d0000060 	adrp	x0, 11000 <_DYNAMIC>
    3f08:	f9409800 	ldr	x0, [x0, #304]
    3f0c:	f9408fe2 	ldr	x2, [sp, #280]
    3f10:	f9400001 	ldr	x1, [x0]
    3f14:	eb010042 	subs	x2, x2, x1
    3f18:	d2800001 	mov	x1, #0x0                   	// #0
    3f1c:	54000040 	b.eq	3f24 <mpi_egcd+0x558>  // b.none
    3f20:	97fff127 	bl	3bc <__stack_chk_fail>
    3f24:	a94153f3 	ldp	x19, x20, [sp, #16]
    3f28:	a9425bf5 	ldp	x21, x22, [sp, #32]
    3f2c:	a94363f7 	ldp	x23, x24, [sp, #48]
    3f30:	a9446bf9 	ldp	x25, x26, [sp, #64]
    3f34:	a94573fb 	ldp	x27, x28, [sp, #80]
    3f38:	a8d27bfd 	ldp	x29, x30, [sp], #288
    3f3c:	d65f03c0 	ret

0000000000003f40 <_TEE_MathAPI_Init>:
_TEE_MathAPI_Init():
/home/jeferson/optee/optee_os-rpi4/lib/libutee/tee_api_arith_mpi.c:44
    3f40:	a9bf7bfd 	stp	x29, x30, [sp, #-16]!
/home/jeferson/optee/optee_os-rpi4/lib/libutee/tee_api_arith_mpi.c:47
    3f44:	d2870001 	mov	x1, #0x3800                	// #14336
    3f48:	d2800002 	mov	x2, #0x0                   	// #0
/home/jeferson/optee/optee_os-rpi4/lib/libutee/tee_api_arith_mpi.c:44
    3f4c:	910003fd 	mov	x29, sp
/home/jeferson/optee/optee_os-rpi4/lib/libutee/tee_api_arith_mpi.c:47
    3f50:	d0000060 	adrp	x0, 11000 <_DYNAMIC>
    3f54:	9119a000 	add	x0, x0, #0x668
    3f58:	94002268 	bl	c8f8 <mempool_alloc_pool>
    3f5c:	d0000061 	adrp	x1, 11000 <_DYNAMIC>
    3f60:	f940ec21 	ldr	x1, [x1, #472]
    3f64:	f9000020 	str	x0, [x1]
/home/jeferson/optee/optee_os-rpi4/lib/libutee/tee_api_arith_mpi.c:48
    3f68:	b5000100 	cbnz	x0, 3f88 <_TEE_MathAPI_Init+0x48>
/home/jeferson/optee/optee_os-rpi4/lib/libutee/tee_api_arith_mpi.c:49
    3f6c:	90000060 	adrp	x0, f000 <__text_end+0x2508>
    3f70:	9131d800 	add	x0, x0, #0xc76
    3f74:	90000062 	adrp	x2, f000 <__text_end+0x2508>
    3f78:	91007c00 	add	x0, x0, #0x1f
    3f7c:	912fc842 	add	x2, x2, #0xbf2
    3f80:	52800621 	mov	w1, #0x31                  	// #49
    3f84:	97fffdd6 	bl	36dc <api_panic>
/home/jeferson/optee/optee_os-rpi4/lib/libutee/tee_api_arith_mpi.c:50
    3f88:	a8c17bfd 	ldp	x29, x30, [sp], #16
    3f8c:	d65f03c0 	ret

0000000000003f90 <TEE_BigIntInit>:
TEE_BigIntInit():
/home/jeferson/optee/optee_os-rpi4/lib/libutee/tee_api_arith_mpi.c:119
    3f90:	a9be7bfd 	stp	x29, x30, [sp, #-32]!
/home/jeferson/optee/optee_os-rpi4/lib/libutee/tee_api_arith_mpi.c:125
    3f94:	d37ef422 	lsl	x2, x1, #2
/home/jeferson/optee/optee_os-rpi4/lib/libutee/tee_api_arith_mpi.c:119
    3f98:	910003fd 	mov	x29, sp
    3f9c:	a90153f3 	stp	x19, x20, [sp, #16]
    3fa0:	aa0003f4 	mov	x20, x0
    3fa4:	aa0103f3 	mov	x19, x1
/home/jeferson/optee/optee_os-rpi4/lib/libutee/tee_api_arith_mpi.c:125
    3fa8:	52800001 	mov	w1, #0x0                   	// #0
    3fac:	94002235 	bl	c880 <memset>
/home/jeferson/optee/optee_os-rpi4/lib/libutee/tee_api_arith_mpi.c:126
    3fb0:	52800020 	mov	w0, #0x1                   	// #1
    3fb4:	b9000280 	str	w0, [x20]
/home/jeferson/optee/optee_os-rpi4/lib/libutee/tee_api_arith_mpi.c:129
    3fb8:	f108027f 	cmp	x19, #0x200
    3fbc:	54000109 	b.ls	3fdc <TEE_BigIntInit+0x4c>  // b.plast
/home/jeferson/optee/optee_os-rpi4/lib/libutee/tee_api_arith_mpi.c:130
    3fc0:	90000060 	adrp	x0, f000 <__text_end+0x2508>
    3fc4:	9131d800 	add	x0, x0, #0xc76
    3fc8:	90000062 	adrp	x2, f000 <__text_end+0x2508>
    3fcc:	9100c400 	add	x0, x0, #0x31
    3fd0:	91304c42 	add	x2, x2, #0xc13
    3fd4:	52801041 	mov	w1, #0x82                  	// #130
    3fd8:	97fffdc1 	bl	36dc <api_panic>
/home/jeferson/optee/optee_os-rpi4/lib/libutee/tee_api_arith_mpi.c:131
    3fdc:	51000a73 	sub	w19, w19, #0x2
    3fe0:	79000a93 	strh	w19, [x20, #4]
/home/jeferson/optee/optee_os-rpi4/lib/libutee/tee_api_arith_mpi.c:132
    3fe4:	a94153f3 	ldp	x19, x20, [sp, #16]
    3fe8:	a8c27bfd 	ldp	x29, x30, [sp], #32
    3fec:	d65f03c0 	ret

0000000000003ff0 <__GP11_TEE_BigIntInit>:
__GP11_TEE_BigIntInit():
/home/jeferson/optee/optee_os-rpi4/lib/libutee/tee_api_arith_mpi.c:136
    3ff0:	2a0103e1 	mov	w1, w1
    3ff4:	17ffffe7 	b	3f90 <TEE_BigIntInit>

0000000000003ff8 <TEE_BigIntConvertFromOctetString>:
TEE_BigIntConvertFromOctetString():
/home/jeferson/optee/optee_os-rpi4/lib/libutee/tee_api_arith_mpi.c:142
    3ff8:	a9ba7bfd 	stp	x29, x30, [sp, #-96]!
    3ffc:	d0000064 	adrp	x4, 11000 <_DYNAMIC>
    4000:	910003fd 	mov	x29, sp
    4004:	f9409884 	ldr	x4, [x4, #304]
    4008:	a90153f3 	stp	x19, x20, [sp, #16]
get_mpi():
/home/jeferson/optee/optee_os-rpi4/lib/libutee/tee_api_arith_mpi.c:101
    400c:	910103f4 	add	x20, sp, #0x40
TEE_BigIntConvertFromOctetString():
/home/jeferson/optee/optee_os-rpi4/lib/libutee/tee_api_arith_mpi.c:142
    4010:	a9025bf5 	stp	x21, x22, [sp, #32]
    4014:	aa0003f5 	mov	x21, x0
    4018:	aa0103f6 	mov	x22, x1
    401c:	f9001bf7 	str	x23, [sp, #48]
    4020:	2a0303f3 	mov	w19, w3
    4024:	aa0203f7 	mov	x23, x2
    4028:	f9400080 	ldr	x0, [x4]
    402c:	f9002fe0 	str	x0, [sp, #88]
    4030:	d2800000 	mov	x0, #0x0                   	// #0
get_mpi():
/home/jeferson/optee/optee_os-rpi4/lib/libutee/tee_api_arith_mpi.c:101
    4034:	aa1403e0 	mov	x0, x20
    4038:	94000de3 	bl	77c4 <mbedtls_mpi_init_mempool>
TEE_BigIntConvertFromOctetString():
/home/jeferson/optee/optee_os-rpi4/lib/libutee/tee_api_arith_mpi.c:148
    403c:	aa1703e2 	mov	x2, x23
    4040:	aa1603e1 	mov	x1, x22
    4044:	aa1403e0 	mov	x0, x20
    4048:	94000f8e 	bl	7e80 <mbedtls_mpi_read_binary>
    404c:	35000240 	cbnz	w0, 4094 <TEE_BigIntConvertFromOctetString+0x9c>
/home/jeferson/optee/optee_os-rpi4/lib/libutee/tee_api_arith_mpi.c:153
    4050:	36f80073 	tbz	w19, #31, 405c <TEE_BigIntConvertFromOctetString+0x64>
/home/jeferson/optee/optee_os-rpi4/lib/libutee/tee_api_arith_mpi.c:154
    4054:	12800000 	mov	w0, #0xffffffff            	// #-1
    4058:	790083e0 	strh	w0, [sp, #64]
/home/jeferson/optee/optee_os-rpi4/lib/libutee/tee_api_arith_mpi.c:157
    405c:	aa1503e1 	mov	x1, x21
    4060:	aa1403e0 	mov	x0, x20
    4064:	97fffddc 	bl	37d4 <copy_mpi_to_bigint>
    4068:	2a0003f3 	mov	w19, w0
/home/jeferson/optee/optee_os-rpi4/lib/libutee/tee_api_arith_mpi.c:159
    406c:	aa1403e0 	mov	x0, x20
    4070:	94000ddf 	bl	77ec <mbedtls_mpi_free>
/home/jeferson/optee/optee_os-rpi4/lib/libutee/tee_api_arith_mpi.c:162
    4074:	b0000064 	adrp	x4, 11000 <_DYNAMIC>
    4078:	f9409884 	ldr	x4, [x4, #304]
    407c:	f9402fe0 	ldr	x0, [sp, #88]
    4080:	f9400081 	ldr	x1, [x4]
    4084:	eb010000 	subs	x0, x0, x1
    4088:	d2800001 	mov	x1, #0x0                   	// #0
    408c:	540000e0 	b.eq	40a8 <TEE_BigIntConvertFromOctetString+0xb0>  // b.none
    4090:	97fff0cb 	bl	3bc <__stack_chk_fail>
/home/jeferson/optee/optee_os-rpi4/lib/libutee/tee_api_arith_mpi.c:153
    4094:	36f80073 	tbz	w19, #31, 40a0 <TEE_BigIntConvertFromOctetString+0xa8>
/home/jeferson/optee/optee_os-rpi4/lib/libutee/tee_api_arith_mpi.c:154
    4098:	12800000 	mov	w0, #0xffffffff            	// #-1
    409c:	790083e0 	strh	w0, [sp, #64]
/home/jeferson/optee/optee_os-rpi4/lib/libutee/tee_api_arith_mpi.c:153
    40a0:	1299fe13 	mov	w19, #0xffff300f            	// #-53233
    40a4:	17fffff2 	b	406c <TEE_BigIntConvertFromOctetString+0x74>
/home/jeferson/optee/optee_os-rpi4/lib/libutee/tee_api_arith_mpi.c:162
    40a8:	2a1303e0 	mov	w0, w19
    40ac:	a94153f3 	ldp	x19, x20, [sp, #16]
    40b0:	a9425bf5 	ldp	x21, x22, [sp, #32]
    40b4:	f9401bf7 	ldr	x23, [sp, #48]
    40b8:	a8c67bfd 	ldp	x29, x30, [sp], #96
    40bc:	d65f03c0 	ret

00000000000040c0 <__GP11_TEE_BigIntConvertFromOctetString>:
__GP11_TEE_BigIntConvertFromOctetString():
/home/jeferson/optee/optee_os-rpi4/lib/libutee/tee_api_arith_mpi.c:169
    40c0:	2a0203e2 	mov	w2, w2
    40c4:	17ffffcd 	b	3ff8 <TEE_BigIntConvertFromOctetString>

00000000000040c8 <TEE_BigIntConvertToOctetString>:
TEE_BigIntConvertToOctetString():
/home/jeferson/optee/optee_os-rpi4/lib/libutee/tee_api_arith_mpi.c:174
    40c8:	a9bb7bfd 	stp	x29, x30, [sp, #-80]!
    40cc:	b0000063 	adrp	x3, 11000 <_DYNAMIC>
    40d0:	910003fd 	mov	x29, sp
    40d4:	f9409863 	ldr	x3, [x3, #304]
    40d8:	a90153f3 	stp	x19, x20, [sp, #16]
/home/jeferson/optee/optee_os-rpi4/lib/libutee/tee_api_arith_mpi.c:179
    40dc:	9100c3f4 	add	x20, sp, #0x30
/home/jeferson/optee/optee_os-rpi4/lib/libutee/tee_api_arith_mpi.c:174
    40e0:	a9025bf5 	stp	x21, x22, [sp, #32]
    40e4:	aa0103f5 	mov	x21, x1
    40e8:	aa0203e1 	mov	x1, x2
    40ec:	aa0003f6 	mov	x22, x0
    40f0:	f9400060 	ldr	x0, [x3]
    40f4:	f90027e0 	str	x0, [sp, #72]
    40f8:	d2800000 	mov	x0, #0x0                   	// #0
/home/jeferson/optee/optee_os-rpi4/lib/libutee/tee_api_arith_mpi.c:179
    40fc:	aa1403e0 	mov	x0, x20
    4100:	97fffd8f 	bl	373c <get_mpi>
/home/jeferson/optee/optee_os-rpi4/lib/libutee/tee_api_arith_mpi.c:181
    4104:	aa1403e0 	mov	x0, x20
    4108:	94000f39 	bl	7dec <mbedtls_mpi_size>
    410c:	aa0003f3 	mov	x19, x0
/home/jeferson/optee/optee_os-rpi4/lib/libutee/tee_api_arith_mpi.c:182
    4110:	f94002a0 	ldr	x0, [x21]
    4114:	eb13001f 	cmp	x0, x19
    4118:	540001a3 	b.cc	414c <TEE_BigIntConvertToOctetString+0x84>  // b.lo, b.ul, b.last
/home/jeferson/optee/optee_os-rpi4/lib/libutee/tee_api_arith_mpi.c:183
    411c:	aa1303e2 	mov	x2, x19
    4120:	aa1603e1 	mov	x1, x22
    4124:	aa1403e0 	mov	x0, x20
/home/jeferson/optee/optee_os-rpi4/lib/libutee/tee_api_arith_mpi.c:175
    4128:	52800016 	mov	w22, #0x0                   	// #0
/home/jeferson/optee/optee_os-rpi4/lib/libutee/tee_api_arith_mpi.c:183
    412c:	94000fa4 	bl	7fbc <mbedtls_mpi_write_binary>
    4130:	2a0003e2 	mov	w2, w0
    4134:	340000e0 	cbz	w0, 4150 <TEE_BigIntConvertToOctetString+0x88>
/home/jeferson/optee/optee_os-rpi4/lib/libutee/tee_api_arith_mpi.c:183 (discriminator 1)
    4138:	f0000040 	adrp	x0, f000 <__text_end+0x2508>
    413c:	9131d800 	add	x0, x0, #0xc76
    4140:	91010000 	add	x0, x0, #0x40
    4144:	528016e1 	mov	w1, #0xb7                  	// #183
    4148:	97fffd71 	bl	370c <mpi_panic>
/home/jeferson/optee/optee_os-rpi4/lib/libutee/tee_api_arith_mpi.c:185
    414c:	129ffdf6 	mov	w22, #0xffff0010            	// #-65520
/home/jeferson/optee/optee_os-rpi4/lib/libutee/tee_api_arith_mpi.c:187
    4150:	f90002b3 	str	x19, [x21]
/home/jeferson/optee/optee_os-rpi4/lib/libutee/tee_api_arith_mpi.c:189
    4154:	aa1403e0 	mov	x0, x20
    4158:	94000da5 	bl	77ec <mbedtls_mpi_free>
/home/jeferson/optee/optee_os-rpi4/lib/libutee/tee_api_arith_mpi.c:192
    415c:	b0000063 	adrp	x3, 11000 <_DYNAMIC>
    4160:	f9409863 	ldr	x3, [x3, #304]
    4164:	f94027e0 	ldr	x0, [sp, #72]
    4168:	f9400061 	ldr	x1, [x3]
    416c:	eb010000 	subs	x0, x0, x1
    4170:	d2800001 	mov	x1, #0x0                   	// #0
    4174:	54000040 	b.eq	417c <TEE_BigIntConvertToOctetString+0xb4>  // b.none
    4178:	97fff091 	bl	3bc <__stack_chk_fail>
    417c:	2a1603e0 	mov	w0, w22
    4180:	a94153f3 	ldp	x19, x20, [sp, #16]
    4184:	a9425bf5 	ldp	x21, x22, [sp, #32]
    4188:	a8c57bfd 	ldp	x29, x30, [sp], #80
    418c:	d65f03c0 	ret

0000000000004190 <__GP11_TEE_BigIntConvertToOctetString>:
__GP11_TEE_BigIntConvertToOctetString():
/home/jeferson/optee/optee_os-rpi4/lib/libutee/tee_api_arith_mpi.c:197
    4190:	a9bd7bfd 	stp	x29, x30, [sp, #-48]!
    4194:	910003fd 	mov	x29, sp
    4198:	a90153f3 	stp	x19, x20, [sp, #16]
    419c:	b0000073 	adrp	x19, 11000 <_DYNAMIC>
    41a0:	aa0103f4 	mov	x20, x1
    41a4:	f9409a61 	ldr	x1, [x19, #304]
    41a8:	f9400023 	ldr	x3, [x1]
    41ac:	f90017e3 	str	x3, [sp, #40]
    41b0:	d2800003 	mov	x3, #0x0                   	// #0
/home/jeferson/optee/optee_os-rpi4/lib/libutee/tee_api_arith_mpi.c:199
    41b4:	b9400281 	ldr	w1, [x20]
    41b8:	f90013e1 	str	x1, [sp, #32]
/home/jeferson/optee/optee_os-rpi4/lib/libutee/tee_api_arith_mpi.c:201
    41bc:	910083e1 	add	x1, sp, #0x20
    41c0:	97ffffc2 	bl	40c8 <TEE_BigIntConvertToOctetString>
/home/jeferson/optee/optee_os-rpi4/lib/libutee/tee_api_arith_mpi.c:204
    41c4:	f9409a73 	ldr	x19, [x19, #304]
/home/jeferson/optee/optee_os-rpi4/lib/libutee/tee_api_arith_mpi.c:202
    41c8:	f94013e1 	ldr	x1, [sp, #32]
    41cc:	b9000281 	str	w1, [x20]
/home/jeferson/optee/optee_os-rpi4/lib/libutee/tee_api_arith_mpi.c:204
    41d0:	f94017e1 	ldr	x1, [sp, #40]
    41d4:	f9400262 	ldr	x2, [x19]
    41d8:	eb020021 	subs	x1, x1, x2
    41dc:	d2800002 	mov	x2, #0x0                   	// #0
    41e0:	54000040 	b.eq	41e8 <__GP11_TEE_BigIntConvertToOctetString+0x58>  // b.none
    41e4:	97fff076 	bl	3bc <__stack_chk_fail>
    41e8:	a94153f3 	ldp	x19, x20, [sp, #16]
    41ec:	a8c37bfd 	ldp	x29, x30, [sp], #48
    41f0:	d65f03c0 	ret

00000000000041f4 <TEE_BigIntConvertFromS32>:
TEE_BigIntConvertFromS32():
/home/jeferson/optee/optee_os-rpi4/lib/libutee/tee_api_arith_mpi.c:207
    41f4:	a9bb7bfd 	stp	x29, x30, [sp, #-80]!
    41f8:	910003fd 	mov	x29, sp
    41fc:	a90153f3 	stp	x19, x20, [sp, #16]
    4200:	b0000073 	adrp	x19, 11000 <_DYNAMIC>
/home/jeferson/optee/optee_os-rpi4/lib/libutee/tee_api_arith_mpi.c:210
    4204:	9100c3f4 	add	x20, sp, #0x30
/home/jeferson/optee/optee_os-rpi4/lib/libutee/tee_api_arith_mpi.c:207
    4208:	a9025bf5 	stp	x21, x22, [sp, #32]
    420c:	aa0003f5 	mov	x21, x0
    4210:	2a0103f6 	mov	w22, w1
    4214:	f9409a60 	ldr	x0, [x19, #304]
    4218:	f9400001 	ldr	x1, [x0]
    421c:	f90027e1 	str	x1, [sp, #72]
    4220:	d2800001 	mov	x1, #0x0                   	// #0
/home/jeferson/optee/optee_os-rpi4/lib/libutee/tee_api_arith_mpi.c:210
    4224:	aa1403e0 	mov	x0, x20
    4228:	aa1503e1 	mov	x1, x21
    422c:	97fffd44 	bl	373c <get_mpi>
/home/jeferson/optee/optee_os-rpi4/lib/libutee/tee_api_arith_mpi.c:212
    4230:	2a1603e1 	mov	w1, w22
    4234:	aa1403e0 	mov	x0, x20
    4238:	94000e79 	bl	7c1c <mbedtls_mpi_lset>
    423c:	340000e0 	cbz	w0, 4258 <TEE_BigIntConvertFromS32+0x64>
    4240:	2a0003e2 	mov	w2, w0
/home/jeferson/optee/optee_os-rpi4/lib/libutee/tee_api_arith_mpi.c:212 (discriminator 1)
    4244:	52801a81 	mov	w1, #0xd4                  	// #212
/home/jeferson/optee/optee_os-rpi4/lib/libutee/tee_api_arith_mpi.c:214 (discriminator 1)
    4248:	f0000040 	adrp	x0, f000 <__text_end+0x2508>
    424c:	9131d800 	add	x0, x0, #0xc76
    4250:	91017c00 	add	x0, x0, #0x5f
    4254:	97fffd2e 	bl	370c <mpi_panic>
/home/jeferson/optee/optee_os-rpi4/lib/libutee/tee_api_arith_mpi.c:214 (discriminator 2)
    4258:	aa1503e1 	mov	x1, x21
    425c:	aa1403e0 	mov	x0, x20
    4260:	97fffd5d 	bl	37d4 <copy_mpi_to_bigint>
    4264:	2a0003e2 	mov	w2, w0
    4268:	34000060 	cbz	w0, 4274 <TEE_BigIntConvertFromS32+0x80>
/home/jeferson/optee/optee_os-rpi4/lib/libutee/tee_api_arith_mpi.c:214 (discriminator 1)
    426c:	52801ac1 	mov	w1, #0xd6                  	// #214
    4270:	17fffff6 	b	4248 <TEE_BigIntConvertFromS32+0x54>
/home/jeferson/optee/optee_os-rpi4/lib/libutee/tee_api_arith_mpi.c:215 (discriminator 2)
    4274:	aa1403e0 	mov	x0, x20
    4278:	94000d5d 	bl	77ec <mbedtls_mpi_free>
/home/jeferson/optee/optee_os-rpi4/lib/libutee/tee_api_arith_mpi.c:216 (discriminator 2)
    427c:	f9409a73 	ldr	x19, [x19, #304]
    4280:	f94027e0 	ldr	x0, [sp, #72]
    4284:	f9400261 	ldr	x1, [x19]
    4288:	eb010000 	subs	x0, x0, x1
    428c:	d2800001 	mov	x1, #0x0                   	// #0
    4290:	54000040 	b.eq	4298 <TEE_BigIntConvertFromS32+0xa4>  // b.none
/home/jeferson/optee/optee_os-rpi4/lib/libutee/tee_api_arith_mpi.c:216
    4294:	97fff04a 	bl	3bc <__stack_chk_fail>
    4298:	a94153f3 	ldp	x19, x20, [sp, #16]
    429c:	a9425bf5 	ldp	x21, x22, [sp, #32]
    42a0:	a8c57bfd 	ldp	x29, x30, [sp], #80
    42a4:	d65f03c0 	ret

00000000000042a8 <TEE_BigIntConvertToS32>:
TEE_BigIntConvertToS32():
/home/jeferson/optee/optee_os-rpi4/lib/libutee/tee_api_arith_mpi.c:219
    42a8:	a9bb7bfd 	stp	x29, x30, [sp, #-80]!
    42ac:	b0000062 	adrp	x2, 11000 <_DYNAMIC>
    42b0:	910003fd 	mov	x29, sp
    42b4:	f9409842 	ldr	x2, [x2, #304]
    42b8:	a90153f3 	stp	x19, x20, [sp, #16]
/home/jeferson/optee/optee_os-rpi4/lib/libutee/tee_api_arith_mpi.c:224
    42bc:	9100c3f4 	add	x20, sp, #0x30
/home/jeferson/optee/optee_os-rpi4/lib/libutee/tee_api_arith_mpi.c:219
    42c0:	aa0003f3 	mov	x19, x0
    42c4:	f9400040 	ldr	x0, [x2]
    42c8:	f90027e0 	str	x0, [sp, #72]
    42cc:	d2800000 	mov	x0, #0x0                   	// #0
/home/jeferson/optee/optee_os-rpi4/lib/libutee/tee_api_arith_mpi.c:224
    42d0:	aa1403e0 	mov	x0, x20
    42d4:	97fffd1a 	bl	373c <get_mpi>
/home/jeferson/optee/optee_os-rpi4/lib/libutee/tee_api_arith_mpi.c:226
    42d8:	9100b3e1 	add	x1, sp, #0x2c
    42dc:	aa1403e0 	mov	x0, x20
    42e0:	d2800082 	mov	x2, #0x4                   	// #4
    42e4:	94000f36 	bl	7fbc <mbedtls_mpi_write_binary>
    42e8:	34000180 	cbz	w0, 4318 <TEE_BigIntConvertToS32+0x70>
/home/jeferson/optee/optee_os-rpi4/lib/libutee/tee_api_arith_mpi.c:227
    42ec:	1299fe13 	mov	w19, #0xffff300f            	// #-53233
/home/jeferson/optee/optee_os-rpi4/lib/libutee/tee_api_arith_mpi.c:240
    42f0:	aa1403e0 	mov	x0, x20
    42f4:	94000d3e 	bl	77ec <mbedtls_mpi_free>
/home/jeferson/optee/optee_os-rpi4/lib/libutee/tee_api_arith_mpi.c:243
    42f8:	b0000062 	adrp	x2, 11000 <_DYNAMIC>
    42fc:	f9409842 	ldr	x2, [x2, #304]
    4300:	f94027e0 	ldr	x0, [sp, #72]
    4304:	f9400041 	ldr	x1, [x2]
    4308:	eb010000 	subs	x0, x0, x1
    430c:	d2800001 	mov	x1, #0x0                   	// #0
    4310:	54000220 	b.eq	4354 <TEE_BigIntConvertToS32+0xac>  // b.none
    4314:	97fff02a 	bl	3bc <__stack_chk_fail>
/home/jeferson/optee/optee_os-rpi4/lib/libutee/tee_api_arith_mpi.c:232
    4318:	b9402fe1 	ldr	w1, [sp, #44]
/home/jeferson/optee/optee_os-rpi4/lib/libutee/tee_api_arith_mpi.c:231
    431c:	79c063e2 	ldrsh	w2, [sp, #48]
/home/jeferson/optee/optee_os-rpi4/lib/libutee/tee_api_arith_mpi.c:232
    4320:	5ac00820 	rev	w0, w1
    4324:	5ac00821 	rev	w1, w1
/home/jeferson/optee/optee_os-rpi4/lib/libutee/tee_api_arith_mpi.c:231
    4328:	7100005f 	cmp	w2, #0x0
    432c:	540000cd 	b.le	4344 <TEE_BigIntConvertToS32+0x9c>
/home/jeferson/optee/optee_os-rpi4/lib/libutee/tee_api_arith_mpi.c:232
    4330:	eb20c03f 	cmp	x1, w0, sxtw
    4334:	b9000260 	str	w0, [x19]
/home/jeferson/optee/optee_os-rpi4/lib/libutee/tee_api_arith_mpi.c:235
    4338:	54fffda1 	b.ne	42ec <TEE_BigIntConvertToS32+0x44>  // b.any
/home/jeferson/optee/optee_os-rpi4/lib/libutee/tee_api_arith_mpi.c:220
    433c:	52800013 	mov	w19, #0x0                   	// #0
    4340:	17ffffec 	b	42f0 <TEE_BigIntConvertToS32+0x48>
/home/jeferson/optee/optee_os-rpi4/lib/libutee/tee_api_arith_mpi.c:235
    4344:	cb0103e1 	neg	x1, x1
    4348:	b9000261 	str	w1, [x19]
    434c:	eb21c03f 	cmp	x1, w1, sxtw
    4350:	17fffffa 	b	4338 <TEE_BigIntConvertToS32+0x90>
/home/jeferson/optee/optee_os-rpi4/lib/libutee/tee_api_arith_mpi.c:243
    4354:	2a1303e0 	mov	w0, w19
    4358:	a94153f3 	ldp	x19, x20, [sp, #16]
    435c:	a8c57bfd 	ldp	x29, x30, [sp], #80
    4360:	d65f03c0 	ret

0000000000004364 <TEE_BigIntCmp>:
TEE_BigIntCmp():
/home/jeferson/optee/optee_os-rpi4/lib/libutee/tee_api_arith_mpi.c:246
    4364:	a9b97bfd 	stp	x29, x30, [sp, #-112]!
    4368:	910003fd 	mov	x29, sp
    436c:	a9025bf5 	stp	x21, x22, [sp, #32]
    4370:	b0000075 	adrp	x21, 11000 <_DYNAMIC>
    4374:	aa0103f6 	mov	x22, x1
    4378:	f9409aa1 	ldr	x1, [x21, #304]
    437c:	a90153f3 	stp	x19, x20, [sp, #16]
/home/jeferson/optee/optee_os-rpi4/lib/libutee/tee_api_arith_mpi.c:251
    4380:	9100e3f4 	add	x20, sp, #0x38
/home/jeferson/optee/optee_os-rpi4/lib/libutee/tee_api_arith_mpi.c:246
    4384:	f9400022 	ldr	x2, [x1]
    4388:	f90037e2 	str	x2, [sp, #104]
    438c:	d2800002 	mov	x2, #0x0                   	// #0
/home/jeferson/optee/optee_os-rpi4/lib/libutee/tee_api_arith_mpi.c:252
    4390:	910143f3 	add	x19, sp, #0x50
/home/jeferson/optee/optee_os-rpi4/lib/libutee/tee_api_arith_mpi.c:251
    4394:	aa0003e1 	mov	x1, x0
    4398:	aa1403e0 	mov	x0, x20
    439c:	97fffce8 	bl	373c <get_mpi>
/home/jeferson/optee/optee_os-rpi4/lib/libutee/tee_api_arith_mpi.c:252
    43a0:	aa1603e1 	mov	x1, x22
    43a4:	aa1303e0 	mov	x0, x19
    43a8:	97fffce5 	bl	373c <get_mpi>
/home/jeferson/optee/optee_os-rpi4/lib/libutee/tee_api_arith_mpi.c:254
    43ac:	aa1303e1 	mov	x1, x19
    43b0:	aa1403e0 	mov	x0, x20
    43b4:	94000fce 	bl	82ec <mbedtls_mpi_cmp_mpi>
    43b8:	2a0003f6 	mov	w22, w0
/home/jeferson/optee/optee_os-rpi4/lib/libutee/tee_api_arith_mpi.c:256
    43bc:	aa1403e0 	mov	x0, x20
    43c0:	94000d0b 	bl	77ec <mbedtls_mpi_free>
/home/jeferson/optee/optee_os-rpi4/lib/libutee/tee_api_arith_mpi.c:257
    43c4:	aa1303e0 	mov	x0, x19
    43c8:	94000d09 	bl	77ec <mbedtls_mpi_free>
/home/jeferson/optee/optee_os-rpi4/lib/libutee/tee_api_arith_mpi.c:260
    43cc:	f9409ab5 	ldr	x21, [x21, #304]
    43d0:	f94037e0 	ldr	x0, [sp, #104]
    43d4:	f94002a1 	ldr	x1, [x21]
    43d8:	eb010000 	subs	x0, x0, x1
    43dc:	d2800001 	mov	x1, #0x0                   	// #0
    43e0:	54000040 	b.eq	43e8 <TEE_BigIntCmp+0x84>  // b.none
    43e4:	97ffeff6 	bl	3bc <__stack_chk_fail>
    43e8:	2a1603e0 	mov	w0, w22
    43ec:	a94153f3 	ldp	x19, x20, [sp, #16]
    43f0:	a9425bf5 	ldp	x21, x22, [sp, #32]
    43f4:	a8c77bfd 	ldp	x29, x30, [sp], #112
    43f8:	d65f03c0 	ret

00000000000043fc <TEE_BigIntCmpS32>:
TEE_BigIntCmpS32():
/home/jeferson/optee/optee_os-rpi4/lib/libutee/tee_api_arith_mpi.c:263
    43fc:	a9bb7bfd 	stp	x29, x30, [sp, #-80]!
    4400:	910003fd 	mov	x29, sp
    4404:	a90153f3 	stp	x19, x20, [sp, #16]
    4408:	b0000074 	adrp	x20, 11000 <_DYNAMIC>
/home/jeferson/optee/optee_os-rpi4/lib/libutee/tee_api_arith_mpi.c:267
    440c:	9100c3f3 	add	x19, sp, #0x30
/home/jeferson/optee/optee_os-rpi4/lib/libutee/tee_api_arith_mpi.c:263
    4410:	f90013f5 	str	x21, [sp, #32]
    4414:	2a0103f5 	mov	w21, w1
    4418:	f9409a81 	ldr	x1, [x20, #304]
    441c:	f9400022 	ldr	x2, [x1]
    4420:	f90027e2 	str	x2, [sp, #72]
    4424:	d2800002 	mov	x2, #0x0                   	// #0
/home/jeferson/optee/optee_os-rpi4/lib/libutee/tee_api_arith_mpi.c:267
    4428:	aa0003e1 	mov	x1, x0
    442c:	aa1303e0 	mov	x0, x19
    4430:	97fffcc3 	bl	373c <get_mpi>
/home/jeferson/optee/optee_os-rpi4/lib/libutee/tee_api_arith_mpi.c:269
    4434:	2a1503e1 	mov	w1, w21
    4438:	aa1303e0 	mov	x0, x19
    443c:	94000fe0 	bl	83bc <mbedtls_mpi_cmp_int>
    4440:	2a0003f5 	mov	w21, w0
/home/jeferson/optee/optee_os-rpi4/lib/libutee/tee_api_arith_mpi.c:271
    4444:	aa1303e0 	mov	x0, x19
    4448:	94000ce9 	bl	77ec <mbedtls_mpi_free>
/home/jeferson/optee/optee_os-rpi4/lib/libutee/tee_api_arith_mpi.c:274
    444c:	f9409a94 	ldr	x20, [x20, #304]
    4450:	f94027e0 	ldr	x0, [sp, #72]
    4454:	f9400281 	ldr	x1, [x20]
    4458:	eb010000 	subs	x0, x0, x1
    445c:	d2800001 	mov	x1, #0x0                   	// #0
    4460:	54000040 	b.eq	4468 <TEE_BigIntCmpS32+0x6c>  // b.none
    4464:	97ffefd6 	bl	3bc <__stack_chk_fail>
    4468:	2a1503e0 	mov	w0, w21
    446c:	a94153f3 	ldp	x19, x20, [sp, #16]
    4470:	f94013f5 	ldr	x21, [sp, #32]
    4474:	a8c57bfd 	ldp	x29, x30, [sp], #80
    4478:	d65f03c0 	ret

000000000000447c <bigint_binary_mod>:
bigint_binary_mod():
/home/jeferson/optee/optee_os-rpi4/lib/libutee/tee_api_arith_mpi.c:437
    447c:	a9b27bfd 	stp	x29, x30, [sp, #-224]!
    4480:	b0000065 	adrp	x5, 11000 <_DYNAMIC>
    4484:	910003fd 	mov	x29, sp
    4488:	f94098a5 	ldr	x5, [x5, #304]
    448c:	a90153f3 	stp	x19, x20, [sp, #16]
    4490:	aa0003f4 	mov	x20, x0
    4494:	a9025bf5 	stp	x21, x22, [sp, #32]
    4498:	aa0203f5 	mov	x21, x2
    449c:	aa0303f6 	mov	x22, x3
    44a0:	a90363f7 	stp	x23, x24, [sp, #48]
    44a4:	aa0103f7 	mov	x23, x1
/home/jeferson/optee/optee_os-rpi4/lib/libutee/tee_api_arith_mpi.c:446
    44a8:	52800041 	mov	w1, #0x2                   	// #2
/home/jeferson/optee/optee_os-rpi4/lib/libutee/tee_api_arith_mpi.c:437
    44ac:	a9046bf9 	stp	x25, x26, [sp, #64]
    44b0:	aa0403f9 	mov	x25, x4
    44b4:	f9002bfb 	str	x27, [sp, #80]
    44b8:	f94000a0 	ldr	x0, [x5]
    44bc:	f9006fe0 	str	x0, [sp, #216]
    44c0:	d2800000 	mov	x0, #0x0                   	// #0
/home/jeferson/optee/optee_os-rpi4/lib/libutee/tee_api_arith_mpi.c:446
    44c4:	aa0303e0 	mov	x0, x3
    44c8:	97ffffcd 	bl	43fc <TEE_BigIntCmpS32>
    44cc:	36f80100 	tbz	w0, #31, 44ec <bigint_binary_mod+0x70>
/home/jeferson/optee/optee_os-rpi4/lib/libutee/tee_api_arith_mpi.c:447
    44d0:	f0000040 	adrp	x0, f000 <__text_end+0x2508>
    44d4:	9131d800 	add	x0, x0, #0xc76
    44d8:	f0000042 	adrp	x2, f000 <__text_end+0x2508>
    44dc:	9101e000 	add	x0, x0, #0x78
    44e0:	91309042 	add	x2, x2, #0xc24
    44e4:	528037e1 	mov	w1, #0x1bf                 	// #447
    44e8:	97fffc7d 	bl	36dc <api_panic>
/home/jeferson/optee/optee_os-rpi4/lib/libutee/tee_api_arith_mpi.c:449
    44ec:	910183f3 	add	x19, sp, #0x60
    44f0:	aa1403e1 	mov	x1, x20
    44f4:	aa1303e0 	mov	x0, x19
/home/jeferson/optee/optee_os-rpi4/lib/libutee/tee_api_arith_mpi.c:450
    44f8:	9102a3f8 	add	x24, sp, #0xa8
/home/jeferson/optee/optee_os-rpi4/lib/libutee/tee_api_arith_mpi.c:449
    44fc:	97fffc90 	bl	373c <get_mpi>
/home/jeferson/optee/optee_os-rpi4/lib/libutee/tee_api_arith_mpi.c:450
    4500:	9101e3fb 	add	x27, sp, #0x78
    4504:	aa1603e1 	mov	x1, x22
    4508:	aa1803e0 	mov	x0, x24
    450c:	97fffc8c 	bl	373c <get_mpi>
/home/jeferson/optee/optee_os-rpi4/lib/libutee/tee_api_arith_mpi.c:452
    4510:	eb17029f 	cmp	x20, x23
    4514:	54000380 	b.eq	4584 <bigint_binary_mod+0x108>  // b.none
/home/jeferson/optee/optee_os-rpi4/lib/libutee/tee_api_arith_mpi.c:442
    4518:	aa1b03f6 	mov	x22, x27
/home/jeferson/optee/optee_os-rpi4/lib/libutee/tee_api_arith_mpi.c:455
    451c:	aa1703e1 	mov	x1, x23
    4520:	aa1b03e0 	mov	x0, x27
    4524:	97fffc86 	bl	373c <get_mpi>
/home/jeferson/optee/optee_os-rpi4/lib/libutee/tee_api_arith_mpi.c:457
    4528:	eb15029f 	cmp	x20, x21
    452c:	910243fa 	add	x26, sp, #0x90
    4530:	540002e0 	b.eq	458c <bigint_binary_mod+0x110>  // b.none
/home/jeferson/optee/optee_os-rpi4/lib/libutee/tee_api_arith_mpi.c:459
    4534:	eb1502ff 	cmp	x23, x21
    4538:	540002e0 	b.eq	4594 <bigint_binary_mod+0x118>  // b.none
/home/jeferson/optee/optee_os-rpi4/lib/libutee/tee_api_arith_mpi.c:462
    453c:	aa1503e1 	mov	x1, x21
/home/jeferson/optee/optee_os-rpi4/lib/libutee/tee_api_arith_mpi.c:443
    4540:	aa1a03f5 	mov	x21, x26
/home/jeferson/optee/optee_os-rpi4/lib/libutee/tee_api_arith_mpi.c:462
    4544:	aa1a03e0 	mov	x0, x26
    4548:	97fffc7d 	bl	373c <get_mpi>
get_mpi():
/home/jeferson/optee/optee_os-rpi4/lib/libutee/tee_api_arith_mpi.c:101
    454c:	910303f7 	add	x23, sp, #0xc0
    4550:	aa1703e0 	mov	x0, x23
    4554:	94000c9c 	bl	77c4 <mbedtls_mpi_init_mempool>
bigint_binary_mod():
/home/jeferson/optee/optee_os-rpi4/lib/libutee/tee_api_arith_mpi.c:466
    4558:	aa1503e2 	mov	x2, x21
    455c:	aa1603e1 	mov	x1, x22
    4560:	aa1703e0 	mov	x0, x23
    4564:	d63f0320 	blr	x25
    4568:	2a0003e2 	mov	w2, w0
    456c:	34000180 	cbz	w0, 459c <bigint_binary_mod+0x120>
/home/jeferson/optee/optee_os-rpi4/lib/libutee/tee_api_arith_mpi.c:466 (discriminator 1)
    4570:	52803a41 	mov	w1, #0x1d2                 	// #466
/home/jeferson/optee/optee_os-rpi4/lib/libutee/tee_api_arith_mpi.c:467 (discriminator 1)
    4574:	f0000040 	adrp	x0, f000 <__text_end+0x2508>
    4578:	9131d800 	add	x0, x0, #0xc76
    457c:	9101e000 	add	x0, x0, #0x78
    4580:	97fffc63 	bl	370c <mpi_panic>
/home/jeferson/optee/optee_os-rpi4/lib/libutee/tee_api_arith_mpi.c:453
    4584:	aa1303f6 	mov	x22, x19
    4588:	17ffffe8 	b	4528 <bigint_binary_mod+0xac>
/home/jeferson/optee/optee_os-rpi4/lib/libutee/tee_api_arith_mpi.c:458
    458c:	aa1303f5 	mov	x21, x19
    4590:	17ffffef 	b	454c <bigint_binary_mod+0xd0>
/home/jeferson/optee/optee_os-rpi4/lib/libutee/tee_api_arith_mpi.c:460
    4594:	aa1603f5 	mov	x21, x22
    4598:	17ffffed 	b	454c <bigint_binary_mod+0xd0>
/home/jeferson/optee/optee_os-rpi4/lib/libutee/tee_api_arith_mpi.c:467 (discriminator 2)
    459c:	aa1803e2 	mov	x2, x24
    45a0:	aa1703e1 	mov	x1, x23
    45a4:	aa1303e0 	mov	x0, x19
    45a8:	94001341 	bl	92ac <mbedtls_mpi_mod_mpi>
    45ac:	2a0003e2 	mov	w2, w0
    45b0:	34000060 	cbz	w0, 45bc <bigint_binary_mod+0x140>
/home/jeferson/optee/optee_os-rpi4/lib/libutee/tee_api_arith_mpi.c:467 (discriminator 1)
    45b4:	52803a61 	mov	w1, #0x1d3                 	// #467
    45b8:	17ffffef 	b	4574 <bigint_binary_mod+0xf8>
/home/jeferson/optee/optee_os-rpi4/lib/libutee/tee_api_arith_mpi.c:469 (discriminator 2)
    45bc:	aa1403e1 	mov	x1, x20
    45c0:	aa1303e0 	mov	x0, x19
    45c4:	97fffc84 	bl	37d4 <copy_mpi_to_bigint>
    45c8:	2a0003e2 	mov	w2, w0
    45cc:	34000060 	cbz	w0, 45d8 <bigint_binary_mod+0x15c>
/home/jeferson/optee/optee_os-rpi4/lib/libutee/tee_api_arith_mpi.c:469 (discriminator 1)
    45d0:	52803aa1 	mov	w1, #0x1d5                 	// #469
    45d4:	17ffffe8 	b	4574 <bigint_binary_mod+0xf8>
/home/jeferson/optee/optee_os-rpi4/lib/libutee/tee_api_arith_mpi.c:470 (discriminator 2)
    45d8:	aa1303e0 	mov	x0, x19
    45dc:	94000c84 	bl	77ec <mbedtls_mpi_free>
/home/jeferson/optee/optee_os-rpi4/lib/libutee/tee_api_arith_mpi.c:471 (discriminator 2)
    45e0:	eb1b02df 	cmp	x22, x27
    45e4:	54000061 	b.ne	45f0 <bigint_binary_mod+0x174>  // b.any
/home/jeferson/optee/optee_os-rpi4/lib/libutee/tee_api_arith_mpi.c:472
    45e8:	aa1603e0 	mov	x0, x22
    45ec:	94000c80 	bl	77ec <mbedtls_mpi_free>
/home/jeferson/optee/optee_os-rpi4/lib/libutee/tee_api_arith_mpi.c:473
    45f0:	eb1a02bf 	cmp	x21, x26
    45f4:	54000061 	b.ne	4600 <bigint_binary_mod+0x184>  // b.any
/home/jeferson/optee/optee_os-rpi4/lib/libutee/tee_api_arith_mpi.c:474
    45f8:	aa1503e0 	mov	x0, x21
    45fc:	94000c7c 	bl	77ec <mbedtls_mpi_free>
/home/jeferson/optee/optee_os-rpi4/lib/libutee/tee_api_arith_mpi.c:475
    4600:	aa1703e0 	mov	x0, x23
    4604:	94000c7a 	bl	77ec <mbedtls_mpi_free>
/home/jeferson/optee/optee_os-rpi4/lib/libutee/tee_api_arith_mpi.c:476
    4608:	aa1803e0 	mov	x0, x24
    460c:	94000c78 	bl	77ec <mbedtls_mpi_free>
/home/jeferson/optee/optee_os-rpi4/lib/libutee/tee_api_arith_mpi.c:477
    4610:	b0000065 	adrp	x5, 11000 <_DYNAMIC>
    4614:	f94098a5 	ldr	x5, [x5, #304]
    4618:	f9406fe0 	ldr	x0, [sp, #216]
    461c:	f94000a1 	ldr	x1, [x5]
    4620:	eb010000 	subs	x0, x0, x1
    4624:	d2800001 	mov	x1, #0x0                   	// #0
    4628:	54000040 	b.eq	4630 <bigint_binary_mod+0x1b4>  // b.none
    462c:	97ffef64 	bl	3bc <__stack_chk_fail>
    4630:	a94153f3 	ldp	x19, x20, [sp, #16]
    4634:	a9425bf5 	ldp	x21, x22, [sp, #32]
    4638:	a94363f7 	ldp	x23, x24, [sp, #48]
    463c:	a9446bf9 	ldp	x25, x26, [sp, #64]
    4640:	f9402bfb 	ldr	x27, [sp, #80]
    4644:	a8ce7bfd 	ldp	x29, x30, [sp], #224
    4648:	d65f03c0 	ret

000000000000464c <TEE_BigIntShiftRight>:
TEE_BigIntShiftRight():
/home/jeferson/optee/optee_os-rpi4/lib/libutee/tee_api_arith_mpi.c:277
    464c:	a9b77bfd 	stp	x29, x30, [sp, #-144]!
    4650:	b0000063 	adrp	x3, 11000 <_DYNAMIC>
    4654:	910003fd 	mov	x29, sp
    4658:	f9409863 	ldr	x3, [x3, #304]
    465c:	a90153f3 	stp	x19, x20, [sp, #16]
    4660:	aa0003f4 	mov	x20, x0
    4664:	a9025bf5 	stp	x21, x22, [sp, #32]
/home/jeferson/optee/optee_os-rpi4/lib/libutee/tee_api_arith_mpi.c:281
    4668:	910103f3 	add	x19, sp, #0x40
/home/jeferson/optee/optee_os-rpi4/lib/libutee/tee_api_arith_mpi.c:277
    466c:	aa0103f6 	mov	x22, x1
    4670:	f9001bf7 	str	x23, [sp, #48]
/home/jeferson/optee/optee_os-rpi4/lib/libutee/tee_api_arith_mpi.c:281
    4674:	aa0003e1 	mov	x1, x0
/home/jeferson/optee/optee_os-rpi4/lib/libutee/tee_api_arith_mpi.c:277
    4678:	aa0203f7 	mov	x23, x2
    467c:	f9400060 	ldr	x0, [x3]
    4680:	f90047e0 	str	x0, [sp, #136]
    4684:	d2800000 	mov	x0, #0x0                   	// #0
/home/jeferson/optee/optee_os-rpi4/lib/libutee/tee_api_arith_mpi.c:281
    4688:	aa1303e0 	mov	x0, x19
    468c:	97fffc2c 	bl	373c <get_mpi>
/home/jeferson/optee/optee_os-rpi4/lib/libutee/tee_api_arith_mpi.c:283
    4690:	eb16029f 	cmp	x20, x22
    4694:	54000161 	b.ne	46c0 <TEE_BigIntShiftRight+0x74>  // b.any
/home/jeferson/optee/optee_os-rpi4/lib/libutee/tee_api_arith_mpi.c:284
    4698:	aa1703e1 	mov	x1, x23
    469c:	aa1303e0 	mov	x0, x19
    46a0:	94000ebc 	bl	8190 <mbedtls_mpi_shift_r>
    46a4:	2a0003e2 	mov	w2, w0
    46a8:	34000760 	cbz	w0, 4794 <TEE_BigIntShiftRight+0x148>
/home/jeferson/optee/optee_os-rpi4/lib/libutee/tee_api_arith_mpi.c:284 (discriminator 1)
    46ac:	52802381 	mov	w1, #0x11c                 	// #284
/home/jeferson/optee/optee_os-rpi4/lib/libutee/tee_api_arith_mpi.c:291 (discriminator 1)
    46b0:	f0000040 	adrp	x0, f000 <__text_end+0x2508>
    46b4:	9131d800 	add	x0, x0, #0xc76
    46b8:	91022800 	add	x0, x0, #0x8a
    46bc:	97fffc14 	bl	370c <mpi_panic>
/home/jeferson/optee/optee_os-rpi4/lib/libutee/tee_api_arith_mpi.c:288
    46c0:	aa1603e1 	mov	x1, x22
    46c4:	910163f5 	add	x21, sp, #0x58
    46c8:	aa1503e0 	mov	x0, x21
    46cc:	97fffc1c 	bl	373c <get_mpi>
/home/jeferson/optee/optee_os-rpi4/lib/libutee/tee_api_arith_mpi.c:290
    46d0:	aa1303e0 	mov	x0, x19
    46d4:	94000dc6 	bl	7dec <mbedtls_mpi_size>
    46d8:	aa0003f6 	mov	x22, x0
    46dc:	aa1503e0 	mov	x0, x21
    46e0:	94000dc3 	bl	7dec <mbedtls_mpi_size>
    46e4:	eb0002df 	cmp	x22, x0
    46e8:	540001e3 	b.cc	4724 <TEE_BigIntShiftRight+0xd8>  // b.lo, b.ul, b.last
/home/jeferson/optee/optee_os-rpi4/lib/libutee/tee_api_arith_mpi.c:291
    46ec:	aa1503e1 	mov	x1, x21
    46f0:	aa1303e0 	mov	x0, x19
    46f4:	94000cf4 	bl	7ac4 <mbedtls_mpi_copy>
    46f8:	2a0003e2 	mov	w2, w0
    46fc:	34000060 	cbz	w0, 4708 <TEE_BigIntShiftRight+0xbc>
/home/jeferson/optee/optee_os-rpi4/lib/libutee/tee_api_arith_mpi.c:291 (discriminator 1)
    4700:	52802461 	mov	w1, #0x123                 	// #291
    4704:	17ffffeb 	b	46b0 <TEE_BigIntShiftRight+0x64>
/home/jeferson/optee/optee_os-rpi4/lib/libutee/tee_api_arith_mpi.c:292 (discriminator 2)
    4708:	aa1703e1 	mov	x1, x23
    470c:	aa1303e0 	mov	x0, x19
    4710:	94000ea0 	bl	8190 <mbedtls_mpi_shift_r>
    4714:	2a0003e2 	mov	w2, w0
    4718:	340003a0 	cbz	w0, 478c <TEE_BigIntShiftRight+0x140>
/home/jeferson/optee/optee_os-rpi4/lib/libutee/tee_api_arith_mpi.c:292 (discriminator 1)
    471c:	52802481 	mov	w1, #0x124                 	// #292
    4720:	17ffffe4 	b	46b0 <TEE_BigIntShiftRight+0x64>
get_mpi():
/home/jeferson/optee/optee_os-rpi4/lib/libutee/tee_api_arith_mpi.c:101
    4724:	9101c3f6 	add	x22, sp, #0x70
    4728:	aa1603e0 	mov	x0, x22
    472c:	94000c26 	bl	77c4 <mbedtls_mpi_init_mempool>
TEE_BigIntShiftRight():
/home/jeferson/optee/optee_os-rpi4/lib/libutee/tee_api_arith_mpi.c:303
    4730:	aa1503e1 	mov	x1, x21
    4734:	aa1603e0 	mov	x0, x22
    4738:	94000ce3 	bl	7ac4 <mbedtls_mpi_copy>
    473c:	2a0003e2 	mov	w2, w0
    4740:	34000060 	cbz	w0, 474c <TEE_BigIntShiftRight+0x100>
/home/jeferson/optee/optee_os-rpi4/lib/libutee/tee_api_arith_mpi.c:303 (discriminator 1)
    4744:	528025e1 	mov	w1, #0x12f                 	// #303
    4748:	17ffffda 	b	46b0 <TEE_BigIntShiftRight+0x64>
/home/jeferson/optee/optee_os-rpi4/lib/libutee/tee_api_arith_mpi.c:304 (discriminator 2)
    474c:	aa1703e1 	mov	x1, x23
    4750:	aa1603e0 	mov	x0, x22
    4754:	94000e8f 	bl	8190 <mbedtls_mpi_shift_r>
    4758:	2a0003e2 	mov	w2, w0
    475c:	34000060 	cbz	w0, 4768 <TEE_BigIntShiftRight+0x11c>
/home/jeferson/optee/optee_os-rpi4/lib/libutee/tee_api_arith_mpi.c:304 (discriminator 1)
    4760:	52802601 	mov	w1, #0x130                 	// #304
    4764:	17ffffd3 	b	46b0 <TEE_BigIntShiftRight+0x64>
/home/jeferson/optee/optee_os-rpi4/lib/libutee/tee_api_arith_mpi.c:305 (discriminator 2)
    4768:	aa1603e1 	mov	x1, x22
    476c:	aa1303e0 	mov	x0, x19
    4770:	94000cd5 	bl	7ac4 <mbedtls_mpi_copy>
    4774:	2a0003e2 	mov	w2, w0
    4778:	34000060 	cbz	w0, 4784 <TEE_BigIntShiftRight+0x138>
/home/jeferson/optee/optee_os-rpi4/lib/libutee/tee_api_arith_mpi.c:305 (discriminator 1)
    477c:	52802621 	mov	w1, #0x131                 	// #305
    4780:	17ffffcc 	b	46b0 <TEE_BigIntShiftRight+0x64>
/home/jeferson/optee/optee_os-rpi4/lib/libutee/tee_api_arith_mpi.c:307 (discriminator 2)
    4784:	aa1603e0 	mov	x0, x22
    4788:	94000c19 	bl	77ec <mbedtls_mpi_free>
/home/jeferson/optee/optee_os-rpi4/lib/libutee/tee_api_arith_mpi.c:310
    478c:	aa1503e0 	mov	x0, x21
    4790:	94000c17 	bl	77ec <mbedtls_mpi_free>
/home/jeferson/optee/optee_os-rpi4/lib/libutee/tee_api_arith_mpi.c:313
    4794:	aa1403e1 	mov	x1, x20
    4798:	aa1303e0 	mov	x0, x19
    479c:	97fffc0e 	bl	37d4 <copy_mpi_to_bigint>
    47a0:	2a0003e2 	mov	w2, w0
    47a4:	34000060 	cbz	w0, 47b0 <TEE_BigIntShiftRight+0x164>
/home/jeferson/optee/optee_os-rpi4/lib/libutee/tee_api_arith_mpi.c:313 (discriminator 1)
    47a8:	52802721 	mov	w1, #0x139                 	// #313
    47ac:	17ffffc1 	b	46b0 <TEE_BigIntShiftRight+0x64>
/home/jeferson/optee/optee_os-rpi4/lib/libutee/tee_api_arith_mpi.c:314 (discriminator 2)
    47b0:	aa1303e0 	mov	x0, x19
    47b4:	94000c0e 	bl	77ec <mbedtls_mpi_free>
/home/jeferson/optee/optee_os-rpi4/lib/libutee/tee_api_arith_mpi.c:315 (discriminator 2)
    47b8:	b0000063 	adrp	x3, 11000 <_DYNAMIC>
    47bc:	f9409863 	ldr	x3, [x3, #304]
    47c0:	f94047e0 	ldr	x0, [sp, #136]
    47c4:	f9400061 	ldr	x1, [x3]
    47c8:	eb010000 	subs	x0, x0, x1
    47cc:	d2800001 	mov	x1, #0x0                   	// #0
    47d0:	54000040 	b.eq	47d8 <TEE_BigIntShiftRight+0x18c>  // b.none
/home/jeferson/optee/optee_os-rpi4/lib/libutee/tee_api_arith_mpi.c:315
    47d4:	97ffeefa 	bl	3bc <__stack_chk_fail>
    47d8:	a94153f3 	ldp	x19, x20, [sp, #16]
    47dc:	a9425bf5 	ldp	x21, x22, [sp, #32]
    47e0:	f9401bf7 	ldr	x23, [sp, #48]
    47e4:	a8c97bfd 	ldp	x29, x30, [sp], #144
    47e8:	d65f03c0 	ret

00000000000047ec <__GP11_TEE_BigIntShiftRight>:
__GP11_TEE_BigIntShiftRight():
/home/jeferson/optee/optee_os-rpi4/lib/libutee/tee_api_arith_mpi.c:320
    47ec:	2a0203e2 	mov	w2, w2
    47f0:	17ffff97 	b	464c <TEE_BigIntShiftRight>

00000000000047f4 <TEE_BigIntGetBit>:
TEE_BigIntGetBit():
/home/jeferson/optee/optee_os-rpi4/lib/libutee/tee_api_arith_mpi.c:324
    47f4:	a9bb7bfd 	stp	x29, x30, [sp, #-80]!
    47f8:	910003fd 	mov	x29, sp
    47fc:	a90153f3 	stp	x19, x20, [sp, #16]
    4800:	b0000074 	adrp	x20, 11000 <_DYNAMIC>
/home/jeferson/optee/optee_os-rpi4/lib/libutee/tee_api_arith_mpi.c:328
    4804:	9100c3f3 	add	x19, sp, #0x30
/home/jeferson/optee/optee_os-rpi4/lib/libutee/tee_api_arith_mpi.c:324
    4808:	f90013f5 	str	x21, [sp, #32]
    480c:	2a0103f5 	mov	w21, w1
    4810:	f9409a81 	ldr	x1, [x20, #304]
    4814:	f9400022 	ldr	x2, [x1]
    4818:	f90027e2 	str	x2, [sp, #72]
    481c:	d2800002 	mov	x2, #0x0                   	// #0
/home/jeferson/optee/optee_os-rpi4/lib/libutee/tee_api_arith_mpi.c:328
    4820:	aa0003e1 	mov	x1, x0
    4824:	aa1303e0 	mov	x0, x19
    4828:	97fffbc5 	bl	373c <get_mpi>
/home/jeferson/optee/optee_os-rpi4/lib/libutee/tee_api_arith_mpi.c:330
    482c:	2a1503e1 	mov	w1, w21
    4830:	aa1303e0 	mov	x0, x19
    4834:	94000d14 	bl	7c84 <mbedtls_mpi_get_bit>
    4838:	2a0003f5 	mov	w21, w0
/home/jeferson/optee/optee_os-rpi4/lib/libutee/tee_api_arith_mpi.c:332
    483c:	aa1303e0 	mov	x0, x19
    4840:	94000beb 	bl	77ec <mbedtls_mpi_free>
/home/jeferson/optee/optee_os-rpi4/lib/libutee/tee_api_arith_mpi.c:335
    4844:	f9409a94 	ldr	x20, [x20, #304]
/home/jeferson/optee/optee_os-rpi4/lib/libutee/tee_api_arith_mpi.c:330
    4848:	710002bf 	cmp	w21, #0x0
    484c:	1a9f07e0 	cset	w0, ne  // ne = any
/home/jeferson/optee/optee_os-rpi4/lib/libutee/tee_api_arith_mpi.c:335
    4850:	f94027e1 	ldr	x1, [sp, #72]
    4854:	f9400282 	ldr	x2, [x20]
    4858:	eb020021 	subs	x1, x1, x2
    485c:	d2800002 	mov	x2, #0x0                   	// #0
    4860:	54000040 	b.eq	4868 <TEE_BigIntGetBit+0x74>  // b.none
    4864:	97ffeed6 	bl	3bc <__stack_chk_fail>
    4868:	a94153f3 	ldp	x19, x20, [sp, #16]
    486c:	f94013f5 	ldr	x21, [sp, #32]
    4870:	a8c57bfd 	ldp	x29, x30, [sp], #80
    4874:	d65f03c0 	ret

0000000000004878 <TEE_BigIntGetBitCount>:
TEE_BigIntGetBitCount():
/home/jeferson/optee/optee_os-rpi4/lib/libutee/tee_api_arith_mpi.c:338
    4878:	a9bb7bfd 	stp	x29, x30, [sp, #-80]!
    487c:	910003fd 	mov	x29, sp
    4880:	a90153f3 	stp	x19, x20, [sp, #16]
    4884:	b0000074 	adrp	x20, 11000 <_DYNAMIC>
/home/jeferson/optee/optee_os-rpi4/lib/libutee/tee_api_arith_mpi.c:342
    4888:	9100c3f3 	add	x19, sp, #0x30
/home/jeferson/optee/optee_os-rpi4/lib/libutee/tee_api_arith_mpi.c:338
    488c:	f9409a81 	ldr	x1, [x20, #304]
    4890:	f90013f5 	str	x21, [sp, #32]
    4894:	f9400022 	ldr	x2, [x1]
    4898:	f90027e2 	str	x2, [sp, #72]
    489c:	d2800002 	mov	x2, #0x0                   	// #0
/home/jeferson/optee/optee_os-rpi4/lib/libutee/tee_api_arith_mpi.c:342
    48a0:	aa0003e1 	mov	x1, x0
    48a4:	aa1303e0 	mov	x0, x19
    48a8:	97fffba5 	bl	373c <get_mpi>
/home/jeferson/optee/optee_os-rpi4/lib/libutee/tee_api_arith_mpi.c:344
    48ac:	aa1303e0 	mov	x0, x19
    48b0:	94000d38 	bl	7d90 <mbedtls_mpi_bitlen>
    48b4:	aa0003f5 	mov	x21, x0
/home/jeferson/optee/optee_os-rpi4/lib/libutee/tee_api_arith_mpi.c:346
    48b8:	aa1303e0 	mov	x0, x19
    48bc:	94000bcc 	bl	77ec <mbedtls_mpi_free>
/home/jeferson/optee/optee_os-rpi4/lib/libutee/tee_api_arith_mpi.c:349
    48c0:	f9409a94 	ldr	x20, [x20, #304]
    48c4:	f94027e0 	ldr	x0, [sp, #72]
    48c8:	f9400281 	ldr	x1, [x20]
    48cc:	eb010000 	subs	x0, x0, x1
    48d0:	d2800001 	mov	x1, #0x0                   	// #0
    48d4:	54000040 	b.eq	48dc <TEE_BigIntGetBitCount+0x64>  // b.none
    48d8:	97ffeeb9 	bl	3bc <__stack_chk_fail>
    48dc:	2a1503e0 	mov	w0, w21
    48e0:	a94153f3 	ldp	x19, x20, [sp, #16]
    48e4:	f94013f5 	ldr	x21, [sp, #32]
    48e8:	a8c57bfd 	ldp	x29, x30, [sp], #80
    48ec:	d65f03c0 	ret

00000000000048f0 <TEE_BigIntSetBit>:
TEE_BigIntSetBit():
/home/jeferson/optee/optee_os-rpi4/lib/libutee/tee_api_arith_mpi.c:352
    48f0:	a9bb7bfd 	stp	x29, x30, [sp, #-80]!
    48f4:	b0000063 	adrp	x3, 11000 <_DYNAMIC>
    48f8:	910003fd 	mov	x29, sp
    48fc:	f9409863 	ldr	x3, [x3, #304]
    4900:	a90153f3 	stp	x19, x20, [sp, #16]
    4904:	aa0003f3 	mov	x19, x0
    4908:	a9025bf5 	stp	x21, x22, [sp, #32]
/home/jeferson/optee/optee_os-rpi4/lib/libutee/tee_api_arith_mpi.c:357
    490c:	9100c3f4 	add	x20, sp, #0x30
/home/jeferson/optee/optee_os-rpi4/lib/libutee/tee_api_arith_mpi.c:352
    4910:	2a0103f5 	mov	w21, w1
    4914:	f9400060 	ldr	x0, [x3]
    4918:	f90027e0 	str	x0, [sp, #72]
    491c:	d2800000 	mov	x0, #0x0                   	// #0
    4920:	12001c56 	and	w22, w2, #0xff
/home/jeferson/optee/optee_os-rpi4/lib/libutee/tee_api_arith_mpi.c:357
    4924:	aa1303e1 	mov	x1, x19
    4928:	aa1403e0 	mov	x0, x20
/home/jeferson/optee/optee_os-rpi4/lib/libutee/tee_api_arith_mpi.c:354
    492c:	a9037fff 	stp	xzr, xzr, [sp, #48]
    4930:	f90023ff 	str	xzr, [sp, #64]
/home/jeferson/optee/optee_os-rpi4/lib/libutee/tee_api_arith_mpi.c:357
    4934:	97fffb82 	bl	373c <get_mpi>
/home/jeferson/optee/optee_os-rpi4/lib/libutee/tee_api_arith_mpi.c:359
    4938:	2a1603e2 	mov	w2, w22
    493c:	2a1503e1 	mov	w1, w21
    4940:	aa1403e0 	mov	x0, x20
    4944:	94000cdb 	bl	7cb0 <mbedtls_mpi_set_bit>
/home/jeferson/optee/optee_os-rpi4/lib/libutee/tee_api_arith_mpi.c:360
    4948:	350001e0 	cbnz	w0, 4984 <TEE_BigIntSetBit+0x94>
/home/jeferson/optee/optee_os-rpi4/lib/libutee/tee_api_arith_mpi.c:363
    494c:	aa1303e1 	mov	x1, x19
    4950:	aa1403e0 	mov	x0, x20
    4954:	97fffba0 	bl	37d4 <copy_mpi_to_bigint>
    4958:	2a0003f3 	mov	w19, w0
/home/jeferson/optee/optee_os-rpi4/lib/libutee/tee_api_arith_mpi.c:365
    495c:	aa1403e0 	mov	x0, x20
    4960:	94000ba3 	bl	77ec <mbedtls_mpi_free>
/home/jeferson/optee/optee_os-rpi4/lib/libutee/tee_api_arith_mpi.c:368
    4964:	b0000063 	adrp	x3, 11000 <_DYNAMIC>
    4968:	f9409863 	ldr	x3, [x3, #304]
    496c:	f94027e0 	ldr	x0, [sp, #72]
    4970:	f9400061 	ldr	x1, [x3]
    4974:	eb010000 	subs	x0, x0, x1
    4978:	d2800001 	mov	x1, #0x0                   	// #0
    497c:	54000080 	b.eq	498c <TEE_BigIntSetBit+0x9c>  // b.none
    4980:	97ffee8f 	bl	3bc <__stack_chk_fail>
/home/jeferson/optee/optee_os-rpi4/lib/libutee/tee_api_arith_mpi.c:361
    4984:	1299fe13 	mov	w19, #0xffff300f            	// #-53233
    4988:	17fffff5 	b	495c <TEE_BigIntSetBit+0x6c>
/home/jeferson/optee/optee_os-rpi4/lib/libutee/tee_api_arith_mpi.c:368
    498c:	2a1303e0 	mov	w0, w19
    4990:	a94153f3 	ldp	x19, x20, [sp, #16]
    4994:	a9425bf5 	ldp	x21, x22, [sp, #32]
    4998:	a8c57bfd 	ldp	x29, x30, [sp], #80
    499c:	d65f03c0 	ret

00000000000049a0 <TEE_BigIntAssign>:
TEE_BigIntAssign():
/home/jeferson/optee/optee_os-rpi4/lib/libutee/tee_api_arith_mpi.c:375
    49a0:	eb00003f 	cmp	x1, x0
    49a4:	540001e0 	b.eq	49e0 <TEE_BigIntAssign+0x40>  // b.none
/home/jeferson/optee/optee_os-rpi4/lib/libutee/tee_api_arith_mpi.c:378
    49a8:	79400c22 	ldrh	w2, [x1, #6]
    49ac:	79400803 	ldrh	w3, [x0, #4]
    49b0:	6b02007f 	cmp	w3, w2
    49b4:	540001a3 	b.cc	49e8 <TEE_BigIntAssign+0x48>  // b.lo, b.ul, b.last
/home/jeferson/optee/optee_os-rpi4/lib/libutee/tee_api_arith_mpi.c:371
    49b8:	a9bf7bfd 	stp	x29, x30, [sp, #-16]!
    49bc:	910003fd 	mov	x29, sp
/home/jeferson/optee/optee_os-rpi4/lib/libutee/tee_api_arith_mpi.c:382
    49c0:	b8408423 	ldr	w3, [x1], #8
/home/jeferson/optee/optee_os-rpi4/lib/libutee/tee_api_arith_mpi.c:381
    49c4:	79000c02 	strh	w2, [x0, #6]
/home/jeferson/optee/optee_os-rpi4/lib/libutee/tee_api_arith_mpi.c:383
    49c8:	d37e3c42 	ubfiz	x2, x2, #2, #16
/home/jeferson/optee/optee_os-rpi4/lib/libutee/tee_api_arith_mpi.c:382
    49cc:	b8008403 	str	w3, [x0], #8
/home/jeferson/optee/optee_os-rpi4/lib/libutee/tee_api_arith_mpi.c:383
    49d0:	97ffed94 	bl	20 <memcpy>
/home/jeferson/optee/optee_os-rpi4/lib/libutee/tee_api_arith_mpi.c:385
    49d4:	52800000 	mov	w0, #0x0                   	// #0
/home/jeferson/optee/optee_os-rpi4/lib/libutee/tee_api_arith_mpi.c:386
    49d8:	a8c17bfd 	ldp	x29, x30, [sp], #16
    49dc:	d65f03c0 	ret
/home/jeferson/optee/optee_os-rpi4/lib/libutee/tee_api_arith_mpi.c:376
    49e0:	52800000 	mov	w0, #0x0                   	// #0
    49e4:	d65f03c0 	ret
/home/jeferson/optee/optee_os-rpi4/lib/libutee/tee_api_arith_mpi.c:379
    49e8:	1299fe00 	mov	w0, #0xffff300f            	// #-53233
/home/jeferson/optee/optee_os-rpi4/lib/libutee/tee_api_arith_mpi.c:386
    49ec:	d65f03c0 	ret

00000000000049f0 <TEE_BigIntAbs>:
TEE_BigIntAbs():
/home/jeferson/optee/optee_os-rpi4/lib/libutee/tee_api_arith_mpi.c:389
    49f0:	a9be7bfd 	stp	x29, x30, [sp, #-32]!
    49f4:	910003fd 	mov	x29, sp
    49f8:	f9000bf3 	str	x19, [sp, #16]
    49fc:	aa0003f3 	mov	x19, x0
/home/jeferson/optee/optee_os-rpi4/lib/libutee/tee_api_arith_mpi.c:390
    4a00:	97ffffe8 	bl	49a0 <TEE_BigIntAssign>
/home/jeferson/optee/optee_os-rpi4/lib/libutee/tee_api_arith_mpi.c:392
    4a04:	35000060 	cbnz	w0, 4a10 <TEE_BigIntAbs+0x20>
/home/jeferson/optee/optee_os-rpi4/lib/libutee/tee_api_arith_mpi.c:393
    4a08:	52800021 	mov	w1, #0x1                   	// #1
    4a0c:	b9000261 	str	w1, [x19]
/home/jeferson/optee/optee_os-rpi4/lib/libutee/tee_api_arith_mpi.c:396
    4a10:	f9400bf3 	ldr	x19, [sp, #16]
    4a14:	a8c27bfd 	ldp	x29, x30, [sp], #32
    4a18:	d65f03c0 	ret

0000000000004a1c <TEE_BigIntAdd>:
TEE_BigIntAdd():
/home/jeferson/optee/optee_os-rpi4/lib/libutee/tee_api_arith_mpi.c:482
    4a1c:	b0000063 	adrp	x3, 11000 <_DYNAMIC>
    4a20:	f940b863 	ldr	x3, [x3, #368]
    4a24:	17fffb85 	b	3838 <bigint_binary>

0000000000004a28 <TEE_BigIntSub>:
TEE_BigIntSub():
/home/jeferson/optee/optee_os-rpi4/lib/libutee/tee_api_arith_mpi.c:488
    4a28:	b0000063 	adrp	x3, 11000 <_DYNAMIC>
    4a2c:	f940c463 	ldr	x3, [x3, #392]
    4a30:	17fffb82 	b	3838 <bigint_binary>

0000000000004a34 <TEE_BigIntNeg>:
TEE_BigIntNeg():
/home/jeferson/optee/optee_os-rpi4/lib/libutee/tee_api_arith_mpi.c:492
    4a34:	a9b97bfd 	stp	x29, x30, [sp, #-112]!
    4a38:	b0000062 	adrp	x2, 11000 <_DYNAMIC>
    4a3c:	910003fd 	mov	x29, sp
    4a40:	f9409842 	ldr	x2, [x2, #304]
    4a44:	a90153f3 	stp	x19, x20, [sp, #16]
    4a48:	aa0003f3 	mov	x19, x0
    4a4c:	a9025bf5 	stp	x21, x22, [sp, #32]
/home/jeferson/optee/optee_os-rpi4/lib/libutee/tee_api_arith_mpi.c:495
    4a50:	9100e3f4 	add	x20, sp, #0x38
/home/jeferson/optee/optee_os-rpi4/lib/libutee/tee_api_arith_mpi.c:492
    4a54:	aa0103f5 	mov	x21, x1
    4a58:	f9400040 	ldr	x0, [x2]
    4a5c:	f90037e0 	str	x0, [sp, #104]
    4a60:	d2800000 	mov	x0, #0x0                   	// #0
/home/jeferson/optee/optee_os-rpi4/lib/libutee/tee_api_arith_mpi.c:495
    4a64:	aa1303e1 	mov	x1, x19
    4a68:	aa1403e0 	mov	x0, x20
    4a6c:	97fffb34 	bl	373c <get_mpi>
/home/jeferson/optee/optee_os-rpi4/lib/libutee/tee_api_arith_mpi.c:497
    4a70:	eb15027f 	cmp	x19, x21
    4a74:	54000220 	b.eq	4ab8 <TEE_BigIntNeg+0x84>  // b.none
/home/jeferson/optee/optee_os-rpi4/lib/libutee/tee_api_arith_mpi.c:500
    4a78:	910143f6 	add	x22, sp, #0x50
    4a7c:	aa1503e1 	mov	x1, x21
    4a80:	aa1603e0 	mov	x0, x22
    4a84:	97fffb2e 	bl	373c <get_mpi>
/home/jeferson/optee/optee_os-rpi4/lib/libutee/tee_api_arith_mpi.c:502
    4a88:	aa1603e1 	mov	x1, x22
    4a8c:	aa1403e0 	mov	x0, x20
    4a90:	94000c0d 	bl	7ac4 <mbedtls_mpi_copy>
    4a94:	2a0003e2 	mov	w2, w0
    4a98:	340000c0 	cbz	w0, 4ab0 <TEE_BigIntNeg+0x7c>
/home/jeferson/optee/optee_os-rpi4/lib/libutee/tee_api_arith_mpi.c:502 (discriminator 1)
    4a9c:	52803ec1 	mov	w1, #0x1f6                 	// #502
/home/jeferson/optee/optee_os-rpi4/lib/libutee/tee_api_arith_mpi.c:509 (discriminator 1)
    4aa0:	f0000040 	adrp	x0, f000 <__text_end+0x2508>
    4aa4:	9131d800 	add	x0, x0, #0xc76
    4aa8:	91027c00 	add	x0, x0, #0x9f
    4aac:	97fffb18 	bl	370c <mpi_panic>
/home/jeferson/optee/optee_os-rpi4/lib/libutee/tee_api_arith_mpi.c:504 (discriminator 2)
    4ab0:	aa1603e0 	mov	x0, x22
    4ab4:	94000b4e 	bl	77ec <mbedtls_mpi_free>
/home/jeferson/optee/optee_os-rpi4/lib/libutee/tee_api_arith_mpi.c:507
    4ab8:	794073e0 	ldrh	w0, [sp, #56]
/home/jeferson/optee/optee_os-rpi4/lib/libutee/tee_api_arith_mpi.c:509
    4abc:	aa1303e1 	mov	x1, x19
/home/jeferson/optee/optee_os-rpi4/lib/libutee/tee_api_arith_mpi.c:507
    4ac0:	4b0003e0 	neg	w0, w0
    4ac4:	790073e0 	strh	w0, [sp, #56]
/home/jeferson/optee/optee_os-rpi4/lib/libutee/tee_api_arith_mpi.c:509
    4ac8:	aa1403e0 	mov	x0, x20
    4acc:	97fffb42 	bl	37d4 <copy_mpi_to_bigint>
    4ad0:	2a0003e2 	mov	w2, w0
    4ad4:	34000060 	cbz	w0, 4ae0 <TEE_BigIntNeg+0xac>
/home/jeferson/optee/optee_os-rpi4/lib/libutee/tee_api_arith_mpi.c:509 (discriminator 1)
    4ad8:	52803fa1 	mov	w1, #0x1fd                 	// #509
    4adc:	17fffff1 	b	4aa0 <TEE_BigIntNeg+0x6c>
/home/jeferson/optee/optee_os-rpi4/lib/libutee/tee_api_arith_mpi.c:510 (discriminator 2)
    4ae0:	aa1403e0 	mov	x0, x20
    4ae4:	94000b42 	bl	77ec <mbedtls_mpi_free>
/home/jeferson/optee/optee_os-rpi4/lib/libutee/tee_api_arith_mpi.c:511 (discriminator 2)
    4ae8:	b0000062 	adrp	x2, 11000 <_DYNAMIC>
    4aec:	f9409842 	ldr	x2, [x2, #304]
    4af0:	f94037e0 	ldr	x0, [sp, #104]
    4af4:	f9400041 	ldr	x1, [x2]
    4af8:	eb010000 	subs	x0, x0, x1
    4afc:	d2800001 	mov	x1, #0x0                   	// #0
    4b00:	54000040 	b.eq	4b08 <TEE_BigIntNeg+0xd4>  // b.none
/home/jeferson/optee/optee_os-rpi4/lib/libutee/tee_api_arith_mpi.c:511
    4b04:	97ffee2e 	bl	3bc <__stack_chk_fail>
    4b08:	a94153f3 	ldp	x19, x20, [sp, #16]
    4b0c:	a9425bf5 	ldp	x21, x22, [sp, #32]
    4b10:	a8c77bfd 	ldp	x29, x30, [sp], #112
    4b14:	d65f03c0 	ret

0000000000004b18 <TEE_BigIntMul>:
TEE_BigIntMul():
/home/jeferson/optee/optee_os-rpi4/lib/libutee/tee_api_arith_mpi.c:515
    4b18:	a9b97bfd 	stp	x29, x30, [sp, #-112]!
    4b1c:	910003fd 	mov	x29, sp
    4b20:	f90023f9 	str	x25, [sp, #64]
    4b24:	b0000079 	adrp	x25, 11000 <_DYNAMIC>
    4b28:	a90363f7 	stp	x23, x24, [sp, #48]
    4b2c:	aa0003f7 	mov	x23, x0
    4b30:	aa1903f8 	mov	x24, x25
    4b34:	f9409b20 	ldr	x0, [x25, #304]
    4b38:	a90153f3 	stp	x19, x20, [sp, #16]
    4b3c:	a9025bf5 	stp	x21, x22, [sp, #32]
    4b40:	aa0103f5 	mov	x21, x1
    4b44:	aa0203f6 	mov	x22, x2
    4b48:	f9400001 	ldr	x1, [x0]
    4b4c:	f90037e1 	str	x1, [sp, #104]
    4b50:	d2800001 	mov	x1, #0x0                   	// #0
/home/jeferson/optee/optee_os-rpi4/lib/libutee/tee_api_arith_mpi.c:516
    4b54:	aa1503e0 	mov	x0, x21
    4b58:	97ffff48 	bl	4878 <TEE_BigIntGetBitCount>
    4b5c:	2a0003f3 	mov	w19, w0
/home/jeferson/optee/optee_os-rpi4/lib/libutee/tee_api_arith_mpi.c:517
    4b60:	aa1603e0 	mov	x0, x22
    4b64:	97ffff45 	bl	4878 <TEE_BigIntGetBitCount>
    4b68:	2a0003e0 	mov	w0, w0
/home/jeferson/optee/optee_os-rpi4/lib/libutee/tee_api_arith_mpi.c:518
    4b6c:	91007e73 	add	x19, x19, #0x1f
    4b70:	91007c00 	add	x0, x0, #0x1f
/home/jeferson/optee/optee_os-rpi4/lib/libutee/tee_api_arith_mpi.c:519
    4b74:	f9002fff 	str	xzr, [sp, #88]
    4b78:	b90063ff 	str	wzr, [sp, #96]
/home/jeferson/optee/optee_os-rpi4/lib/libutee/tee_api_arith_mpi.c:518
    4b7c:	d345fc00 	lsr	x0, x0, #5
    4b80:	8b531413 	add	x19, x0, x19, lsr #5
/home/jeferson/optee/optee_os-rpi4/lib/libutee/tee_api_arith_mpi.c:522
    4b84:	f940ef20 	ldr	x0, [x25, #472]
/home/jeferson/optee/optee_os-rpi4/lib/libutee/tee_api_arith_mpi.c:518
    4b88:	91001273 	add	x19, x19, #0x4
/home/jeferson/optee/optee_os-rpi4/lib/libutee/tee_api_arith_mpi.c:522
    4b8c:	d37ef661 	lsl	x1, x19, #2
    4b90:	f9400000 	ldr	x0, [x0]
    4b94:	94001f8b 	bl	c9c0 <mempool_alloc>
    4b98:	aa0003f4 	mov	x20, x0
/home/jeferson/optee/optee_os-rpi4/lib/libutee/tee_api_arith_mpi.c:523
    4b9c:	b5000060 	cbnz	x0, 4ba8 <TEE_BigIntMul+0x90>
/home/jeferson/optee/optee_os-rpi4/lib/libutee/tee_api_arith_mpi.c:524
    4ba0:	129ffe60 	mov	w0, #0xffff000c            	// #-65524
    4ba4:	94000329 	bl	5848 <TEE_Panic>
/home/jeferson/optee/optee_os-rpi4/lib/libutee/tee_api_arith_mpi.c:526
    4ba8:	aa1303e1 	mov	x1, x19
    4bac:	aa1403e0 	mov	x0, x20
/home/jeferson/optee/optee_os-rpi4/lib/libutee/tee_api_arith_mpi.c:527
    4bb0:	910163f3 	add	x19, sp, #0x58
/home/jeferson/optee/optee_os-rpi4/lib/libutee/tee_api_arith_mpi.c:526
    4bb4:	97fffcf7 	bl	3f90 <TEE_BigIntInit>
/home/jeferson/optee/optee_os-rpi4/lib/libutee/tee_api_arith_mpi.c:527
    4bb8:	aa1303e0 	mov	x0, x19
    4bbc:	d2800061 	mov	x1, #0x3                   	// #3
    4bc0:	97fffcf4 	bl	3f90 <TEE_BigIntInit>
/home/jeferson/optee/optee_os-rpi4/lib/libutee/tee_api_arith_mpi.c:529
    4bc4:	f940b703 	ldr	x3, [x24, #360]
    4bc8:	aa1603e2 	mov	x2, x22
    4bcc:	aa1503e1 	mov	x1, x21
    4bd0:	aa1403e0 	mov	x0, x20
    4bd4:	97fffb19 	bl	3838 <bigint_binary>
/home/jeferson/optee/optee_os-rpi4/lib/libutee/tee_api_arith_mpi.c:531
    4bd8:	aa1303e2 	mov	x2, x19
    4bdc:	aa1403e1 	mov	x1, x20
    4be0:	aa1703e0 	mov	x0, x23
    4be4:	97ffff8e 	bl	4a1c <TEE_BigIntAdd>
/home/jeferson/optee/optee_os-rpi4/lib/libutee/tee_api_arith_mpi.c:533
    4be8:	f940ef00 	ldr	x0, [x24, #472]
    4bec:	aa1403e1 	mov	x1, x20
    4bf0:	f9400000 	ldr	x0, [x0]
    4bf4:	94001fa0 	bl	ca74 <mempool_free>
/home/jeferson/optee/optee_os-rpi4/lib/libutee/tee_api_arith_mpi.c:534
    4bf8:	f9409b18 	ldr	x24, [x24, #304]
    4bfc:	f94037e0 	ldr	x0, [sp, #104]
    4c00:	f9400301 	ldr	x1, [x24]
    4c04:	eb010000 	subs	x0, x0, x1
    4c08:	d2800001 	mov	x1, #0x0                   	// #0
    4c0c:	54000040 	b.eq	4c14 <TEE_BigIntMul+0xfc>  // b.none
    4c10:	97ffedeb 	bl	3bc <__stack_chk_fail>
    4c14:	a94153f3 	ldp	x19, x20, [sp, #16]
    4c18:	a9425bf5 	ldp	x21, x22, [sp, #32]
    4c1c:	a94363f7 	ldp	x23, x24, [sp, #48]
    4c20:	f94023f9 	ldr	x25, [sp, #64]
    4c24:	a8c77bfd 	ldp	x29, x30, [sp], #112
    4c28:	d65f03c0 	ret

0000000000004c2c <TEE_BigIntSquare>:
TEE_BigIntSquare():
/home/jeferson/optee/optee_os-rpi4/lib/libutee/tee_api_arith_mpi.c:537
    4c2c:	aa0103e2 	mov	x2, x1
/home/jeferson/optee/optee_os-rpi4/lib/libutee/tee_api_arith_mpi.c:538
    4c30:	17ffffba 	b	4b18 <TEE_BigIntMul>

0000000000004c34 <TEE_BigIntDiv>:
TEE_BigIntDiv():
/home/jeferson/optee/optee_os-rpi4/lib/libutee/tee_api_arith_mpi.c:543
    4c34:	a9b37bfd 	stp	x29, x30, [sp, #-208]!
    4c38:	b0000064 	adrp	x4, 11000 <_DYNAMIC>
    4c3c:	910003fd 	mov	x29, sp
    4c40:	f9409884 	ldr	x4, [x4, #304]
    4c44:	a90153f3 	stp	x19, x20, [sp, #16]
    4c48:	aa0003f4 	mov	x20, x0
    4c4c:	a9025bf5 	stp	x21, x22, [sp, #32]
    4c50:	aa0103f3 	mov	x19, x1
/home/jeferson/optee/optee_os-rpi4/lib/libutee/tee_api_arith_mpi.c:551
    4c54:	aa0003e1 	mov	x1, x0
/home/jeferson/optee/optee_os-rpi4/lib/libutee/tee_api_arith_mpi.c:543
    4c58:	a90363f7 	stp	x23, x24, [sp, #48]
/home/jeferson/optee/optee_os-rpi4/lib/libutee/tee_api_arith_mpi.c:551
    4c5c:	9101a3f8 	add	x24, sp, #0x68
/home/jeferson/optee/optee_os-rpi4/lib/libutee/tee_api_arith_mpi.c:543
    4c60:	aa0303f5 	mov	x21, x3
    4c64:	a9046bf9 	stp	x25, x26, [sp, #64]
/home/jeferson/optee/optee_os-rpi4/lib/libutee/tee_api_arith_mpi.c:552
    4c68:	910203f7 	add	x23, sp, #0x80
/home/jeferson/optee/optee_os-rpi4/lib/libutee/tee_api_arith_mpi.c:543
    4c6c:	aa0203f9 	mov	x25, x2
    4c70:	f9002bfb 	str	x27, [sp, #80]
    4c74:	910263fb 	add	x27, sp, #0x98
    4c78:	f9400080 	ldr	x0, [x4]
    4c7c:	f90067e0 	str	x0, [sp, #200]
    4c80:	d2800000 	mov	x0, #0x0                   	// #0
/home/jeferson/optee/optee_os-rpi4/lib/libutee/tee_api_arith_mpi.c:551
    4c84:	aa1803e0 	mov	x0, x24
    4c88:	97fffaad 	bl	373c <get_mpi>
/home/jeferson/optee/optee_os-rpi4/lib/libutee/tee_api_arith_mpi.c:552
    4c8c:	aa1303e1 	mov	x1, x19
    4c90:	aa1703e0 	mov	x0, x23
    4c94:	97fffaaa 	bl	373c <get_mpi>
/home/jeferson/optee/optee_os-rpi4/lib/libutee/tee_api_arith_mpi.c:554
    4c98:	eb19029f 	cmp	x20, x25
    4c9c:	540003c0 	b.eq	4d14 <TEE_BigIntDiv+0xe0>  // b.none
/home/jeferson/optee/optee_os-rpi4/lib/libutee/tee_api_arith_mpi.c:556
    4ca0:	eb19027f 	cmp	x19, x25
    4ca4:	540003c0 	b.eq	4d1c <TEE_BigIntDiv+0xe8>  // b.none
/home/jeferson/optee/optee_os-rpi4/lib/libutee/tee_api_arith_mpi.c:548
    4ca8:	aa1b03f6 	mov	x22, x27
/home/jeferson/optee/optee_os-rpi4/lib/libutee/tee_api_arith_mpi.c:559
    4cac:	aa1903e1 	mov	x1, x25
    4cb0:	aa1b03e0 	mov	x0, x27
    4cb4:	97fffaa2 	bl	373c <get_mpi>
/home/jeferson/optee/optee_os-rpi4/lib/libutee/tee_api_arith_mpi.c:561
    4cb8:	eb15029f 	cmp	x20, x21
    4cbc:	9102c3fa 	add	x26, sp, #0xb0
    4cc0:	54000320 	b.eq	4d24 <TEE_BigIntDiv+0xf0>  // b.none
/home/jeferson/optee/optee_os-rpi4/lib/libutee/tee_api_arith_mpi.c:563
    4cc4:	eb15027f 	cmp	x19, x21
    4cc8:	54000320 	b.eq	4d2c <TEE_BigIntDiv+0xf8>  // b.none
/home/jeferson/optee/optee_os-rpi4/lib/libutee/tee_api_arith_mpi.c:565
    4ccc:	eb15033f 	cmp	x25, x21
    4cd0:	54000320 	b.eq	4d34 <TEE_BigIntDiv+0x100>  // b.none
/home/jeferson/optee/optee_os-rpi4/lib/libutee/tee_api_arith_mpi.c:568
    4cd4:	aa1503e1 	mov	x1, x21
/home/jeferson/optee/optee_os-rpi4/lib/libutee/tee_api_arith_mpi.c:549
    4cd8:	aa1a03f5 	mov	x21, x26
/home/jeferson/optee/optee_os-rpi4/lib/libutee/tee_api_arith_mpi.c:568
    4cdc:	aa1a03e0 	mov	x0, x26
    4ce0:	97fffa97 	bl	373c <get_mpi>
/home/jeferson/optee/optee_os-rpi4/lib/libutee/tee_api_arith_mpi.c:570
    4ce4:	aa1603e2 	mov	x2, x22
    4ce8:	aa1503e3 	mov	x3, x21
    4cec:	aa1703e1 	mov	x1, x23
    4cf0:	aa1803e0 	mov	x0, x24
    4cf4:	94001008 	bl	8d14 <mbedtls_mpi_div_mpi>
    4cf8:	2a0003e2 	mov	w2, w0
    4cfc:	34000200 	cbz	w0, 4d3c <TEE_BigIntDiv+0x108>
/home/jeferson/optee/optee_os-rpi4/lib/libutee/tee_api_arith_mpi.c:570 (discriminator 1)
    4d00:	52804741 	mov	w1, #0x23a                 	// #570
/home/jeferson/optee/optee_os-rpi4/lib/libutee/tee_api_arith_mpi.c:573 (discriminator 1)
    4d04:	f0000040 	adrp	x0, f000 <__text_end+0x2508>
    4d08:	9131d800 	add	x0, x0, #0xc76
    4d0c:	9102b400 	add	x0, x0, #0xad
    4d10:	97fffa7f 	bl	370c <mpi_panic>
/home/jeferson/optee/optee_os-rpi4/lib/libutee/tee_api_arith_mpi.c:555
    4d14:	aa1803f6 	mov	x22, x24
    4d18:	17ffffe8 	b	4cb8 <TEE_BigIntDiv+0x84>
/home/jeferson/optee/optee_os-rpi4/lib/libutee/tee_api_arith_mpi.c:557
    4d1c:	aa1703f6 	mov	x22, x23
    4d20:	17ffffe6 	b	4cb8 <TEE_BigIntDiv+0x84>
/home/jeferson/optee/optee_os-rpi4/lib/libutee/tee_api_arith_mpi.c:562
    4d24:	aa1803f5 	mov	x21, x24
    4d28:	17ffffef 	b	4ce4 <TEE_BigIntDiv+0xb0>
/home/jeferson/optee/optee_os-rpi4/lib/libutee/tee_api_arith_mpi.c:564
    4d2c:	aa1703f5 	mov	x21, x23
    4d30:	17ffffed 	b	4ce4 <TEE_BigIntDiv+0xb0>
/home/jeferson/optee/optee_os-rpi4/lib/libutee/tee_api_arith_mpi.c:566
    4d34:	aa1603f5 	mov	x21, x22
    4d38:	17ffffeb 	b	4ce4 <TEE_BigIntDiv+0xb0>
/home/jeferson/optee/optee_os-rpi4/lib/libutee/tee_api_arith_mpi.c:572 (discriminator 2)
    4d3c:	b4000114 	cbz	x20, 4d5c <TEE_BigIntDiv+0x128>
/home/jeferson/optee/optee_os-rpi4/lib/libutee/tee_api_arith_mpi.c:573
    4d40:	aa1403e1 	mov	x1, x20
    4d44:	aa1803e0 	mov	x0, x24
    4d48:	97fffaa3 	bl	37d4 <copy_mpi_to_bigint>
    4d4c:	2a0003e2 	mov	w2, w0
    4d50:	34000060 	cbz	w0, 4d5c <TEE_BigIntDiv+0x128>
/home/jeferson/optee/optee_os-rpi4/lib/libutee/tee_api_arith_mpi.c:573 (discriminator 1)
    4d54:	528047a1 	mov	w1, #0x23d                 	// #573
    4d58:	17ffffeb 	b	4d04 <TEE_BigIntDiv+0xd0>
/home/jeferson/optee/optee_os-rpi4/lib/libutee/tee_api_arith_mpi.c:574
    4d5c:	b4000113 	cbz	x19, 4d7c <TEE_BigIntDiv+0x148>
/home/jeferson/optee/optee_os-rpi4/lib/libutee/tee_api_arith_mpi.c:575
    4d60:	aa1303e1 	mov	x1, x19
    4d64:	aa1703e0 	mov	x0, x23
    4d68:	97fffa9b 	bl	37d4 <copy_mpi_to_bigint>
    4d6c:	2a0003e2 	mov	w2, w0
    4d70:	34000060 	cbz	w0, 4d7c <TEE_BigIntDiv+0x148>
/home/jeferson/optee/optee_os-rpi4/lib/libutee/tee_api_arith_mpi.c:575 (discriminator 1)
    4d74:	528047e1 	mov	w1, #0x23f                 	// #575
    4d78:	17ffffe3 	b	4d04 <TEE_BigIntDiv+0xd0>
/home/jeferson/optee/optee_os-rpi4/lib/libutee/tee_api_arith_mpi.c:576
    4d7c:	aa1803e0 	mov	x0, x24
    4d80:	94000a9b 	bl	77ec <mbedtls_mpi_free>
/home/jeferson/optee/optee_os-rpi4/lib/libutee/tee_api_arith_mpi.c:577
    4d84:	aa1703e0 	mov	x0, x23
    4d88:	94000a99 	bl	77ec <mbedtls_mpi_free>
/home/jeferson/optee/optee_os-rpi4/lib/libutee/tee_api_arith_mpi.c:578
    4d8c:	eb1b02df 	cmp	x22, x27
    4d90:	54000061 	b.ne	4d9c <TEE_BigIntDiv+0x168>  // b.any
/home/jeferson/optee/optee_os-rpi4/lib/libutee/tee_api_arith_mpi.c:579
    4d94:	aa1603e0 	mov	x0, x22
    4d98:	94000a95 	bl	77ec <mbedtls_mpi_free>
/home/jeferson/optee/optee_os-rpi4/lib/libutee/tee_api_arith_mpi.c:580
    4d9c:	eb1a02bf 	cmp	x21, x26
    4da0:	54000061 	b.ne	4dac <TEE_BigIntDiv+0x178>  // b.any
/home/jeferson/optee/optee_os-rpi4/lib/libutee/tee_api_arith_mpi.c:581
    4da4:	aa1503e0 	mov	x0, x21
    4da8:	94000a91 	bl	77ec <mbedtls_mpi_free>
/home/jeferson/optee/optee_os-rpi4/lib/libutee/tee_api_arith_mpi.c:582
    4dac:	b0000064 	adrp	x4, 11000 <_DYNAMIC>
    4db0:	f9409884 	ldr	x4, [x4, #304]
    4db4:	f94067e0 	ldr	x0, [sp, #200]
    4db8:	f9400081 	ldr	x1, [x4]
    4dbc:	eb010000 	subs	x0, x0, x1
    4dc0:	d2800001 	mov	x1, #0x0                   	// #0
    4dc4:	54000040 	b.eq	4dcc <TEE_BigIntDiv+0x198>  // b.none
    4dc8:	97ffed7d 	bl	3bc <__stack_chk_fail>
    4dcc:	a94153f3 	ldp	x19, x20, [sp, #16]
    4dd0:	a9425bf5 	ldp	x21, x22, [sp, #32]
    4dd4:	a94363f7 	ldp	x23, x24, [sp, #48]
    4dd8:	a9446bf9 	ldp	x25, x26, [sp, #64]
    4ddc:	f9402bfb 	ldr	x27, [sp, #80]
    4de0:	a8cd7bfd 	ldp	x29, x30, [sp], #208
    4de4:	d65f03c0 	ret

0000000000004de8 <TEE_BigIntMod>:
TEE_BigIntMod():
/home/jeferson/optee/optee_os-rpi4/lib/libutee/tee_api_arith_mpi.c:585
    4de8:	a9bd7bfd 	stp	x29, x30, [sp, #-48]!
    4dec:	910003fd 	mov	x29, sp
    4df0:	a90153f3 	stp	x19, x20, [sp, #16]
    4df4:	aa0003f4 	mov	x20, x0
    4df8:	aa0203f3 	mov	x19, x2
/home/jeferson/optee/optee_os-rpi4/lib/libutee/tee_api_arith_mpi.c:586
    4dfc:	aa0203e0 	mov	x0, x2
/home/jeferson/optee/optee_os-rpi4/lib/libutee/tee_api_arith_mpi.c:585
    4e00:	f90013f5 	str	x21, [sp, #32]
    4e04:	aa0103f5 	mov	x21, x1
/home/jeferson/optee/optee_os-rpi4/lib/libutee/tee_api_arith_mpi.c:586
    4e08:	52800041 	mov	w1, #0x2                   	// #2
    4e0c:	97fffd7c 	bl	43fc <TEE_BigIntCmpS32>
    4e10:	36f80100 	tbz	w0, #31, 4e30 <TEE_BigIntMod+0x48>
/home/jeferson/optee/optee_os-rpi4/lib/libutee/tee_api_arith_mpi.c:587
    4e14:	f0000040 	adrp	x0, f000 <__text_end+0x2508>
    4e18:	9131d800 	add	x0, x0, #0xc76
    4e1c:	f0000042 	adrp	x2, f000 <__text_end+0x2508>
    4e20:	9102ec00 	add	x0, x0, #0xbb
    4e24:	91309042 	add	x2, x2, #0xc24
    4e28:	52804961 	mov	w1, #0x24b                 	// #587
    4e2c:	97fffa2c 	bl	36dc <api_panic>
/home/jeferson/optee/optee_os-rpi4/lib/libutee/tee_api_arith_mpi.c:589
    4e30:	aa1303e2 	mov	x2, x19
    4e34:	aa1503e1 	mov	x1, x21
    4e38:	aa1403e0 	mov	x0, x20
    4e3c:	b0000063 	adrp	x3, 11000 <_DYNAMIC>
/home/jeferson/optee/optee_os-rpi4/lib/libutee/tee_api_arith_mpi.c:590
    4e40:	a94153f3 	ldp	x19, x20, [sp, #16]
    4e44:	f94013f5 	ldr	x21, [sp, #32]
    4e48:	a8c37bfd 	ldp	x29, x30, [sp], #48
/home/jeferson/optee/optee_os-rpi4/lib/libutee/tee_api_arith_mpi.c:589
    4e4c:	f940d463 	ldr	x3, [x3, #424]
    4e50:	17fffa7a 	b	3838 <bigint_binary>

0000000000004e54 <TEE_BigIntAddMod>:
TEE_BigIntAddMod():
/home/jeferson/optee/optee_os-rpi4/lib/libutee/tee_api_arith_mpi.c:595
    4e54:	b0000064 	adrp	x4, 11000 <_DYNAMIC>
    4e58:	f940b884 	ldr	x4, [x4, #368]
    4e5c:	17fffd88 	b	447c <bigint_binary_mod>

0000000000004e60 <TEE_BigIntSubMod>:
TEE_BigIntSubMod():
/home/jeferson/optee/optee_os-rpi4/lib/libutee/tee_api_arith_mpi.c:601
    4e60:	b0000064 	adrp	x4, 11000 <_DYNAMIC>
    4e64:	f940c484 	ldr	x4, [x4, #392]
    4e68:	17fffd85 	b	447c <bigint_binary_mod>

0000000000004e6c <TEE_BigIntMulMod>:
TEE_BigIntMulMod():
/home/jeferson/optee/optee_os-rpi4/lib/libutee/tee_api_arith_mpi.c:607
    4e6c:	b0000064 	adrp	x4, 11000 <_DYNAMIC>
    4e70:	f940b484 	ldr	x4, [x4, #360]
    4e74:	17fffd82 	b	447c <bigint_binary_mod>

0000000000004e78 <TEE_BigIntSquareMod>:
TEE_BigIntSquareMod():
/home/jeferson/optee/optee_os-rpi4/lib/libutee/tee_api_arith_mpi.c:613
    4e78:	aa0203e3 	mov	x3, x2
    4e7c:	aa0103e2 	mov	x2, x1
    4e80:	17fffffb 	b	4e6c <TEE_BigIntMulMod>

0000000000004e84 <TEE_BigIntInvMod>:
TEE_BigIntInvMod():
/home/jeferson/optee/optee_os-rpi4/lib/libutee/tee_api_arith_mpi.c:618
    4e84:	a9b77bfd 	stp	x29, x30, [sp, #-144]!
    4e88:	b0000063 	adrp	x3, 11000 <_DYNAMIC>
    4e8c:	910003fd 	mov	x29, sp
    4e90:	f9409863 	ldr	x3, [x3, #304]
    4e94:	a90153f3 	stp	x19, x20, [sp, #16]
    4e98:	aa0003f4 	mov	x20, x0
    4e9c:	a9025bf5 	stp	x21, x22, [sp, #32]
    4ea0:	aa0103f5 	mov	x21, x1
    4ea4:	aa0203f6 	mov	x22, x2
    4ea8:	f9001bf7 	str	x23, [sp, #48]
/home/jeferson/optee/optee_os-rpi4/lib/libutee/tee_api_arith_mpi.c:624
    4eac:	52800041 	mov	w1, #0x2                   	// #2
/home/jeferson/optee/optee_os-rpi4/lib/libutee/tee_api_arith_mpi.c:618
    4eb0:	f9400060 	ldr	x0, [x3]
    4eb4:	f90047e0 	str	x0, [sp, #136]
    4eb8:	d2800000 	mov	x0, #0x0                   	// #0
/home/jeferson/optee/optee_os-rpi4/lib/libutee/tee_api_arith_mpi.c:624
    4ebc:	aa0203e0 	mov	x0, x2
    4ec0:	97fffd4f 	bl	43fc <TEE_BigIntCmpS32>
    4ec4:	36f80100 	tbz	w0, #31, 4ee4 <TEE_BigIntInvMod+0x60>
/home/jeferson/optee/optee_os-rpi4/lib/libutee/tee_api_arith_mpi.c:625
    4ec8:	f0000040 	adrp	x0, f000 <__text_end+0x2508>
    4ecc:	9131d800 	add	x0, x0, #0xc76
    4ed0:	f0000042 	adrp	x2, f000 <__text_end+0x2508>
    4ed4:	91032400 	add	x0, x0, #0xc9
    4ed8:	9130e442 	add	x2, x2, #0xc39
    4edc:	52804e21 	mov	w1, #0x271                 	// #625
    4ee0:	97fff9ff 	bl	36dc <api_panic>
/home/jeferson/optee/optee_os-rpi4/lib/libutee/tee_api_arith_mpi.c:624 (discriminator 1)
    4ee4:	aa1503e0 	mov	x0, x21
    4ee8:	52800001 	mov	w1, #0x0                   	// #0
    4eec:	97fffd44 	bl	43fc <TEE_BigIntCmpS32>
    4ef0:	34fffec0 	cbz	w0, 4ec8 <TEE_BigIntInvMod+0x44>
/home/jeferson/optee/optee_os-rpi4/lib/libutee/tee_api_arith_mpi.c:627
    4ef4:	910103f3 	add	x19, sp, #0x40
    4ef8:	aa1403e1 	mov	x1, x20
    4efc:	aa1303e0 	mov	x0, x19
/home/jeferson/optee/optee_os-rpi4/lib/libutee/tee_api_arith_mpi.c:628
    4f00:	9101c3f7 	add	x23, sp, #0x70
/home/jeferson/optee/optee_os-rpi4/lib/libutee/tee_api_arith_mpi.c:627
    4f04:	97fffa0e 	bl	373c <get_mpi>
/home/jeferson/optee/optee_os-rpi4/lib/libutee/tee_api_arith_mpi.c:628
    4f08:	aa1603e1 	mov	x1, x22
    4f0c:	aa1703e0 	mov	x0, x23
    4f10:	97fffa0b 	bl	373c <get_mpi>
/home/jeferson/optee/optee_os-rpi4/lib/libutee/tee_api_arith_mpi.c:630
    4f14:	910163f6 	add	x22, sp, #0x58
    4f18:	eb1402bf 	cmp	x21, x20
    4f1c:	54000200 	b.eq	4f5c <TEE_BigIntInvMod+0xd8>  // b.none
/home/jeferson/optee/optee_os-rpi4/lib/libutee/tee_api_arith_mpi.c:633
    4f20:	aa1503e1 	mov	x1, x21
/home/jeferson/optee/optee_os-rpi4/lib/libutee/tee_api_arith_mpi.c:622
    4f24:	aa1603f5 	mov	x21, x22
/home/jeferson/optee/optee_os-rpi4/lib/libutee/tee_api_arith_mpi.c:633
    4f28:	aa1603e0 	mov	x0, x22
    4f2c:	97fffa04 	bl	373c <get_mpi>
/home/jeferson/optee/optee_os-rpi4/lib/libutee/tee_api_arith_mpi.c:635
    4f30:	aa1703e2 	mov	x2, x23
    4f34:	aa1503e1 	mov	x1, x21
    4f38:	aa1303e0 	mov	x0, x19
    4f3c:	9400155d 	bl	a4b0 <mbedtls_mpi_inv_mod>
    4f40:	2a0003e2 	mov	w2, w0
    4f44:	34000100 	cbz	w0, 4f64 <TEE_BigIntInvMod+0xe0>
/home/jeferson/optee/optee_os-rpi4/lib/libutee/tee_api_arith_mpi.c:635 (discriminator 1)
    4f48:	52804f61 	mov	w1, #0x27b                 	// #635
/home/jeferson/optee/optee_os-rpi4/lib/libutee/tee_api_arith_mpi.c:637 (discriminator 1)
    4f4c:	f0000040 	adrp	x0, f000 <__text_end+0x2508>
    4f50:	9131d800 	add	x0, x0, #0xc76
    4f54:	91032400 	add	x0, x0, #0xc9
    4f58:	97fff9ed 	bl	370c <mpi_panic>
/home/jeferson/optee/optee_os-rpi4/lib/libutee/tee_api_arith_mpi.c:631
    4f5c:	aa1303f5 	mov	x21, x19
    4f60:	17fffff4 	b	4f30 <TEE_BigIntInvMod+0xac>
/home/jeferson/optee/optee_os-rpi4/lib/libutee/tee_api_arith_mpi.c:637 (discriminator 2)
    4f64:	aa1403e1 	mov	x1, x20
    4f68:	aa1303e0 	mov	x0, x19
    4f6c:	97fffa1a 	bl	37d4 <copy_mpi_to_bigint>
    4f70:	2a0003e2 	mov	w2, w0
    4f74:	34000060 	cbz	w0, 4f80 <TEE_BigIntInvMod+0xfc>
/home/jeferson/optee/optee_os-rpi4/lib/libutee/tee_api_arith_mpi.c:637 (discriminator 1)
    4f78:	52804fa1 	mov	w1, #0x27d                 	// #637
    4f7c:	17fffff4 	b	4f4c <TEE_BigIntInvMod+0xc8>
/home/jeferson/optee/optee_os-rpi4/lib/libutee/tee_api_arith_mpi.c:638 (discriminator 2)
    4f80:	aa1303e0 	mov	x0, x19
    4f84:	94000a1a 	bl	77ec <mbedtls_mpi_free>
/home/jeferson/optee/optee_os-rpi4/lib/libutee/tee_api_arith_mpi.c:639 (discriminator 2)
    4f88:	aa1703e0 	mov	x0, x23
    4f8c:	94000a18 	bl	77ec <mbedtls_mpi_free>
/home/jeferson/optee/optee_os-rpi4/lib/libutee/tee_api_arith_mpi.c:640 (discriminator 2)
    4f90:	eb1602bf 	cmp	x21, x22
    4f94:	54000061 	b.ne	4fa0 <TEE_BigIntInvMod+0x11c>  // b.any
/home/jeferson/optee/optee_os-rpi4/lib/libutee/tee_api_arith_mpi.c:641
    4f98:	aa1503e0 	mov	x0, x21
    4f9c:	94000a14 	bl	77ec <mbedtls_mpi_free>
/home/jeferson/optee/optee_os-rpi4/lib/libutee/tee_api_arith_mpi.c:642
    4fa0:	b0000063 	adrp	x3, 11000 <_DYNAMIC>
    4fa4:	f9409863 	ldr	x3, [x3, #304]
    4fa8:	f94047e0 	ldr	x0, [sp, #136]
    4fac:	f9400061 	ldr	x1, [x3]
    4fb0:	eb010000 	subs	x0, x0, x1
    4fb4:	d2800001 	mov	x1, #0x0                   	// #0
    4fb8:	54000040 	b.eq	4fc0 <TEE_BigIntInvMod+0x13c>  // b.none
    4fbc:	97ffed00 	bl	3bc <__stack_chk_fail>
    4fc0:	a94153f3 	ldp	x19, x20, [sp, #16]
    4fc4:	a9425bf5 	ldp	x21, x22, [sp, #32]
    4fc8:	f9401bf7 	ldr	x23, [sp, #48]
    4fcc:	a8c97bfd 	ldp	x29, x30, [sp], #144
    4fd0:	d65f03c0 	ret

0000000000004fd4 <TEE_BigIntRelativePrime>:
TEE_BigIntRelativePrime():
/home/jeferson/optee/optee_os-rpi4/lib/libutee/tee_api_arith_mpi.c:645
    4fd4:	a9b77bfd 	stp	x29, x30, [sp, #-144]!
    4fd8:	b0000062 	adrp	x2, 11000 <_DYNAMIC>
    4fdc:	910003fd 	mov	x29, sp
    4fe0:	f9409842 	ldr	x2, [x2, #304]
    4fe4:	a90153f3 	stp	x19, x20, [sp, #16]
    4fe8:	aa0003f3 	mov	x19, x0
    4fec:	a9025bf5 	stp	x21, x22, [sp, #32]
/home/jeferson/optee/optee_os-rpi4/lib/libutee/tee_api_arith_mpi.c:652
    4ff0:	910103f4 	add	x20, sp, #0x40
/home/jeferson/optee/optee_os-rpi4/lib/libutee/tee_api_arith_mpi.c:645
    4ff4:	aa0103f5 	mov	x21, x1
    4ff8:	f9001bf7 	str	x23, [sp, #48]
/home/jeferson/optee/optee_os-rpi4/lib/libutee/tee_api_arith_mpi.c:652
    4ffc:	aa0003e1 	mov	x1, x0
/home/jeferson/optee/optee_os-rpi4/lib/libutee/tee_api_arith_mpi.c:645
    5000:	f9400040 	ldr	x0, [x2]
    5004:	f90047e0 	str	x0, [sp, #136]
    5008:	d2800000 	mov	x0, #0x0                   	// #0
/home/jeferson/optee/optee_os-rpi4/lib/libutee/tee_api_arith_mpi.c:652
    500c:	aa1403e0 	mov	x0, x20
    5010:	97fff9cb 	bl	373c <get_mpi>
/home/jeferson/optee/optee_os-rpi4/lib/libutee/tee_api_arith_mpi.c:654
    5014:	eb15027f 	cmp	x19, x21
    5018:	910163f3 	add	x19, sp, #0x58
    501c:	54000260 	b.eq	5068 <TEE_BigIntRelativePrime+0x94>  // b.none
/home/jeferson/optee/optee_os-rpi4/lib/libutee/tee_api_arith_mpi.c:649
    5020:	aa1303f6 	mov	x22, x19
/home/jeferson/optee/optee_os-rpi4/lib/libutee/tee_api_arith_mpi.c:657
    5024:	aa1503e1 	mov	x1, x21
    5028:	aa1303e0 	mov	x0, x19
    502c:	97fff9c4 	bl	373c <get_mpi>
get_mpi():
/home/jeferson/optee/optee_os-rpi4/lib/libutee/tee_api_arith_mpi.c:101
    5030:	9101c3f5 	add	x21, sp, #0x70
    5034:	aa1503e0 	mov	x0, x21
    5038:	940009e3 	bl	77c4 <mbedtls_mpi_init_mempool>
TEE_BigIntRelativePrime():
/home/jeferson/optee/optee_os-rpi4/lib/libutee/tee_api_arith_mpi.c:661
    503c:	aa1303e2 	mov	x2, x19
    5040:	aa1403e1 	mov	x1, x20
    5044:	aa1503e0 	mov	x0, x21
    5048:	94001373 	bl	9e14 <mbedtls_mpi_gcd>
    504c:	2a0003e2 	mov	w2, w0
    5050:	34000100 	cbz	w0, 5070 <TEE_BigIntRelativePrime+0x9c>
/home/jeferson/optee/optee_os-rpi4/lib/libutee/tee_api_arith_mpi.c:661 (discriminator 1)
    5054:	d0000040 	adrp	x0, f000 <__text_end+0x2508>
    5058:	9131d800 	add	x0, x0, #0xc76
    505c:	91036800 	add	x0, x0, #0xda
    5060:	528052a1 	mov	w1, #0x295                 	// #661
    5064:	97fff9aa 	bl	370c <mpi_panic>
/home/jeferson/optee/optee_os-rpi4/lib/libutee/tee_api_arith_mpi.c:655
    5068:	aa1403f6 	mov	x22, x20
    506c:	17fffff1 	b	5030 <TEE_BigIntRelativePrime+0x5c>
/home/jeferson/optee/optee_os-rpi4/lib/libutee/tee_api_arith_mpi.c:663 (discriminator 2)
    5070:	52800021 	mov	w1, #0x1                   	// #1
    5074:	aa1503e0 	mov	x0, x21
    5078:	94000cd1 	bl	83bc <mbedtls_mpi_cmp_int>
    507c:	7100001f 	cmp	w0, #0x0
    5080:	1a9f17f7 	cset	w23, eq  // eq = none
/home/jeferson/optee/optee_os-rpi4/lib/libutee/tee_api_arith_mpi.c:665 (discriminator 2)
    5084:	aa1503e0 	mov	x0, x21
    5088:	940009d9 	bl	77ec <mbedtls_mpi_free>
/home/jeferson/optee/optee_os-rpi4/lib/libutee/tee_api_arith_mpi.c:666 (discriminator 2)
    508c:	aa1403e0 	mov	x0, x20
    5090:	940009d7 	bl	77ec <mbedtls_mpi_free>
/home/jeferson/optee/optee_os-rpi4/lib/libutee/tee_api_arith_mpi.c:667 (discriminator 2)
    5094:	eb1302df 	cmp	x22, x19
    5098:	54000061 	b.ne	50a4 <TEE_BigIntRelativePrime+0xd0>  // b.any
/home/jeferson/optee/optee_os-rpi4/lib/libutee/tee_api_arith_mpi.c:668
    509c:	aa1603e0 	mov	x0, x22
    50a0:	940009d3 	bl	77ec <mbedtls_mpi_free>
/home/jeferson/optee/optee_os-rpi4/lib/libutee/tee_api_arith_mpi.c:671
    50a4:	90000062 	adrp	x2, 11000 <_DYNAMIC>
    50a8:	f9409842 	ldr	x2, [x2, #304]
    50ac:	f94047e0 	ldr	x0, [sp, #136]
    50b0:	f9400041 	ldr	x1, [x2]
    50b4:	eb010000 	subs	x0, x0, x1
    50b8:	d2800001 	mov	x1, #0x0                   	// #0
    50bc:	54000040 	b.eq	50c4 <TEE_BigIntRelativePrime+0xf0>  // b.none
    50c0:	97ffecbf 	bl	3bc <__stack_chk_fail>
    50c4:	2a1703e0 	mov	w0, w23
    50c8:	a94153f3 	ldp	x19, x20, [sp, #16]
    50cc:	a9425bf5 	ldp	x21, x22, [sp, #32]
    50d0:	f9401bf7 	ldr	x23, [sp, #48]
    50d4:	a8c97bfd 	ldp	x29, x30, [sp], #144
    50d8:	d65f03c0 	ret

00000000000050dc <TEE_BigIntExpMod>:
TEE_BigIntExpMod():
/home/jeferson/optee/optee_os-rpi4/lib/libutee/tee_api_arith_mpi.c:686
    50dc:	a9b47bfd 	stp	x29, x30, [sp, #-192]!
    50e0:	90000064 	adrp	x4, 11000 <_DYNAMIC>
    50e4:	910003fd 	mov	x29, sp
    50e8:	f9409884 	ldr	x4, [x4, #304]
    50ec:	a90153f3 	stp	x19, x20, [sp, #16]
    50f0:	aa0003f4 	mov	x20, x0
    50f4:	a9025bf5 	stp	x21, x22, [sp, #32]
/home/jeferson/optee/optee_os-rpi4/lib/libutee/tee_api_arith_mpi.c:695
    50f8:	910163f3 	add	x19, sp, #0x58
/home/jeferson/optee/optee_os-rpi4/lib/libutee/tee_api_arith_mpi.c:686
    50fc:	aa0303f6 	mov	x22, x3
    5100:	a90363f7 	stp	x23, x24, [sp, #48]
    5104:	aa0203f5 	mov	x21, x2
    5108:	aa0103f8 	mov	x24, x1
    510c:	a9046bf9 	stp	x25, x26, [sp, #64]
/home/jeferson/optee/optee_os-rpi4/lib/libutee/tee_api_arith_mpi.c:695
    5110:	aa1403e1 	mov	x1, x20
/home/jeferson/optee/optee_os-rpi4/lib/libutee/tee_api_arith_mpi.c:696
    5114:	910283f7 	add	x23, sp, #0xa0
/home/jeferson/optee/optee_os-rpi4/lib/libutee/tee_api_arith_mpi.c:686
    5118:	f9400080 	ldr	x0, [x4]
    511c:	f9005fe0 	str	x0, [sp, #184]
    5120:	d2800000 	mov	x0, #0x0                   	// #0
/home/jeferson/optee/optee_os-rpi4/lib/libutee/tee_api_arith_mpi.c:688
    5124:	a905ffff 	stp	xzr, xzr, [sp, #88]
/home/jeferson/optee/optee_os-rpi4/lib/libutee/tee_api_arith_mpi.c:695
    5128:	aa1303e0 	mov	x0, x19
/home/jeferson/optee/optee_os-rpi4/lib/libutee/tee_api_arith_mpi.c:688
    512c:	f90037ff 	str	xzr, [sp, #104]
/home/jeferson/optee/optee_os-rpi4/lib/libutee/tee_api_arith_mpi.c:689
    5130:	9101c3fa 	add	x26, sp, #0x70
    5134:	a9077fff 	stp	xzr, xzr, [sp, #112]
/home/jeferson/optee/optee_os-rpi4/lib/libutee/tee_api_arith_mpi.c:690
    5138:	a9087fff 	stp	xzr, xzr, [sp, #128]
    513c:	a9097fff 	stp	xzr, xzr, [sp, #144]
/home/jeferson/optee/optee_os-rpi4/lib/libutee/tee_api_arith_mpi.c:691
    5140:	a90a7fff 	stp	xzr, xzr, [sp, #160]
    5144:	f9005bff 	str	xzr, [sp, #176]
/home/jeferson/optee/optee_os-rpi4/lib/libutee/tee_api_arith_mpi.c:695
    5148:	97fff97d 	bl	373c <get_mpi>
/home/jeferson/optee/optee_os-rpi4/lib/libutee/tee_api_arith_mpi.c:696
    514c:	aa1603e1 	mov	x1, x22
    5150:	aa1703e0 	mov	x0, x23
    5154:	97fff97a 	bl	373c <get_mpi>
/home/jeferson/optee/optee_os-rpi4/lib/libutee/tee_api_arith_mpi.c:697
    5158:	eb18029f 	cmp	x20, x24
    515c:	54000340 	b.eq	51c4 <TEE_BigIntExpMod+0xe8>  // b.none
/home/jeferson/optee/optee_os-rpi4/lib/libutee/tee_api_arith_mpi.c:692
    5160:	aa1a03f6 	mov	x22, x26
/home/jeferson/optee/optee_os-rpi4/lib/libutee/tee_api_arith_mpi.c:700
    5164:	aa1803e1 	mov	x1, x24
    5168:	aa1a03e0 	mov	x0, x26
    516c:	97fff974 	bl	373c <get_mpi>
/home/jeferson/optee/optee_os-rpi4/lib/libutee/tee_api_arith_mpi.c:702
    5170:	eb15029f 	cmp	x20, x21
    5174:	910223f9 	add	x25, sp, #0x88
    5178:	540002a0 	b.eq	51cc <TEE_BigIntExpMod+0xf0>  // b.none
/home/jeferson/optee/optee_os-rpi4/lib/libutee/tee_api_arith_mpi.c:704
    517c:	eb15031f 	cmp	x24, x21
    5180:	540002a0 	b.eq	51d4 <TEE_BigIntExpMod+0xf8>  // b.none
/home/jeferson/optee/optee_os-rpi4/lib/libutee/tee_api_arith_mpi.c:707
    5184:	aa1503e1 	mov	x1, x21
/home/jeferson/optee/optee_os-rpi4/lib/libutee/tee_api_arith_mpi.c:693
    5188:	aa1903f5 	mov	x21, x25
/home/jeferson/optee/optee_os-rpi4/lib/libutee/tee_api_arith_mpi.c:707
    518c:	aa1903e0 	mov	x0, x25
    5190:	97fff96b 	bl	373c <get_mpi>
/home/jeferson/optee/optee_os-rpi4/lib/libutee/tee_api_arith_mpi.c:709
    5194:	aa1703e0 	mov	x0, x23
    5198:	52800041 	mov	w1, #0x2                   	// #2
    519c:	94000c88 	bl	83bc <mbedtls_mpi_cmp_int>
    51a0:	7100001f 	cmp	w0, #0x0
    51a4:	540001cc 	b.gt	51dc <TEE_BigIntExpMod+0x100>
/home/jeferson/optee/optee_os-rpi4/lib/libutee/tee_api_arith_mpi.c:710
    51a8:	d0000040 	adrp	x0, f000 <__text_end+0x2508>
    51ac:	9131d800 	add	x0, x0, #0xc76
    51b0:	d0000042 	adrp	x2, f000 <__text_end+0x2508>
    51b4:	9103c800 	add	x0, x0, #0xf2
    51b8:	91319042 	add	x2, x2, #0xc64
    51bc:	528058c1 	mov	w1, #0x2c6                 	// #710
    51c0:	97fff947 	bl	36dc <api_panic>
/home/jeferson/optee/optee_os-rpi4/lib/libutee/tee_api_arith_mpi.c:698
    51c4:	aa1303f6 	mov	x22, x19
    51c8:	17ffffea 	b	5170 <TEE_BigIntExpMod+0x94>
/home/jeferson/optee/optee_os-rpi4/lib/libutee/tee_api_arith_mpi.c:703
    51cc:	aa1303f5 	mov	x21, x19
    51d0:	17fffff1 	b	5194 <TEE_BigIntExpMod+0xb8>
/home/jeferson/optee/optee_os-rpi4/lib/libutee/tee_api_arith_mpi.c:705
    51d4:	aa1603f5 	mov	x21, x22
    51d8:	17ffffef 	b	5194 <TEE_BigIntExpMod+0xb8>
/home/jeferson/optee/optee_os-rpi4/lib/libutee/tee_api_arith_mpi.c:711
    51dc:	aa1703e0 	mov	x0, x23
    51e0:	97fff9e9 	bl	3984 <mpi_is_odd>
    51e4:	72001c1f 	tst	w0, #0xff
    51e8:	540002c0 	b.eq	5240 <TEE_BigIntExpMod+0x164>  // b.none
/home/jeferson/optee/optee_os-rpi4/lib/libutee/tee_api_arith_mpi.c:716
    51ec:	aa1503e2 	mov	x2, x21
    51f0:	aa1703e3 	mov	x3, x23
    51f4:	aa1603e1 	mov	x1, x22
    51f8:	aa1303e0 	mov	x0, x19
    51fc:	d2800004 	mov	x4, #0x0                   	// #0
    5200:	94001151 	bl	9744 <mbedtls_mpi_exp_mod>
    5204:	2a0003e2 	mov	w2, w0
    5208:	340000c0 	cbz	w0, 5220 <TEE_BigIntExpMod+0x144>
/home/jeferson/optee/optee_os-rpi4/lib/libutee/tee_api_arith_mpi.c:716 (discriminator 1)
    520c:	52805981 	mov	w1, #0x2cc                 	// #716
/home/jeferson/optee/optee_os-rpi4/lib/libutee/tee_api_arith_mpi.c:717 (discriminator 1)
    5210:	d0000040 	adrp	x0, f000 <__text_end+0x2508>
    5214:	9131d800 	add	x0, x0, #0xc76
    5218:	9103c800 	add	x0, x0, #0xf2
    521c:	97fff93c 	bl	370c <mpi_panic>
/home/jeferson/optee/optee_os-rpi4/lib/libutee/tee_api_arith_mpi.c:717 (discriminator 2)
    5220:	aa1403e1 	mov	x1, x20
    5224:	aa1303e0 	mov	x0, x19
/home/jeferson/optee/optee_os-rpi4/lib/libutee/tee_api_arith_mpi.c:687 (discriminator 2)
    5228:	52800014 	mov	w20, #0x0                   	// #0
/home/jeferson/optee/optee_os-rpi4/lib/libutee/tee_api_arith_mpi.c:717 (discriminator 2)
    522c:	97fff96a 	bl	37d4 <copy_mpi_to_bigint>
    5230:	2a0003e2 	mov	w2, w0
    5234:	34000080 	cbz	w0, 5244 <TEE_BigIntExpMod+0x168>
/home/jeferson/optee/optee_os-rpi4/lib/libutee/tee_api_arith_mpi.c:717 (discriminator 1)
    5238:	528059a1 	mov	w1, #0x2cd                 	// #717
    523c:	17fffff5 	b	5210 <TEE_BigIntExpMod+0x134>
/home/jeferson/optee/optee_os-rpi4/lib/libutee/tee_api_arith_mpi.c:712
    5240:	129ffeb4 	mov	w20, #0xffff000a            	// #-65526
/home/jeferson/optee/optee_os-rpi4/lib/libutee/tee_api_arith_mpi.c:719 (discriminator 2)
    5244:	aa1303e0 	mov	x0, x19
    5248:	94000969 	bl	77ec <mbedtls_mpi_free>
/home/jeferson/optee/optee_os-rpi4/lib/libutee/tee_api_arith_mpi.c:720 (discriminator 2)
    524c:	aa1703e0 	mov	x0, x23
    5250:	94000967 	bl	77ec <mbedtls_mpi_free>
/home/jeferson/optee/optee_os-rpi4/lib/libutee/tee_api_arith_mpi.c:721 (discriminator 2)
    5254:	eb1a02df 	cmp	x22, x26
    5258:	54000061 	b.ne	5264 <TEE_BigIntExpMod+0x188>  // b.any
/home/jeferson/optee/optee_os-rpi4/lib/libutee/tee_api_arith_mpi.c:722
    525c:	aa1603e0 	mov	x0, x22
    5260:	94000963 	bl	77ec <mbedtls_mpi_free>
/home/jeferson/optee/optee_os-rpi4/lib/libutee/tee_api_arith_mpi.c:723
    5264:	eb1902bf 	cmp	x21, x25
    5268:	54000061 	b.ne	5274 <TEE_BigIntExpMod+0x198>  // b.any
/home/jeferson/optee/optee_os-rpi4/lib/libutee/tee_api_arith_mpi.c:724
    526c:	aa1503e0 	mov	x0, x21
    5270:	9400095f 	bl	77ec <mbedtls_mpi_free>
/home/jeferson/optee/optee_os-rpi4/lib/libutee/tee_api_arith_mpi.c:727
    5274:	90000064 	adrp	x4, 11000 <_DYNAMIC>
    5278:	f9409884 	ldr	x4, [x4, #304]
    527c:	f9405fe0 	ldr	x0, [sp, #184]
    5280:	f9400081 	ldr	x1, [x4]
    5284:	eb010000 	subs	x0, x0, x1
    5288:	d2800001 	mov	x1, #0x0                   	// #0
    528c:	54000040 	b.eq	5294 <TEE_BigIntExpMod+0x1b8>  // b.none
    5290:	97ffec4b 	bl	3bc <__stack_chk_fail>
    5294:	2a1403e0 	mov	w0, w20
    5298:	a94153f3 	ldp	x19, x20, [sp, #16]
    529c:	a9425bf5 	ldp	x21, x22, [sp, #32]
    52a0:	a94363f7 	ldp	x23, x24, [sp, #48]
    52a4:	a9446bf9 	ldp	x25, x26, [sp, #64]
    52a8:	a8cc7bfd 	ldp	x29, x30, [sp], #192
    52ac:	d65f03c0 	ret

00000000000052b0 <TEE_BigIntComputeExtendedGcd>:
TEE_BigIntComputeExtendedGcd():
/home/jeferson/optee/optee_os-rpi4/lib/libutee/tee_api_arith_mpi.c:828
    52b0:	a9b17bfd 	stp	x29, x30, [sp, #-240]!
    52b4:	910003fd 	mov	x29, sp
    52b8:	a9046bf9 	stp	x25, x26, [sp, #64]
    52bc:	aa0003fa 	mov	x26, x0
    52c0:	90000060 	adrp	x0, 11000 <_DYNAMIC>
    52c4:	a90153f3 	stp	x19, x20, [sp, #16]
    52c8:	aa0103f9 	mov	x25, x1
    52cc:	aa0403f3 	mov	x19, x4
    52d0:	f9409800 	ldr	x0, [x0, #304]
    52d4:	a9025bf5 	stp	x21, x22, [sp, #32]
/home/jeferson/optee/optee_os-rpi4/lib/libutee/tee_api_arith_mpi.c:834
    52d8:	9101c3f5 	add	x21, sp, #0x70
/home/jeferson/optee/optee_os-rpi4/lib/libutee/tee_api_arith_mpi.c:828
    52dc:	a90363f7 	stp	x23, x24, [sp, #48]
    52e0:	aa0303f6 	mov	x22, x3
    52e4:	aa0203f8 	mov	x24, x2
    52e8:	a90573fb 	stp	x27, x28, [sp, #80]
/home/jeferson/optee/optee_os-rpi4/lib/libutee/tee_api_arith_mpi.c:835
    52ec:	910223f4 	add	x20, sp, #0x88
    52f0:	910283fb 	add	x27, sp, #0xa0
/home/jeferson/optee/optee_os-rpi4/lib/libutee/tee_api_arith_mpi.c:828
    52f4:	f9400001 	ldr	x1, [x0]
    52f8:	f90077e1 	str	x1, [sp, #232]
    52fc:	d2800001 	mov	x1, #0x0                   	// #0
/home/jeferson/optee/optee_os-rpi4/lib/libutee/tee_api_arith_mpi.c:834
    5300:	aa1503e0 	mov	x0, x21
    5304:	aa1a03e1 	mov	x1, x26
    5308:	97fff90d 	bl	373c <get_mpi>
/home/jeferson/optee/optee_os-rpi4/lib/libutee/tee_api_arith_mpi.c:835
    530c:	aa1603e1 	mov	x1, x22
    5310:	aa1403e0 	mov	x0, x20
    5314:	97fff90a 	bl	373c <get_mpi>
/home/jeferson/optee/optee_os-rpi4/lib/libutee/tee_api_arith_mpi.c:837
    5318:	eb1302df 	cmp	x22, x19
    531c:	54000240 	b.eq	5364 <TEE_BigIntComputeExtendedGcd+0xb4>  // b.none
/home/jeferson/optee/optee_os-rpi4/lib/libutee/tee_api_arith_mpi.c:840
    5320:	aa1303e1 	mov	x1, x19
/home/jeferson/optee/optee_os-rpi4/lib/libutee/tee_api_arith_mpi.c:832
    5324:	aa1b03f3 	mov	x19, x27
/home/jeferson/optee/optee_os-rpi4/lib/libutee/tee_api_arith_mpi.c:840
    5328:	aa1b03e0 	mov	x0, x27
    532c:	97fff904 	bl	373c <get_mpi>
/home/jeferson/optee/optee_os-rpi4/lib/libutee/tee_api_arith_mpi.c:842
    5330:	aa180320 	orr	x0, x25, x24
    5334:	b50001c0 	cbnz	x0, 536c <TEE_BigIntComputeExtendedGcd+0xbc>
/home/jeferson/optee/optee_os-rpi4/lib/libutee/tee_api_arith_mpi.c:843
    5338:	aa1303e2 	mov	x2, x19
    533c:	aa1403e1 	mov	x1, x20
    5340:	aa1503e0 	mov	x0, x21
    5344:	940012b4 	bl	9e14 <mbedtls_mpi_gcd>
    5348:	2a0003e2 	mov	w2, w0
    534c:	34000aa0 	cbz	w0, 54a0 <TEE_BigIntComputeExtendedGcd+0x1f0>
/home/jeferson/optee/optee_os-rpi4/lib/libutee/tee_api_arith_mpi.c:843 (discriminator 1)
    5350:	52806961 	mov	w1, #0x34b                 	// #843
/home/jeferson/optee/optee_os-rpi4/lib/libutee/tee_api_arith_mpi.c:859 (discriminator 1)
    5354:	d0000040 	adrp	x0, f000 <__text_end+0x2508>
    5358:	9131d800 	add	x0, x0, #0xc76
    535c:	91040c00 	add	x0, x0, #0x103
    5360:	97fff8eb 	bl	370c <mpi_panic>
/home/jeferson/optee/optee_os-rpi4/lib/libutee/tee_api_arith_mpi.c:838
    5364:	aa1403f3 	mov	x19, x20
    5368:	17fffff2 	b	5330 <TEE_BigIntComputeExtendedGcd+0x80>
/home/jeferson/optee/optee_os-rpi4/lib/libutee/tee_api_arith_mpi.c:848
    536c:	39c00260 	ldrsb	w0, [x19]
/home/jeferson/optee/optee_os-rpi4/lib/libutee/tee_api_arith_mpi.c:854
    5370:	9102e3f7 	add	x23, sp, #0xb8
/home/jeferson/optee/optee_os-rpi4/lib/libutee/tee_api_arith_mpi.c:847
    5374:	39c223fc 	ldrsb	w28, [sp, #136]
/home/jeferson/optee/optee_os-rpi4/lib/libutee/tee_api_arith_mpi.c:854
    5378:	aa1903e1 	mov	x1, x25
/home/jeferson/optee/optee_os-rpi4/lib/libutee/tee_api_arith_mpi.c:848
    537c:	b9006fe0 	str	w0, [sp, #108]
/home/jeferson/optee/optee_os-rpi4/lib/libutee/tee_api_arith_mpi.c:851
    5380:	52800020 	mov	w0, #0x1                   	// #1
    5384:	790113e0 	strh	w0, [sp, #136]
/home/jeferson/optee/optee_os-rpi4/lib/libutee/tee_api_arith_mpi.c:855
    5388:	910343f6 	add	x22, sp, #0xd0
/home/jeferson/optee/optee_os-rpi4/lib/libutee/tee_api_arith_mpi.c:852
    538c:	79000260 	strh	w0, [x19]
/home/jeferson/optee/optee_os-rpi4/lib/libutee/tee_api_arith_mpi.c:854
    5390:	aa1703e0 	mov	x0, x23
    5394:	97fff8ea 	bl	373c <get_mpi>
/home/jeferson/optee/optee_os-rpi4/lib/libutee/tee_api_arith_mpi.c:855
    5398:	aa1803e1 	mov	x1, x24
    539c:	aa1603e0 	mov	x0, x22
    53a0:	97fff8e7 	bl	373c <get_mpi>
/home/jeferson/optee/optee_os-rpi4/lib/libutee/tee_api_arith_mpi.c:857
    53a4:	aa1303e1 	mov	x1, x19
    53a8:	aa1403e0 	mov	x0, x20
    53ac:	94000ba9 	bl	8250 <mbedtls_mpi_cmp_abs>
/home/jeferson/optee/optee_os-rpi4/lib/libutee/tee_api_arith_mpi.c:858
    53b0:	7100001f 	cmp	w0, #0x0
    53b4:	350002c0 	cbnz	w0, 540c <TEE_BigIntComputeExtendedGcd+0x15c>
/home/jeferson/optee/optee_os-rpi4/lib/libutee/tee_api_arith_mpi.c:859
    53b8:	aa1403e1 	mov	x1, x20
    53bc:	aa1503e0 	mov	x0, x21
    53c0:	940009c1 	bl	7ac4 <mbedtls_mpi_copy>
    53c4:	2a0003e2 	mov	w2, w0
    53c8:	34000060 	cbz	w0, 53d4 <TEE_BigIntComputeExtendedGcd+0x124>
/home/jeferson/optee/optee_os-rpi4/lib/libutee/tee_api_arith_mpi.c:859 (discriminator 1)
    53cc:	52806b61 	mov	w1, #0x35b                 	// #859
    53d0:	17ffffe1 	b	5354 <TEE_BigIntComputeExtendedGcd+0xa4>
/home/jeferson/optee/optee_os-rpi4/lib/libutee/tee_api_arith_mpi.c:860 (discriminator 2)
    53d4:	aa1703e0 	mov	x0, x23
    53d8:	52800021 	mov	w1, #0x1                   	// #1
    53dc:	94000a10 	bl	7c1c <mbedtls_mpi_lset>
    53e0:	2a0003e2 	mov	w2, w0
    53e4:	34000060 	cbz	w0, 53f0 <TEE_BigIntComputeExtendedGcd+0x140>
/home/jeferson/optee/optee_os-rpi4/lib/libutee/tee_api_arith_mpi.c:860 (discriminator 1)
    53e8:	52806b81 	mov	w1, #0x35c                 	// #860
    53ec:	17ffffda 	b	5354 <TEE_BigIntComputeExtendedGcd+0xa4>
/home/jeferson/optee/optee_os-rpi4/lib/libutee/tee_api_arith_mpi.c:861 (discriminator 2)
    53f0:	aa1603e0 	mov	x0, x22
    53f4:	52800001 	mov	w1, #0x0                   	// #0
    53f8:	94000a09 	bl	7c1c <mbedtls_mpi_lset>
    53fc:	2a0003e2 	mov	w2, w0
    5400:	34000140 	cbz	w0, 5428 <TEE_BigIntComputeExtendedGcd+0x178>
/home/jeferson/optee/optee_os-rpi4/lib/libutee/tee_api_arith_mpi.c:861 (discriminator 1)
    5404:	52806ba1 	mov	w1, #0x35d                 	// #861
    5408:	17ffffd3 	b	5354 <TEE_BigIntComputeExtendedGcd+0xa4>
/home/jeferson/optee/optee_os-rpi4/lib/libutee/tee_api_arith_mpi.c:862
    540c:	540002ad 	b.le	5460 <TEE_BigIntComputeExtendedGcd+0x1b0>
/home/jeferson/optee/optee_os-rpi4/lib/libutee/tee_api_arith_mpi.c:863
    5410:	aa1303e4 	mov	x4, x19
    5414:	aa1403e3 	mov	x3, x20
    5418:	aa1603e2 	mov	x2, x22
    541c:	aa1703e1 	mov	x1, x23
/home/jeferson/optee/optee_os-rpi4/lib/libutee/tee_api_arith_mpi.c:865
    5420:	aa1503e0 	mov	x0, x21
    5424:	97fff96a 	bl	39cc <mpi_egcd>
/home/jeferson/optee/optee_os-rpi4/lib/libutee/tee_api_arith_mpi.c:868
    5428:	794173e0 	ldrh	w0, [sp, #184]
/home/jeferson/optee/optee_os-rpi4/lib/libutee/tee_api_arith_mpi.c:869
    542c:	b9406fe1 	ldr	w1, [sp, #108]
/home/jeferson/optee/optee_os-rpi4/lib/libutee/tee_api_arith_mpi.c:868
    5430:	1b007f9c 	mul	w28, w28, w0
/home/jeferson/optee/optee_os-rpi4/lib/libutee/tee_api_arith_mpi.c:869
    5434:	7941a3e0 	ldrh	w0, [sp, #208]
/home/jeferson/optee/optee_os-rpi4/lib/libutee/tee_api_arith_mpi.c:868
    5438:	790173fc 	strh	w28, [sp, #184]
/home/jeferson/optee/optee_os-rpi4/lib/libutee/tee_api_arith_mpi.c:869
    543c:	1b007c20 	mul	w0, w1, w0
/home/jeferson/optee/optee_os-rpi4/lib/libutee/tee_api_arith_mpi.c:871
    5440:	aa1903e1 	mov	x1, x25
/home/jeferson/optee/optee_os-rpi4/lib/libutee/tee_api_arith_mpi.c:869
    5444:	7901a3e0 	strh	w0, [sp, #208]
/home/jeferson/optee/optee_os-rpi4/lib/libutee/tee_api_arith_mpi.c:871
    5448:	aa1703e0 	mov	x0, x23
    544c:	97fff8e2 	bl	37d4 <copy_mpi_to_bigint>
    5450:	2a0003e2 	mov	w2, w0
    5454:	34000100 	cbz	w0, 5474 <TEE_BigIntComputeExtendedGcd+0x1c4>
/home/jeferson/optee/optee_os-rpi4/lib/libutee/tee_api_arith_mpi.c:871 (discriminator 1)
    5458:	52806ce1 	mov	w1, #0x367                 	// #871
    545c:	17ffffbe 	b	5354 <TEE_BigIntComputeExtendedGcd+0xa4>
/home/jeferson/optee/optee_os-rpi4/lib/libutee/tee_api_arith_mpi.c:865
    5460:	aa1403e4 	mov	x4, x20
    5464:	aa1303e3 	mov	x3, x19
    5468:	aa1703e2 	mov	x2, x23
    546c:	aa1603e1 	mov	x1, x22
    5470:	17ffffec 	b	5420 <TEE_BigIntComputeExtendedGcd+0x170>
/home/jeferson/optee/optee_os-rpi4/lib/libutee/tee_api_arith_mpi.c:872 (discriminator 2)
    5474:	aa1803e1 	mov	x1, x24
    5478:	aa1603e0 	mov	x0, x22
    547c:	97fff8d6 	bl	37d4 <copy_mpi_to_bigint>
    5480:	2a0003e2 	mov	w2, w0
    5484:	34000060 	cbz	w0, 5490 <TEE_BigIntComputeExtendedGcd+0x1e0>
/home/jeferson/optee/optee_os-rpi4/lib/libutee/tee_api_arith_mpi.c:872 (discriminator 1)
    5488:	52806d01 	mov	w1, #0x368                 	// #872
    548c:	17ffffb2 	b	5354 <TEE_BigIntComputeExtendedGcd+0xa4>
/home/jeferson/optee/optee_os-rpi4/lib/libutee/tee_api_arith_mpi.c:873 (discriminator 2)
    5490:	aa1703e0 	mov	x0, x23
    5494:	940008d6 	bl	77ec <mbedtls_mpi_free>
/home/jeferson/optee/optee_os-rpi4/lib/libutee/tee_api_arith_mpi.c:874 (discriminator 2)
    5498:	aa1603e0 	mov	x0, x22
    549c:	940008d4 	bl	77ec <mbedtls_mpi_free>
/home/jeferson/optee/optee_os-rpi4/lib/libutee/tee_api_arith_mpi.c:877
    54a0:	aa1a03e1 	mov	x1, x26
    54a4:	aa1503e0 	mov	x0, x21
    54a8:	97fff8cb 	bl	37d4 <copy_mpi_to_bigint>
    54ac:	2a0003e2 	mov	w2, w0
    54b0:	34000060 	cbz	w0, 54bc <TEE_BigIntComputeExtendedGcd+0x20c>
/home/jeferson/optee/optee_os-rpi4/lib/libutee/tee_api_arith_mpi.c:877 (discriminator 1)
    54b4:	52806da1 	mov	w1, #0x36d                 	// #877
    54b8:	17ffffa7 	b	5354 <TEE_BigIntComputeExtendedGcd+0xa4>
/home/jeferson/optee/optee_os-rpi4/lib/libutee/tee_api_arith_mpi.c:878 (discriminator 2)
    54bc:	aa1503e0 	mov	x0, x21
    54c0:	940008cb 	bl	77ec <mbedtls_mpi_free>
/home/jeferson/optee/optee_os-rpi4/lib/libutee/tee_api_arith_mpi.c:879 (discriminator 2)
    54c4:	aa1403e0 	mov	x0, x20
    54c8:	940008c9 	bl	77ec <mbedtls_mpi_free>
/home/jeferson/optee/optee_os-rpi4/lib/libutee/tee_api_arith_mpi.c:880 (discriminator 2)
    54cc:	eb1b027f 	cmp	x19, x27
    54d0:	54000061 	b.ne	54dc <TEE_BigIntComputeExtendedGcd+0x22c>  // b.any
/home/jeferson/optee/optee_os-rpi4/lib/libutee/tee_api_arith_mpi.c:881
    54d4:	aa1303e0 	mov	x0, x19
    54d8:	940008c5 	bl	77ec <mbedtls_mpi_free>
/home/jeferson/optee/optee_os-rpi4/lib/libutee/tee_api_arith_mpi.c:882
    54dc:	90000060 	adrp	x0, 11000 <_DYNAMIC>
    54e0:	f9409800 	ldr	x0, [x0, #304]
    54e4:	f94077e2 	ldr	x2, [sp, #232]
    54e8:	f9400001 	ldr	x1, [x0]
    54ec:	eb010042 	subs	x2, x2, x1
    54f0:	d2800001 	mov	x1, #0x0                   	// #0
    54f4:	54000040 	b.eq	54fc <TEE_BigIntComputeExtendedGcd+0x24c>  // b.none
    54f8:	97ffebb1 	bl	3bc <__stack_chk_fail>
    54fc:	a94153f3 	ldp	x19, x20, [sp, #16]
    5500:	a9425bf5 	ldp	x21, x22, [sp, #32]
    5504:	a94363f7 	ldp	x23, x24, [sp, #48]
    5508:	a9446bf9 	ldp	x25, x26, [sp, #64]
    550c:	a94573fb 	ldp	x27, x28, [sp, #80]
    5510:	a8cf7bfd 	ldp	x29, x30, [sp], #240
    5514:	d65f03c0 	ret

0000000000005518 <TEE_BigIntIsProbablePrime>:
TEE_BigIntIsProbablePrime():
/home/jeferson/optee/optee_os-rpi4/lib/libutee/tee_api_arith_mpi.c:893
    5518:	a9bb7bfd 	stp	x29, x30, [sp, #-80]!
    551c:	910003fd 	mov	x29, sp
    5520:	a90153f3 	stp	x19, x20, [sp, #16]
    5524:	90000074 	adrp	x20, 11000 <_DYNAMIC>
/home/jeferson/optee/optee_os-rpi4/lib/libutee/tee_api_arith_mpi.c:897
    5528:	9100c3f3 	add	x19, sp, #0x30
/home/jeferson/optee/optee_os-rpi4/lib/libutee/tee_api_arith_mpi.c:893
    552c:	f9409a81 	ldr	x1, [x20, #304]
    5530:	f90013f5 	str	x21, [sp, #32]
    5534:	f9400022 	ldr	x2, [x1]
    5538:	f90027e2 	str	x2, [sp, #72]
    553c:	d2800002 	mov	x2, #0x0                   	// #0
/home/jeferson/optee/optee_os-rpi4/lib/libutee/tee_api_arith_mpi.c:897
    5540:	aa0003e1 	mov	x1, x0
    5544:	aa1303e0 	mov	x0, x19
    5548:	97fff87d 	bl	373c <get_mpi>
/home/jeferson/optee/optee_os-rpi4/lib/libutee/tee_api_arith_mpi.c:899
    554c:	d0ffffe1 	adrp	x1, 3000 <TEE_InvokeTACommand+0x30>
    5550:	91269021 	add	x1, x1, #0x9a4
    5554:	d2800002 	mov	x2, #0x0                   	// #0
    5558:	aa1303e0 	mov	x0, x19
    555c:	94001522 	bl	a9e4 <mbedtls_mpi_is_prime>
    5560:	2a0003f5 	mov	w21, w0
/home/jeferson/optee/optee_os-rpi4/lib/libutee/tee_api_arith_mpi.c:901
    5564:	aa1303e0 	mov	x0, x19
    5568:	940008a1 	bl	77ec <mbedtls_mpi_free>
/home/jeferson/optee/optee_os-rpi4/lib/libutee/tee_api_arith_mpi.c:907
    556c:	f9409a94 	ldr	x20, [x20, #304]
/home/jeferson/optee/optee_os-rpi4/lib/libutee/tee_api_arith_mpi.c:903
    5570:	710002bf 	cmp	w21, #0x0
    5574:	1a9f17e0 	cset	w0, eq  // eq = none
/home/jeferson/optee/optee_os-rpi4/lib/libutee/tee_api_arith_mpi.c:907
    5578:	f94027e1 	ldr	x1, [sp, #72]
    557c:	f9400282 	ldr	x2, [x20]
    5580:	eb020021 	subs	x1, x1, x2
    5584:	d2800002 	mov	x2, #0x0                   	// #0
    5588:	54000040 	b.eq	5590 <TEE_BigIntIsProbablePrime+0x78>  // b.none
    558c:	97ffeb8c 	bl	3bc <__stack_chk_fail>
    5590:	a94153f3 	ldp	x19, x20, [sp, #16]
    5594:	f94013f5 	ldr	x21, [sp, #32]
    5598:	a8c57bfd 	ldp	x29, x30, [sp], #80
    559c:	d65f03c0 	ret

00000000000055a0 <TEE_BigIntInitFMM>:
TEE_BigIntInitFMM():
/home/jeferson/optee/optee_os-rpi4/lib/libutee/tee_api_arith_mpi.c:919
    55a0:	17fffa7c 	b	3f90 <TEE_BigIntInit>

00000000000055a4 <__GP11_TEE_BigIntInitFMM>:
__GP11_TEE_BigIntInitFMM():
/home/jeferson/optee/optee_os-rpi4/lib/libutee/tee_api_arith_mpi.c:924
    55a4:	2a0103e1 	mov	w1, w1
    55a8:	17fffffe 	b	55a0 <TEE_BigIntInitFMM>

00000000000055ac <TEE_BigIntInitFMMContext>:
TEE_BigIntInitFMMContext():
/home/jeferson/optee/optee_os-rpi4/lib/libutee/tee_api_arith_mpi.c:931
    55ac:	d65f03c0 	ret

00000000000055b0 <__GP11_TEE_BigIntInitFMMContext>:
__GP11_TEE_BigIntInitFMMContext():
/home/jeferson/optee/optee_os-rpi4/lib/libutee/tee_api_arith_mpi.c:936
    55b0:	2a0103e1 	mov	w1, w1
    55b4:	17fffffe 	b	55ac <TEE_BigIntInitFMMContext>

00000000000055b8 <TEE_BigIntInitFMMContext1>:
TEE_BigIntInitFMMContext1():
/home/jeferson/optee/optee_os-rpi4/lib/libutee/tee_api_arith_mpi.c:944
    55b8:	52800000 	mov	w0, #0x0                   	// #0
    55bc:	d65f03c0 	ret

00000000000055c0 <TEE_BigIntFMMSizeInU32>:
TEE_BigIntFMMSizeInU32():
/home/jeferson/optee/optee_os-rpi4/lib/libutee/tee_api_arith_mpi.c:948
    55c0:	91007c00 	add	x0, x0, #0x1f
    55c4:	d345fc00 	lsr	x0, x0, #5
/home/jeferson/optee/optee_os-rpi4/lib/libutee/tee_api_arith_mpi.c:949
    55c8:	91000800 	add	x0, x0, #0x2
    55cc:	d65f03c0 	ret

00000000000055d0 <__GP11_TEE_BigIntFMMSizeInU32>:
__GP11_TEE_BigIntFMMSizeInU32():
/home/jeferson/optee/optee_os-rpi4/lib/libutee/tee_api_arith_mpi.c:952
    55d0:	a9bf7bfd 	stp	x29, x30, [sp, #-16]!
/home/jeferson/optee/optee_os-rpi4/lib/libutee/tee_api_arith_mpi.c:953
    55d4:	2a0003e0 	mov	w0, w0
/home/jeferson/optee/optee_os-rpi4/lib/libutee/tee_api_arith_mpi.c:952
    55d8:	910003fd 	mov	x29, sp
/home/jeferson/optee/optee_os-rpi4/lib/libutee/tee_api_arith_mpi.c:953
    55dc:	97fffff9 	bl	55c0 <TEE_BigIntFMMSizeInU32>
/home/jeferson/optee/optee_os-rpi4/lib/libutee/tee_api_arith_mpi.c:954
    55e0:	a8c17bfd 	ldp	x29, x30, [sp], #16
    55e4:	d65f03c0 	ret

00000000000055e8 <TEE_BigIntFMMContextSizeInU32>:
TEE_BigIntFMMContextSizeInU32():
/home/jeferson/optee/optee_os-rpi4/lib/libutee/tee_api_arith_mpi.c:960
    55e8:	d2800020 	mov	x0, #0x1                   	// #1
    55ec:	d65f03c0 	ret

00000000000055f0 <__GP11_TEE_BigIntFMMContextSizeInU32>:
__GP11_TEE_BigIntFMMContextSizeInU32():
/home/jeferson/optee/optee_os-rpi4/lib/libutee/tee_api_arith_mpi.c:963
    55f0:	a9bf7bfd 	stp	x29, x30, [sp, #-16]!
/home/jeferson/optee/optee_os-rpi4/lib/libutee/tee_api_arith_mpi.c:964
    55f4:	2a0003e0 	mov	w0, w0
/home/jeferson/optee/optee_os-rpi4/lib/libutee/tee_api_arith_mpi.c:963
    55f8:	910003fd 	mov	x29, sp
/home/jeferson/optee/optee_os-rpi4/lib/libutee/tee_api_arith_mpi.c:964
    55fc:	97fffffb 	bl	55e8 <TEE_BigIntFMMContextSizeInU32>
/home/jeferson/optee/optee_os-rpi4/lib/libutee/tee_api_arith_mpi.c:965
    5600:	a8c17bfd 	ldp	x29, x30, [sp], #16
    5604:	d65f03c0 	ret

0000000000005608 <TEE_BigIntConvertToFMM>:
TEE_BigIntConvertToFMM():
/home/jeferson/optee/optee_os-rpi4/lib/libutee/tee_api_arith_mpi.c:971
    5608:	17fffdf8 	b	4de8 <TEE_BigIntMod>

000000000000560c <TEE_BigIntConvertFromFMM>:
TEE_BigIntConvertFromFMM():
/home/jeferson/optee/optee_os-rpi4/lib/libutee/tee_api_arith_mpi.c:977
    560c:	a9b87bfd 	stp	x29, x30, [sp, #-128]!
    5610:	910003fd 	mov	x29, sp
    5614:	a90153f3 	stp	x19, x20, [sp, #16]
    5618:	90000073 	adrp	x19, 11000 <_DYNAMIC>
/home/jeferson/optee/optee_os-rpi4/lib/libutee/tee_api_arith_mpi.c:981
    561c:	910123f4 	add	x20, sp, #0x48
/home/jeferson/optee/optee_os-rpi4/lib/libutee/tee_api_arith_mpi.c:977
    5620:	a9025bf5 	stp	x21, x22, [sp, #32]
    5624:	aa0003f5 	mov	x21, x0
/home/jeferson/optee/optee_os-rpi4/lib/libutee/tee_api_arith_mpi.c:982
    5628:	910183f6 	add	x22, sp, #0x60
/home/jeferson/optee/optee_os-rpi4/lib/libutee/tee_api_arith_mpi.c:977
    562c:	f9409a60 	ldr	x0, [x19, #304]
    5630:	f9001bf7 	str	x23, [sp, #48]
    5634:	aa0103f7 	mov	x23, x1
    5638:	f9400001 	ldr	x1, [x0]
    563c:	f9003fe1 	str	x1, [sp, #120]
    5640:	d2800001 	mov	x1, #0x0                   	// #0
/home/jeferson/optee/optee_os-rpi4/lib/libutee/tee_api_arith_mpi.c:981
    5644:	aa1403e0 	mov	x0, x20
    5648:	aa1503e1 	mov	x1, x21
    564c:	97fff83c 	bl	373c <get_mpi>
/home/jeferson/optee/optee_os-rpi4/lib/libutee/tee_api_arith_mpi.c:982
    5650:	aa1703e1 	mov	x1, x23
    5654:	aa1603e0 	mov	x0, x22
    5658:	97fff839 	bl	373c <get_mpi>
/home/jeferson/optee/optee_os-rpi4/lib/libutee/tee_api_arith_mpi.c:984
    565c:	aa1603e1 	mov	x1, x22
    5660:	aa1403e0 	mov	x0, x20
    5664:	94000918 	bl	7ac4 <mbedtls_mpi_copy>
    5668:	340000e0 	cbz	w0, 5684 <TEE_BigIntConvertFromFMM+0x78>
    566c:	2a0003e2 	mov	w2, w0
/home/jeferson/optee/optee_os-rpi4/lib/libutee/tee_api_arith_mpi.c:984 (discriminator 1)
    5670:	52807b01 	mov	w1, #0x3d8                 	// #984
/home/jeferson/optee/optee_os-rpi4/lib/libutee/tee_api_arith_mpi.c:986 (discriminator 1)
    5674:	d0000040 	adrp	x0, f000 <__text_end+0x2508>
    5678:	9131d800 	add	x0, x0, #0xc76
    567c:	91048000 	add	x0, x0, #0x120
    5680:	97fff823 	bl	370c <mpi_panic>
/home/jeferson/optee/optee_os-rpi4/lib/libutee/tee_api_arith_mpi.c:986 (discriminator 2)
    5684:	aa1503e1 	mov	x1, x21
    5688:	aa1403e0 	mov	x0, x20
    568c:	97fff852 	bl	37d4 <copy_mpi_to_bigint>
    5690:	2a0003e2 	mov	w2, w0
    5694:	34000060 	cbz	w0, 56a0 <TEE_BigIntConvertFromFMM+0x94>
/home/jeferson/optee/optee_os-rpi4/lib/libutee/tee_api_arith_mpi.c:986 (discriminator 1)
    5698:	52807b41 	mov	w1, #0x3da                 	// #986
    569c:	17fffff6 	b	5674 <TEE_BigIntConvertFromFMM+0x68>
/home/jeferson/optee/optee_os-rpi4/lib/libutee/tee_api_arith_mpi.c:987 (discriminator 2)
    56a0:	aa1403e0 	mov	x0, x20
    56a4:	94000852 	bl	77ec <mbedtls_mpi_free>
/home/jeferson/optee/optee_os-rpi4/lib/libutee/tee_api_arith_mpi.c:988 (discriminator 2)
    56a8:	aa1603e0 	mov	x0, x22
    56ac:	94000850 	bl	77ec <mbedtls_mpi_free>
/home/jeferson/optee/optee_os-rpi4/lib/libutee/tee_api_arith_mpi.c:989 (discriminator 2)
    56b0:	f9409a73 	ldr	x19, [x19, #304]
    56b4:	f9403fe0 	ldr	x0, [sp, #120]
    56b8:	f9400261 	ldr	x1, [x19]
    56bc:	eb010000 	subs	x0, x0, x1
    56c0:	d2800001 	mov	x1, #0x0                   	// #0
    56c4:	54000040 	b.eq	56cc <TEE_BigIntConvertFromFMM+0xc0>  // b.none
/home/jeferson/optee/optee_os-rpi4/lib/libutee/tee_api_arith_mpi.c:989
    56c8:	97ffeb3d 	bl	3bc <__stack_chk_fail>
    56cc:	a94153f3 	ldp	x19, x20, [sp, #16]
    56d0:	a9425bf5 	ldp	x21, x22, [sp, #32]
    56d4:	f9401bf7 	ldr	x23, [sp, #48]
    56d8:	a8c87bfd 	ldp	x29, x30, [sp], #128
    56dc:	d65f03c0 	ret

00000000000056e0 <TEE_BigIntComputeFMM>:
TEE_BigIntComputeFMM():
/home/jeferson/optee/optee_os-rpi4/lib/libutee/tee_api_arith_mpi.c:994
    56e0:	a9b37bfd 	stp	x29, x30, [sp, #-208]!
    56e4:	910003fd 	mov	x29, sp
    56e8:	a90153f3 	stp	x19, x20, [sp, #16]
    56ec:	90000073 	adrp	x19, 11000 <_DYNAMIC>
/home/jeferson/optee/optee_os-rpi4/lib/libutee/tee_api_arith_mpi.c:1001
    56f0:	910143f4 	add	x20, sp, #0x50
/home/jeferson/optee/optee_os-rpi4/lib/libutee/tee_api_arith_mpi.c:994
    56f4:	a9025bf5 	stp	x21, x22, [sp, #32]
    56f8:	aa0003f5 	mov	x21, x0
    56fc:	aa0303f6 	mov	x22, x3
    5700:	f9409a60 	ldr	x0, [x19, #304]
    5704:	a90363f7 	stp	x23, x24, [sp, #48]
    5708:	aa0103f8 	mov	x24, x1
    570c:	f90023f9 	str	x25, [sp, #64]
/home/jeferson/optee/optee_os-rpi4/lib/libutee/tee_api_arith_mpi.c:1002
    5710:	9101a3f7 	add	x23, sp, #0x68
/home/jeferson/optee/optee_os-rpi4/lib/libutee/tee_api_arith_mpi.c:994
    5714:	aa0203f9 	mov	x25, x2
    5718:	f9400001 	ldr	x1, [x0]
    571c:	f90067e1 	str	x1, [sp, #200]
    5720:	d2800001 	mov	x1, #0x0                   	// #0
/home/jeferson/optee/optee_os-rpi4/lib/libutee/tee_api_arith_mpi.c:1001
    5724:	aa1403e0 	mov	x0, x20
    5728:	aa1503e1 	mov	x1, x21
    572c:	97fff804 	bl	373c <get_mpi>
/home/jeferson/optee/optee_os-rpi4/lib/libutee/tee_api_arith_mpi.c:1002
    5730:	aa1803e1 	mov	x1, x24
    5734:	aa1703e0 	mov	x0, x23
/home/jeferson/optee/optee_os-rpi4/lib/libutee/tee_api_arith_mpi.c:1003
    5738:	910203f8 	add	x24, sp, #0x80
/home/jeferson/optee/optee_os-rpi4/lib/libutee/tee_api_arith_mpi.c:1002
    573c:	97fff800 	bl	373c <get_mpi>
/home/jeferson/optee/optee_os-rpi4/lib/libutee/tee_api_arith_mpi.c:1003
    5740:	aa1903e1 	mov	x1, x25
    5744:	aa1803e0 	mov	x0, x24
    5748:	97fff7fd 	bl	373c <get_mpi>
/home/jeferson/optee/optee_os-rpi4/lib/libutee/tee_api_arith_mpi.c:1004
    574c:	910263f9 	add	x25, sp, #0x98
    5750:	aa1603e1 	mov	x1, x22
    5754:	aa1903e0 	mov	x0, x25
get_mpi():
/home/jeferson/optee/optee_os-rpi4/lib/libutee/tee_api_arith_mpi.c:101
    5758:	9102c3f6 	add	x22, sp, #0xb0
TEE_BigIntComputeFMM():
/home/jeferson/optee/optee_os-rpi4/lib/libutee/tee_api_arith_mpi.c:1004
    575c:	97fff7f8 	bl	373c <get_mpi>
get_mpi():
/home/jeferson/optee/optee_os-rpi4/lib/libutee/tee_api_arith_mpi.c:101
    5760:	aa1603e0 	mov	x0, x22
    5764:	94000818 	bl	77c4 <mbedtls_mpi_init_mempool>
TEE_BigIntComputeFMM():
/home/jeferson/optee/optee_os-rpi4/lib/libutee/tee_api_arith_mpi.c:1007
    5768:	aa1803e2 	mov	x2, x24
    576c:	aa1703e1 	mov	x1, x23
    5770:	aa1603e0 	mov	x0, x22
    5774:	94000c50 	bl	88b4 <mbedtls_mpi_mul_mpi>
    5778:	340000e0 	cbz	w0, 5794 <TEE_BigIntComputeFMM+0xb4>
    577c:	2a0003e2 	mov	w2, w0
/home/jeferson/optee/optee_os-rpi4/lib/libutee/tee_api_arith_mpi.c:1007 (discriminator 1)
    5780:	52807de1 	mov	w1, #0x3ef                 	// #1007
/home/jeferson/optee/optee_os-rpi4/lib/libutee/tee_api_arith_mpi.c:1008 (discriminator 1)
    5784:	d0000040 	adrp	x0, f000 <__text_end+0x2508>
    5788:	9131d800 	add	x0, x0, #0xc76
    578c:	9104e400 	add	x0, x0, #0x139
    5790:	97fff7df 	bl	370c <mpi_panic>
/home/jeferson/optee/optee_os-rpi4/lib/libutee/tee_api_arith_mpi.c:1008 (discriminator 2)
    5794:	aa1903e2 	mov	x2, x25
    5798:	aa1603e1 	mov	x1, x22
    579c:	aa1403e0 	mov	x0, x20
    57a0:	94000ec3 	bl	92ac <mbedtls_mpi_mod_mpi>
    57a4:	2a0003e2 	mov	w2, w0
    57a8:	34000060 	cbz	w0, 57b4 <TEE_BigIntComputeFMM+0xd4>
/home/jeferson/optee/optee_os-rpi4/lib/libutee/tee_api_arith_mpi.c:1008 (discriminator 1)
    57ac:	52807e01 	mov	w1, #0x3f0                 	// #1008
    57b0:	17fffff5 	b	5784 <TEE_BigIntComputeFMM+0xa4>
/home/jeferson/optee/optee_os-rpi4/lib/libutee/tee_api_arith_mpi.c:1010 (discriminator 2)
    57b4:	aa1603e0 	mov	x0, x22
    57b8:	9400080d 	bl	77ec <mbedtls_mpi_free>
/home/jeferson/optee/optee_os-rpi4/lib/libutee/tee_api_arith_mpi.c:1011 (discriminator 2)
    57bc:	aa1903e0 	mov	x0, x25
    57c0:	9400080b 	bl	77ec <mbedtls_mpi_free>
/home/jeferson/optee/optee_os-rpi4/lib/libutee/tee_api_arith_mpi.c:1012 (discriminator 2)
    57c4:	aa1803e0 	mov	x0, x24
    57c8:	94000809 	bl	77ec <mbedtls_mpi_free>
/home/jeferson/optee/optee_os-rpi4/lib/libutee/tee_api_arith_mpi.c:1013 (discriminator 2)
    57cc:	aa1703e0 	mov	x0, x23
    57d0:	94000807 	bl	77ec <mbedtls_mpi_free>
/home/jeferson/optee/optee_os-rpi4/lib/libutee/tee_api_arith_mpi.c:1014 (discriminator 2)
    57d4:	aa1503e1 	mov	x1, x21
    57d8:	aa1403e0 	mov	x0, x20
    57dc:	97fff7fe 	bl	37d4 <copy_mpi_to_bigint>
    57e0:	2a0003e2 	mov	w2, w0
    57e4:	34000060 	cbz	w0, 57f0 <TEE_BigIntComputeFMM+0x110>
/home/jeferson/optee/optee_os-rpi4/lib/libutee/tee_api_arith_mpi.c:1014 (discriminator 1)
    57e8:	52807ec1 	mov	w1, #0x3f6                 	// #1014
    57ec:	17ffffe6 	b	5784 <TEE_BigIntComputeFMM+0xa4>
/home/jeferson/optee/optee_os-rpi4/lib/libutee/tee_api_arith_mpi.c:1015 (discriminator 2)
    57f0:	aa1403e0 	mov	x0, x20
    57f4:	940007fe 	bl	77ec <mbedtls_mpi_free>
/home/jeferson/optee/optee_os-rpi4/lib/libutee/tee_api_arith_mpi.c:1016 (discriminator 2)
    57f8:	f9409a73 	ldr	x19, [x19, #304]
    57fc:	f94067e0 	ldr	x0, [sp, #200]
    5800:	f9400261 	ldr	x1, [x19]
    5804:	eb010000 	subs	x0, x0, x1
    5808:	d2800001 	mov	x1, #0x0                   	// #0
    580c:	54000040 	b.eq	5814 <TEE_BigIntComputeFMM+0x134>  // b.none
/home/jeferson/optee/optee_os-rpi4/lib/libutee/tee_api_arith_mpi.c:1016
    5810:	97ffeaeb 	bl	3bc <__stack_chk_fail>
    5814:	a94153f3 	ldp	x19, x20, [sp, #16]
    5818:	a9425bf5 	ldp	x21, x22, [sp, #32]
    581c:	a94363f7 	ldp	x23, x24, [sp, #48]
    5820:	f94023f9 	ldr	x25, [sp, #64]
    5824:	a8cd7bfd 	ldp	x29, x30, [sp], #208
    5828:	d65f03c0 	ret

000000000000582c <check_access>:
check_access():
/home/jeferson/optee/optee_os-rpi4/lib/libutee/tee_api_panic.c:40
    582c:	b4000062 	cbz	x2, 5838 <check_access+0xc>
/home/jeferson/optee/optee_os-rpi4/lib/libutee/tee_api_panic.c:43
    5830:	b4000081 	cbz	x1, 5840 <check_access+0x14>
/home/jeferson/optee/optee_os-rpi4/lib/libutee/tee_api_panic.c:47
    5834:	17fff4b7 	b	2b10 <TEE_CheckMemoryAccessRights>
/home/jeferson/optee/optee_os-rpi4/lib/libutee/tee_api_panic.c:41
    5838:	52800000 	mov	w0, #0x0                   	// #0
/home/jeferson/optee/optee_os-rpi4/lib/libutee/tee_api_panic.c:50
    583c:	d65f03c0 	ret
/home/jeferson/optee/optee_os-rpi4/lib/libutee/tee_api_panic.c:44
    5840:	129ffe00 	mov	w0, #0xffff000f            	// #-65521
    5844:	17fffffe 	b	583c <check_access+0x10>

0000000000005848 <TEE_Panic>:
TEE_Panic():
/home/jeferson/optee/optee_os-rpi4/lib/libutee/tee_api_panic.c:24
    5848:	2a0003e0 	mov	w0, w0
    584c:	17fff06c 	b	19fc <_utee_panic>

0000000000005850 <check_res.constprop.0>:
check_res():
/home/jeferson/optee/optee_os-rpi4/lib/libutee/tee_api_panic.c:32
    5850:	34000060 	cbz	w0, 585c <check_res.constprop.0+0xc>
/home/jeferson/optee/optee_os-rpi4/lib/libutee/tee_api_panic.c:34
    5854:	52800000 	mov	w0, #0x0                   	// #0
    5858:	17fffffc 	b	5848 <TEE_Panic>
/home/jeferson/optee/optee_os-rpi4/lib/libutee/tee_api_panic.c:36
    585c:	d65f03c0 	ret

0000000000005860 <__utee_check_outbuf_annotation>:
__utee_check_outbuf_annotation():
/home/jeferson/optee/optee_os-rpi4/lib/libutee/tee_api_panic.c:53
    5860:	a9be7bfd 	stp	x29, x30, [sp, #-32]!
    5864:	910003fd 	mov	x29, sp
    5868:	a90153f3 	stp	x19, x20, [sp, #16]
    586c:	aa0003f4 	mov	x20, x0
    5870:	aa0103f3 	mov	x19, x1
check_access():
/home/jeferson/optee/optee_os-rpi4/lib/libutee/tee_api_panic.c:43
    5874:	b4000181 	cbz	x1, 58a4 <__utee_check_outbuf_annotation+0x44>
/home/jeferson/optee/optee_os-rpi4/lib/libutee/tee_api_panic.c:47
    5878:	d2800102 	mov	x2, #0x8                   	// #8
    587c:	52800060 	mov	w0, #0x3                   	// #3
    5880:	97fff4a4 	bl	2b10 <TEE_CheckMemoryAccessRights>
__utee_check_outbuf_annotation():
/home/jeferson/optee/optee_os-rpi4/lib/libutee/tee_api_panic.c:54
    5884:	97fffff3 	bl	5850 <check_res.constprop.0>
/home/jeferson/optee/optee_os-rpi4/lib/libutee/tee_api_panic.c:56
    5888:	f9400262 	ldr	x2, [x19]
    588c:	aa1403e1 	mov	x1, x20
    5890:	528000c0 	mov	w0, #0x6                   	// #6
    5894:	97ffffe6 	bl	582c <check_access>
/home/jeferson/optee/optee_os-rpi4/lib/libutee/tee_api_panic.c:58
    5898:	a94153f3 	ldp	x19, x20, [sp, #16]
    589c:	a8c27bfd 	ldp	x29, x30, [sp], #32
/home/jeferson/optee/optee_os-rpi4/lib/libutee/tee_api_panic.c:56
    58a0:	17ffffec 	b	5850 <check_res.constprop.0>
check_access():
/home/jeferson/optee/optee_os-rpi4/lib/libutee/tee_api_panic.c:44
    58a4:	129ffe00 	mov	w0, #0xffff000f            	// #-65521
    58a8:	17fffff7 	b	5884 <__utee_check_outbuf_annotation+0x24>

00000000000058ac <__utee_check_gp11_outbuf_annotation>:
__utee_check_gp11_outbuf_annotation():
/home/jeferson/optee/optee_os-rpi4/lib/libutee/tee_api_panic.c:61
    58ac:	a9be7bfd 	stp	x29, x30, [sp, #-32]!
    58b0:	910003fd 	mov	x29, sp
    58b4:	a90153f3 	stp	x19, x20, [sp, #16]
    58b8:	aa0003f4 	mov	x20, x0
    58bc:	aa0103f3 	mov	x19, x1
check_access():
/home/jeferson/optee/optee_os-rpi4/lib/libutee/tee_api_panic.c:43
    58c0:	b4000181 	cbz	x1, 58f0 <__utee_check_gp11_outbuf_annotation+0x44>
/home/jeferson/optee/optee_os-rpi4/lib/libutee/tee_api_panic.c:47
    58c4:	d2800082 	mov	x2, #0x4                   	// #4
    58c8:	52800060 	mov	w0, #0x3                   	// #3
    58cc:	97fff491 	bl	2b10 <TEE_CheckMemoryAccessRights>
__utee_check_gp11_outbuf_annotation():
/home/jeferson/optee/optee_os-rpi4/lib/libutee/tee_api_panic.c:62
    58d0:	97ffffe0 	bl	5850 <check_res.constprop.0>
/home/jeferson/optee/optee_os-rpi4/lib/libutee/tee_api_panic.c:64
    58d4:	b9400262 	ldr	w2, [x19]
    58d8:	aa1403e1 	mov	x1, x20
    58dc:	528000c0 	mov	w0, #0x6                   	// #6
    58e0:	97ffffd3 	bl	582c <check_access>
/home/jeferson/optee/optee_os-rpi4/lib/libutee/tee_api_panic.c:66
    58e4:	a94153f3 	ldp	x19, x20, [sp, #16]
    58e8:	a8c27bfd 	ldp	x29, x30, [sp], #32
/home/jeferson/optee/optee_os-rpi4/lib/libutee/tee_api_panic.c:64
    58ec:	17ffffd9 	b	5850 <check_res.constprop.0>
check_access():
/home/jeferson/optee/optee_os-rpi4/lib/libutee/tee_api_panic.c:44
    58f0:	129ffe00 	mov	w0, #0xffff000f            	// #-65521
    58f4:	17fffff7 	b	58d0 <__utee_check_gp11_outbuf_annotation+0x24>

00000000000058f8 <__utee_check_instring_annotation>:
__utee_check_instring_annotation():
/home/jeferson/optee/optee_os-rpi4/lib/libutee/tee_api_panic.c:69
    58f8:	a9be7bfd 	stp	x29, x30, [sp, #-32]!
    58fc:	910003fd 	mov	x29, sp
    5900:	f9000bf3 	str	x19, [sp, #16]
    5904:	aa0003f3 	mov	x19, x0
/home/jeferson/optee/optee_os-rpi4/lib/libutee/tee_api_panic.c:71
    5908:	97ffef0f 	bl	1544 <strlen>
/home/jeferson/optee/optee_os-rpi4/lib/libutee/tee_api_panic.c:70
    590c:	91000402 	add	x2, x0, #0x1
    5910:	aa1303e1 	mov	x1, x19
    5914:	52800020 	mov	w0, #0x1                   	// #1
    5918:	97ffffc5 	bl	582c <check_access>
/home/jeferson/optee/optee_os-rpi4/lib/libutee/tee_api_panic.c:72
    591c:	f9400bf3 	ldr	x19, [sp, #16]
    5920:	a8c27bfd 	ldp	x29, x30, [sp], #32
/home/jeferson/optee/optee_os-rpi4/lib/libutee/tee_api_panic.c:70
    5924:	17ffffcb 	b	5850 <check_res.constprop.0>

0000000000005928 <__utee_check_outstring_annotation>:
__utee_check_outstring_annotation():
/home/jeferson/optee/optee_os-rpi4/lib/libutee/tee_api_panic.c:75
    5928:	a9be7bfd 	stp	x29, x30, [sp, #-32]!
    592c:	910003fd 	mov	x29, sp
    5930:	a90153f3 	stp	x19, x20, [sp, #16]
    5934:	aa0003f4 	mov	x20, x0
    5938:	aa0103f3 	mov	x19, x1
check_access():
/home/jeferson/optee/optee_os-rpi4/lib/libutee/tee_api_panic.c:43
    593c:	b4000181 	cbz	x1, 596c <__utee_check_outstring_annotation+0x44>
/home/jeferson/optee/optee_os-rpi4/lib/libutee/tee_api_panic.c:47
    5940:	d2800102 	mov	x2, #0x8                   	// #8
    5944:	52800060 	mov	w0, #0x3                   	// #3
    5948:	97fff472 	bl	2b10 <TEE_CheckMemoryAccessRights>
__utee_check_outstring_annotation():
/home/jeferson/optee/optee_os-rpi4/lib/libutee/tee_api_panic.c:76
    594c:	97ffffc1 	bl	5850 <check_res.constprop.0>
/home/jeferson/optee/optee_os-rpi4/lib/libutee/tee_api_panic.c:78
    5950:	f9400262 	ldr	x2, [x19]
    5954:	aa1403e1 	mov	x1, x20
    5958:	528000c0 	mov	w0, #0x6                   	// #6
    595c:	97ffffb4 	bl	582c <check_access>
/home/jeferson/optee/optee_os-rpi4/lib/libutee/tee_api_panic.c:80
    5960:	a94153f3 	ldp	x19, x20, [sp, #16]
    5964:	a8c27bfd 	ldp	x29, x30, [sp], #32
/home/jeferson/optee/optee_os-rpi4/lib/libutee/tee_api_panic.c:78
    5968:	17ffffba 	b	5850 <check_res.constprop.0>
check_access():
/home/jeferson/optee/optee_os-rpi4/lib/libutee/tee_api_panic.c:44
    596c:	129ffe00 	mov	w0, #0xffff000f            	// #-65521
    5970:	17fffff7 	b	594c <__utee_check_outstring_annotation+0x24>

0000000000005974 <__utee_check_gp11_outstring_annotation>:
__utee_check_gp11_outstring_annotation():
/home/jeferson/optee/optee_os-rpi4/lib/libutee/tee_api_panic.c:83
    5974:	a9be7bfd 	stp	x29, x30, [sp, #-32]!
    5978:	910003fd 	mov	x29, sp
    597c:	a90153f3 	stp	x19, x20, [sp, #16]
    5980:	aa0003f4 	mov	x20, x0
    5984:	aa0103f3 	mov	x19, x1
check_access():
/home/jeferson/optee/optee_os-rpi4/lib/libutee/tee_api_panic.c:43
    5988:	b4000181 	cbz	x1, 59b8 <__utee_check_gp11_outstring_annotation+0x44>
/home/jeferson/optee/optee_os-rpi4/lib/libutee/tee_api_panic.c:47
    598c:	d2800082 	mov	x2, #0x4                   	// #4
    5990:	52800060 	mov	w0, #0x3                   	// #3
    5994:	97fff45f 	bl	2b10 <TEE_CheckMemoryAccessRights>
__utee_check_gp11_outstring_annotation():
/home/jeferson/optee/optee_os-rpi4/lib/libutee/tee_api_panic.c:84
    5998:	97ffffae 	bl	5850 <check_res.constprop.0>
/home/jeferson/optee/optee_os-rpi4/lib/libutee/tee_api_panic.c:86
    599c:	b9400262 	ldr	w2, [x19]
    59a0:	aa1403e1 	mov	x1, x20
    59a4:	528000c0 	mov	w0, #0x6                   	// #6
    59a8:	97ffffa1 	bl	582c <check_access>
/home/jeferson/optee/optee_os-rpi4/lib/libutee/tee_api_panic.c:88
    59ac:	a94153f3 	ldp	x19, x20, [sp, #16]
    59b0:	a8c27bfd 	ldp	x29, x30, [sp], #32
/home/jeferson/optee/optee_os-rpi4/lib/libutee/tee_api_panic.c:86
    59b4:	17ffffa7 	b	5850 <check_res.constprop.0>
check_access():
/home/jeferson/optee/optee_os-rpi4/lib/libutee/tee_api_panic.c:44
    59b8:	129ffe00 	mov	w0, #0xffff000f            	// #-65521
    59bc:	17fffff7 	b	5998 <__utee_check_gp11_outstring_annotation+0x24>

00000000000059c0 <__utee_check_out_annotation>:
__utee_check_out_annotation():
/home/jeferson/optee/optee_os-rpi4/lib/libutee/tee_api_panic.c:91
    59c0:	a9bf7bfd 	stp	x29, x30, [sp, #-16]!
/home/jeferson/optee/optee_os-rpi4/lib/libutee/tee_api_panic.c:92
    59c4:	aa0103e2 	mov	x2, x1
    59c8:	aa0003e1 	mov	x1, x0
/home/jeferson/optee/optee_os-rpi4/lib/libutee/tee_api_panic.c:91
    59cc:	910003fd 	mov	x29, sp
/home/jeferson/optee/optee_os-rpi4/lib/libutee/tee_api_panic.c:92
    59d0:	52800040 	mov	w0, #0x2                   	// #2
    59d4:	97ffff96 	bl	582c <check_access>
/home/jeferson/optee/optee_os-rpi4/lib/libutee/tee_api_panic.c:94
    59d8:	a8c17bfd 	ldp	x29, x30, [sp], #16
/home/jeferson/optee/optee_os-rpi4/lib/libutee/tee_api_panic.c:92
    59dc:	17ffff9d 	b	5850 <check_res.constprop.0>

00000000000059e0 <__utee_check_attr_in_annotation>:
__utee_check_attr_in_annotation():
/home/jeferson/optee/optee_os-rpi4/lib/libutee/tee_api_panic.c:98
    59e0:	d2800302 	mov	x2, #0x18                  	// #24
/home/jeferson/optee/optee_os-rpi4/lib/libutee/tee_api_panic.c:97
    59e4:	a9bf7bfd 	stp	x29, x30, [sp, #-16]!
/home/jeferson/optee/optee_os-rpi4/lib/libutee/tee_api_panic.c:98
    59e8:	9b027c22 	mul	x2, x1, x2
/home/jeferson/optee/optee_os-rpi4/lib/libutee/tee_api_panic.c:97
    59ec:	910003fd 	mov	x29, sp
/home/jeferson/optee/optee_os-rpi4/lib/libutee/tee_api_panic.c:98
    59f0:	aa0003e1 	mov	x1, x0
    59f4:	52800020 	mov	w0, #0x1                   	// #1
    59f8:	97ffff8d 	bl	582c <check_access>
/home/jeferson/optee/optee_os-rpi4/lib/libutee/tee_api_panic.c:100
    59fc:	a8c17bfd 	ldp	x29, x30, [sp], #16
/home/jeferson/optee/optee_os-rpi4/lib/libutee/tee_api_panic.c:98
    5a00:	17ffff94 	b	5850 <check_res.constprop.0>

0000000000005a04 <__utee_check_gp11_attr_in_annotation>:
__utee_check_gp11_attr_in_annotation():
/home/jeferson/optee/optee_os-rpi4/lib/libutee/tee_api_panic.c:98
    5a04:	17fffff7 	b	59e0 <__utee_check_attr_in_annotation>

0000000000005a08 <__utee_check_inout_annotation>:
__utee_check_inout_annotation():
/home/jeferson/optee/optee_os-rpi4/lib/libutee/tee_api_panic.c:111
    5a08:	a9bf7bfd 	stp	x29, x30, [sp, #-16]!
/home/jeferson/optee/optee_os-rpi4/lib/libutee/tee_api_panic.c:112
    5a0c:	aa0103e2 	mov	x2, x1
    5a10:	aa0003e1 	mov	x1, x0
/home/jeferson/optee/optee_os-rpi4/lib/libutee/tee_api_panic.c:111
    5a14:	910003fd 	mov	x29, sp
/home/jeferson/optee/optee_os-rpi4/lib/libutee/tee_api_panic.c:112
    5a18:	52800060 	mov	w0, #0x3                   	// #3
    5a1c:	97ffff84 	bl	582c <check_access>
/home/jeferson/optee/optee_os-rpi4/lib/libutee/tee_api_panic.c:114
    5a20:	a8c17bfd 	ldp	x29, x30, [sp], #16
/home/jeferson/optee/optee_os-rpi4/lib/libutee/tee_api_panic.c:112
    5a24:	17ffff8b 	b	5850 <check_res.constprop.0>

0000000000005a28 <propset_get>:
propset_get():
/home/jeferson/optee/optee_os-rpi4/lib/libutee/tee_api_property.c:60
    5a28:	b2407fe3 	mov	x3, #0xffffffff            	// #4294967295
    5a2c:	eb03001f 	cmp	x0, x3
    5a30:	54000101 	b.ne	5a50 <propset_get+0x28>  // b.any
/home/jeferson/optee/optee_os-rpi4/lib/libutee/tee_api_property.c:61
    5a34:	90000060 	adrp	x0, 11000 <_DYNAMIC>
    5a38:	f940a403 	ldr	x3, [x0, #328]
    5a3c:	f9000023 	str	x3, [x1]
/home/jeferson/optee/optee_os-rpi4/lib/libutee/tee_api_property.c:62
    5a40:	f940ac00 	ldr	x0, [x0, #344]
    5a44:	f9400000 	ldr	x0, [x0]
/home/jeferson/optee/optee_os-rpi4/lib/libutee/tee_api_property.c:68
    5a48:	f9000040 	str	x0, [x2]
    5a4c:	14000006 	b	5a64 <propset_get+0x3c>
/home/jeferson/optee/optee_os-rpi4/lib/libutee/tee_api_property.c:63
    5a50:	b27f7be3 	mov	x3, #0xfffffffe            	// #4294967294
    5a54:	eb03001f 	cmp	x0, x3
    5a58:	540000a1 	b.ne	5a6c <propset_get+0x44>  // b.any
/home/jeferson/optee/optee_os-rpi4/lib/libutee/tee_api_property.c:64
    5a5c:	f900003f 	str	xzr, [x1]
/home/jeferson/optee/optee_os-rpi4/lib/libutee/tee_api_property.c:65
    5a60:	f900005f 	str	xzr, [x2]
/home/jeferson/optee/optee_os-rpi4/lib/libutee/tee_api_property.c:73
    5a64:	52800000 	mov	w0, #0x0                   	// #0
/home/jeferson/optee/optee_os-rpi4/lib/libutee/tee_api_property.c:74
    5a68:	d65f03c0 	ret
/home/jeferson/optee/optee_os-rpi4/lib/libutee/tee_api_property.c:66
    5a6c:	12800043 	mov	w3, #0xfffffffd            	// #-3
    5a70:	eb03001f 	cmp	x0, x3
    5a74:	540000c1 	b.ne	5a8c <propset_get+0x64>  // b.any
/home/jeferson/optee/optee_os-rpi4/lib/libutee/tee_api_property.c:67
    5a78:	90000060 	adrp	x0, 11000 <_DYNAMIC>
    5a7c:	f940c800 	ldr	x0, [x0, #400]
    5a80:	f9000020 	str	x0, [x1]
/home/jeferson/optee/optee_os-rpi4/lib/libutee/tee_api_property.c:68
    5a84:	d2800080 	mov	x0, #0x4                   	// #4
    5a88:	17fffff0 	b	5a48 <propset_get+0x20>
/home/jeferson/optee/optee_os-rpi4/lib/libutee/tee_api_property.c:70
    5a8c:	129ffee0 	mov	w0, #0xffff0008            	// #-65528
    5a90:	17fffff6 	b	5a68 <propset_get+0x40>

0000000000005a94 <is_propset_pseudo_handle>:
is_propset_pseudo_handle():
/home/jeferson/optee/optee_os-rpi4/lib/libutee/tee_api_property.c:137
    5a94:	929fffa1 	mov	x1, #0xffffffffffff0002    	// #-65534
    5a98:	f2a00001 	movk	x1, #0x0, lsl #16
    5a9c:	8b010001 	add	x1, x0, x1
/home/jeferson/optee/optee_os-rpi4/lib/libutee/tee_api_property.c:138
    5aa0:	f100043f 	cmp	x1, #0x1
    5aa4:	540000a9 	b.ls	5ab8 <is_propset_pseudo_handle+0x24>  // b.plast
/home/jeferson/optee/optee_os-rpi4/lib/libutee/tee_api_property.c:138 (discriminator 2)
    5aa8:	12800041 	mov	w1, #0xfffffffd            	// #-3
    5aac:	eb01001f 	cmp	x0, x1
    5ab0:	1a9f17e0 	cset	w0, eq  // eq = none
/home/jeferson/optee/optee_os-rpi4/lib/libutee/tee_api_property.c:140 (discriminator 6)
    5ab4:	d65f03c0 	ret
/home/jeferson/optee/optee_os-rpi4/lib/libutee/tee_api_property.c:138
    5ab8:	52800020 	mov	w0, #0x1                   	// #1
    5abc:	17fffffe 	b	5ab4 <is_propset_pseudo_handle+0x20>

0000000000005ac0 <propget_get_ext_prop>:
propget_get_ext_prop():
/home/jeferson/optee/optee_os-rpi4/lib/libutee/tee_api_property.c:79
    5ac0:	a9bc7bfd 	stp	x29, x30, [sp, #-64]!
    5ac4:	910003fd 	mov	x29, sp
    5ac8:	a90153f3 	stp	x19, x20, [sp, #16]
    5acc:	aa0303f3 	mov	x19, x3
    5ad0:	90000063 	adrp	x3, 11000 <_DYNAMIC>
    5ad4:	aa0003f4 	mov	x20, x0
    5ad8:	a9025bf5 	stp	x21, x22, [sp, #32]
    5adc:	aa0203f5 	mov	x21, x2
    5ae0:	f9409863 	ldr	x3, [x3, #304]
/home/jeferson/optee/optee_os-rpi4/lib/libutee/tee_api_property.c:82
    5ae4:	b9400a82 	ldr	w2, [x20, #8]
/home/jeferson/optee/optee_os-rpi4/lib/libutee/tee_api_property.c:79
    5ae8:	f9400060 	ldr	x0, [x3]
    5aec:	f9001fe0 	str	x0, [sp, #56]
    5af0:	d2800000 	mov	x0, #0x0                   	// #0
/home/jeferson/optee/optee_os-rpi4/lib/libutee/tee_api_property.c:82
    5af4:	b9000022 	str	w2, [x1]
/home/jeferson/optee/optee_os-rpi4/lib/libutee/tee_api_property.c:83
    5af8:	7100185f 	cmp	w2, #0x6
    5afc:	54000508 	b.hi	5b9c <propget_get_ext_prop+0xdc>  // b.pmore
    5b00:	d0000040 	adrp	x0, f000 <__text_end+0x2508>
    5b04:	b9400276 	ldr	w22, [x19]
    5b08:	91177000 	add	x0, x0, #0x5dc
    5b0c:	38624800 	ldrb	w0, [x0, w2, uxtw]
    5b10:	10000062 	adr	x2, 5b1c <propget_get_ext_prop+0x5c>
    5b14:	8b208840 	add	x0, x2, w0, sxtb #2
    5b18:	d61f0000 	br	x0
/home/jeferson/optee/optee_os-rpi4/lib/libutee/tee_api_property.c:92
    5b1c:	d2800102 	mov	x2, #0x8                   	// #8
/home/jeferson/optee/optee_os-rpi4/lib/libutee/tee_api_property.c:126
    5b20:	b9000262 	str	w2, [x19]
/home/jeferson/optee/optee_os-rpi4/lib/libutee/tee_api_property.c:85
    5b24:	f9001be2 	str	x2, [sp, #48]
/home/jeferson/optee/optee_os-rpi4/lib/libutee/tee_api_property.c:125
    5b28:	eb16005f 	cmp	x2, x22
    5b2c:	54000428 	b.hi	5bb0 <propget_get_ext_prop+0xf0>  // b.pmore
/home/jeferson/optee/optee_os-rpi4/lib/libutee/tee_api_property.c:131
    5b30:	f9400a81 	ldr	x1, [x20, #16]
    5b34:	aa1503e0 	mov	x0, x21
    5b38:	97ffe93a 	bl	20 <memcpy>
    5b3c:	14000027 	b	5bd8 <propget_get_ext_prop+0x118>
/home/jeferson/optee/optee_os-rpi4/lib/libutee/tee_api_property.c:95
    5b40:	d2800202 	mov	x2, #0x10                  	// #16
    5b44:	17fffff7 	b	5b20 <propget_get_ext_prop+0x60>
/home/jeferson/optee/optee_os-rpi4/lib/libutee/tee_api_property.c:98
    5b48:	d2800282 	mov	x2, #0x14                  	// #20
    5b4c:	17fffff5 	b	5b20 <propget_get_ext_prop+0x60>
/home/jeferson/optee/optee_os-rpi4/lib/libutee/tee_api_property.c:101
    5b50:	f9400a80 	ldr	x0, [x20, #16]
    5b54:	97ffee7c 	bl	1544 <strlen>
    5b58:	91000402 	add	x2, x0, #0x1
/home/jeferson/optee/optee_os-rpi4/lib/libutee/tee_api_property.c:102
    5b5c:	17fffff1 	b	5b20 <propget_get_ext_prop+0x60>
/home/jeferson/optee/optee_os-rpi4/lib/libutee/tee_api_property.c:111
    5b60:	f9400a94 	ldr	x20, [x20, #16]
/home/jeferson/optee/optee_os-rpi4/lib/libutee/tee_api_property.c:110
    5b64:	f9001bf6 	str	x22, [sp, #48]
/home/jeferson/optee/optee_os-rpi4/lib/libutee/tee_api_property.c:111
    5b68:	aa1403e0 	mov	x0, x20
    5b6c:	97ffee76 	bl	1544 <strlen>
    5b70:	9100c3e3 	add	x3, sp, #0x30
    5b74:	aa0003e1 	mov	x1, x0
    5b78:	aa1503e2 	mov	x2, x21
    5b7c:	aa1403e0 	mov	x0, x20
    5b80:	940004cf 	bl	6ebc <_base64_dec>
    5b84:	72001c1f 	tst	w0, #0xff
    5b88:	b9400261 	ldr	w1, [x19]
    5b8c:	f9401be0 	ldr	x0, [sp, #48]
    5b90:	540000a1 	b.ne	5ba4 <propget_get_ext_prop+0xe4>  // b.any
/home/jeferson/optee/optee_os-rpi4/lib/libutee/tee_api_property.c:111 (discriminator 1)
    5b94:	eb00003f 	cmp	x1, x0
    5b98:	540000a3 	b.cc	5bac <propget_get_ext_prop+0xec>  // b.lo, b.ul, b.last
/home/jeferson/optee/optee_os-rpi4/lib/libutee/tee_api_property.c:113
    5b9c:	52bfffe0 	mov	w0, #0xffff0000            	// #-65536
    5ba0:	14000005 	b	5bb4 <propget_get_ext_prop+0xf4>
/home/jeferson/optee/optee_os-rpi4/lib/libutee/tee_api_property.c:114
    5ba4:	eb00003f 	cmp	x1, x0
    5ba8:	54000162 	b.cs	5bd4 <propget_get_ext_prop+0x114>  // b.hs, b.nlast
/home/jeferson/optee/optee_os-rpi4/lib/libutee/tee_api_property.c:115
    5bac:	b9000260 	str	w0, [x19]
/home/jeferson/optee/optee_os-rpi4/lib/libutee/tee_api_property.c:127
    5bb0:	129ffde0 	mov	w0, #0xffff0010            	// #-65520
/home/jeferson/optee/optee_os-rpi4/lib/libutee/tee_api_property.c:133
    5bb4:	90000063 	adrp	x3, 11000 <_DYNAMIC>
    5bb8:	f9409863 	ldr	x3, [x3, #304]
    5bbc:	f9401fe1 	ldr	x1, [sp, #56]
    5bc0:	f9400062 	ldr	x2, [x3]
    5bc4:	eb020021 	subs	x1, x1, x2
    5bc8:	d2800002 	mov	x2, #0x0                   	// #0
    5bcc:	54000120 	b.eq	5bf0 <propget_get_ext_prop+0x130>  // b.none
    5bd0:	97ffe9fb 	bl	3bc <__stack_chk_fail>
/home/jeferson/optee/optee_os-rpi4/lib/libutee/tee_api_property.c:119
    5bd4:	b9000260 	str	w0, [x19]
/home/jeferson/optee/optee_os-rpi4/lib/libutee/tee_api_property.c:132
    5bd8:	52800000 	mov	w0, #0x0                   	// #0
    5bdc:	17fffff6 	b	5bb4 <propget_get_ext_prop+0xf4>
/home/jeferson/optee/optee_os-rpi4/lib/libutee/tee_api_property.c:83
    5be0:	d2800022 	mov	x2, #0x1                   	// #1
    5be4:	17ffffcf 	b	5b20 <propget_get_ext_prop+0x60>
    5be8:	d2800082 	mov	x2, #0x4                   	// #4
    5bec:	17ffffcd 	b	5b20 <propget_get_ext_prop+0x60>
/home/jeferson/optee/optee_os-rpi4/lib/libutee/tee_api_property.c:133
    5bf0:	a94153f3 	ldp	x19, x20, [sp, #16]
    5bf4:	a9425bf5 	ldp	x21, x22, [sp, #32]
    5bf8:	a8c47bfd 	ldp	x29, x30, [sp], #64
    5bfc:	d65f03c0 	ret

0000000000005c00 <propget_get_property>:
propget_get_property():
/home/jeferson/optee/optee_os-rpi4/lib/libutee/tee_api_property.c:145
    5c00:	a9b87bfd 	stp	x29, x30, [sp, #-128]!
    5c04:	90000066 	adrp	x6, 11000 <_DYNAMIC>
    5c08:	910003fd 	mov	x29, sp
    5c0c:	a90363f7 	stp	x23, x24, [sp, #48]
    5c10:	aa0103f8 	mov	x24, x1
    5c14:	aa0003f7 	mov	x23, x0
    5c18:	f94098c1 	ldr	x1, [x6, #304]
    5c1c:	a90153f3 	stp	x19, x20, [sp, #16]
    5c20:	aa0203f4 	mov	x20, x2
    5c24:	a9025bf5 	stp	x21, x22, [sp, #32]
    5c28:	aa0603f3 	mov	x19, x6
    5c2c:	aa0303f5 	mov	x21, x3
    5c30:	a9046bf9 	stp	x25, x26, [sp, #64]
    5c34:	aa0403f6 	mov	x22, x4
    5c38:	a90573fb 	stp	x27, x28, [sp, #80]
    5c3c:	f9400022 	ldr	x2, [x1]
    5c40:	f9003fe2 	str	x2, [sp, #120]
    5c44:	d2800002 	mov	x2, #0x0                   	// #0
/home/jeferson/optee/optee_os-rpi4/lib/libutee/tee_api_property.c:152
    5c48:	97ffff93 	bl	5a94 <is_propset_pseudo_handle>
    5c4c:	72001c1f 	tst	w0, #0xff
    5c50:	54000840 	b.eq	5d58 <propget_get_property+0x158>  // b.none
/home/jeferson/optee/optee_os-rpi4/lib/libutee/tee_api_property.c:155
    5c54:	9101c3e2 	add	x2, sp, #0x70
    5c58:	9101a3e1 	add	x1, sp, #0x68
    5c5c:	aa1703e0 	mov	x0, x23
    5c60:	97ffff72 	bl	5a28 <propset_get>
/home/jeferson/optee/optee_os-rpi4/lib/libutee/tee_api_property.c:156
    5c64:	350002e0 	cbnz	w0, 5cc0 <propget_get_property+0xc0>
/home/jeferson/optee/optee_os-rpi4/lib/libutee/tee_api_property.c:159
    5c68:	a946effa 	ldp	x26, x27, [sp, #104]
    5c6c:	d2800019 	mov	x25, #0x0                   	// #0
/home/jeferson/optee/optee_os-rpi4/lib/libutee/tee_api_property.c:159 (discriminator 1)
    5c70:	eb19037f 	cmp	x27, x25
    5c74:	54000401 	b.ne	5cf4 <propget_get_property+0xf4>  // b.any
/home/jeferson/optee/optee_os-rpi4/lib/libutee/tee_api_property.c:167
    5c78:	aa1803e0 	mov	x0, x24
    5c7c:	97ffee32 	bl	1544 <strlen>
/home/jeferson/optee/optee_os-rpi4/lib/libutee/tee_api_property.c:166
    5c80:	910193e3 	add	x3, sp, #0x64
    5c84:	91000402 	add	x2, x0, #0x1
    5c88:	aa1803e1 	mov	x1, x24
    5c8c:	aa1703e0 	mov	x0, x23
    5c90:	97ffef6a 	bl	1a38 <_utee_get_property_name_to_index>
/home/jeferson/optee/optee_os-rpi4/lib/libutee/tee_api_property.c:169
    5c94:	35000160 	cbnz	w0, 5cc0 <propget_get_property+0xc0>
/home/jeferson/optee/optee_os-rpi4/lib/libutee/tee_api_property.c:171
    5c98:	b94067e1 	ldr	w1, [sp, #100]
    5c9c:	910183e6 	add	x6, sp, #0x60
    5ca0:	aa1603e5 	mov	x5, x22
    5ca4:	aa1503e4 	mov	x4, x21
    5ca8:	aa1703e0 	mov	x0, x23
    5cac:	d2800003 	mov	x3, #0x0                   	// #0
    5cb0:	d2800002 	mov	x2, #0x0                   	// #0
    5cb4:	97ffef5e 	bl	1a2c <_utee_get_property>
/home/jeferson/optee/optee_os-rpi4/lib/libutee/tee_api_property.c:194
    5cb8:	b94063e1 	ldr	w1, [sp, #96]
    5cbc:	b9000281 	str	w1, [x20]
/home/jeferson/optee/optee_os-rpi4/lib/libutee/tee_api_property.c:196
    5cc0:	f9409a73 	ldr	x19, [x19, #304]
    5cc4:	f9403fe1 	ldr	x1, [sp, #120]
    5cc8:	f9400262 	ldr	x2, [x19]
    5ccc:	eb020021 	subs	x1, x1, x2
    5cd0:	d2800002 	mov	x2, #0x0                   	// #0
    5cd4:	54000261 	b.ne	5d20 <propget_get_property+0x120>  // b.any
    5cd8:	a94153f3 	ldp	x19, x20, [sp, #16]
    5cdc:	a9425bf5 	ldp	x21, x22, [sp, #32]
    5ce0:	a94363f7 	ldp	x23, x24, [sp, #48]
    5ce4:	a9446bf9 	ldp	x25, x26, [sp, #64]
    5ce8:	a94573fb 	ldp	x27, x28, [sp, #80]
    5cec:	a8c87bfd 	ldp	x29, x30, [sp], #128
    5cf0:	d65f03c0 	ret
/home/jeferson/optee/optee_os-rpi4/lib/libutee/tee_api_property.c:160
    5cf4:	aa1a03fc 	mov	x28, x26
    5cf8:	aa1803e0 	mov	x0, x24
    5cfc:	f8418741 	ldr	x1, [x26], #24
    5d00:	94001ae7 	bl	c89c <strcmp>
    5d04:	35000260 	cbnz	w0, 5d50 <propget_get_property+0x150>
/home/jeferson/optee/optee_os-rpi4/lib/libutee/tee_api_property.c:161
    5d08:	f9409a73 	ldr	x19, [x19, #304]
    5d0c:	f9403fe0 	ldr	x0, [sp, #120]
    5d10:	f9400261 	ldr	x1, [x19]
    5d14:	eb010000 	subs	x0, x0, x1
    5d18:	d2800001 	mov	x1, #0x0                   	// #0
    5d1c:	54000040 	b.eq	5d24 <propget_get_property+0x124>  // b.none
/home/jeferson/optee/optee_os-rpi4/lib/libutee/tee_api_property.c:196
    5d20:	97ffe9a7 	bl	3bc <__stack_chk_fail>
/home/jeferson/optee/optee_os-rpi4/lib/libutee/tee_api_property.c:161
    5d24:	aa1603e3 	mov	x3, x22
    5d28:	aa1503e2 	mov	x2, x21
    5d2c:	aa1403e1 	mov	x1, x20
    5d30:	aa1c03e0 	mov	x0, x28
/home/jeferson/optee/optee_os-rpi4/lib/libutee/tee_api_property.c:196
    5d34:	a94153f3 	ldp	x19, x20, [sp, #16]
    5d38:	a9425bf5 	ldp	x21, x22, [sp, #32]
    5d3c:	a94363f7 	ldp	x23, x24, [sp, #48]
    5d40:	a9446bf9 	ldp	x25, x26, [sp, #64]
    5d44:	a94573fb 	ldp	x27, x28, [sp, #80]
    5d48:	a8c87bfd 	ldp	x29, x30, [sp], #128
/home/jeferson/optee/optee_os-rpi4/lib/libutee/tee_api_property.c:185
    5d4c:	17ffff5d 	b	5ac0 <propget_get_ext_prop>
/home/jeferson/optee/optee_os-rpi4/lib/libutee/tee_api_property.c:159 (discriminator 2)
    5d50:	91000739 	add	x25, x25, #0x1
    5d54:	17ffffc7 	b	5c70 <propget_get_property+0x70>
/home/jeferson/optee/optee_os-rpi4/lib/libutee/tee_api_property.c:175
    5d58:	b94002e7 	ldr	w7, [x23]
/home/jeferson/optee/optee_os-rpi4/lib/libutee/tee_api_property.c:177
    5d5c:	310004ff 	cmn	w7, #0x1
    5d60:	54000480 	b.eq	5df0 <propget_get_property+0x1f0>  // b.none
/home/jeferson/optee/optee_os-rpi4/lib/libutee/tee_api_property.c:180
    5d64:	f94006e8 	ldr	x8, [x23, #8]
    5d68:	9101c3e2 	add	x2, sp, #0x70
    5d6c:	9101a3e1 	add	x1, sp, #0x68
    5d70:	aa0803e0 	mov	x0, x8
    5d74:	97ffff2d 	bl	5a28 <propset_get>
/home/jeferson/optee/optee_os-rpi4/lib/libutee/tee_api_property.c:181
    5d78:	35fffa40 	cbnz	w0, 5cc0 <propget_get_property+0xc0>
/home/jeferson/optee/optee_os-rpi4/lib/libutee/tee_api_property.c:184
    5d7c:	f9403be1 	ldr	x1, [sp, #112]
    5d80:	eb27403f 	cmp	x1, w7, uxtw
    5d84:	540001c9 	b.ls	5dbc <propget_get_property+0x1bc>  // b.plast
/home/jeferson/optee/optee_os-rpi4/lib/libutee/tee_api_property.c:185
    5d88:	f94098c6 	ldr	x6, [x6, #304]
    5d8c:	f9403fe0 	ldr	x0, [sp, #120]
    5d90:	f94000c1 	ldr	x1, [x6]
    5d94:	eb010000 	subs	x0, x0, x1
    5d98:	d2800001 	mov	x1, #0x0                   	// #0
    5d9c:	54fffc21 	b.ne	5d20 <propget_get_property+0x120>  // b.any
    5da0:	f94037e0 	ldr	x0, [sp, #104]
    5da4:	aa0403e3 	mov	x3, x4
    5da8:	52800304 	mov	w4, #0x18                  	// #24
    5dac:	aa1503e2 	mov	x2, x21
    5db0:	aa1403e1 	mov	x1, x20
    5db4:	9ba400e0 	umaddl	x0, w7, w4, x0
    5db8:	17ffffdf 	b	5d34 <propget_get_property+0x134>
/home/jeferson/optee/optee_os-rpi4/lib/libutee/tee_api_property.c:188
    5dbc:	aa0403e5 	mov	x5, x4
    5dc0:	4b0100e1 	sub	w1, w7, w1
    5dc4:	910183e6 	add	x6, sp, #0x60
    5dc8:	aa1503e4 	mov	x4, x21
    5dcc:	aa0803e0 	mov	x0, x8
    5dd0:	d2800003 	mov	x3, #0x0                   	// #0
    5dd4:	d2800002 	mov	x2, #0x0                   	// #0
    5dd8:	97ffef15 	bl	1a2c <_utee_get_property>
/home/jeferson/optee/optee_os-rpi4/lib/libutee/tee_api_property.c:191
    5ddc:	129ffee1 	mov	w1, #0xffff0008            	// #-65528
    5de0:	6b01001f 	cmp	w0, w1
    5de4:	129fff21 	mov	w1, #0xffff0006            	// #-65530
    5de8:	1a811000 	csel	w0, w0, w1, ne  // ne = any
    5dec:	17ffffb3 	b	5cb8 <propget_get_property+0xb8>
/home/jeferson/optee/optee_os-rpi4/lib/libutee/tee_api_property.c:178
    5df0:	129ffee0 	mov	w0, #0xffff0008            	// #-65528
    5df4:	17ffffb3 	b	5cc0 <propget_get_property+0xc0>

0000000000005df8 <TEE_GetPropertyAsString>:
TEE_GetPropertyAsString():
/home/jeferson/optee/optee_os-rpi4/lib/libutee/tee_api_property.c:201
    5df8:	a9ba7bfd 	stp	x29, x30, [sp, #-96]!
    5dfc:	910003fd 	mov	x29, sp
    5e00:	a9025bf5 	stp	x21, x22, [sp, #32]
    5e04:	aa0203f6 	mov	x22, x2
    5e08:	90000062 	adrp	x2, 11000 <_DYNAMIC>
    5e0c:	a90153f3 	stp	x19, x20, [sp, #16]
    5e10:	aa0103f5 	mov	x21, x1
    5e14:	aa0303f3 	mov	x19, x3
    5e18:	f9409842 	ldr	x2, [x2, #304]
    5e1c:	f9001bf7 	str	x23, [sp, #48]
    5e20:	aa0003f7 	mov	x23, x0
    5e24:	f9400041 	ldr	x1, [x2]
    5e28:	f9002fe1 	str	x1, [sp, #88]
    5e2c:	d2800001 	mov	x1, #0x0                   	// #0
/home/jeferson/optee/optee_os-rpi4/lib/libutee/tee_api_property.c:211
    5e30:	97ffff19 	bl	5a94 <is_propset_pseudo_handle>
    5e34:	72001c1f 	tst	w0, #0xff
    5e38:	54000060 	b.eq	5e44 <TEE_GetPropertyAsString+0x4c>  // b.none
/home/jeferson/optee/optee_os-rpi4/lib/libutee/tee_api_property.c:212
    5e3c:	aa1503e0 	mov	x0, x21
    5e40:	97fffeae 	bl	58f8 <__utee_check_instring_annotation>
/home/jeferson/optee/optee_os-rpi4/lib/libutee/tee_api_property.c:213
    5e44:	aa1303e1 	mov	x1, x19
    5e48:	aa1603e0 	mov	x0, x22
    5e4c:	97fffeb7 	bl	5928 <__utee_check_outstring_annotation>
/home/jeferson/optee/optee_os-rpi4/lib/libutee/tee_api_property.c:215
    5e50:	f9400262 	ldr	x2, [x19]
    5e54:	52800280 	mov	w0, #0x14                  	// #20
/home/jeferson/optee/optee_os-rpi4/lib/libutee/tee_api_property.c:218
    5e58:	52b00001 	mov	w1, #0x80000000            	// #-2147483648
/home/jeferson/optee/optee_os-rpi4/lib/libutee/tee_api_property.c:215
    5e5c:	71004c5f 	cmp	w2, #0x13
    5e60:	1a808040 	csel	w0, w2, w0, hi  // hi = pmore
    5e64:	b9004fe0 	str	w0, [sp, #76]
/home/jeferson/optee/optee_os-rpi4/lib/libutee/tee_api_property.c:218
    5e68:	2a0003e0 	mov	w0, w0
    5e6c:	97fff57b 	bl	3458 <TEE_Malloc>
    5e70:	aa0003f4 	mov	x20, x0
/home/jeferson/optee/optee_os-rpi4/lib/libutee/tee_api_property.c:219
    5e74:	b4000de0 	cbz	x0, 6030 <TEE_GetPropertyAsString+0x238>
/home/jeferson/optee/optee_os-rpi4/lib/libutee/tee_api_property.c:224
    5e78:	aa0003e3 	mov	x3, x0
    5e7c:	aa1503e1 	mov	x1, x21
    5e80:	910133e4 	add	x4, sp, #0x4c
    5e84:	910123e2 	add	x2, sp, #0x48
    5e88:	aa1703e0 	mov	x0, x23
    5e8c:	97ffff5d 	bl	5c00 <propget_get_property>
    5e90:	2a0003f5 	mov	w21, w0
/home/jeferson/optee/optee_os-rpi4/lib/libutee/tee_api_property.c:226
    5e94:	340003e0 	cbz	w0, 5f10 <TEE_GetPropertyAsString+0x118>
/home/jeferson/optee/optee_os-rpi4/lib/libutee/tee_api_property.c:227
    5e98:	129ffde0 	mov	w0, #0xffff0010            	// #-65520
    5e9c:	6b0002bf 	cmp	w21, w0
    5ea0:	54000121 	b.ne	5ec4 <TEE_GetPropertyAsString+0xcc>  // b.any
/home/jeferson/optee/optee_os-rpi4/lib/libutee/tee_api_property.c:228
    5ea4:	b9404be0 	ldr	w0, [sp, #72]
    5ea8:	7100141f 	cmp	w0, #0x5
    5eac:	54000081 	b.ne	5ebc <TEE_GetPropertyAsString+0xc4>  // b.any
/home/jeferson/optee/optee_os-rpi4/lib/libutee/tee_api_property.c:234
    5eb0:	b9404fe0 	ldr	w0, [sp, #76]
    5eb4:	940003b7 	bl	6d90 <_base64_enc_len>
    5eb8:	b9004fe0 	str	w0, [sp, #76]
/home/jeferson/optee/optee_os-rpi4/lib/libutee/tee_api_property.c:236
    5ebc:	b9404fe0 	ldr	w0, [sp, #76]
    5ec0:	f9000260 	str	x0, [x19]
/home/jeferson/optee/optee_os-rpi4/lib/libutee/tee_api_property.c:290
    5ec4:	aa1403e0 	mov	x0, x20
    5ec8:	97fff5af 	bl	3584 <TEE_Free>
/home/jeferson/optee/optee_os-rpi4/lib/libutee/tee_api_property.c:291
    5ecc:	710002bf 	cmp	w21, #0x0
    5ed0:	129ffee0 	mov	w0, #0xffff0008            	// #-65528
    5ed4:	7a4012a4 	ccmp	w21, w0, #0x4, ne  // ne = any
    5ed8:	540000c0 	b.eq	5ef0 <TEE_GetPropertyAsString+0xf8>  // b.none
/home/jeferson/optee/optee_os-rpi4/lib/libutee/tee_api_property.c:292
    5edc:	129ffde0 	mov	w0, #0xffff0010            	// #-65520
    5ee0:	6b0002bf 	cmp	w21, w0
    5ee4:	54000060 	b.eq	5ef0 <TEE_GetPropertyAsString+0xf8>  // b.none
/home/jeferson/optee/optee_os-rpi4/lib/libutee/tee_api_property.c:294
    5ee8:	52800000 	mov	w0, #0x0                   	// #0
    5eec:	97fffe57 	bl	5848 <TEE_Panic>
/home/jeferson/optee/optee_os-rpi4/lib/libutee/tee_api_property.c:297
    5ef0:	90000062 	adrp	x2, 11000 <_DYNAMIC>
    5ef4:	f9409842 	ldr	x2, [x2, #304]
    5ef8:	f9402fe0 	ldr	x0, [sp, #88]
    5efc:	f9400041 	ldr	x1, [x2]
    5f00:	eb010000 	subs	x0, x0, x1
    5f04:	d2800001 	mov	x1, #0x0                   	// #0
    5f08:	54000980 	b.eq	6038 <TEE_GetPropertyAsString+0x240>  // b.none
    5f0c:	97ffe92c 	bl	3bc <__stack_chk_fail>
/home/jeferson/optee/optee_os-rpi4/lib/libutee/tee_api_property.c:241
    5f10:	b9404be1 	ldr	w1, [sp, #72]
    5f14:	7100143f 	cmp	w1, #0x5
    5f18:	54000848 	b.hi	6020 <TEE_GetPropertyAsString+0x228>  // b.pmore
    5f1c:	d0000040 	adrp	x0, f000 <__text_end+0x2508>
    5f20:	91179000 	add	x0, x0, #0x5e4
    5f24:	38614800 	ldrb	w0, [x0, w1, uxtw]
    5f28:	10000061 	adr	x1, 5f34 <TEE_GetPropertyAsString+0x13c>
    5f2c:	8b208820 	add	x0, x1, w0, sxtb #2
    5f30:	d61f0000 	br	x0
/home/jeferson/optee/optee_os-rpi4/lib/libutee/tee_api_property.c:244
    5f34:	39400282 	ldrb	w2, [x20]
    5f38:	d0000040 	adrp	x0, f000 <__text_end+0x2508>
    5f3c:	d0000041 	adrp	x1, f000 <__text_end+0x2508>
    5f40:	91372400 	add	x0, x0, #0xdc9
    5f44:	7100005f 	cmp	w2, #0x0
    5f48:	91371021 	add	x1, x1, #0xdc4
    5f4c:	f9400262 	ldr	x2, [x19]
    5f50:	9a801021 	csel	x1, x1, x0, ne  // ne = any
/home/jeferson/optee/optee_os-rpi4/lib/libutee/tee_api_property.c:264
    5f54:	aa1603e0 	mov	x0, x22
    5f58:	94001a5a 	bl	c8c0 <strlcpy>
/home/jeferson/optee/optee_os-rpi4/lib/libutee/tee_api_property.c:265
    5f5c:	14000008 	b	5f7c <TEE_GetPropertyAsString+0x184>
/home/jeferson/optee/optee_os-rpi4/lib/libutee/tee_api_property.c:249
    5f60:	b9400283 	ldr	w3, [x20]
    5f64:	d0000042 	adrp	x2, f000 <__text_end+0x2508>
    5f68:	f9400261 	ldr	x1, [x19]
    5f6c:	91373c42 	add	x2, x2, #0xdcf
    5f70:	aa1603e0 	mov	x0, x22
    5f74:	97ffe8c7 	bl	290 <snprintf>
/home/jeferson/optee/optee_os-rpi4/lib/libutee/tee_api_property.c:253
    5f78:	93407c00 	sxtw	x0, w0
/home/jeferson/optee/optee_os-rpi4/lib/libutee/tee_api_property.c:282
    5f7c:	91000402 	add	x2, x0, #0x1
/home/jeferson/optee/optee_os-rpi4/lib/libutee/tee_api_property.c:285
    5f80:	129ffdf5 	mov	w21, #0xffff0010            	// #-65520
/home/jeferson/optee/optee_os-rpi4/lib/libutee/tee_api_property.c:284
    5f84:	f9400260 	ldr	x0, [x19]
/home/jeferson/optee/optee_os-rpi4/lib/libutee/tee_api_property.c:286
    5f88:	f9000262 	str	x2, [x19]
/home/jeferson/optee/optee_os-rpi4/lib/libutee/tee_api_property.c:282
    5f8c:	f9002be2 	str	x2, [sp, #80]
/home/jeferson/optee/optee_os-rpi4/lib/libutee/tee_api_property.c:285
    5f90:	eb00005f 	cmp	x2, x0
    5f94:	1a9593f5 	csel	w21, wzr, w21, ls  // ls = plast
/home/jeferson/optee/optee_os-rpi4/lib/libutee/tee_api_property.c:286
    5f98:	17ffffcb 	b	5ec4 <TEE_GetPropertyAsString+0xcc>
/home/jeferson/optee/optee_os-rpi4/lib/libutee/tee_api_property.c:253
    5f9c:	f9400261 	ldr	x1, [x19]
    5fa0:	aa1403e3 	mov	x3, x20
    5fa4:	aa1603e0 	mov	x0, x22
    5fa8:	d0000042 	adrp	x2, f000 <__text_end+0x2508>
    5fac:	91375442 	add	x2, x2, #0xdd5
    5fb0:	97ffe956 	bl	508 <snprintk>
    5fb4:	17fffff1 	b	5f78 <TEE_GetPropertyAsString+0x180>
/home/jeferson/optee/optee_os-rpi4/lib/libutee/tee_api_property.c:258
    5fb8:	b9400283 	ldr	w3, [x20]
    5fbc:	91001284 	add	x4, x20, #0x4
    5fc0:	f9400261 	ldr	x1, [x19]
    5fc4:	aa1603e0 	mov	x0, x22
    5fc8:	d0000042 	adrp	x2, f000 <__text_end+0x2508>
    5fcc:	91374842 	add	x2, x2, #0xdd2
    5fd0:	97ffe94e 	bl	508 <snprintk>
    5fd4:	17ffffe9 	b	5f78 <TEE_GetPropertyAsString+0x180>
/home/jeferson/optee/optee_os-rpi4/lib/libutee/tee_api_property.c:264
    5fd8:	aa1403e1 	mov	x1, x20
    5fdc:	f9400262 	ldr	x2, [x19]
    5fe0:	17ffffdd 	b	5f54 <TEE_GetPropertyAsString+0x15c>
/home/jeferson/optee/optee_os-rpi4/lib/libutee/tee_api_property.c:269
    5fe4:	b9404fe1 	ldr	w1, [sp, #76]
    5fe8:	910143e3 	add	x3, sp, #0x50
/home/jeferson/optee/optee_os-rpi4/lib/libutee/tee_api_property.c:268
    5fec:	f9400260 	ldr	x0, [x19]
/home/jeferson/optee/optee_os-rpi4/lib/libutee/tee_api_property.c:269
    5ff0:	aa1603e2 	mov	x2, x22
/home/jeferson/optee/optee_os-rpi4/lib/libutee/tee_api_property.c:268
    5ff4:	f9002be0 	str	x0, [sp, #80]
/home/jeferson/optee/optee_os-rpi4/lib/libutee/tee_api_property.c:269
    5ff8:	aa1403e0 	mov	x0, x20
    5ffc:	9400036b 	bl	6da8 <_base64_enc>
    6000:	72001c1f 	tst	w0, #0xff
    6004:	f9402be0 	ldr	x0, [sp, #80]
    6008:	54000081 	b.ne	6018 <TEE_GetPropertyAsString+0x220>  // b.any
/home/jeferson/optee/optee_os-rpi4/lib/libutee/tee_api_property.c:269 (discriminator 1)
    600c:	f9400261 	ldr	x1, [x19]
    6010:	eb00003f 	cmp	x1, x0
    6014:	540000a2 	b.cs	6028 <TEE_GetPropertyAsString+0x230>  // b.hs, b.nlast
/home/jeferson/optee/optee_os-rpi4/lib/libutee/tee_api_property.c:274
    6018:	d1000400 	sub	x0, x0, #0x1
/home/jeferson/optee/optee_os-rpi4/lib/libutee/tee_api_property.c:275
    601c:	17ffffd8 	b	5f7c <TEE_GetPropertyAsString+0x184>
/home/jeferson/optee/optee_os-rpi4/lib/libutee/tee_api_property.c:241
    6020:	129fff55 	mov	w21, #0xffff0005            	// #-65531
    6024:	17ffffa8 	b	5ec4 <TEE_GetPropertyAsString+0xcc>
/home/jeferson/optee/optee_os-rpi4/lib/libutee/tee_api_property.c:271
    6028:	52bffff5 	mov	w21, #0xffff0000            	// #-65536
    602c:	17ffffa6 	b	5ec4 <TEE_GetPropertyAsString+0xcc>
/home/jeferson/optee/optee_os-rpi4/lib/libutee/tee_api_property.c:220
    6030:	129ffe75 	mov	w21, #0xffff000c            	// #-65524
    6034:	17ffffad 	b	5ee8 <TEE_GetPropertyAsString+0xf0>
/home/jeferson/optee/optee_os-rpi4/lib/libutee/tee_api_property.c:297
    6038:	2a1503e0 	mov	w0, w21
    603c:	a94153f3 	ldp	x19, x20, [sp, #16]
    6040:	a9425bf5 	ldp	x21, x22, [sp, #32]
    6044:	f9401bf7 	ldr	x23, [sp, #48]
    6048:	a8c67bfd 	ldp	x29, x30, [sp], #96
    604c:	d65f03c0 	ret

0000000000006050 <__GP11_TEE_GetPropertyAsString>:
__GP11_TEE_GetPropertyAsString():
/home/jeferson/optee/optee_os-rpi4/lib/libutee/tee_api_property.c:302
    6050:	a9bb7bfd 	stp	x29, x30, [sp, #-80]!
    6054:	910003fd 	mov	x29, sp
    6058:	a90153f3 	stp	x19, x20, [sp, #16]
    605c:	f0000054 	adrp	x20, 11000 <_DYNAMIC>
    6060:	aa0303f3 	mov	x19, x3
    6064:	a9025bf5 	stp	x21, x22, [sp, #32]
    6068:	aa0003f6 	mov	x22, x0
    606c:	aa0203f5 	mov	x21, x2
    6070:	f9409a80 	ldr	x0, [x20, #304]
    6074:	f9001bf7 	str	x23, [sp, #48]
    6078:	aa0103f7 	mov	x23, x1
    607c:	f9400001 	ldr	x1, [x0]
    6080:	f90027e1 	str	x1, [sp, #72]
    6084:	d2800001 	mov	x1, #0x0                   	// #0
/home/jeferson/optee/optee_os-rpi4/lib/libutee/tee_api_property.c:306
    6088:	aa0203e0 	mov	x0, x2
    608c:	aa0303e1 	mov	x1, x3
/home/jeferson/optee/optee_os-rpi4/lib/libutee/tee_api_property.c:304
    6090:	f90023ff 	str	xzr, [sp, #64]
/home/jeferson/optee/optee_os-rpi4/lib/libutee/tee_api_property.c:306
    6094:	97fffe38 	bl	5974 <__utee_check_gp11_outstring_annotation>
/home/jeferson/optee/optee_os-rpi4/lib/libutee/tee_api_property.c:307
    6098:	b9400260 	ldr	w0, [x19]
/home/jeferson/optee/optee_os-rpi4/lib/libutee/tee_api_property.c:308
    609c:	aa1503e2 	mov	x2, x21
    60a0:	aa1703e1 	mov	x1, x23
    60a4:	910103e3 	add	x3, sp, #0x40
/home/jeferson/optee/optee_os-rpi4/lib/libutee/tee_api_property.c:307
    60a8:	f90023e0 	str	x0, [sp, #64]
/home/jeferson/optee/optee_os-rpi4/lib/libutee/tee_api_property.c:308
    60ac:	aa1603e0 	mov	x0, x22
    60b0:	97ffff52 	bl	5df8 <TEE_GetPropertyAsString>
/home/jeferson/optee/optee_os-rpi4/lib/libutee/tee_api_property.c:312
    60b4:	f9409a94 	ldr	x20, [x20, #304]
/home/jeferson/optee/optee_os-rpi4/lib/libutee/tee_api_property.c:310
    60b8:	f94023e1 	ldr	x1, [sp, #64]
    60bc:	b9000261 	str	w1, [x19]
/home/jeferson/optee/optee_os-rpi4/lib/libutee/tee_api_property.c:312
    60c0:	f94027e1 	ldr	x1, [sp, #72]
    60c4:	f9400282 	ldr	x2, [x20]
    60c8:	eb020021 	subs	x1, x1, x2
    60cc:	d2800002 	mov	x2, #0x0                   	// #0
    60d0:	54000040 	b.eq	60d8 <__GP11_TEE_GetPropertyAsString+0x88>  // b.none
    60d4:	97ffe8ba 	bl	3bc <__stack_chk_fail>
    60d8:	a94153f3 	ldp	x19, x20, [sp, #16]
    60dc:	a9425bf5 	ldp	x21, x22, [sp, #32]
    60e0:	f9401bf7 	ldr	x23, [sp, #48]
    60e4:	a8c57bfd 	ldp	x29, x30, [sp], #80
    60e8:	d65f03c0 	ret

00000000000060ec <TEE_GetPropertyAsBool>:
TEE_GetPropertyAsBool():
/home/jeferson/optee/optee_os-rpi4/lib/libutee/tee_api_property.c:316
    60ec:	a9bc7bfd 	stp	x29, x30, [sp, #-64]!
    60f0:	f0000044 	adrp	x4, 11000 <_DYNAMIC>
    60f4:	910003fd 	mov	x29, sp
    60f8:	f9409884 	ldr	x4, [x4, #304]
    60fc:	a90153f3 	stp	x19, x20, [sp, #16]
    6100:	aa0103f3 	mov	x19, x1
    6104:	f90013f5 	str	x21, [sp, #32]
    6108:	aa0203f4 	mov	x20, x2
    610c:	aa0003f5 	mov	x21, x0
    6110:	f9400081 	ldr	x1, [x4]
    6114:	f9001fe1 	str	x1, [sp, #56]
    6118:	d2800001 	mov	x1, #0x0                   	// #0
/home/jeferson/optee/optee_os-rpi4/lib/libutee/tee_api_property.c:319
    611c:	52800021 	mov	w1, #0x1                   	// #1
    6120:	b90037e1 	str	w1, [sp, #52]
/home/jeferson/optee/optee_os-rpi4/lib/libutee/tee_api_property.c:321
    6124:	97fffe5c 	bl	5a94 <is_propset_pseudo_handle>
    6128:	72001c1f 	tst	w0, #0xff
    612c:	54000060 	b.eq	6138 <TEE_GetPropertyAsBool+0x4c>  // b.none
/home/jeferson/optee/optee_os-rpi4/lib/libutee/tee_api_property.c:322
    6130:	aa1303e0 	mov	x0, x19
    6134:	97fffdf1 	bl	58f8 <__utee_check_instring_annotation>
/home/jeferson/optee/optee_os-rpi4/lib/libutee/tee_api_property.c:323
    6138:	aa1403e0 	mov	x0, x20
    613c:	d2800021 	mov	x1, #0x1                   	// #1
    6140:	97fffe20 	bl	59c0 <__utee_check_out_annotation>
/home/jeferson/optee/optee_os-rpi4/lib/libutee/tee_api_property.c:325
    6144:	b90033ff 	str	wzr, [sp, #48]
/home/jeferson/optee/optee_os-rpi4/lib/libutee/tee_api_property.c:326
    6148:	aa1303e1 	mov	x1, x19
    614c:	9100c3e2 	add	x2, sp, #0x30
    6150:	9100d3e4 	add	x4, sp, #0x34
    6154:	aa1403e3 	mov	x3, x20
    6158:	aa1503e0 	mov	x0, x21
    615c:	97fffea9 	bl	5c00 <propget_get_property>
/home/jeferson/optee/optee_os-rpi4/lib/libutee/tee_api_property.c:329
    6160:	b94033e2 	ldr	w2, [sp, #48]
    6164:	129fff41 	mov	w1, #0xffff0005            	// #-65531
    6168:	7100005f 	cmp	w2, #0x0
    616c:	1a810013 	csel	w19, w0, w1, eq  // eq = none
/home/jeferson/optee/optee_os-rpi4/lib/libutee/tee_api_property.c:334
    6170:	129ffee0 	mov	w0, #0xffff0008            	// #-65528
    6174:	7100027f 	cmp	w19, #0x0
    6178:	7a401264 	ccmp	w19, w0, #0x4, ne  // ne = any
    617c:	540000a0 	b.eq	6190 <TEE_GetPropertyAsBool+0xa4>  // b.none
/home/jeferson/optee/optee_os-rpi4/lib/libutee/tee_api_property.c:335
    6180:	6b01027f 	cmp	w19, w1
    6184:	54000060 	b.eq	6190 <TEE_GetPropertyAsBool+0xa4>  // b.none
/home/jeferson/optee/optee_os-rpi4/lib/libutee/tee_api_property.c:337
    6188:	52800000 	mov	w0, #0x0                   	// #0
    618c:	97fffdaf 	bl	5848 <TEE_Panic>
/home/jeferson/optee/optee_os-rpi4/lib/libutee/tee_api_property.c:340
    6190:	f0000044 	adrp	x4, 11000 <_DYNAMIC>
    6194:	f9409884 	ldr	x4, [x4, #304]
    6198:	f9401fe0 	ldr	x0, [sp, #56]
    619c:	f9400081 	ldr	x1, [x4]
    61a0:	eb010000 	subs	x0, x0, x1
    61a4:	d2800001 	mov	x1, #0x0                   	// #0
    61a8:	54000040 	b.eq	61b0 <TEE_GetPropertyAsBool+0xc4>  // b.none
    61ac:	97ffe884 	bl	3bc <__stack_chk_fail>
    61b0:	2a1303e0 	mov	w0, w19
    61b4:	a94153f3 	ldp	x19, x20, [sp, #16]
    61b8:	f94013f5 	ldr	x21, [sp, #32]
    61bc:	a8c47bfd 	ldp	x29, x30, [sp], #64
    61c0:	d65f03c0 	ret

00000000000061c4 <TEE_GetPropertyAsU32>:
TEE_GetPropertyAsU32():
/home/jeferson/optee/optee_os-rpi4/lib/libutee/tee_api_property.c:344
    61c4:	a9bc7bfd 	stp	x29, x30, [sp, #-64]!
    61c8:	f0000044 	adrp	x4, 11000 <_DYNAMIC>
    61cc:	910003fd 	mov	x29, sp
    61d0:	f9409884 	ldr	x4, [x4, #304]
    61d4:	a90153f3 	stp	x19, x20, [sp, #16]
    61d8:	aa0103f3 	mov	x19, x1
    61dc:	f90013f5 	str	x21, [sp, #32]
    61e0:	aa0203f4 	mov	x20, x2
    61e4:	aa0003f5 	mov	x21, x0
    61e8:	f9400081 	ldr	x1, [x4]
    61ec:	f9001fe1 	str	x1, [sp, #56]
    61f0:	d2800001 	mov	x1, #0x0                   	// #0
/home/jeferson/optee/optee_os-rpi4/lib/libutee/tee_api_property.c:347
    61f4:	52800081 	mov	w1, #0x4                   	// #4
    61f8:	b90037e1 	str	w1, [sp, #52]
/home/jeferson/optee/optee_os-rpi4/lib/libutee/tee_api_property.c:349
    61fc:	97fffe26 	bl	5a94 <is_propset_pseudo_handle>
    6200:	72001c1f 	tst	w0, #0xff
    6204:	54000060 	b.eq	6210 <TEE_GetPropertyAsU32+0x4c>  // b.none
/home/jeferson/optee/optee_os-rpi4/lib/libutee/tee_api_property.c:350
    6208:	aa1303e0 	mov	x0, x19
    620c:	97fffdbb 	bl	58f8 <__utee_check_instring_annotation>
/home/jeferson/optee/optee_os-rpi4/lib/libutee/tee_api_property.c:351
    6210:	aa1403e0 	mov	x0, x20
    6214:	d2800081 	mov	x1, #0x4                   	// #4
    6218:	97fffdea 	bl	59c0 <__utee_check_out_annotation>
/home/jeferson/optee/optee_os-rpi4/lib/libutee/tee_api_property.c:353
    621c:	52800020 	mov	w0, #0x1                   	// #1
/home/jeferson/optee/optee_os-rpi4/lib/libutee/tee_api_property.c:354
    6220:	aa1303e1 	mov	x1, x19
    6224:	9100d3e4 	add	x4, sp, #0x34
    6228:	aa1403e3 	mov	x3, x20
    622c:	9100c3e2 	add	x2, sp, #0x30
/home/jeferson/optee/optee_os-rpi4/lib/libutee/tee_api_property.c:353
    6230:	b90033e0 	str	w0, [sp, #48]
/home/jeferson/optee/optee_os-rpi4/lib/libutee/tee_api_property.c:354
    6234:	aa1503e0 	mov	x0, x21
    6238:	97fffe72 	bl	5c00 <propget_get_property>
    623c:	2a0003f3 	mov	w19, w0
/home/jeferson/optee/optee_os-rpi4/lib/libutee/tee_api_property.c:356
    6240:	b94033e0 	ldr	w0, [sp, #48]
    6244:	7100041f 	cmp	w0, #0x1
    6248:	54000241 	b.ne	6290 <TEE_GetPropertyAsU32+0xcc>  // b.any
/home/jeferson/optee/optee_os-rpi4/lib/libutee/tee_api_property.c:359
    624c:	7100027f 	cmp	w19, #0x0
    6250:	129ffee0 	mov	w0, #0xffff0008            	// #-65528
    6254:	7a401264 	ccmp	w19, w0, #0x4, ne  // ne = any
    6258:	540000c0 	b.eq	6270 <TEE_GetPropertyAsU32+0xac>  // b.none
/home/jeferson/optee/optee_os-rpi4/lib/libutee/tee_api_property.c:360
    625c:	129fff40 	mov	w0, #0xffff0005            	// #-65531
    6260:	6b00027f 	cmp	w19, w0
    6264:	54000060 	b.eq	6270 <TEE_GetPropertyAsU32+0xac>  // b.none
/home/jeferson/optee/optee_os-rpi4/lib/libutee/tee_api_property.c:362
    6268:	52800000 	mov	w0, #0x0                   	// #0
    626c:	97fffd77 	bl	5848 <TEE_Panic>
/home/jeferson/optee/optee_os-rpi4/lib/libutee/tee_api_property.c:365
    6270:	f0000044 	adrp	x4, 11000 <_DYNAMIC>
    6274:	f9409884 	ldr	x4, [x4, #304]
    6278:	f9401fe0 	ldr	x0, [sp, #56]
    627c:	f9400081 	ldr	x1, [x4]
    6280:	eb010000 	subs	x0, x0, x1
    6284:	d2800001 	mov	x1, #0x0                   	// #0
    6288:	54000080 	b.eq	6298 <TEE_GetPropertyAsU32+0xd4>  // b.none
    628c:	97ffe84c 	bl	3bc <__stack_chk_fail>
/home/jeferson/optee/optee_os-rpi4/lib/libutee/tee_api_property.c:357
    6290:	129fff53 	mov	w19, #0xffff0005            	// #-65531
/home/jeferson/optee/optee_os-rpi4/lib/libutee/tee_api_property.c:364
    6294:	17fffff7 	b	6270 <TEE_GetPropertyAsU32+0xac>
/home/jeferson/optee/optee_os-rpi4/lib/libutee/tee_api_property.c:365
    6298:	2a1303e0 	mov	w0, w19
    629c:	a94153f3 	ldp	x19, x20, [sp, #16]
    62a0:	f94013f5 	ldr	x21, [sp, #32]
    62a4:	a8c47bfd 	ldp	x29, x30, [sp], #64
    62a8:	d65f03c0 	ret

00000000000062ac <TEE_GetPropertyAsU64>:
TEE_GetPropertyAsU64():
/home/jeferson/optee/optee_os-rpi4/lib/libutee/tee_api_property.c:369
    62ac:	a9bc7bfd 	stp	x29, x30, [sp, #-64]!
    62b0:	f0000044 	adrp	x4, 11000 <_DYNAMIC>
    62b4:	910003fd 	mov	x29, sp
    62b8:	f9409884 	ldr	x4, [x4, #304]
    62bc:	a90153f3 	stp	x19, x20, [sp, #16]
    62c0:	aa0103f3 	mov	x19, x1
    62c4:	f90013f5 	str	x21, [sp, #32]
    62c8:	aa0203f4 	mov	x20, x2
    62cc:	aa0003f5 	mov	x21, x0
    62d0:	f9400081 	ldr	x1, [x4]
    62d4:	f9001fe1 	str	x1, [sp, #56]
    62d8:	d2800001 	mov	x1, #0x0                   	// #0
/home/jeferson/optee/optee_os-rpi4/lib/libutee/tee_api_property.c:372
    62dc:	52800101 	mov	w1, #0x8                   	// #8
    62e0:	b90037e1 	str	w1, [sp, #52]
/home/jeferson/optee/optee_os-rpi4/lib/libutee/tee_api_property.c:374
    62e4:	97fffdec 	bl	5a94 <is_propset_pseudo_handle>
    62e8:	72001c1f 	tst	w0, #0xff
    62ec:	54000060 	b.eq	62f8 <TEE_GetPropertyAsU64+0x4c>  // b.none
/home/jeferson/optee/optee_os-rpi4/lib/libutee/tee_api_property.c:375
    62f0:	aa1303e0 	mov	x0, x19
    62f4:	97fffd81 	bl	58f8 <__utee_check_instring_annotation>
/home/jeferson/optee/optee_os-rpi4/lib/libutee/tee_api_property.c:376
    62f8:	aa1403e0 	mov	x0, x20
    62fc:	d2800101 	mov	x1, #0x8                   	// #8
    6300:	97fffdb0 	bl	59c0 <__utee_check_out_annotation>
/home/jeferson/optee/optee_os-rpi4/lib/libutee/tee_api_property.c:378
    6304:	528000c0 	mov	w0, #0x6                   	// #6
/home/jeferson/optee/optee_os-rpi4/lib/libutee/tee_api_property.c:379
    6308:	aa1303e1 	mov	x1, x19
    630c:	9100d3e4 	add	x4, sp, #0x34
    6310:	aa1403e3 	mov	x3, x20
    6314:	9100c3e2 	add	x2, sp, #0x30
/home/jeferson/optee/optee_os-rpi4/lib/libutee/tee_api_property.c:378
    6318:	b90033e0 	str	w0, [sp, #48]
/home/jeferson/optee/optee_os-rpi4/lib/libutee/tee_api_property.c:379
    631c:	aa1503e0 	mov	x0, x21
    6320:	97fffe38 	bl	5c00 <propget_get_property>
    6324:	2a0003f3 	mov	w19, w0
/home/jeferson/optee/optee_os-rpi4/lib/libutee/tee_api_property.c:381
    6328:	b94033e0 	ldr	w0, [sp, #48]
    632c:	7100181f 	cmp	w0, #0x6
    6330:	54000241 	b.ne	6378 <TEE_GetPropertyAsU64+0xcc>  // b.any
/home/jeferson/optee/optee_os-rpi4/lib/libutee/tee_api_property.c:384
    6334:	7100027f 	cmp	w19, #0x0
    6338:	129ffee0 	mov	w0, #0xffff0008            	// #-65528
    633c:	7a401264 	ccmp	w19, w0, #0x4, ne  // ne = any
    6340:	540000c0 	b.eq	6358 <TEE_GetPropertyAsU64+0xac>  // b.none
/home/jeferson/optee/optee_os-rpi4/lib/libutee/tee_api_property.c:385
    6344:	129fff40 	mov	w0, #0xffff0005            	// #-65531
    6348:	6b00027f 	cmp	w19, w0
    634c:	54000060 	b.eq	6358 <TEE_GetPropertyAsU64+0xac>  // b.none
/home/jeferson/optee/optee_os-rpi4/lib/libutee/tee_api_property.c:387
    6350:	52800000 	mov	w0, #0x0                   	// #0
    6354:	97fffd3d 	bl	5848 <TEE_Panic>
/home/jeferson/optee/optee_os-rpi4/lib/libutee/tee_api_property.c:390
    6358:	f0000044 	adrp	x4, 11000 <_DYNAMIC>
    635c:	f9409884 	ldr	x4, [x4, #304]
    6360:	f9401fe0 	ldr	x0, [sp, #56]
    6364:	f9400081 	ldr	x1, [x4]
    6368:	eb010000 	subs	x0, x0, x1
    636c:	d2800001 	mov	x1, #0x0                   	// #0
    6370:	54000080 	b.eq	6380 <TEE_GetPropertyAsU64+0xd4>  // b.none
    6374:	97ffe812 	bl	3bc <__stack_chk_fail>
/home/jeferson/optee/optee_os-rpi4/lib/libutee/tee_api_property.c:382
    6378:	129fff53 	mov	w19, #0xffff0005            	// #-65531
/home/jeferson/optee/optee_os-rpi4/lib/libutee/tee_api_property.c:389
    637c:	17fffff7 	b	6358 <TEE_GetPropertyAsU64+0xac>
/home/jeferson/optee/optee_os-rpi4/lib/libutee/tee_api_property.c:390
    6380:	2a1303e0 	mov	w0, w19
    6384:	a94153f3 	ldp	x19, x20, [sp, #16]
    6388:	f94013f5 	ldr	x21, [sp, #32]
    638c:	a8c47bfd 	ldp	x29, x30, [sp], #64
    6390:	d65f03c0 	ret

0000000000006394 <__GP11_TEE_GetPropertyAsBinaryBlock>:
__GP11_TEE_GetPropertyAsBinaryBlock():
/home/jeferson/optee/optee_os-rpi4/lib/libutee/tee_api_property.c:396
    6394:	a9bc7bfd 	stp	x29, x30, [sp, #-64]!
    6398:	f0000045 	adrp	x5, 11000 <_DYNAMIC>
    639c:	910003fd 	mov	x29, sp
    63a0:	f94098a5 	ldr	x5, [x5, #304]
    63a4:	a90153f3 	stp	x19, x20, [sp, #16]
    63a8:	aa0103f3 	mov	x19, x1
    63ac:	a9025bf5 	stp	x21, x22, [sp, #32]
    63b0:	aa0203f4 	mov	x20, x2
    63b4:	aa0003f6 	mov	x22, x0
    63b8:	f94000a1 	ldr	x1, [x5]
    63bc:	f9001fe1 	str	x1, [sp, #56]
    63c0:	d2800001 	mov	x1, #0x0                   	// #0
    63c4:	aa0303f5 	mov	x21, x3
/home/jeferson/optee/optee_os-rpi4/lib/libutee/tee_api_property.c:400
    63c8:	97fffdb3 	bl	5a94 <is_propset_pseudo_handle>
    63cc:	72001c1f 	tst	w0, #0xff
    63d0:	54000060 	b.eq	63dc <__GP11_TEE_GetPropertyAsBinaryBlock+0x48>  // b.none
/home/jeferson/optee/optee_os-rpi4/lib/libutee/tee_api_property.c:401
    63d4:	aa1303e0 	mov	x0, x19
    63d8:	97fffd48 	bl	58f8 <__utee_check_instring_annotation>
/home/jeferson/optee/optee_os-rpi4/lib/libutee/tee_api_property.c:402
    63dc:	aa1503e1 	mov	x1, x21
    63e0:	aa1403e0 	mov	x0, x20
    63e4:	97fffd32 	bl	58ac <__utee_check_gp11_outbuf_annotation>
/home/jeferson/optee/optee_os-rpi4/lib/libutee/tee_api_property.c:404
    63e8:	528000a0 	mov	w0, #0x5                   	// #5
/home/jeferson/optee/optee_os-rpi4/lib/libutee/tee_api_property.c:405
    63ec:	aa1303e1 	mov	x1, x19
    63f0:	aa1503e4 	mov	x4, x21
    63f4:	aa1403e3 	mov	x3, x20
    63f8:	9100d3e2 	add	x2, sp, #0x34
/home/jeferson/optee/optee_os-rpi4/lib/libutee/tee_api_property.c:404
    63fc:	b90037e0 	str	w0, [sp, #52]
/home/jeferson/optee/optee_os-rpi4/lib/libutee/tee_api_property.c:405
    6400:	aa1603e0 	mov	x0, x22
    6404:	97fffdff 	bl	5c00 <propget_get_property>
    6408:	2a0003f3 	mov	w19, w0
/home/jeferson/optee/optee_os-rpi4/lib/libutee/tee_api_property.c:407
    640c:	b94037e0 	ldr	w0, [sp, #52]
    6410:	7100141f 	cmp	w0, #0x5
    6414:	54000261 	b.ne	6460 <__GP11_TEE_GetPropertyAsBinaryBlock+0xcc>  // b.any
/home/jeferson/optee/optee_os-rpi4/lib/libutee/tee_api_property.c:410
    6418:	34000153 	cbz	w19, 6440 <__GP11_TEE_GetPropertyAsBinaryBlock+0xac>
/home/jeferson/optee/optee_os-rpi4/lib/libutee/tee_api_property.c:412
    641c:	529fff60 	mov	w0, #0xfffb                	// #65531
    6420:	0b000261 	add	w1, w19, w0
    6424:	71002c3f 	cmp	w1, #0xb
    6428:	54000088 	b.hi	6438 <__GP11_TEE_GetPropertyAsBinaryBlock+0xa4>  // b.pmore
    642c:	92810120 	mov	x0, #0xfffffffffffff7f6    	// #-2058
    6430:	9ac12800 	asr	x0, x0, x1
    6434:	36000060 	tbz	w0, #0, 6440 <__GP11_TEE_GetPropertyAsBinaryBlock+0xac>
/home/jeferson/optee/optee_os-rpi4/lib/libutee/tee_api_property.c:414
    6438:	52800000 	mov	w0, #0x0                   	// #0
    643c:	97fffd03 	bl	5848 <TEE_Panic>
/home/jeferson/optee/optee_os-rpi4/lib/libutee/tee_api_property.c:417
    6440:	f0000045 	adrp	x5, 11000 <_DYNAMIC>
    6444:	f94098a5 	ldr	x5, [x5, #304]
    6448:	f9401fe0 	ldr	x0, [sp, #56]
    644c:	f94000a1 	ldr	x1, [x5]
    6450:	eb010000 	subs	x0, x0, x1
    6454:	d2800001 	mov	x1, #0x0                   	// #0
    6458:	54000080 	b.eq	6468 <__GP11_TEE_GetPropertyAsBinaryBlock+0xd4>  // b.none
    645c:	97ffe7d8 	bl	3bc <__stack_chk_fail>
/home/jeferson/optee/optee_os-rpi4/lib/libutee/tee_api_property.c:408
    6460:	129fff53 	mov	w19, #0xffff0005            	// #-65531
/home/jeferson/optee/optee_os-rpi4/lib/libutee/tee_api_property.c:416
    6464:	17fffff7 	b	6440 <__GP11_TEE_GetPropertyAsBinaryBlock+0xac>
/home/jeferson/optee/optee_os-rpi4/lib/libutee/tee_api_property.c:417
    6468:	2a1303e0 	mov	w0, w19
    646c:	a94153f3 	ldp	x19, x20, [sp, #16]
    6470:	a9425bf5 	ldp	x21, x22, [sp, #32]
    6474:	a8c47bfd 	ldp	x29, x30, [sp], #64
    6478:	d65f03c0 	ret

000000000000647c <TEE_GetPropertyAsBinaryBlock>:
TEE_GetPropertyAsBinaryBlock():
/home/jeferson/optee/optee_os-rpi4/lib/libutee/tee_api_property.c:422
    647c:	a9bb7bfd 	stp	x29, x30, [sp, #-80]!
    6480:	910003fd 	mov	x29, sp
    6484:	a90153f3 	stp	x19, x20, [sp, #16]
    6488:	f0000054 	adrp	x20, 11000 <_DYNAMIC>
    648c:	aa0303f3 	mov	x19, x3
    6490:	a9025bf5 	stp	x21, x22, [sp, #32]
    6494:	aa0003f6 	mov	x22, x0
    6498:	aa0203f5 	mov	x21, x2
    649c:	f9409a80 	ldr	x0, [x20, #304]
    64a0:	f9001bf7 	str	x23, [sp, #48]
    64a4:	aa0103f7 	mov	x23, x1
    64a8:	f9400001 	ldr	x1, [x0]
    64ac:	f90027e1 	str	x1, [sp, #72]
    64b0:	d2800001 	mov	x1, #0x0                   	// #0
/home/jeferson/optee/optee_os-rpi4/lib/libutee/tee_api_property.c:426
    64b4:	aa0203e0 	mov	x0, x2
    64b8:	aa0303e1 	mov	x1, x3
/home/jeferson/optee/optee_os-rpi4/lib/libutee/tee_api_property.c:424
    64bc:	b90047ff 	str	wzr, [sp, #68]
/home/jeferson/optee/optee_os-rpi4/lib/libutee/tee_api_property.c:426
    64c0:	97fffce8 	bl	5860 <__utee_check_outbuf_annotation>
/home/jeferson/optee/optee_os-rpi4/lib/libutee/tee_api_property.c:427
    64c4:	f9400260 	ldr	x0, [x19]
/home/jeferson/optee/optee_os-rpi4/lib/libutee/tee_api_property.c:428
    64c8:	aa1503e2 	mov	x2, x21
    64cc:	aa1703e1 	mov	x1, x23
    64d0:	910113e3 	add	x3, sp, #0x44
/home/jeferson/optee/optee_os-rpi4/lib/libutee/tee_api_property.c:427
    64d4:	b90047e0 	str	w0, [sp, #68]
/home/jeferson/optee/optee_os-rpi4/lib/libutee/tee_api_property.c:428
    64d8:	aa1603e0 	mov	x0, x22
    64dc:	97ffffae 	bl	6394 <__GP11_TEE_GetPropertyAsBinaryBlock>
/home/jeferson/optee/optee_os-rpi4/lib/libutee/tee_api_property.c:430
    64e0:	b94047e1 	ldr	w1, [sp, #68]
/home/jeferson/optee/optee_os-rpi4/lib/libutee/tee_api_property.c:432
    64e4:	f9409a94 	ldr	x20, [x20, #304]
/home/jeferson/optee/optee_os-rpi4/lib/libutee/tee_api_property.c:430
    64e8:	f9000261 	str	x1, [x19]
/home/jeferson/optee/optee_os-rpi4/lib/libutee/tee_api_property.c:432
    64ec:	f94027e1 	ldr	x1, [sp, #72]
    64f0:	f9400282 	ldr	x2, [x20]
    64f4:	eb020021 	subs	x1, x1, x2
    64f8:	d2800002 	mov	x2, #0x0                   	// #0
    64fc:	54000040 	b.eq	6504 <TEE_GetPropertyAsBinaryBlock+0x88>  // b.none
    6500:	97ffe7af 	bl	3bc <__stack_chk_fail>
    6504:	a94153f3 	ldp	x19, x20, [sp, #16]
    6508:	a9425bf5 	ldp	x21, x22, [sp, #32]
    650c:	f9401bf7 	ldr	x23, [sp, #48]
    6510:	a8c57bfd 	ldp	x29, x30, [sp], #80
    6514:	d65f03c0 	ret

0000000000006518 <TEE_GetPropertyAsUUID>:
TEE_GetPropertyAsUUID():
/home/jeferson/optee/optee_os-rpi4/lib/libutee/tee_api_property.c:436
    6518:	a9bc7bfd 	stp	x29, x30, [sp, #-64]!
    651c:	f0000044 	adrp	x4, 11000 <_DYNAMIC>
    6520:	910003fd 	mov	x29, sp
    6524:	f9409884 	ldr	x4, [x4, #304]
    6528:	a90153f3 	stp	x19, x20, [sp, #16]
    652c:	aa0103f3 	mov	x19, x1
    6530:	f90013f5 	str	x21, [sp, #32]
    6534:	aa0203f4 	mov	x20, x2
    6538:	aa0003f5 	mov	x21, x0
    653c:	f9400081 	ldr	x1, [x4]
    6540:	f9001fe1 	str	x1, [sp, #56]
    6544:	d2800001 	mov	x1, #0x0                   	// #0
/home/jeferson/optee/optee_os-rpi4/lib/libutee/tee_api_property.c:439
    6548:	52800201 	mov	w1, #0x10                  	// #16
    654c:	b90037e1 	str	w1, [sp, #52]
/home/jeferson/optee/optee_os-rpi4/lib/libutee/tee_api_property.c:441
    6550:	97fffd51 	bl	5a94 <is_propset_pseudo_handle>
    6554:	72001c1f 	tst	w0, #0xff
    6558:	54000060 	b.eq	6564 <TEE_GetPropertyAsUUID+0x4c>  // b.none
/home/jeferson/optee/optee_os-rpi4/lib/libutee/tee_api_property.c:442
    655c:	aa1303e0 	mov	x0, x19
    6560:	97fffce6 	bl	58f8 <__utee_check_instring_annotation>
/home/jeferson/optee/optee_os-rpi4/lib/libutee/tee_api_property.c:443
    6564:	aa1403e0 	mov	x0, x20
    6568:	d2800201 	mov	x1, #0x10                  	// #16
    656c:	97fffd15 	bl	59c0 <__utee_check_out_annotation>
/home/jeferson/optee/optee_os-rpi4/lib/libutee/tee_api_property.c:445
    6570:	52800040 	mov	w0, #0x2                   	// #2
/home/jeferson/optee/optee_os-rpi4/lib/libutee/tee_api_property.c:446
    6574:	aa1303e1 	mov	x1, x19
    6578:	9100d3e4 	add	x4, sp, #0x34
    657c:	aa1403e3 	mov	x3, x20
    6580:	9100c3e2 	add	x2, sp, #0x30
/home/jeferson/optee/optee_os-rpi4/lib/libutee/tee_api_property.c:445
    6584:	b90033e0 	str	w0, [sp, #48]
/home/jeferson/optee/optee_os-rpi4/lib/libutee/tee_api_property.c:446
    6588:	aa1503e0 	mov	x0, x21
    658c:	97fffd9d 	bl	5c00 <propget_get_property>
    6590:	2a0003f3 	mov	w19, w0
/home/jeferson/optee/optee_os-rpi4/lib/libutee/tee_api_property.c:448
    6594:	b94033e0 	ldr	w0, [sp, #48]
    6598:	7100081f 	cmp	w0, #0x2
    659c:	54000241 	b.ne	65e4 <TEE_GetPropertyAsUUID+0xcc>  // b.any
/home/jeferson/optee/optee_os-rpi4/lib/libutee/tee_api_property.c:451
    65a0:	7100027f 	cmp	w19, #0x0
    65a4:	129ffee0 	mov	w0, #0xffff0008            	// #-65528
    65a8:	7a401264 	ccmp	w19, w0, #0x4, ne  // ne = any
    65ac:	540000c0 	b.eq	65c4 <TEE_GetPropertyAsUUID+0xac>  // b.none
/home/jeferson/optee/optee_os-rpi4/lib/libutee/tee_api_property.c:452
    65b0:	129fff40 	mov	w0, #0xffff0005            	// #-65531
    65b4:	6b00027f 	cmp	w19, w0
    65b8:	54000060 	b.eq	65c4 <TEE_GetPropertyAsUUID+0xac>  // b.none
/home/jeferson/optee/optee_os-rpi4/lib/libutee/tee_api_property.c:454
    65bc:	52800000 	mov	w0, #0x0                   	// #0
    65c0:	97fffca2 	bl	5848 <TEE_Panic>
/home/jeferson/optee/optee_os-rpi4/lib/libutee/tee_api_property.c:457
    65c4:	f0000044 	adrp	x4, 11000 <_DYNAMIC>
    65c8:	f9409884 	ldr	x4, [x4, #304]
    65cc:	f9401fe0 	ldr	x0, [sp, #56]
    65d0:	f9400081 	ldr	x1, [x4]
    65d4:	eb010000 	subs	x0, x0, x1
    65d8:	d2800001 	mov	x1, #0x0                   	// #0
    65dc:	54000080 	b.eq	65ec <TEE_GetPropertyAsUUID+0xd4>  // b.none
    65e0:	97ffe777 	bl	3bc <__stack_chk_fail>
/home/jeferson/optee/optee_os-rpi4/lib/libutee/tee_api_property.c:449
    65e4:	129fff53 	mov	w19, #0xffff0005            	// #-65531
/home/jeferson/optee/optee_os-rpi4/lib/libutee/tee_api_property.c:456
    65e8:	17fffff7 	b	65c4 <TEE_GetPropertyAsUUID+0xac>
/home/jeferson/optee/optee_os-rpi4/lib/libutee/tee_api_property.c:457
    65ec:	2a1303e0 	mov	w0, w19
    65f0:	a94153f3 	ldp	x19, x20, [sp, #16]
    65f4:	f94013f5 	ldr	x21, [sp, #32]
    65f8:	a8c47bfd 	ldp	x29, x30, [sp], #64
    65fc:	d65f03c0 	ret

0000000000006600 <TEE_GetPropertyAsIdentity>:
TEE_GetPropertyAsIdentity():
/home/jeferson/optee/optee_os-rpi4/lib/libutee/tee_api_property.c:461
    6600:	a9bc7bfd 	stp	x29, x30, [sp, #-64]!
    6604:	f0000044 	adrp	x4, 11000 <_DYNAMIC>
    6608:	910003fd 	mov	x29, sp
    660c:	f9409884 	ldr	x4, [x4, #304]
    6610:	a90153f3 	stp	x19, x20, [sp, #16]
    6614:	aa0103f3 	mov	x19, x1
    6618:	f90013f5 	str	x21, [sp, #32]
    661c:	aa0203f4 	mov	x20, x2
    6620:	aa0003f5 	mov	x21, x0
    6624:	f9400081 	ldr	x1, [x4]
    6628:	f9001fe1 	str	x1, [sp, #56]
    662c:	d2800001 	mov	x1, #0x0                   	// #0
/home/jeferson/optee/optee_os-rpi4/lib/libutee/tee_api_property.c:464
    6630:	52800281 	mov	w1, #0x14                  	// #20
    6634:	b90037e1 	str	w1, [sp, #52]
/home/jeferson/optee/optee_os-rpi4/lib/libutee/tee_api_property.c:466
    6638:	97fffd17 	bl	5a94 <is_propset_pseudo_handle>
    663c:	72001c1f 	tst	w0, #0xff
    6640:	54000060 	b.eq	664c <TEE_GetPropertyAsIdentity+0x4c>  // b.none
/home/jeferson/optee/optee_os-rpi4/lib/libutee/tee_api_property.c:467
    6644:	aa1303e0 	mov	x0, x19
    6648:	97fffcac 	bl	58f8 <__utee_check_instring_annotation>
/home/jeferson/optee/optee_os-rpi4/lib/libutee/tee_api_property.c:468
    664c:	aa1403e0 	mov	x0, x20
    6650:	d2800281 	mov	x1, #0x14                  	// #20
    6654:	97fffcdb 	bl	59c0 <__utee_check_out_annotation>
/home/jeferson/optee/optee_os-rpi4/lib/libutee/tee_api_property.c:470
    6658:	52800060 	mov	w0, #0x3                   	// #3
/home/jeferson/optee/optee_os-rpi4/lib/libutee/tee_api_property.c:471
    665c:	aa1303e1 	mov	x1, x19
    6660:	9100d3e4 	add	x4, sp, #0x34
    6664:	aa1403e3 	mov	x3, x20
    6668:	9100c3e2 	add	x2, sp, #0x30
/home/jeferson/optee/optee_os-rpi4/lib/libutee/tee_api_property.c:470
    666c:	b90033e0 	str	w0, [sp, #48]
/home/jeferson/optee/optee_os-rpi4/lib/libutee/tee_api_property.c:471
    6670:	aa1503e0 	mov	x0, x21
    6674:	97fffd63 	bl	5c00 <propget_get_property>
    6678:	2a0003f3 	mov	w19, w0
/home/jeferson/optee/optee_os-rpi4/lib/libutee/tee_api_property.c:473
    667c:	b94033e0 	ldr	w0, [sp, #48]
    6680:	71000c1f 	cmp	w0, #0x3
    6684:	54000241 	b.ne	66cc <TEE_GetPropertyAsIdentity+0xcc>  // b.any
/home/jeferson/optee/optee_os-rpi4/lib/libutee/tee_api_property.c:476
    6688:	7100027f 	cmp	w19, #0x0
    668c:	129ffee0 	mov	w0, #0xffff0008            	// #-65528
    6690:	7a401264 	ccmp	w19, w0, #0x4, ne  // ne = any
    6694:	540000c0 	b.eq	66ac <TEE_GetPropertyAsIdentity+0xac>  // b.none
/home/jeferson/optee/optee_os-rpi4/lib/libutee/tee_api_property.c:477
    6698:	129fff40 	mov	w0, #0xffff0005            	// #-65531
    669c:	6b00027f 	cmp	w19, w0
    66a0:	54000060 	b.eq	66ac <TEE_GetPropertyAsIdentity+0xac>  // b.none
/home/jeferson/optee/optee_os-rpi4/lib/libutee/tee_api_property.c:479
    66a4:	52800000 	mov	w0, #0x0                   	// #0
    66a8:	97fffc68 	bl	5848 <TEE_Panic>
/home/jeferson/optee/optee_os-rpi4/lib/libutee/tee_api_property.c:482
    66ac:	f0000044 	adrp	x4, 11000 <_DYNAMIC>
    66b0:	f9409884 	ldr	x4, [x4, #304]
    66b4:	f9401fe0 	ldr	x0, [sp, #56]
    66b8:	f9400081 	ldr	x1, [x4]
    66bc:	eb010000 	subs	x0, x0, x1
    66c0:	d2800001 	mov	x1, #0x0                   	// #0
    66c4:	54000080 	b.eq	66d4 <TEE_GetPropertyAsIdentity+0xd4>  // b.none
    66c8:	97ffe73d 	bl	3bc <__stack_chk_fail>
/home/jeferson/optee/optee_os-rpi4/lib/libutee/tee_api_property.c:474
    66cc:	129fff53 	mov	w19, #0xffff0005            	// #-65531
/home/jeferson/optee/optee_os-rpi4/lib/libutee/tee_api_property.c:481
    66d0:	17fffff7 	b	66ac <TEE_GetPropertyAsIdentity+0xac>
/home/jeferson/optee/optee_os-rpi4/lib/libutee/tee_api_property.c:482
    66d4:	2a1303e0 	mov	w0, w19
    66d8:	a94153f3 	ldp	x19, x20, [sp, #16]
    66dc:	f94013f5 	ldr	x21, [sp, #32]
    66e0:	a8c47bfd 	ldp	x29, x30, [sp], #64
    66e4:	d65f03c0 	ret

00000000000066e8 <TEE_ResetPropertyEnumerator>:
TEE_ResetPropertyEnumerator():
/home/jeferson/optee/optee_os-rpi4/lib/libutee/tee_api_property.c:515
    66e8:	12800001 	mov	w1, #0xffffffff            	// #-1
    66ec:	b9000001 	str	w1, [x0]
/home/jeferson/optee/optee_os-rpi4/lib/libutee/tee_api_property.c:516
    66f0:	d65f03c0 	ret

00000000000066f4 <TEE_AllocatePropertyEnumerator>:
TEE_AllocatePropertyEnumerator():
/home/jeferson/optee/optee_os-rpi4/lib/libutee/tee_api_property.c:485
    66f4:	a9be7bfd 	stp	x29, x30, [sp, #-32]!
/home/jeferson/optee/optee_os-rpi4/lib/libutee/tee_api_property.c:489
    66f8:	d2800101 	mov	x1, #0x8                   	// #8
/home/jeferson/optee/optee_os-rpi4/lib/libutee/tee_api_property.c:485
    66fc:	910003fd 	mov	x29, sp
    6700:	f9000bf3 	str	x19, [sp, #16]
    6704:	aa0003f3 	mov	x19, x0
/home/jeferson/optee/optee_os-rpi4/lib/libutee/tee_api_property.c:489
    6708:	97fffcae 	bl	59c0 <__utee_check_out_annotation>
/home/jeferson/optee/optee_os-rpi4/lib/libutee/tee_api_property.c:491
    670c:	52b00001 	mov	w1, #0x80000000            	// #-2147483648
    6710:	d2800200 	mov	x0, #0x10                  	// #16
    6714:	97fff351 	bl	3458 <TEE_Malloc>
/home/jeferson/optee/optee_os-rpi4/lib/libutee/tee_api_property.c:493
    6718:	b40000e0 	cbz	x0, 6734 <TEE_AllocatePropertyEnumerator+0x40>
/home/jeferson/optee/optee_os-rpi4/lib/libutee/tee_api_property.c:498
    671c:	f9000260 	str	x0, [x19]
/home/jeferson/optee/optee_os-rpi4/lib/libutee/tee_api_property.c:499
    6720:	97fffff2 	bl	66e8 <TEE_ResetPropertyEnumerator>
/home/jeferson/optee/optee_os-rpi4/lib/libutee/tee_api_property.c:508
    6724:	52800000 	mov	w0, #0x0                   	// #0
/home/jeferson/optee/optee_os-rpi4/lib/libutee/tee_api_property.c:509
    6728:	f9400bf3 	ldr	x19, [sp, #16]
    672c:	a8c27bfd 	ldp	x29, x30, [sp], #32
    6730:	d65f03c0 	ret
/home/jeferson/optee/optee_os-rpi4/lib/libutee/tee_api_property.c:505
    6734:	129ffe60 	mov	w0, #0xffff000c            	// #-65524
    6738:	17fffffc 	b	6728 <TEE_AllocatePropertyEnumerator+0x34>

000000000000673c <TEE_FreePropertyEnumerator>:
TEE_FreePropertyEnumerator():
/home/jeferson/optee/optee_os-rpi4/lib/libutee/tee_api_property.c:522
    673c:	17fff392 	b	3584 <TEE_Free>

0000000000006740 <TEE_StartPropertyEnumerator>:
TEE_StartPropertyEnumerator():
/home/jeferson/optee/optee_os-rpi4/lib/libutee/tee_api_property.c:530
    6740:	b4000060 	cbz	x0, 674c <TEE_StartPropertyEnumerator+0xc>
/home/jeferson/optee/optee_os-rpi4/lib/libutee/tee_api_property.c:533
    6744:	b900001f 	str	wzr, [x0]
/home/jeferson/optee/optee_os-rpi4/lib/libutee/tee_api_property.c:534
    6748:	f9000401 	str	x1, [x0, #8]
/home/jeferson/optee/optee_os-rpi4/lib/libutee/tee_api_property.c:535
    674c:	d65f03c0 	ret

0000000000006750 <__GP11_TEE_GetPropertyName>:
__GP11_TEE_GetPropertyName():
/home/jeferson/optee/optee_os-rpi4/lib/libutee/tee_api_property.c:539
    6750:	a9bb7bfd 	stp	x29, x30, [sp, #-80]!
    6754:	f0000044 	adrp	x4, 11000 <_DYNAMIC>
    6758:	910003fd 	mov	x29, sp
    675c:	f9409884 	ldr	x4, [x4, #304]
    6760:	a90153f3 	stp	x19, x20, [sp, #16]
    6764:	a9025bf5 	stp	x21, x22, [sp, #32]
    6768:	aa0003f6 	mov	x22, x0
    676c:	f9400080 	ldr	x0, [x4]
    6770:	f90027e0 	str	x0, [sp, #72]
    6774:	d2800000 	mov	x0, #0x0                   	// #0
/home/jeferson/optee/optee_os-rpi4/lib/libutee/tee_api_property.c:547
    6778:	b4000776 	cbz	x22, 6864 <__GP11_TEE_GetPropertyName+0x114>
    677c:	aa0103f5 	mov	x21, x1
    6780:	aa0203f4 	mov	x20, x2
/home/jeferson/optee/optee_os-rpi4/lib/libutee/tee_api_property.c:551
    6784:	aa0203e1 	mov	x1, x2
    6788:	aa1503e0 	mov	x0, x21
    678c:	97fffc7a 	bl	5974 <__utee_check_gp11_outstring_annotation>
/home/jeferson/optee/optee_os-rpi4/lib/libutee/tee_api_property.c:554
    6790:	f94006c7 	ldr	x7, [x22, #8]
    6794:	910103e2 	add	x2, sp, #0x40
/home/jeferson/optee/optee_os-rpi4/lib/libutee/tee_api_property.c:553
    6798:	b9400284 	ldr	w4, [x20]
/home/jeferson/optee/optee_os-rpi4/lib/libutee/tee_api_property.c:554
    679c:	9100e3e1 	add	x1, sp, #0x38
    67a0:	aa0703e0 	mov	x0, x7
    67a4:	97fffca1 	bl	5a28 <propset_get>
    67a8:	2a0003f3 	mov	w19, w0
/home/jeferson/optee/optee_os-rpi4/lib/libutee/tee_api_property.c:555
    67ac:	35000260 	cbnz	w0, 67f8 <__GP11_TEE_GetPropertyName+0xa8>
/home/jeferson/optee/optee_os-rpi4/lib/libutee/tee_api_property.c:558
    67b0:	f94023e1 	ldr	x1, [sp, #64]
    67b4:	b94002c0 	ldr	w0, [x22]
    67b8:	2a0003e8 	mov	w8, w0
    67bc:	eb20403f 	cmp	x1, w0, uxtw
    67c0:	540003e9 	b.ls	683c <__GP11_TEE_GetPropertyName+0xec>  // b.plast
/home/jeferson/optee/optee_os-rpi4/lib/libutee/tee_api_property.c:559
    67c4:	52800301 	mov	w1, #0x18                  	// #24
/home/jeferson/optee/optee_os-rpi4/lib/libutee/tee_api_property.c:560
    67c8:	2a0403e2 	mov	w2, w4
/home/jeferson/optee/optee_os-rpi4/lib/libutee/tee_api_property.c:562
    67cc:	129ffdf3 	mov	w19, #0xffff0010            	// #-65520
/home/jeferson/optee/optee_os-rpi4/lib/libutee/tee_api_property.c:559
    67d0:	9ba17c00 	umull	x0, w0, w1
/home/jeferson/optee/optee_os-rpi4/lib/libutee/tee_api_property.c:560
    67d4:	f9401fe1 	ldr	x1, [sp, #56]
    67d8:	f8606821 	ldr	x1, [x1, x0]
    67dc:	aa1503e0 	mov	x0, x21
    67e0:	94001838 	bl	c8c0 <strlcpy>
    67e4:	91000400 	add	x0, x0, #0x1
/home/jeferson/optee/optee_os-rpi4/lib/libutee/tee_api_property.c:561
    67e8:	b9400281 	ldr	w1, [x20]
/home/jeferson/optee/optee_os-rpi4/lib/libutee/tee_api_property.c:563
    67ec:	b9000280 	str	w0, [x20]
/home/jeferson/optee/optee_os-rpi4/lib/libutee/tee_api_property.c:562
    67f0:	eb00003f 	cmp	x1, x0
    67f4:	1a9323f3 	csel	w19, wzr, w19, cs  // cs = hs, nlast
/home/jeferson/optee/optee_os-rpi4/lib/libutee/tee_api_property.c:573
    67f8:	7100027f 	cmp	w19, #0x0
    67fc:	129ffee0 	mov	w0, #0xffff0008            	// #-65528
    6800:	7a401264 	ccmp	w19, w0, #0x4, ne  // ne = any
    6804:	540000c0 	b.eq	681c <__GP11_TEE_GetPropertyName+0xcc>  // b.none
/home/jeferson/optee/optee_os-rpi4/lib/libutee/tee_api_property.c:574
    6808:	129ffde0 	mov	w0, #0xffff0010            	// #-65520
    680c:	6b00027f 	cmp	w19, w0
    6810:	54000060 	b.eq	681c <__GP11_TEE_GetPropertyName+0xcc>  // b.none
/home/jeferson/optee/optee_os-rpi4/lib/libutee/tee_api_property.c:576
    6814:	52800000 	mov	w0, #0x0                   	// #0
    6818:	97fffc0c 	bl	5848 <TEE_Panic>
/home/jeferson/optee/optee_os-rpi4/lib/libutee/tee_api_property.c:578
    681c:	f0000044 	adrp	x4, 11000 <_DYNAMIC>
    6820:	f9409884 	ldr	x4, [x4, #304]
    6824:	f94027e0 	ldr	x0, [sp, #72]
    6828:	f9400081 	ldr	x1, [x4]
    682c:	eb010000 	subs	x0, x0, x1
    6830:	d2800001 	mov	x1, #0x0                   	// #0
    6834:	540001c0 	b.eq	686c <__GP11_TEE_GetPropertyName+0x11c>  // b.none
    6838:	97ffe6e1 	bl	3bc <__stack_chk_fail>
/home/jeferson/optee/optee_os-rpi4/lib/libutee/tee_api_property.c:565
    683c:	aa1403e3 	mov	x3, x20
    6840:	aa1503e2 	mov	x2, x21
    6844:	cb010101 	sub	x1, x8, x1
    6848:	aa0703e0 	mov	x0, x7
    684c:	d2800006 	mov	x6, #0x0                   	// #0
    6850:	d2800005 	mov	x5, #0x0                   	// #0
    6854:	d2800004 	mov	x4, #0x0                   	// #0
    6858:	97ffec75 	bl	1a2c <_utee_get_property>
    685c:	2a0003f3 	mov	w19, w0
/home/jeferson/optee/optee_os-rpi4/lib/libutee/tee_api_property.c:572
    6860:	17ffffe6 	b	67f8 <__GP11_TEE_GetPropertyName+0xa8>
/home/jeferson/optee/optee_os-rpi4/lib/libutee/tee_api_property.c:548
    6864:	129fff33 	mov	w19, #0xffff0006            	// #-65530
    6868:	17ffffe4 	b	67f8 <__GP11_TEE_GetPropertyName+0xa8>
/home/jeferson/optee/optee_os-rpi4/lib/libutee/tee_api_property.c:578
    686c:	2a1303e0 	mov	w0, w19
    6870:	a94153f3 	ldp	x19, x20, [sp, #16]
    6874:	a9425bf5 	ldp	x21, x22, [sp, #32]
    6878:	a8c57bfd 	ldp	x29, x30, [sp], #80
    687c:	d65f03c0 	ret

0000000000006880 <TEE_GetPropertyName>:
TEE_GetPropertyName():
/home/jeferson/optee/optee_os-rpi4/lib/libutee/tee_api_property.c:582
    6880:	a9bc7bfd 	stp	x29, x30, [sp, #-64]!
    6884:	910003fd 	mov	x29, sp
    6888:	a90153f3 	stp	x19, x20, [sp, #16]
    688c:	f0000054 	adrp	x20, 11000 <_DYNAMIC>
    6890:	aa0203f3 	mov	x19, x2
    6894:	a9025bf5 	stp	x21, x22, [sp, #32]
    6898:	aa0003f6 	mov	x22, x0
    689c:	aa0103f5 	mov	x21, x1
    68a0:	f9409a80 	ldr	x0, [x20, #304]
    68a4:	f9400001 	ldr	x1, [x0]
    68a8:	f9001fe1 	str	x1, [sp, #56]
    68ac:	d2800001 	mov	x1, #0x0                   	// #0
/home/jeferson/optee/optee_os-rpi4/lib/libutee/tee_api_property.c:586
    68b0:	aa1503e0 	mov	x0, x21
    68b4:	aa0203e1 	mov	x1, x2
/home/jeferson/optee/optee_os-rpi4/lib/libutee/tee_api_property.c:584
    68b8:	b90037ff 	str	wzr, [sp, #52]
/home/jeferson/optee/optee_os-rpi4/lib/libutee/tee_api_property.c:586
    68bc:	97fffc1b 	bl	5928 <__utee_check_outstring_annotation>
/home/jeferson/optee/optee_os-rpi4/lib/libutee/tee_api_property.c:587
    68c0:	f9400260 	ldr	x0, [x19]
/home/jeferson/optee/optee_os-rpi4/lib/libutee/tee_api_property.c:588
    68c4:	9100d3e2 	add	x2, sp, #0x34
    68c8:	aa1503e1 	mov	x1, x21
/home/jeferson/optee/optee_os-rpi4/lib/libutee/tee_api_property.c:587
    68cc:	b90037e0 	str	w0, [sp, #52]
/home/jeferson/optee/optee_os-rpi4/lib/libutee/tee_api_property.c:588
    68d0:	aa1603e0 	mov	x0, x22
    68d4:	97ffff9f 	bl	6750 <__GP11_TEE_GetPropertyName>
/home/jeferson/optee/optee_os-rpi4/lib/libutee/tee_api_property.c:589
    68d8:	b94037e1 	ldr	w1, [sp, #52]
/home/jeferson/optee/optee_os-rpi4/lib/libutee/tee_api_property.c:591
    68dc:	f9409a94 	ldr	x20, [x20, #304]
/home/jeferson/optee/optee_os-rpi4/lib/libutee/tee_api_property.c:589
    68e0:	f9000261 	str	x1, [x19]
/home/jeferson/optee/optee_os-rpi4/lib/libutee/tee_api_property.c:591
    68e4:	f9401fe1 	ldr	x1, [sp, #56]
    68e8:	f9400282 	ldr	x2, [x20]
    68ec:	eb020021 	subs	x1, x1, x2
    68f0:	d2800002 	mov	x2, #0x0                   	// #0
    68f4:	54000040 	b.eq	68fc <TEE_GetPropertyName+0x7c>  // b.none
    68f8:	97ffe6b1 	bl	3bc <__stack_chk_fail>
    68fc:	a94153f3 	ldp	x19, x20, [sp, #16]
    6900:	a9425bf5 	ldp	x21, x22, [sp, #32]
    6904:	a8c47bfd 	ldp	x29, x30, [sp], #64
    6908:	d65f03c0 	ret

000000000000690c <TEE_GetNextProperty>:
TEE_GetNextProperty():
/home/jeferson/optee/optee_os-rpi4/lib/libutee/tee_api_property.c:594
    690c:	a9bc7bfd 	stp	x29, x30, [sp, #-64]!
    6910:	f0000041 	adrp	x1, 11000 <_DYNAMIC>
    6914:	aa0003e5 	mov	x5, x0
    6918:	910003fd 	mov	x29, sp
    691c:	f9409821 	ldr	x1, [x1, #304]
    6920:	f9000bf3 	str	x19, [sp, #16]
    6924:	f9400020 	ldr	x0, [x1]
    6928:	f9001fe0 	str	x0, [sp, #56]
    692c:	d2800000 	mov	x0, #0x0                   	// #0
/home/jeferson/optee/optee_os-rpi4/lib/libutee/tee_api_property.c:601
    6930:	b40004e5 	cbz	x5, 69cc <TEE_GetNextProperty+0xc0>
/home/jeferson/optee/optee_os-rpi4/lib/libutee/tee_api_property.c:606
    6934:	b94000a4 	ldr	w4, [x5]
    6938:	3100049f 	cmn	w4, #0x1
    693c:	540004c0 	b.eq	69d4 <TEE_GetNextProperty+0xc8>  // b.none
/home/jeferson/optee/optee_os-rpi4/lib/libutee/tee_api_property.c:611
    6940:	f94004a7 	ldr	x7, [x5, #8]
    6944:	9100c3e2 	add	x2, sp, #0x30
    6948:	9100a3e1 	add	x1, sp, #0x28
    694c:	aa0703e0 	mov	x0, x7
    6950:	97fffc36 	bl	5a28 <propset_get>
    6954:	2a0003f3 	mov	w19, w0
/home/jeferson/optee/optee_os-rpi4/lib/libutee/tee_api_property.c:612
    6958:	350001e0 	cbnz	w0, 6994 <TEE_GetNextProperty+0x88>
/home/jeferson/optee/optee_os-rpi4/lib/libutee/tee_api_property.c:617
    695c:	f9401be0 	ldr	x0, [sp, #48]
/home/jeferson/optee/optee_os-rpi4/lib/libutee/tee_api_property.c:615
    6960:	11000481 	add	w1, w4, #0x1
/home/jeferson/optee/optee_os-rpi4/lib/libutee/tee_api_property.c:616
    6964:	b90000a1 	str	w1, [x5]
/home/jeferson/optee/optee_os-rpi4/lib/libutee/tee_api_property.c:617
    6968:	eb21401f 	cmp	x0, w1, uxtw
    696c:	54000148 	b.hi	6994 <TEE_GetNextProperty+0x88>  // b.pmore
/home/jeferson/optee/optee_os-rpi4/lib/libutee/tee_api_property.c:620
    6970:	cb000021 	sub	x1, x1, x0
    6974:	d2800006 	mov	x6, #0x0                   	// #0
    6978:	aa0703e0 	mov	x0, x7
    697c:	d2800005 	mov	x5, #0x0                   	// #0
    6980:	d2800004 	mov	x4, #0x0                   	// #0
    6984:	d2800003 	mov	x3, #0x0                   	// #0
    6988:	d2800002 	mov	x2, #0x0                   	// #0
    698c:	97ffec28 	bl	1a2c <_utee_get_property>
    6990:	2a0003f3 	mov	w19, w0
/home/jeferson/optee/optee_os-rpi4/lib/libutee/tee_api_property.c:625
    6994:	7100027f 	cmp	w19, #0x0
    6998:	129ffee0 	mov	w0, #0xffff0008            	// #-65528
    699c:	7a401264 	ccmp	w19, w0, #0x4, ne  // ne = any
    69a0:	54000060 	b.eq	69ac <TEE_GetNextProperty+0xa0>  // b.none
/home/jeferson/optee/optee_os-rpi4/lib/libutee/tee_api_property.c:627
    69a4:	52800000 	mov	w0, #0x0                   	// #0
    69a8:	97fffba8 	bl	5848 <TEE_Panic>
/home/jeferson/optee/optee_os-rpi4/lib/libutee/tee_api_property.c:629
    69ac:	f0000041 	adrp	x1, 11000 <_DYNAMIC>
    69b0:	f9409821 	ldr	x1, [x1, #304]
    69b4:	f9401fe0 	ldr	x0, [sp, #56]
    69b8:	f9400022 	ldr	x2, [x1]
    69bc:	eb020000 	subs	x0, x0, x2
    69c0:	d2800002 	mov	x2, #0x0                   	// #0
    69c4:	540000c0 	b.eq	69dc <TEE_GetNextProperty+0xd0>  // b.none
    69c8:	97ffe67d 	bl	3bc <__stack_chk_fail>
/home/jeferson/optee/optee_os-rpi4/lib/libutee/tee_api_property.c:602
    69cc:	129fff33 	mov	w19, #0xffff0006            	// #-65530
    69d0:	17fffff1 	b	6994 <TEE_GetNextProperty+0x88>
/home/jeferson/optee/optee_os-rpi4/lib/libutee/tee_api_property.c:607
    69d4:	129ffef3 	mov	w19, #0xffff0008            	// #-65528
    69d8:	17ffffef 	b	6994 <TEE_GetNextProperty+0x88>
/home/jeferson/optee/optee_os-rpi4/lib/libutee/tee_api_property.c:629
    69dc:	2a1303e0 	mov	w0, w19
    69e0:	f9400bf3 	ldr	x19, [sp, #16]
    69e4:	a8c47bfd 	ldp	x29, x30, [sp], #64
    69e8:	d65f03c0 	ret

00000000000069ec <__utee_tcb_init>:
__utee_tcb_init():
/home/jeferson/optee/optee_os-rpi4/lib/libutee/arch/arm/tcb.c:87
    69ec:	a9b87bfd 	stp	x29, x30, [sp, #-128]!
/home/jeferson/optee/optee_os-rpi4/lib/libutee/arch/arm/tcb.c:96
    69f0:	f0000041 	adrp	x1, 11000 <_DYNAMIC>
    69f4:	d2800003 	mov	x3, #0x0                   	// #0
/home/jeferson/optee/optee_os-rpi4/lib/libutee/arch/arm/tcb.c:87
    69f8:	910003fd 	mov	x29, sp
/home/jeferson/optee/optee_os-rpi4/lib/libutee/arch/arm/tcb.c:96
    69fc:	f940e420 	ldr	x0, [x1, #456]
/home/jeferson/optee/optee_os-rpi4/lib/libutee/arch/arm/tcb.c:87
    6a00:	a90363f7 	stp	x23, x24, [sp, #48]
    6a04:	aa0103f7 	mov	x23, x1
/home/jeferson/optee/optee_os-rpi4/lib/libutee/arch/arm/tcb.c:99
    6a08:	d2800706 	mov	x6, #0x38                  	// #56
/home/jeferson/optee/optee_os-rpi4/lib/libutee/arch/arm/tcb.c:87
    6a0c:	a90153f3 	stp	x19, x20, [sp, #16]
/home/jeferson/optee/optee_os-rpi4/lib/libutee/arch/arm/tcb.c:96
    6a10:	79400805 	ldrh	w5, [x0, #4]
    6a14:	f9400400 	ldr	x0, [x0, #8]
/home/jeferson/optee/optee_os-rpi4/lib/libutee/arch/arm/tcb.c:87
    6a18:	a9025bf5 	stp	x21, x22, [sp, #32]
    6a1c:	91004000 	add	x0, x0, #0x10
    6a20:	a9046bf9 	stp	x25, x26, [sp, #64]
/home/jeferson/optee/optee_os-rpi4/lib/libutee/arch/arm/tcb.c:90
    6a24:	d2800019 	mov	x25, #0x0                   	// #0
/home/jeferson/optee/optee_os-rpi4/lib/libutee/arch/arm/tcb.c:87
    6a28:	a90573fb 	stp	x27, x28, [sp, #80]
/home/jeferson/optee/optee_os-rpi4/lib/libutee/arch/arm/tcb.c:96 (discriminator 1)
    6a2c:	eb0300bf 	cmp	x5, x3
    6a30:	540001e8 	b.hi	6a6c <__utee_tcb_init+0x80>  // b.pmore
/home/jeferson/optee/optee_os-rpi4/lib/libutee/arch/arm/tcb.c:108
    6a34:	d0000076 	adrp	x22, 14000 <data.18+0x2998>
    6a38:	9139a2d5 	add	x21, x22, #0xe68
    6a3c:	f94736d8 	ldr	x24, [x22, #3688]
    6a40:	eb19031f 	cmp	x24, x25
    6a44:	54000369 	b.ls	6ab0 <__utee_tcb_init+0xc4>  // b.plast
_assert_trap():
/home/jeferson/optee/optee_os-rpi4/lib/libutils/isoc/include/assert.h:19
    6a48:	b0000043 	adrp	x3, f000 <__text_end+0x2508>
    6a4c:	b0000041 	adrp	x1, f000 <__text_end+0x2508>
    6a50:	913b7463 	add	x3, x3, #0xedd
    6a54:	91391c21 	add	x1, x1, #0xe47
    6a58:	b0000040 	adrp	x0, f000 <__text_end+0x2508>
    6a5c:	91398800 	add	x0, x0, #0xe62
    6a60:	52800d82 	mov	w2, #0x6c                  	// #108
    6a64:	940000b5 	bl	6d38 <_assert_log>
/home/jeferson/optee/optee_os-rpi4/lib/libutils/isoc/include/assert.h:20
    6a68:	940000c5 	bl	6d7c <_assert_break>
__utee_tcb_init():
/home/jeferson/optee/optee_os-rpi4/lib/libutee/arch/arm/tcb.c:98
    6a6c:	79401007 	ldrh	w7, [x0, #8]
    6a70:	d2800001 	mov	x1, #0x0                   	// #0
/home/jeferson/optee/optee_os-rpi4/lib/libutee/arch/arm/tcb.c:98 (discriminator 1)
    6a74:	eb0100ff 	cmp	x7, x1
    6a78:	54000129 	b.ls	6a9c <__utee_tcb_init+0xb0>  // b.plast
/home/jeferson/optee/optee_os-rpi4/lib/libutee/arch/arm/tcb.c:99
    6a7c:	9b067c22 	mul	x2, x1, x6
    6a80:	f9400004 	ldr	x4, [x0]
    6a84:	8b020088 	add	x8, x4, x2
/home/jeferson/optee/optee_os-rpi4/lib/libutee/arch/arm/tcb.c:100
    6a88:	b8626882 	ldr	w2, [x4, x2]
    6a8c:	71001c5f 	cmp	w2, #0x7
    6a90:	540000c1 	b.ne	6aa8 <__utee_tcb_init+0xbc>  // b.any
/home/jeferson/optee/optee_os-rpi4/lib/libutee/arch/arm/tcb.c:101
    6a94:	f9401501 	ldr	x1, [x8, #40]
    6a98:	8b010339 	add	x25, x25, x1
/home/jeferson/optee/optee_os-rpi4/lib/libutee/arch/arm/tcb.c:96 (discriminator 2)
    6a9c:	91000463 	add	x3, x3, #0x1
    6aa0:	91010000 	add	x0, x0, #0x40
    6aa4:	17ffffe2 	b	6a2c <__utee_tcb_init+0x40>
/home/jeferson/optee/optee_os-rpi4/lib/libutee/arch/arm/tcb.c:98 (discriminator 2)
    6aa8:	91000421 	add	x1, x1, #0x1
    6aac:	17fffff2 	b	6a74 <__utee_tcb_init+0x88>
/home/jeferson/optee/optee_os-rpi4/lib/libutee/arch/arm/tcb.c:110
    6ab0:	54000b00 	b.eq	6c10 <__utee_tcb_init+0x224>  // b.none
/home/jeferson/optee/optee_os-rpi4/lib/libutee/arch/arm/tcb.c:114
    6ab4:	f94006a0 	ldr	x0, [x21, #8]
    6ab8:	91004334 	add	x20, x25, #0x10
    6abc:	aa1403e1 	mov	x1, x20
    6ac0:	9400166a 	bl	c468 <realloc>
    6ac4:	f90006a0 	str	x0, [x21, #8]
    6ac8:	aa0003f3 	mov	x19, x0
/home/jeferson/optee/optee_os-rpi4/lib/libutee/arch/arm/tcb.c:115
    6acc:	b5000160 	cbnz	x0, 6af8 <__utee_tcb_init+0x10c>
/home/jeferson/optee/optee_os-rpi4/lib/libutee/arch/arm/tcb.c:116
    6ad0:	b0000044 	adrp	x4, f000 <__text_end+0x2508>
    6ad4:	aa1403e5 	mov	x5, x20
    6ad8:	9139e884 	add	x4, x4, #0xe7a
    6adc:	52800023 	mov	w3, #0x1                   	// #1
    6ae0:	52800022 	mov	w2, #0x1                   	// #1
    6ae4:	52800e81 	mov	w1, #0x74                  	// #116
/home/jeferson/optee/optee_os-rpi4/lib/libutee/arch/arm/tcb.c:124
    6ae8:	b0000040 	adrp	x0, f000 <__text_end+0x2508>
    6aec:	913b7400 	add	x0, x0, #0xedd
    6af0:	97ffea50 	bl	1430 <trace_printf>
/home/jeferson/optee/optee_os-rpi4/lib/libutee/arch/arm/tcb.c:125
    6af4:	97ffeec2 	bl	25fc <abort>
/home/jeferson/optee/optee_os-rpi4/lib/libutee/arch/arm/tcb.c:121
    6af8:	f940e6e0 	ldr	x0, [x23, #456]
    6afc:	79400814 	ldrh	w20, [x0, #4]
/home/jeferson/optee/optee_os-rpi4/lib/libutee/arch/arm/tcb.c:122
    6b00:	f9400260 	ldr	x0, [x19]
/home/jeferson/optee/optee_os-rpi4/lib/libutee/arch/arm/tcb.c:121
    6b04:	91000a94 	add	x20, x20, #0x2
    6b08:	d37df294 	lsl	x20, x20, #3
/home/jeferson/optee/optee_os-rpi4/lib/libutee/arch/arm/tcb.c:122
    6b0c:	aa1403e1 	mov	x1, x20
    6b10:	94001656 	bl	c468 <realloc>
    6b14:	f9000260 	str	x0, [x19]
/home/jeferson/optee/optee_os-rpi4/lib/libutee/arch/arm/tcb.c:123
    6b18:	b5000640 	cbnz	x0, 6be0 <__utee_tcb_init+0x1f4>
/home/jeferson/optee/optee_os-rpi4/lib/libutee/arch/arm/tcb.c:124
    6b1c:	b0000044 	adrp	x4, f000 <__text_end+0x2508>
    6b20:	aa1403e5 	mov	x5, x20
    6b24:	913a7084 	add	x4, x4, #0xe9c
    6b28:	52800023 	mov	w3, #0x1                   	// #1
    6b2c:	52800022 	mov	w2, #0x1                   	// #1
    6b30:	52800f81 	mov	w1, #0x7c                  	// #124
    6b34:	17ffffed 	b	6ae8 <__utee_tcb_init+0xfc>
/home/jeferson/optee/optee_os-rpi4/lib/libutee/arch/arm/tcb.c:131
    6b38:	f940043c 	ldr	x28, [x1, #8]
    6b3c:	91000414 	add	x20, x0, #0x1
/home/jeferson/optee/optee_os-rpi4/lib/libutee/arch/arm/tcb.c:132
    6b40:	d2800003 	mov	x3, #0x0                   	// #0
/home/jeferson/optee/optee_os-rpi4/lib/libutee/arch/arm/tcb.c:140
    6b44:	d37df285 	lsl	x5, x20, #3
/home/jeferson/optee/optee_os-rpi4/lib/libutee/arch/arm/tcb.c:131
    6b48:	8b001b9c 	add	x28, x28, x0, lsl #6
/home/jeferson/optee/optee_os-rpi4/lib/libutee/arch/arm/tcb.c:132 (discriminator 1)
    6b4c:	79403380 	ldrh	w0, [x28, #24]
    6b50:	eb03001f 	cmp	x0, x3
    6b54:	54000068 	b.hi	6b60 <__utee_tcb_init+0x174>  // b.pmore
    6b58:	aa1403e0 	mov	x0, x20
    6b5c:	14000025 	b	6bf0 <__utee_tcb_init+0x204>
/home/jeferson/optee/optee_os-rpi4/lib/libutee/arch/arm/tcb.c:133
    6b60:	9b047c60 	mul	x0, x3, x4
    6b64:	f9400b81 	ldr	x1, [x28, #16]
    6b68:	8b000035 	add	x21, x1, x0
/home/jeferson/optee/optee_os-rpi4/lib/libutee/arch/arm/tcb.c:134
    6b6c:	b8606820 	ldr	w0, [x1, x0]
    6b70:	71001c1f 	cmp	w0, #0x7
    6b74:	54000321 	b.ne	6bd8 <__utee_tcb_init+0x1ec>  // b.any
/home/jeferson/optee/optee_os-rpi4/lib/libutee/arch/arm/tcb.c:136
    6b78:	f94016a0 	ldr	x0, [x21, #40]
    6b7c:	f9003fe3 	str	x3, [sp, #120]
    6b80:	8b000340 	add	x0, x26, x0
    6b84:	eb00031f 	cmp	x24, x0
    6b88:	54fffe82 	b.cs	6b58 <__utee_tcb_init+0x16c>  // b.hs, b.nlast
/home/jeferson/optee/optee_os-rpi4/lib/libutee/arch/arm/tcb.c:140
    6b8c:	f9400261 	ldr	x1, [x19]
    6b90:	8b1a0360 	add	x0, x27, x26
/home/jeferson/optee/optee_os-rpi4/lib/libutee/arch/arm/tcb.c:143
    6b94:	f9400386 	ldr	x6, [x28]
    6b98:	a90693e5 	stp	x5, x4, [sp, #104]
/home/jeferson/optee/optee_os-rpi4/lib/libutee/arch/arm/tcb.c:142
    6b9c:	f94012a2 	ldr	x2, [x21, #32]
/home/jeferson/optee/optee_os-rpi4/lib/libutee/arch/arm/tcb.c:140
    6ba0:	f8256820 	str	x0, [x1, x5]
/home/jeferson/optee/optee_os-rpi4/lib/libutee/arch/arm/tcb.c:143
    6ba4:	f9400aa1 	ldr	x1, [x21, #16]
/home/jeferson/optee/optee_os-rpi4/lib/libutee/arch/arm/tcb.c:142
    6ba8:	8b0100c1 	add	x1, x6, x1
    6bac:	97ffe51d 	bl	20 <memcpy>
/home/jeferson/optee/optee_os-rpi4/lib/libutee/arch/arm/tcb.c:146
    6bb0:	a9420aa1 	ldp	x1, x2, [x21, #32]
    6bb4:	8b1a0020 	add	x0, x1, x26
    6bb8:	cb010042 	sub	x2, x2, x1
    6bbc:	8b000360 	add	x0, x27, x0
    6bc0:	52800001 	mov	w1, #0x0                   	// #0
    6bc4:	9400172f 	bl	c880 <memset>
/home/jeferson/optee/optee_os-rpi4/lib/libutee/arch/arm/tcb.c:148
    6bc8:	f94016a0 	ldr	x0, [x21, #40]
    6bcc:	a94693e5 	ldp	x5, x4, [sp, #104]
    6bd0:	8b00035a 	add	x26, x26, x0
    6bd4:	f9403fe3 	ldr	x3, [sp, #120]
/home/jeferson/optee/optee_os-rpi4/lib/libutee/arch/arm/tcb.c:132 (discriminator 2)
    6bd8:	91000463 	add	x3, x3, #0x1
    6bdc:	17ffffdc 	b	6b4c <__utee_tcb_init+0x160>
/home/jeferson/optee/optee_os-rpi4/lib/libutee/arch/arm/tcb.c:140
    6be0:	9100427b 	add	x27, x19, #0x10
    6be4:	d2800000 	mov	x0, #0x0                   	// #0
/home/jeferson/optee/optee_os-rpi4/lib/libutee/arch/arm/tcb.c:129
    6be8:	d280001a 	mov	x26, #0x0                   	// #0
/home/jeferson/optee/optee_os-rpi4/lib/libutee/arch/arm/tcb.c:133
    6bec:	d2800704 	mov	x4, #0x38                  	// #56
/home/jeferson/optee/optee_os-rpi4/lib/libutee/arch/arm/tcb.c:130 (discriminator 1)
    6bf0:	f940e6e1 	ldr	x1, [x23, #456]
    6bf4:	79400822 	ldrh	w2, [x1, #4]
    6bf8:	eb02001f 	cmp	x0, x2
    6bfc:	54fff9e3 	b.cc	6b38 <__utee_tcb_init+0x14c>  // b.lo, b.ul, b.last
/home/jeferson/optee/optee_os-rpi4/lib/libutee/arch/arm/tcb.c:151
    6c00:	f9400261 	ldr	x1, [x19]
/home/jeferson/optee/optee_os-rpi4/lib/libutee/arch/arm/tcb.c:153
    6c04:	f90736d9 	str	x25, [x22, #3688]
/home/jeferson/optee/optee_os-rpi4/lib/libutee/arch/arm/tcb.c:151
    6c08:	f9000020 	str	x0, [x1]
write_tpidr_el0():
/home/jeferson/optee/optee_os-rpi4/lib/libutee/include/arm64_user_sysreg.h:37
    6c0c:	d51bd053 	msr	tpidr_el0, x19
__utee_tcb_init():
/home/jeferson/optee/optee_os-rpi4/lib/libutee/arch/arm/tcb.c:161
    6c10:	a94153f3 	ldp	x19, x20, [sp, #16]
    6c14:	a9425bf5 	ldp	x21, x22, [sp, #32]
    6c18:	a94363f7 	ldp	x23, x24, [sp, #48]
    6c1c:	a9446bf9 	ldp	x25, x26, [sp, #64]
    6c20:	a94573fb 	ldp	x27, x28, [sp, #80]
    6c24:	a8c87bfd 	ldp	x29, x30, [sp], #128
    6c28:	d65f03c0 	ret

0000000000006c2c <__tls_get_addr>:
__tls_get_addr():
/home/jeferson/optee/optee_os-rpi4/lib/libutee/arch/arm/tcb.c:172
    6c2c:	d0000061 	adrp	x1, 14000 <data.18+0x2998>
    6c30:	a9400002 	ldp	x2, x0, [x0]
    6c34:	f9473821 	ldr	x1, [x1, #3696]
    6c38:	f9400021 	ldr	x1, [x1]
    6c3c:	f8627821 	ldr	x1, [x1, x2, lsl #3]
/home/jeferson/optee/optee_os-rpi4/lib/libutee/arch/arm/tcb.c:173
    6c40:	8b000020 	add	x0, x1, x0
    6c44:	d65f03c0 	ret

0000000000006c48 <dl_iterate_phdr>:
dl_iterate_phdr():
/home/jeferson/optee/optee_os-rpi4/lib/libutee/arch/arm/tcb.c:177
    6c48:	a9bb7bfd 	stp	x29, x30, [sp, #-80]!
    6c4c:	910003fd 	mov	x29, sp
    6c50:	a90153f3 	stp	x19, x20, [sp, #16]
    6c54:	a9025bf5 	stp	x21, x22, [sp, #32]
    6c58:	a90363f7 	stp	x23, x24, [sp, #48]
    6c5c:	aa0003f7 	mov	x23, x0
    6c60:	aa0103f8 	mov	x24, x1
/home/jeferson/optee/optee_os-rpi4/lib/libutee/arch/arm/tcb.c:190
    6c64:	d2800020 	mov	x0, #0x1                   	// #1
    6c68:	d2800801 	mov	x1, #0x40                  	// #64
/home/jeferson/optee/optee_os-rpi4/lib/libutee/arch/arm/tcb.c:177
    6c6c:	f90023f9 	str	x25, [sp, #64]
/home/jeferson/optee/optee_os-rpi4/lib/libutee/arch/arm/tcb.c:190
    6c70:	940015f7 	bl	c44c <calloc>
/home/jeferson/optee/optee_os-rpi4/lib/libutee/arch/arm/tcb.c:191
    6c74:	b5000520 	cbnz	x0, 6d18 <dl_iterate_phdr+0xd0>
/home/jeferson/optee/optee_os-rpi4/lib/libutee/arch/arm/tcb.c:192
    6c78:	b0000040 	adrp	x0, f000 <__text_end+0x2508>
    6c7c:	913b7400 	add	x0, x0, #0xedd
    6c80:	91004000 	add	x0, x0, #0x10
    6c84:	b0000044 	adrp	x4, f000 <__text_end+0x2508>
    6c88:	913af884 	add	x4, x4, #0xebe
    6c8c:	52800023 	mov	w3, #0x1                   	// #1
    6c90:	52800022 	mov	w2, #0x1                   	// #1
    6c94:	52801801 	mov	w1, #0xc0                  	// #192
    6c98:	97ffe9e6 	bl	1430 <trace_printf>
/home/jeferson/optee/optee_os-rpi4/lib/libutee/arch/arm/tcb.c:193
    6c9c:	97ffee58 	bl	25fc <abort>
/home/jeferson/optee/optee_os-rpi4/lib/libutee/arch/arm/tcb.c:197
    6ca0:	f94006c1 	ldr	x1, [x22, #8]
    6ca4:	aa1303e0 	mov	x0, x19
    6ca8:	d2800802 	mov	x2, #0x40                  	// #64
    6cac:	8b151821 	add	x1, x1, x21, lsl #6
    6cb0:	97ffe4dc 	bl	20 <memcpy>
/home/jeferson/optee/optee_os-rpi4/lib/libutee/arch/arm/tcb.c:199
    6cb4:	f9401a60 	ldr	x0, [x19, #48]
/home/jeferson/optee/optee_os-rpi4/lib/libutee/arch/arm/tcb.c:198
    6cb8:	f9001e7f 	str	xzr, [x19, #56]
/home/jeferson/optee/optee_os-rpi4/lib/libutee/arch/arm/tcb.c:200
    6cbc:	b40000a0 	cbz	x0, 6cd0 <dl_iterate_phdr+0x88>
/home/jeferson/optee/optee_os-rpi4/lib/libutee/arch/arm/tcb.c:201
    6cc0:	f9400721 	ldr	x1, [x25, #8]
    6cc4:	f9400021 	ldr	x1, [x1]
    6cc8:	f8607820 	ldr	x0, [x1, x0, lsl #3]
    6ccc:	f9001e60 	str	x0, [x19, #56]
/home/jeferson/optee/optee_os-rpi4/lib/libutee/arch/arm/tcb.c:202 (discriminator 2)
    6cd0:	aa1803e2 	mov	x2, x24
    6cd4:	aa1303e0 	mov	x0, x19
    6cd8:	d2800801 	mov	x1, #0x40                  	// #64
/home/jeferson/optee/optee_os-rpi4/lib/libutee/arch/arm/tcb.c:196 (discriminator 2)
    6cdc:	910006b5 	add	x21, x21, #0x1
/home/jeferson/optee/optee_os-rpi4/lib/libutee/arch/arm/tcb.c:202 (discriminator 2)
    6ce0:	d63f02e0 	blr	x23
    6ce4:	2a0003f4 	mov	w20, w0
/home/jeferson/optee/optee_os-rpi4/lib/libutee/arch/arm/tcb.c:196 (discriminator 1)
    6ce8:	79400ac0 	ldrh	w0, [x22, #4]
    6cec:	eb15001f 	cmp	x0, x21
    6cf0:	54fffd88 	b.hi	6ca0 <dl_iterate_phdr+0x58>  // b.pmore
/home/jeferson/optee/optee_os-rpi4/lib/libutee/arch/arm/tcb.c:205
    6cf4:	aa1303e0 	mov	x0, x19
    6cf8:	940015ef 	bl	c4b4 <free>
/home/jeferson/optee/optee_os-rpi4/lib/libutee/arch/arm/tcb.c:207
    6cfc:	2a1403e0 	mov	w0, w20
    6d00:	a94153f3 	ldp	x19, x20, [sp, #16]
    6d04:	a9425bf5 	ldp	x21, x22, [sp, #32]
    6d08:	a94363f7 	ldp	x23, x24, [sp, #48]
    6d0c:	f94023f9 	ldr	x25, [sp, #64]
    6d10:	a8c57bfd 	ldp	x29, x30, [sp], #80
    6d14:	d65f03c0 	ret
/home/jeferson/optee/optee_os-rpi4/lib/libutee/arch/arm/tcb.c:196
    6d18:	f0000056 	adrp	x22, 11000 <_DYNAMIC>
/home/jeferson/optee/optee_os-rpi4/lib/libutee/arch/arm/tcb.c:201
    6d1c:	d0000079 	adrp	x25, 14000 <data.18+0x2998>
    6d20:	aa0003f3 	mov	x19, x0
    6d24:	9139a339 	add	x25, x25, #0xe68
/home/jeferson/optee/optee_os-rpi4/lib/libutee/arch/arm/tcb.c:196
    6d28:	f940e6d6 	ldr	x22, [x22, #456]
/home/jeferson/optee/optee_os-rpi4/lib/libutee/arch/arm/tcb.c:181
    6d2c:	52800014 	mov	w20, #0x0                   	// #0
/home/jeferson/optee/optee_os-rpi4/lib/libutee/arch/arm/tcb.c:196
    6d30:	d2800015 	mov	x21, #0x0                   	// #0
    6d34:	17ffffed 	b	6ce8 <dl_iterate_phdr+0xa0>

0000000000006d38 <_assert_log>:
_assert_log():
/home/jeferson/optee/optee_os-rpi4/lib/libutee/assert.c:17
    6d38:	d10083ff 	sub	sp, sp, #0x20
/home/jeferson/optee/optee_os-rpi4/lib/libutee/assert.c:18
    6d3c:	2a0203e7 	mov	w7, w2
    6d40:	aa0103e6 	mov	x6, x1
    6d44:	aa0003e5 	mov	x5, x0
    6d48:	52800022 	mov	w2, #0x1                   	// #1
    6d4c:	52800001 	mov	w1, #0x0                   	// #0
/home/jeferson/optee/optee_os-rpi4/lib/libutee/assert.c:17
    6d50:	a9017bfd 	stp	x29, x30, [sp, #16]
    6d54:	910043fd 	add	x29, sp, #0x10
/home/jeferson/optee/optee_os-rpi4/lib/libutee/assert.c:18
    6d58:	d2800000 	mov	x0, #0x0                   	// #0
    6d5c:	b0000044 	adrp	x4, f000 <__text_end+0x2508>
    6d60:	f90003e3 	str	x3, [sp]
    6d64:	913bf484 	add	x4, x4, #0xefd
    6d68:	52800023 	mov	w3, #0x1                   	// #1
    6d6c:	97ffe9b1 	bl	1430 <trace_printf>
/home/jeferson/optee/optee_os-rpi4/lib/libutee/assert.c:20
    6d70:	a9417bfd 	ldp	x29, x30, [sp, #16]
    6d74:	910083ff 	add	sp, sp, #0x20
    6d78:	d65f03c0 	ret

0000000000006d7c <_assert_break>:
_assert_break():
/home/jeferson/optee/optee_os-rpi4/lib/libutee/assert.c:23
    6d7c:	a9bf7bfd 	stp	x29, x30, [sp, #-16]!
/home/jeferson/optee/optee_os-rpi4/lib/libutee/assert.c:24
    6d80:	d2bfffe0 	mov	x0, #0xffff0000            	// #4294901760
/home/jeferson/optee/optee_os-rpi4/lib/libutee/assert.c:23
    6d84:	910003fd 	mov	x29, sp
/home/jeferson/optee/optee_os-rpi4/lib/libutee/assert.c:24
    6d88:	97ffeb1d 	bl	19fc <_utee_panic>
/home/jeferson/optee/optee_os-rpi4/lib/libutee/assert.c:26 (discriminator 1)
    6d8c:	14000000 	b	6d8c <_assert_break+0x10>

0000000000006d90 <_base64_enc_len>:
_base64_enc_len():
/home/jeferson/optee/optee_os-rpi4/lib/libutee/base64.c:13
    6d90:	91000800 	add	x0, x0, #0x2
    6d94:	d2800061 	mov	x1, #0x3                   	// #3
    6d98:	9ac10800 	udiv	x0, x0, x1
    6d9c:	d37ef400 	lsl	x0, x0, #2
/home/jeferson/optee/optee_os-rpi4/lib/libutee/base64.c:14
    6da0:	91000400 	add	x0, x0, #0x1
    6da4:	d65f03c0 	ret

0000000000006da8 <_base64_enc>:
_base64_enc():
/home/jeferson/optee/optee_os-rpi4/lib/libutee/base64.c:17
    6da8:	a9bd7bfd 	stp	x29, x30, [sp, #-48]!
    6dac:	910003fd 	mov	x29, sp
    6db0:	a9025bf5 	stp	x21, x22, [sp, #32]
    6db4:	aa0303f6 	mov	x22, x3
    6db8:	aa0003f5 	mov	x21, x0
/home/jeferson/optee/optee_os-rpi4/lib/libutee/base64.c:22
    6dbc:	aa0103e0 	mov	x0, x1
/home/jeferson/optee/optee_os-rpi4/lib/libutee/base64.c:17
    6dc0:	a90153f3 	stp	x19, x20, [sp, #16]
    6dc4:	aa0103f3 	mov	x19, x1
    6dc8:	aa0203f4 	mov	x20, x2
/home/jeferson/optee/optee_os-rpi4/lib/libutee/base64.c:22
    6dcc:	97fffff1 	bl	6d90 <_base64_enc_len>
    6dd0:	aa0003e1 	mov	x1, x0
/home/jeferson/optee/optee_os-rpi4/lib/libutee/base64.c:23
    6dd4:	f94002c0 	ldr	x0, [x22]
    6dd8:	eb01001f 	cmp	x0, x1
    6ddc:	540006c3 	b.cc	6eb4 <_base64_enc+0x10c>  // b.lo, b.ul, b.last
/home/jeferson/optee/optee_os-rpi4/lib/libutee/base64.c:41
    6de0:	b0000046 	adrp	x6, f000 <__text_end+0x2508>
/home/jeferson/optee/optee_os-rpi4/lib/libutee/base64.c:23
    6de4:	aa1403e1 	mov	x1, x20
/home/jeferson/optee/optee_os-rpi4/lib/libutee/base64.c:31
    6de8:	d1000aa3 	sub	x3, x21, #0x2
/home/jeferson/optee/optee_os-rpi4/lib/libutee/base64.c:35
    6dec:	d10006a7 	sub	x7, x21, #0x1
/home/jeferson/optee/optee_os-rpi4/lib/libutee/base64.c:41
    6df0:	911800c6 	add	x6, x6, #0x600
/home/jeferson/optee/optee_os-rpi4/lib/libutee/base64.c:23
    6df4:	d2800045 	mov	x5, #0x2                   	// #2
/home/jeferson/optee/optee_os-rpi4/lib/libutee/base64.c:28 (discriminator 1)
    6df8:	d10008a2 	sub	x2, x5, #0x2
    6dfc:	cb140020 	sub	x0, x1, x20
    6e00:	eb13005f 	cmp	x2, x19
    6e04:	54000123 	b.cc	6e28 <_base64_enc+0x80>  // b.lo, b.ul, b.last
/home/jeferson/optee/optee_os-rpi4/lib/libutee/base64.c:54
    6e08:	91000401 	add	x1, x0, #0x1
    6e0c:	38206a9f 	strb	wzr, [x20, x0]
/home/jeferson/optee/optee_os-rpi4/lib/libutee/base64.c:57
    6e10:	52800020 	mov	w0, #0x1                   	// #1
/home/jeferson/optee/optee_os-rpi4/lib/libutee/base64.c:58
    6e14:	a94153f3 	ldp	x19, x20, [sp, #16]
/home/jeferson/optee/optee_os-rpi4/lib/libutee/base64.c:24
    6e18:	f90002c1 	str	x1, [x22]
/home/jeferson/optee/optee_os-rpi4/lib/libutee/base64.c:58
    6e1c:	a9425bf5 	ldp	x21, x22, [sp, #32]
    6e20:	a8c37bfd 	ldp	x29, x30, [sp], #48
    6e24:	d65f03c0 	ret
/home/jeferson/optee/optee_os-rpi4/lib/libutee/base64.c:31
    6e28:	38656864 	ldrb	w4, [x3, x5]
/home/jeferson/optee/optee_os-rpi4/lib/libutee/base64.c:32
    6e2c:	d10004a0 	sub	x0, x5, #0x1
    6e30:	53185c84 	lsl	w4, w4, #8
/home/jeferson/optee/optee_os-rpi4/lib/libutee/base64.c:34
    6e34:	eb00027f 	cmp	x19, x0
    6e38:	54000069 	b.ls	6e44 <_base64_enc+0x9c>  // b.plast
/home/jeferson/optee/optee_os-rpi4/lib/libutee/base64.c:35
    6e3c:	386568e2 	ldrb	w2, [x7, x5]
    6e40:	2a020084 	orr	w4, w4, w2
/home/jeferson/optee/optee_os-rpi4/lib/libutee/base64.c:36
    6e44:	53185c84 	lsl	w4, w4, #8
/home/jeferson/optee/optee_os-rpi4/lib/libutee/base64.c:38
    6e48:	eb05027f 	cmp	x19, x5
    6e4c:	54000069 	b.ls	6e58 <_base64_enc+0xb0>  // b.plast
/home/jeferson/optee/optee_os-rpi4/lib/libutee/base64.c:39
    6e50:	38656aa2 	ldrb	w2, [x21, x5]
    6e54:	2a020084 	orr	w4, w4, w2
/home/jeferson/optee/optee_os-rpi4/lib/libutee/base64.c:41
    6e58:	53127c82 	lsr	w2, w4, #18
    6e5c:	386268c2 	ldrb	w2, [x6, x2]
    6e60:	39000022 	strb	w2, [x1]
/home/jeferson/optee/optee_os-rpi4/lib/libutee/base64.c:42
    6e64:	d34c4482 	ubfx	x2, x4, #12, #6
    6e68:	386268c2 	ldrb	w2, [x6, x2]
    6e6c:	39000422 	strb	w2, [x1, #1]
/home/jeferson/optee/optee_os-rpi4/lib/libutee/base64.c:43
    6e70:	eb00027f 	cmp	x19, x0
    6e74:	54000189 	b.ls	6ea4 <_base64_enc+0xfc>  // b.plast
/home/jeferson/optee/optee_os-rpi4/lib/libutee/base64.c:44
    6e78:	d3462c80 	ubfx	x0, x4, #6, #6
    6e7c:	386068c0 	ldrb	w0, [x6, x0]
    6e80:	39000820 	strb	w0, [x1, #2]
/home/jeferson/optee/optee_os-rpi4/lib/libutee/base64.c:47
    6e84:	eb05027f 	cmp	x19, x5
    6e88:	54000129 	b.ls	6eac <_base64_enc+0x104>  // b.plast
/home/jeferson/optee/optee_os-rpi4/lib/libutee/base64.c:48
    6e8c:	92401484 	and	x4, x4, #0x3f
    6e90:	386468c0 	ldrb	w0, [x6, x4]
    6e94:	91001021 	add	x1, x1, #0x4
    6e98:	91000ca5 	add	x5, x5, #0x3
/home/jeferson/optee/optee_os-rpi4/lib/libutee/base64.c:48 (discriminator 2)
    6e9c:	381ff020 	sturb	w0, [x1, #-1]
/home/jeferson/optee/optee_os-rpi4/lib/libutee/base64.c:28 (discriminator 2)
    6ea0:	17ffffd6 	b	6df8 <_base64_enc+0x50>
    6ea4:	528007a0 	mov	w0, #0x3d                  	// #61
    6ea8:	17fffff6 	b	6e80 <_base64_enc+0xd8>
    6eac:	528007a0 	mov	w0, #0x3d                  	// #61
    6eb0:	17fffff9 	b	6e94 <_base64_enc+0xec>
/home/jeferson/optee/optee_os-rpi4/lib/libutee/base64.c:25
    6eb4:	52800000 	mov	w0, #0x0                   	// #0
    6eb8:	17ffffd7 	b	6e14 <_base64_enc+0x6c>

0000000000006ebc <_base64_dec>:
get_idx():
/home/jeferson/optee/optee_os-rpi4/lib/libutee/base64.c:64
    6ebc:	b000004a 	adrp	x10, f000 <__text_end+0x2508>
_base64_dec():
/home/jeferson/optee/optee_os-rpi4/lib/libutee/base64.c:90
    6ec0:	b000004b 	adrp	x11, f000 <__text_end+0x2508>
get_idx():
/home/jeferson/optee/optee_os-rpi4/lib/libutee/base64.c:64
    6ec4:	9118014a 	add	x10, x10, #0x600
_base64_dec():
/home/jeferson/optee/optee_os-rpi4/lib/libutee/base64.c:90
    6ec8:	9117f16b 	add	x11, x11, #0x5fc
/home/jeferson/optee/optee_os-rpi4/lib/libutee/base64.c:81
    6ecc:	52800007 	mov	w7, #0x0                   	// #0
/home/jeferson/optee/optee_os-rpi4/lib/libutee/base64.c:80
    6ed0:	d2800006 	mov	x6, #0x0                   	// #0
/home/jeferson/optee/optee_os-rpi4/lib/libutee/base64.c:79
    6ed4:	d2800004 	mov	x4, #0x0                   	// #0
/home/jeferson/optee/optee_os-rpi4/lib/libutee/base64.c:83
    6ed8:	d2800009 	mov	x9, #0x0                   	// #0
/home/jeferson/optee/optee_os-rpi4/lib/libutee/base64.c:83 (discriminator 1)
    6edc:	eb01013f 	cmp	x9, x1
    6ee0:	540000a0 	b.eq	6ef4 <_base64_dec+0x38>  // b.none
/home/jeferson/optee/optee_os-rpi4/lib/libutee/base64.c:83 (discriminator 3)
    6ee4:	38696805 	ldrb	w5, [x0, x9]
    6ee8:	34000065 	cbz	w5, 6ef4 <_base64_dec+0x38>
/home/jeferson/optee/optee_os-rpi4/lib/libutee/base64.c:84
    6eec:	7100f4bf 	cmp	w5, #0x3d
    6ef0:	54000281 	b.ne	6f40 <_base64_dec+0x84>  // b.any
/home/jeferson/optee/optee_os-rpi4/lib/libutee/base64.c:124
    6ef4:	b40006a4 	cbz	x4, 6fc8 <_base64_dec+0x10c>
/home/jeferson/optee/optee_os-rpi4/lib/libutee/base64.c:124 (discriminator 4)
    6ef8:	b4000702 	cbz	x2, 6fd8 <_base64_dec+0x11c>
/home/jeferson/optee/optee_os-rpi4/lib/libutee/base64.c:124 (discriminator 5)
    6efc:	f9400060 	ldr	x0, [x3]
    6f00:	eb04001f 	cmp	x0, x4
    6f04:	1a9f37e0 	cset	w0, cs  // cs = hs, nlast
/home/jeferson/optee/optee_os-rpi4/lib/libutee/base64.c:125 (discriminator 10)
    6f08:	f9000064 	str	x4, [x3]
/home/jeferson/optee/optee_os-rpi4/lib/libutee/base64.c:128 (discriminator 10)
    6f0c:	d65f03c0 	ret
get_idx():
/home/jeferson/optee/optee_os-rpi4/lib/libutee/base64.c:65
    6f10:	6b0c00bf 	cmp	w5, w12
    6f14:	540000c1 	b.ne	6f2c <_base64_dec+0x70>  // b.any
/home/jeferson/optee/optee_os-rpi4/lib/libutee/base64.c:66
    6f18:	12001d05 	and	w5, w8, #0xff
_base64_dec():
/home/jeferson/optee/optee_os-rpi4/lib/libutee/base64.c:90
    6f1c:	38664966 	ldrb	w6, [x11, w6, uxtw]
    6f20:	1000006c 	adr	x12, 6f2c <_base64_dec+0x70>
    6f24:	8b268986 	add	x6, x12, w6, sxtb #2
    6f28:	d61f00c0 	br	x6
get_idx():
/home/jeferson/optee/optee_os-rpi4/lib/libutee/base64.c:64
    6f2c:	91000508 	add	x8, x8, #0x1
    6f30:	386a690c 	ldrb	w12, [x8, x10]
    6f34:	35fffeec 	cbnz	w12, 6f10 <_base64_dec+0x54>
_base64_dec():
/home/jeferson/optee/optee_os-rpi4/lib/libutee/base64.c:83 (discriminator 2)
    6f38:	91000529 	add	x9, x9, #0x1
    6f3c:	17ffffe8 	b	6edc <_base64_dec+0x20>
get_idx():
/home/jeferson/optee/optee_os-rpi4/lib/libutee/base64.c:64
    6f40:	d2800008 	mov	x8, #0x0                   	// #0
    6f44:	17fffffb 	b	6f30 <_base64_dec+0x74>
_base64_dec():
/home/jeferson/optee/optee_os-rpi4/lib/libutee/base64.c:92
    6f48:	531e14a7 	ubfiz	w7, w5, #2, #6
/home/jeferson/optee/optee_os-rpi4/lib/libutee/base64.c:93
    6f4c:	d2800026 	mov	x6, #0x1                   	// #1
/home/jeferson/optee/optee_os-rpi4/lib/libutee/base64.c:94
    6f50:	17fffffa 	b	6f38 <_base64_dec+0x7c>
/home/jeferson/optee/optee_os-rpi4/lib/libutee/base64.c:96
    6f54:	b40000c2 	cbz	x2, 6f6c <_base64_dec+0xb0>
/home/jeferson/optee/optee_os-rpi4/lib/libutee/base64.c:96 (discriminator 1)
    6f58:	f9400066 	ldr	x6, [x3]
    6f5c:	eb0400df 	cmp	x6, x4
    6f60:	54000069 	b.ls	6f6c <_base64_dec+0xb0>  // b.plast
/home/jeferson/optee/optee_os-rpi4/lib/libutee/base64.c:97
    6f64:	2a4510e5 	orr	w5, w7, w5, lsr #4
    6f68:	38246845 	strb	w5, [x2, x4]
/home/jeferson/optee/optee_os-rpi4/lib/libutee/base64.c:98
    6f6c:	91000484 	add	x4, x4, #0x1
/home/jeferson/optee/optee_os-rpi4/lib/libutee/base64.c:99
    6f70:	531c0d07 	ubfiz	w7, w8, #4, #4
/home/jeferson/optee/optee_os-rpi4/lib/libutee/base64.c:100
    6f74:	d2800046 	mov	x6, #0x2                   	// #2
/home/jeferson/optee/optee_os-rpi4/lib/libutee/base64.c:101
    6f78:	17fffff0 	b	6f38 <_base64_dec+0x7c>
/home/jeferson/optee/optee_os-rpi4/lib/libutee/base64.c:103
    6f7c:	b40000c2 	cbz	x2, 6f94 <_base64_dec+0xd8>
/home/jeferson/optee/optee_os-rpi4/lib/libutee/base64.c:103 (discriminator 1)
    6f80:	f9400066 	ldr	x6, [x3]
    6f84:	eb0400df 	cmp	x6, x4
    6f88:	54000069 	b.ls	6f94 <_base64_dec+0xd8>  // b.plast
/home/jeferson/optee/optee_os-rpi4/lib/libutee/base64.c:104
    6f8c:	2a4508e5 	orr	w5, w7, w5, lsr #2
    6f90:	38246845 	strb	w5, [x2, x4]
/home/jeferson/optee/optee_os-rpi4/lib/libutee/base64.c:105
    6f94:	91000484 	add	x4, x4, #0x1
/home/jeferson/optee/optee_os-rpi4/lib/libutee/base64.c:106
    6f98:	531a0507 	ubfiz	w7, w8, #6, #2
/home/jeferson/optee/optee_os-rpi4/lib/libutee/base64.c:107
    6f9c:	d2800066 	mov	x6, #0x3                   	// #3
/home/jeferson/optee/optee_os-rpi4/lib/libutee/base64.c:108
    6fa0:	17ffffe6 	b	6f38 <_base64_dec+0x7c>
/home/jeferson/optee/optee_os-rpi4/lib/libutee/base64.c:110
    6fa4:	b40000c2 	cbz	x2, 6fbc <_base64_dec+0x100>
/home/jeferson/optee/optee_os-rpi4/lib/libutee/base64.c:110 (discriminator 1)
    6fa8:	f9400066 	ldr	x6, [x3]
    6fac:	eb0400df 	cmp	x6, x4
    6fb0:	54000069 	b.ls	6fbc <_base64_dec+0x100>  // b.plast
/home/jeferson/optee/optee_os-rpi4/lib/libutee/base64.c:111
    6fb4:	2a0500e5 	orr	w5, w7, w5
    6fb8:	38246845 	strb	w5, [x2, x4]
/home/jeferson/optee/optee_os-rpi4/lib/libutee/base64.c:112
    6fbc:	91000484 	add	x4, x4, #0x1
/home/jeferson/optee/optee_os-rpi4/lib/libutee/base64.c:113
    6fc0:	d2800006 	mov	x6, #0x0                   	// #0
/home/jeferson/optee/optee_os-rpi4/lib/libutee/base64.c:114
    6fc4:	17ffffdd 	b	6f38 <_base64_dec+0x7c>
/home/jeferson/optee/optee_os-rpi4/lib/libutee/base64.c:124 (discriminator 1)
    6fc8:	f9400060 	ldr	x0, [x3]
    6fcc:	b5fff960 	cbnz	x0, 6ef8 <_base64_dec+0x3c>
/home/jeferson/optee/optee_os-rpi4/lib/libutee/base64.c:124
    6fd0:	52800020 	mov	w0, #0x1                   	// #1
    6fd4:	17ffffcd 	b	6f08 <_base64_dec+0x4c>
    6fd8:	52800000 	mov	w0, #0x0                   	// #0
    6fdc:	17ffffcb 	b	6f08 <_base64_dec+0x4c>

0000000000006fe0 <mpi_get_digit>:
mpi_get_digit():
/home/jeferson/optee/optee_os-rpi4/lib/libmbedtls/mbedtls/library/bignum.c:450
    6fe0:	12001c42 	and	w2, w2, #0xff
/home/jeferson/optee/optee_os-rpi4/lib/libmbedtls/mbedtls/library/bignum.c:453
    6fe4:	5100c043 	sub	w3, w2, #0x30
    6fe8:	12001c64 	and	w4, w3, #0xff
    6fec:	7100249f 	cmp	w4, #0x9
    6ff0:	540000e8 	b.hi	700c <mpi_get_digit+0x2c>  // b.pmore
/home/jeferson/optee/optee_os-rpi4/lib/libmbedtls/mbedtls/library/bignum.c:453 (discriminator 1)
    6ff4:	b9000003 	str	w3, [x0]
/home/jeferson/optee/optee_os-rpi4/lib/libmbedtls/mbedtls/library/bignum.c:457
    6ff8:	b9400000 	ldr	w0, [x0]
/home/jeferson/optee/optee_os-rpi4/lib/libmbedtls/mbedtls/library/bignum.c:458
    6ffc:	6b01001f 	cmp	w0, w1
/home/jeferson/optee/optee_os-rpi4/lib/libmbedtls/mbedtls/library/bignum.c:461
    7000:	128000a0 	mov	w0, #0xfffffffa            	// #-6
    7004:	1a9f2000 	csel	w0, w0, wzr, cs  // cs = hs, nlast
    7008:	d65f03c0 	ret
/home/jeferson/optee/optee_os-rpi4/lib/libmbedtls/mbedtls/library/bignum.c:454
    700c:	51010443 	sub	w3, w2, #0x41
    7010:	12001c63 	and	w3, w3, #0xff
    7014:	7100147f 	cmp	w3, #0x5
    7018:	54000088 	b.hi	7028 <mpi_get_digit+0x48>  // b.pmore
/home/jeferson/optee/optee_os-rpi4/lib/libmbedtls/mbedtls/library/bignum.c:454 (discriminator 1)
    701c:	5100dc42 	sub	w2, w2, #0x37
/home/jeferson/optee/optee_os-rpi4/lib/libmbedtls/mbedtls/library/bignum.c:455
    7020:	b9000002 	str	w2, [x0]
    7024:	17fffff5 	b	6ff8 <mpi_get_digit+0x18>
    7028:	51018443 	sub	w3, w2, #0x61
    702c:	51015c42 	sub	w2, w2, #0x57
    7030:	12001c63 	and	w3, w3, #0xff
    7034:	7100187f 	cmp	w3, #0x6
    7038:	52801fe3 	mov	w3, #0xff                  	// #255
    703c:	1a833042 	csel	w2, w2, w3, cc  // cc = lo, ul, last
    7040:	17fffff8 	b	7020 <mpi_get_digit+0x40>

0000000000007044 <mpi_mul_hlp>:
mpi_mul_hlp():
/home/jeferson/optee/optee_os-rpi4/lib/libmbedtls/mbedtls/library/bignum.c:1459
    7044:	aa0203e5 	mov	x5, x2
    7048:	aa0103e6 	mov	x6, x1
    704c:	aa0003e8 	mov	x8, x0
/home/jeferson/optee/optee_os-rpi4/lib/libmbedtls/mbedtls/library/bignum.c:1442
    7050:	52800004 	mov	w4, #0x0                   	// #0
/home/jeferson/optee/optee_os-rpi4/lib/libmbedtls/mbedtls/library/bignum.c:1459 (discriminator 1)
    7054:	f1003d1f 	cmp	x8, #0xf
    7058:	54000b48 	b.hi	71c0 <mpi_mul_hlp+0x17c>  // b.pmore
    705c:	d344fc05 	lsr	x5, x0, #4
    7060:	928001e6 	mov	x6, #0xfffffffffffffff0    	// #-16
    7064:	d37ae4a8 	lsl	x8, x5, #6
    7068:	9b0600a0 	madd	x0, x5, x6, x0
    706c:	8b051826 	add	x6, x1, x5, lsl #6
    7070:	8b051845 	add	x5, x2, x5, lsl #6
/home/jeferson/optee/optee_os-rpi4/lib/libmbedtls/mbedtls/library/bignum.c:1474
    7074:	f1001c1f 	cmp	x0, #0x7
    7078:	54000989 	b.ls	71a8 <mpi_mul_hlp+0x164>  // b.plast
/home/jeferson/optee/optee_os-rpi4/lib/libmbedtls/mbedtls/library/bignum.c:1477
    707c:	b8686827 	ldr	w7, [x1, x8]
/home/jeferson/optee/optee_os-rpi4/lib/libmbedtls/mbedtls/library/bignum.c:1474
    7080:	d1002000 	sub	x0, x0, #0x8
/home/jeferson/optee/optee_os-rpi4/lib/libmbedtls/mbedtls/library/bignum.c:1481
    7084:	910080c6 	add	x6, x6, #0x20
    7088:	910080a5 	add	x5, x5, #0x20
/home/jeferson/optee/optee_os-rpi4/lib/libmbedtls/mbedtls/library/bignum.c:1477
    708c:	9ba77c67 	umull	x7, w3, w7
    7090:	2b070084 	adds	w4, w4, w7
    7094:	d360fce1 	lsr	x1, x7, #32
    7098:	b8686847 	ldr	w7, [x2, x8]
    709c:	1a813421 	cinc	w1, w1, cs  // cs = hs, nlast
    70a0:	2b070084 	adds	w4, w4, w7
    70a4:	b8286844 	str	w4, [x2, x8]
    70a8:	1a813421 	cinc	w1, w1, cs  // cs = hs, nlast
    70ac:	b85e40c4 	ldur	w4, [x6, #-28]
    70b0:	9ba47c64 	umull	x4, w3, w4
    70b4:	2b040021 	adds	w1, w1, w4
    70b8:	d360fc82 	lsr	x2, x4, #32
    70bc:	b85e40a4 	ldur	w4, [x5, #-28]
    70c0:	1a823442 	cinc	w2, w2, cs  // cs = hs, nlast
    70c4:	2b040021 	adds	w1, w1, w4
    70c8:	b81e40a1 	stur	w1, [x5, #-28]
    70cc:	1a823442 	cinc	w2, w2, cs  // cs = hs, nlast
/home/jeferson/optee/optee_os-rpi4/lib/libmbedtls/mbedtls/library/bignum.c:1478
    70d0:	b85e80c4 	ldur	w4, [x6, #-24]
    70d4:	9ba47c64 	umull	x4, w3, w4
    70d8:	2b040042 	adds	w2, w2, w4
    70dc:	d360fc81 	lsr	x1, x4, #32
    70e0:	b85e80a4 	ldur	w4, [x5, #-24]
    70e4:	1a813421 	cinc	w1, w1, cs  // cs = hs, nlast
    70e8:	2b040042 	adds	w2, w2, w4
    70ec:	b81e80a2 	stur	w2, [x5, #-24]
    70f0:	1a813421 	cinc	w1, w1, cs  // cs = hs, nlast
    70f4:	b85ec0c4 	ldur	w4, [x6, #-20]
    70f8:	9ba47c64 	umull	x4, w3, w4
    70fc:	2b040021 	adds	w1, w1, w4
    7100:	d360fc82 	lsr	x2, x4, #32
    7104:	b85ec0a4 	ldur	w4, [x5, #-20]
    7108:	1a823442 	cinc	w2, w2, cs  // cs = hs, nlast
    710c:	2b040021 	adds	w1, w1, w4
    7110:	b81ec0a1 	stur	w1, [x5, #-20]
    7114:	1a823442 	cinc	w2, w2, cs  // cs = hs, nlast
/home/jeferson/optee/optee_os-rpi4/lib/libmbedtls/mbedtls/library/bignum.c:1480
    7118:	b85f00c4 	ldur	w4, [x6, #-16]
    711c:	9ba47c64 	umull	x4, w3, w4
    7120:	2b040042 	adds	w2, w2, w4
    7124:	d360fc81 	lsr	x1, x4, #32
    7128:	b85f00a4 	ldur	w4, [x5, #-16]
    712c:	1a813421 	cinc	w1, w1, cs  // cs = hs, nlast
    7130:	2b040042 	adds	w2, w2, w4
    7134:	b81f00a2 	stur	w2, [x5, #-16]
    7138:	1a813421 	cinc	w1, w1, cs  // cs = hs, nlast
    713c:	b85f40c4 	ldur	w4, [x6, #-12]
    7140:	9ba47c64 	umull	x4, w3, w4
    7144:	2b040021 	adds	w1, w1, w4
    7148:	d360fc82 	lsr	x2, x4, #32
    714c:	b85f40a4 	ldur	w4, [x5, #-12]
    7150:	1a823442 	cinc	w2, w2, cs  // cs = hs, nlast
    7154:	2b040021 	adds	w1, w1, w4
    7158:	b81f40a1 	stur	w1, [x5, #-12]
    715c:	1a823442 	cinc	w2, w2, cs  // cs = hs, nlast
/home/jeferson/optee/optee_os-rpi4/lib/libmbedtls/mbedtls/library/bignum.c:1481
    7160:	b85f80c4 	ldur	w4, [x6, #-8]
    7164:	9ba47c64 	umull	x4, w3, w4
    7168:	2b040042 	adds	w2, w2, w4
    716c:	d360fc81 	lsr	x1, x4, #32
    7170:	b85f80a4 	ldur	w4, [x5, #-8]
    7174:	1a813421 	cinc	w1, w1, cs  // cs = hs, nlast
    7178:	2b040042 	adds	w2, w2, w4
    717c:	b81f80a2 	stur	w2, [x5, #-8]
    7180:	1a813421 	cinc	w1, w1, cs  // cs = hs, nlast
    7184:	b85fc0c2 	ldur	w2, [x6, #-4]
    7188:	9ba27c62 	umull	x2, w3, w2
    718c:	2b020021 	adds	w1, w1, w2
    7190:	d360fc44 	lsr	x4, x2, #32
    7194:	b85fc0a2 	ldur	w2, [x5, #-4]
    7198:	1a843484 	cinc	w4, w4, cs  // cs = hs, nlast
    719c:	2b020021 	adds	w1, w1, w2
    71a0:	b81fc0a1 	stur	w1, [x5, #-4]
    71a4:	1a843484 	cinc	w4, w4, cs  // cs = hs, nlast
/home/jeferson/optee/optee_os-rpi4/lib/libmbedtls/mbedtls/library/bignum.c:1481 (discriminator 1)
    71a8:	d2800001 	mov	x1, #0x0                   	// #0
/home/jeferson/optee/optee_os-rpi4/lib/libmbedtls/mbedtls/library/bignum.c:1485 (discriminator 1)
    71ac:	eb00003f 	cmp	x1, x0
    71b0:	54001301 	b.ne	7410 <mpi_mul_hlp+0x3cc>  // b.any
    71b4:	8b0108a1 	add	x1, x5, x1, lsl #2
/home/jeferson/optee/optee_os-rpi4/lib/libmbedtls/mbedtls/library/bignum.c:1495
    71b8:	35001424 	cbnz	w4, 743c <mpi_mul_hlp+0x3f8>
/home/jeferson/optee/optee_os-rpi4/lib/libmbedtls/mbedtls/library/bignum.c:1499
    71bc:	d65f03c0 	ret
/home/jeferson/optee/optee_os-rpi4/lib/libmbedtls/mbedtls/library/bignum.c:1462 (discriminator 2)
    71c0:	b94000c9 	ldr	w9, [x6]
    71c4:	910100c6 	add	x6, x6, #0x40
    71c8:	910100a5 	add	x5, x5, #0x40
/home/jeferson/optee/optee_os-rpi4/lib/libmbedtls/mbedtls/library/bignum.c:1459 (discriminator 2)
    71cc:	d1004108 	sub	x8, x8, #0x10
/home/jeferson/optee/optee_os-rpi4/lib/libmbedtls/mbedtls/library/bignum.c:1462 (discriminator 2)
    71d0:	9ba97c69 	umull	x9, w3, w9
    71d4:	2b090084 	adds	w4, w4, w9
    71d8:	d360fd27 	lsr	x7, x9, #32
    71dc:	b85c00a9 	ldur	w9, [x5, #-64]
    71e0:	1a8734e7 	cinc	w7, w7, cs  // cs = hs, nlast
    71e4:	2b040129 	adds	w9, w9, w4
    71e8:	b81c00a9 	stur	w9, [x5, #-64]
    71ec:	1a8734e7 	cinc	w7, w7, cs  // cs = hs, nlast
    71f0:	b85c40c9 	ldur	w9, [x6, #-60]
    71f4:	9ba97c69 	umull	x9, w3, w9
    71f8:	2b0900e7 	adds	w7, w7, w9
    71fc:	d360fd24 	lsr	x4, x9, #32
    7200:	b85c40a9 	ldur	w9, [x5, #-60]
    7204:	1a843484 	cinc	w4, w4, cs  // cs = hs, nlast
    7208:	2b070129 	adds	w9, w9, w7
    720c:	b81c40a9 	stur	w9, [x5, #-60]
    7210:	1a843484 	cinc	w4, w4, cs  // cs = hs, nlast
/home/jeferson/optee/optee_os-rpi4/lib/libmbedtls/mbedtls/library/bignum.c:1463 (discriminator 2)
    7214:	b85c80c9 	ldur	w9, [x6, #-56]
    7218:	9ba97c69 	umull	x9, w3, w9
    721c:	2b090084 	adds	w4, w4, w9
    7220:	d360fd27 	lsr	x7, x9, #32
    7224:	b85c80a9 	ldur	w9, [x5, #-56]
    7228:	1a8734e7 	cinc	w7, w7, cs  // cs = hs, nlast
    722c:	2b040129 	adds	w9, w9, w4
    7230:	b81c80a9 	stur	w9, [x5, #-56]
    7234:	1a8734e7 	cinc	w7, w7, cs  // cs = hs, nlast
    7238:	b85cc0c9 	ldur	w9, [x6, #-52]
    723c:	9ba97c69 	umull	x9, w3, w9
    7240:	2b0900e7 	adds	w7, w7, w9
    7244:	d360fd24 	lsr	x4, x9, #32
    7248:	b85cc0a9 	ldur	w9, [x5, #-52]
    724c:	1a843484 	cinc	w4, w4, cs  // cs = hs, nlast
    7250:	2b070129 	adds	w9, w9, w7
    7254:	b81cc0a9 	stur	w9, [x5, #-52]
    7258:	1a843484 	cinc	w4, w4, cs  // cs = hs, nlast
/home/jeferson/optee/optee_os-rpi4/lib/libmbedtls/mbedtls/library/bignum.c:1464 (discriminator 2)
    725c:	b85d00c9 	ldur	w9, [x6, #-48]
    7260:	9ba97c69 	umull	x9, w3, w9
    7264:	2b090084 	adds	w4, w4, w9
    7268:	d360fd27 	lsr	x7, x9, #32
    726c:	b85d00a9 	ldur	w9, [x5, #-48]
    7270:	1a8734e7 	cinc	w7, w7, cs  // cs = hs, nlast
    7274:	2b040129 	adds	w9, w9, w4
    7278:	b81d00a9 	stur	w9, [x5, #-48]
    727c:	1a8734e7 	cinc	w7, w7, cs  // cs = hs, nlast
    7280:	b85d40c9 	ldur	w9, [x6, #-44]
    7284:	9ba97c69 	umull	x9, w3, w9
    7288:	2b0900e7 	adds	w7, w7, w9
    728c:	d360fd24 	lsr	x4, x9, #32
    7290:	b85d40a9 	ldur	w9, [x5, #-44]
    7294:	1a843484 	cinc	w4, w4, cs  // cs = hs, nlast
    7298:	2b070129 	adds	w9, w9, w7
    729c:	b81d40a9 	stur	w9, [x5, #-44]
    72a0:	1a843484 	cinc	w4, w4, cs  // cs = hs, nlast
/home/jeferson/optee/optee_os-rpi4/lib/libmbedtls/mbedtls/library/bignum.c:1465 (discriminator 2)
    72a4:	b85d80c9 	ldur	w9, [x6, #-40]
    72a8:	9ba97c69 	umull	x9, w3, w9
    72ac:	2b090084 	adds	w4, w4, w9
    72b0:	d360fd27 	lsr	x7, x9, #32
    72b4:	b85d80a9 	ldur	w9, [x5, #-40]
    72b8:	1a8734e7 	cinc	w7, w7, cs  // cs = hs, nlast
    72bc:	2b040129 	adds	w9, w9, w4
    72c0:	b81d80a9 	stur	w9, [x5, #-40]
    72c4:	1a8734e7 	cinc	w7, w7, cs  // cs = hs, nlast
    72c8:	b85dc0c9 	ldur	w9, [x6, #-36]
    72cc:	9ba97c69 	umull	x9, w3, w9
    72d0:	2b0900e7 	adds	w7, w7, w9
    72d4:	d360fd24 	lsr	x4, x9, #32
    72d8:	b85dc0a9 	ldur	w9, [x5, #-36]
    72dc:	1a843484 	cinc	w4, w4, cs  // cs = hs, nlast
    72e0:	2b070129 	adds	w9, w9, w7
    72e4:	b81dc0a9 	stur	w9, [x5, #-36]
    72e8:	1a843484 	cinc	w4, w4, cs  // cs = hs, nlast
/home/jeferson/optee/optee_os-rpi4/lib/libmbedtls/mbedtls/library/bignum.c:1467 (discriminator 2)
    72ec:	b85e00c9 	ldur	w9, [x6, #-32]
    72f0:	9ba97c69 	umull	x9, w3, w9
    72f4:	2b090084 	adds	w4, w4, w9
    72f8:	d360fd27 	lsr	x7, x9, #32
    72fc:	b85e00a9 	ldur	w9, [x5, #-32]
    7300:	1a8734e7 	cinc	w7, w7, cs  // cs = hs, nlast
    7304:	2b040129 	adds	w9, w9, w4
    7308:	b81e00a9 	stur	w9, [x5, #-32]
    730c:	1a8734e7 	cinc	w7, w7, cs  // cs = hs, nlast
    7310:	b85e40c9 	ldur	w9, [x6, #-28]
    7314:	9ba97c69 	umull	x9, w3, w9
    7318:	2b0900e7 	adds	w7, w7, w9
    731c:	d360fd24 	lsr	x4, x9, #32
    7320:	b85e40a9 	ldur	w9, [x5, #-28]
    7324:	1a843484 	cinc	w4, w4, cs  // cs = hs, nlast
    7328:	2b070129 	adds	w9, w9, w7
    732c:	b81e40a9 	stur	w9, [x5, #-28]
    7330:	1a843484 	cinc	w4, w4, cs  // cs = hs, nlast
/home/jeferson/optee/optee_os-rpi4/lib/libmbedtls/mbedtls/library/bignum.c:1468 (discriminator 2)
    7334:	b85e80c9 	ldur	w9, [x6, #-24]
    7338:	9ba97c69 	umull	x9, w3, w9
    733c:	2b090084 	adds	w4, w4, w9
    7340:	d360fd27 	lsr	x7, x9, #32
    7344:	b85e80a9 	ldur	w9, [x5, #-24]
    7348:	1a8734e7 	cinc	w7, w7, cs  // cs = hs, nlast
    734c:	2b040129 	adds	w9, w9, w4
    7350:	b81e80a9 	stur	w9, [x5, #-24]
    7354:	b85ec0c9 	ldur	w9, [x6, #-20]
    7358:	1a8734e7 	cinc	w7, w7, cs  // cs = hs, nlast
    735c:	9ba97c69 	umull	x9, w3, w9
    7360:	2b0900e7 	adds	w7, w7, w9
    7364:	d360fd24 	lsr	x4, x9, #32
    7368:	b85ec0a9 	ldur	w9, [x5, #-20]
    736c:	1a843484 	cinc	w4, w4, cs  // cs = hs, nlast
    7370:	2b070129 	adds	w9, w9, w7
    7374:	b81ec0a9 	stur	w9, [x5, #-20]
    7378:	1a843484 	cinc	w4, w4, cs  // cs = hs, nlast
/home/jeferson/optee/optee_os-rpi4/lib/libmbedtls/mbedtls/library/bignum.c:1469 (discriminator 2)
    737c:	b85f00c9 	ldur	w9, [x6, #-16]
    7380:	9ba97c69 	umull	x9, w3, w9
    7384:	2b090084 	adds	w4, w4, w9
    7388:	d360fd27 	lsr	x7, x9, #32
    738c:	b85f00a9 	ldur	w9, [x5, #-16]
    7390:	1a8734e7 	cinc	w7, w7, cs  // cs = hs, nlast
    7394:	2b040129 	adds	w9, w9, w4
    7398:	b81f00a9 	stur	w9, [x5, #-16]
    739c:	1a8734e7 	cinc	w7, w7, cs  // cs = hs, nlast
    73a0:	b85f40c9 	ldur	w9, [x6, #-12]
    73a4:	9ba97c69 	umull	x9, w3, w9
    73a8:	2b0900e7 	adds	w7, w7, w9
    73ac:	d360fd24 	lsr	x4, x9, #32
    73b0:	b85f40a9 	ldur	w9, [x5, #-12]
    73b4:	1a843484 	cinc	w4, w4, cs  // cs = hs, nlast
    73b8:	2b070129 	adds	w9, w9, w7
    73bc:	b81f40a9 	stur	w9, [x5, #-12]
    73c0:	1a843484 	cinc	w4, w4, cs  // cs = hs, nlast
/home/jeferson/optee/optee_os-rpi4/lib/libmbedtls/mbedtls/library/bignum.c:1470 (discriminator 2)
    73c4:	b85f80c9 	ldur	w9, [x6, #-8]
    73c8:	9ba97c69 	umull	x9, w3, w9
    73cc:	2b090084 	adds	w4, w4, w9
    73d0:	d360fd27 	lsr	x7, x9, #32
    73d4:	b85f80a9 	ldur	w9, [x5, #-8]
    73d8:	1a8734e7 	cinc	w7, w7, cs  // cs = hs, nlast
    73dc:	2b040129 	adds	w9, w9, w4
    73e0:	b81f80a9 	stur	w9, [x5, #-8]
    73e4:	1a8734e7 	cinc	w7, w7, cs  // cs = hs, nlast
    73e8:	b85fc0c9 	ldur	w9, [x6, #-4]
    73ec:	9ba97c69 	umull	x9, w3, w9
    73f0:	2b0900e7 	adds	w7, w7, w9
    73f4:	d360fd24 	lsr	x4, x9, #32
    73f8:	b85fc0a9 	ldur	w9, [x5, #-4]
    73fc:	1a843484 	cinc	w4, w4, cs  // cs = hs, nlast
    7400:	2b070129 	adds	w9, w9, w7
    7404:	b81fc0a9 	stur	w9, [x5, #-4]
    7408:	1a843484 	cinc	w4, w4, cs  // cs = hs, nlast
/home/jeferson/optee/optee_os-rpi4/lib/libmbedtls/mbedtls/library/bignum.c:1459 (discriminator 2)
    740c:	17ffff12 	b	7054 <mpi_mul_hlp+0x10>
/home/jeferson/optee/optee_os-rpi4/lib/libmbedtls/mbedtls/library/bignum.c:1488 (discriminator 2)
    7410:	b86178c2 	ldr	w2, [x6, x1, lsl #2]
    7414:	9ba27c62 	umull	x2, w3, w2
    7418:	2b020084 	adds	w4, w4, w2
    741c:	d360fc47 	lsr	x7, x2, #32
    7420:	b86178a2 	ldr	w2, [x5, x1, lsl #2]
    7424:	1a8734e7 	cinc	w7, w7, cs  // cs = hs, nlast
    7428:	2b040042 	adds	w2, w2, w4
    742c:	b82178a2 	str	w2, [x5, x1, lsl #2]
    7430:	1a8734e4 	cinc	w4, w7, cs  // cs = hs, nlast
/home/jeferson/optee/optee_os-rpi4/lib/libmbedtls/mbedtls/library/bignum.c:1485 (discriminator 2)
    7434:	91000421 	add	x1, x1, #0x1
    7438:	17ffff5d 	b	71ac <mpi_mul_hlp+0x168>
/home/jeferson/optee/optee_os-rpi4/lib/libmbedtls/mbedtls/library/bignum.c:1497
    743c:	b9400020 	ldr	w0, [x1]
    7440:	2b040000 	adds	w0, w0, w4
    7444:	b8004420 	str	w0, [x1], #4
    7448:	1a9f37e4 	cset	w4, cs  // cs = hs, nlast
    744c:	17ffff5b 	b	71b8 <mpi_mul_hlp+0x174>

0000000000007450 <mpi_montmul>:
mpi_montmul():
/home/jeferson/optee/optee_os-rpi4/lib/libmbedtls/mbedtls/library/bignum.c:1965
    7450:	a9bb7bfd 	stp	x29, x30, [sp, #-80]!
    7454:	910003fd 	mov	x29, sp
    7458:	a9025bf5 	stp	x21, x22, [sp, #32]
    745c:	aa0003f6 	mov	x22, x0
    7460:	a90363f7 	stp	x23, x24, [sp, #48]
    7464:	aa0203f7 	mov	x23, x2
    7468:	2a0303f8 	mov	w24, w3
/home/jeferson/optee/optee_os-rpi4/lib/libmbedtls/mbedtls/library/bignum.c:1969
    746c:	a9408082 	ldp	x2, x0, [x4, #8]
/home/jeferson/optee/optee_os-rpi4/lib/libmbedtls/mbedtls/library/bignum.c:1965
    7470:	f90023f9 	str	x25, [sp, #64]
    7474:	aa0103f9 	mov	x25, x1
    7478:	a90153f3 	stp	x19, x20, [sp, #16]
    747c:	aa0403f3 	mov	x19, x4
/home/jeferson/optee/optee_os-rpi4/lib/libmbedtls/mbedtls/library/bignum.c:1969
    7480:	52800001 	mov	w1, #0x0                   	// #0
    7484:	d37ef442 	lsl	x2, x2, #2
    7488:	940014fe 	bl	c880 <memset>
/home/jeferson/optee/optee_os-rpi4/lib/libmbedtls/mbedtls/library/bignum.c:1972
    748c:	f94006f5 	ldr	x21, [x23, #8]
/home/jeferson/optee/optee_os-rpi4/lib/libmbedtls/mbedtls/library/bignum.c:1975
    7490:	d280000c 	mov	x12, #0x0                   	// #0
/home/jeferson/optee/optee_os-rpi4/lib/libmbedtls/mbedtls/library/bignum.c:1973
    7494:	f9400720 	ldr	x0, [x25, #8]
/home/jeferson/optee/optee_os-rpi4/lib/libmbedtls/mbedtls/library/bignum.c:1986
    7498:	910006b4 	add	x20, x21, #0x1
/home/jeferson/optee/optee_os-rpi4/lib/libmbedtls/mbedtls/library/bignum.c:1971
    749c:	f9400a73 	ldr	x19, [x19, #16]
/home/jeferson/optee/optee_os-rpi4/lib/libmbedtls/mbedtls/library/bignum.c:1973
    74a0:	eb15001f 	cmp	x0, x21
/home/jeferson/optee/optee_os-rpi4/lib/libmbedtls/mbedtls/library/bignum.c:1986
    74a4:	d37ef694 	lsl	x20, x20, #2
/home/jeferson/optee/optee_os-rpi4/lib/libmbedtls/mbedtls/library/bignum.c:1973
    74a8:	9a95900d 	csel	x13, x0, x21, ls  // ls = plast
/home/jeferson/optee/optee_os-rpi4/lib/libmbedtls/mbedtls/library/bignum.c:1971
    74ac:	aa1303ea 	mov	x10, x19
/home/jeferson/optee/optee_os-rpi4/lib/libmbedtls/mbedtls/library/bignum.c:1980 (discriminator 1)
    74b0:	f9400ac0 	ldr	x0, [x22, #16]
/home/jeferson/optee/optee_os-rpi4/lib/libmbedtls/mbedtls/library/bignum.c:1975 (discriminator 1)
    74b4:	eb15019f 	cmp	x12, x21
    74b8:	54000341 	b.ne	7520 <mpi_montmul+0xd0>  // b.any
    74bc:	d1001294 	sub	x20, x20, #0x4
    74c0:	8b140273 	add	x19, x19, x20
/home/jeferson/optee/optee_os-rpi4/lib/libmbedtls/mbedtls/library/bignum.c:1995
    74c4:	aa1403e2 	mov	x2, x20
    74c8:	aa1303e1 	mov	x1, x19
    74cc:	97ffe2d5 	bl	20 <memcpy>
/home/jeferson/optee/optee_os-rpi4/lib/libmbedtls/mbedtls/library/bignum.c:2000
    74d0:	f9400ae4 	ldr	x4, [x23, #16]
mpi_sub_hlp():
/home/jeferson/optee/optee_os-rpi4/lib/libmbedtls/mbedtls/library/bignum.c:1241
    74d4:	52800002 	mov	w2, #0x0                   	// #0
mpi_montmul():
/home/jeferson/optee/optee_os-rpi4/lib/libmbedtls/mbedtls/library/bignum.c:1999
    74d8:	b8746a60 	ldr	w0, [x19, x20]
    74dc:	11000400 	add	w0, w0, #0x1
    74e0:	b8346a60 	str	w0, [x19, x20]
mpi_sub_hlp():
/home/jeferson/optee/optee_os-rpi4/lib/libmbedtls/mbedtls/library/bignum.c:1243
    74e4:	d2800000 	mov	x0, #0x0                   	// #0
    74e8:	eb0002bf 	cmp	x21, x0
    74ec:	54000401 	b.ne	756c <mpi_montmul+0x11c>  // b.any
mpi_montmul():
/home/jeferson/optee/optee_os-rpi4/lib/libmbedtls/mbedtls/library/bignum.c:2000
    74f0:	b8746a63 	ldr	w3, [x19, x20]
/home/jeferson/optee/optee_os-rpi4/lib/libmbedtls/mbedtls/library/bignum.c:2007
    74f4:	aa1503e0 	mov	x0, x21
    74f8:	f9400ac1 	ldr	x1, [x22, #16]
/home/jeferson/optee/optee_os-rpi4/lib/libmbedtls/mbedtls/library/bignum.c:2000
    74fc:	4b020063 	sub	w3, w3, w2
    7500:	b8346a63 	str	w3, [x19, x20]
/home/jeferson/optee/optee_os-rpi4/lib/libmbedtls/mbedtls/library/bignum.c:2007
    7504:	aa1303e2 	mov	x2, x19
/home/jeferson/optee/optee_os-rpi4/lib/libmbedtls/mbedtls/library/bignum.c:2008
    7508:	a94153f3 	ldp	x19, x20, [sp, #16]
    750c:	a9425bf5 	ldp	x21, x22, [sp, #32]
    7510:	a94363f7 	ldp	x23, x24, [sp, #48]
    7514:	f94023f9 	ldr	x25, [sp, #64]
    7518:	a8c57bfd 	ldp	x29, x30, [sp], #80
/home/jeferson/optee/optee_os-rpi4/lib/libmbedtls/mbedtls/library/bignum.c:2007
    751c:	14000f4c 	b	b24c <mbedtls_ct_mpi_uint_cond_assign>
/home/jeferson/optee/optee_os-rpi4/lib/libmbedtls/mbedtls/library/bignum.c:1981 (discriminator 3)
    7520:	f9400b21 	ldr	x1, [x25, #16]
/home/jeferson/optee/optee_os-rpi4/lib/libmbedtls/mbedtls/library/bignum.c:1983 (discriminator 3)
    7524:	aa0a03e2 	mov	x2, x10
/home/jeferson/optee/optee_os-rpi4/lib/libmbedtls/mbedtls/library/bignum.c:1980 (discriminator 3)
    7528:	b86c780e 	ldr	w14, [x0, x12, lsl #2]
/home/jeferson/optee/optee_os-rpi4/lib/libmbedtls/mbedtls/library/bignum.c:1975 (discriminator 3)
    752c:	9100058c 	add	x12, x12, #0x1
/home/jeferson/optee/optee_os-rpi4/lib/libmbedtls/mbedtls/library/bignum.c:1981 (discriminator 3)
    7530:	b9400140 	ldr	w0, [x10]
    7534:	b940002b 	ldr	w11, [x1]
/home/jeferson/optee/optee_os-rpi4/lib/libmbedtls/mbedtls/library/bignum.c:1983 (discriminator 3)
    7538:	2a0e03e3 	mov	w3, w14
/home/jeferson/optee/optee_os-rpi4/lib/libmbedtls/mbedtls/library/bignum.c:1981 (discriminator 3)
    753c:	1b0b01cb 	madd	w11, w14, w11, w0
/home/jeferson/optee/optee_os-rpi4/lib/libmbedtls/mbedtls/library/bignum.c:1983 (discriminator 3)
    7540:	aa0d03e0 	mov	x0, x13
    7544:	97fffec0 	bl	7044 <mpi_mul_hlp>
/home/jeferson/optee/optee_os-rpi4/lib/libmbedtls/mbedtls/library/bignum.c:1984 (discriminator 3)
    7548:	f9400ae1 	ldr	x1, [x23, #16]
    754c:	aa0a03e2 	mov	x2, x10
/home/jeferson/optee/optee_os-rpi4/lib/libmbedtls/mbedtls/library/bignum.c:1981 (discriminator 3)
    7550:	1b187d6b 	mul	w11, w11, w24
/home/jeferson/optee/optee_os-rpi4/lib/libmbedtls/mbedtls/library/bignum.c:1984 (discriminator 3)
    7554:	aa1503e0 	mov	x0, x21
    7558:	2a0b03e3 	mov	w3, w11
    755c:	97fffeba 	bl	7044 <mpi_mul_hlp>
/home/jeferson/optee/optee_os-rpi4/lib/libmbedtls/mbedtls/library/bignum.c:1986 (discriminator 3)
    7560:	b800454e 	str	w14, [x10], #4
    7564:	b834695f 	str	wzr, [x10, x20]
/home/jeferson/optee/optee_os-rpi4/lib/libmbedtls/mbedtls/library/bignum.c:1975 (discriminator 3)
    7568:	17ffffd2 	b	74b0 <mpi_montmul+0x60>
mpi_sub_hlp():
/home/jeferson/optee/optee_os-rpi4/lib/libmbedtls/mbedtls/library/bignum.c:1245
    756c:	b8607a61 	ldr	w1, [x19, x0, lsl #2]
/home/jeferson/optee/optee_os-rpi4/lib/libmbedtls/mbedtls/library/bignum.c:1246
    7570:	b8607883 	ldr	w3, [x4, x0, lsl #2]
/home/jeferson/optee/optee_os-rpi4/lib/libmbedtls/mbedtls/library/bignum.c:1245
    7574:	6b02003f 	cmp	w1, w2
    7578:	4b020021 	sub	w1, w1, w2
    757c:	1a9f27e5 	cset	w5, cc  // cc = lo, ul, last
/home/jeferson/optee/optee_os-rpi4/lib/libmbedtls/mbedtls/library/bignum.c:1246
    7580:	6b03003f 	cmp	w1, w3
    7584:	1a8524a2 	cinc	w2, w5, cc  // cc = lo, ul, last
    7588:	4b030021 	sub	w1, w1, w3
    758c:	b8207a61 	str	w1, [x19, x0, lsl #2]
/home/jeferson/optee/optee_os-rpi4/lib/libmbedtls/mbedtls/library/bignum.c:1243
    7590:	91000400 	add	x0, x0, #0x1
    7594:	17ffffd5 	b	74e8 <mpi_montmul+0x98>

0000000000007598 <mpi_montred>:
mpi_montred():
/home/jeferson/optee/optee_os-rpi4/lib/libmbedtls/mbedtls/library/bignum.c:2023
    7598:	a9bb7bfd 	stp	x29, x30, [sp, #-80]!
    759c:	910003fd 	mov	x29, sp
    75a0:	f9000bf3 	str	x19, [sp, #16]
    75a4:	d0000053 	adrp	x19, 11000 <_DYNAMIC>
    75a8:	f9409a64 	ldr	x4, [x19, #304]
    75ac:	f9400085 	ldr	x5, [x4]
    75b0:	f90027e5 	str	x5, [sp, #72]
    75b4:	d2800005 	mov	x5, #0x0                   	// #0
/home/jeferson/optee/optee_os-rpi4/lib/libmbedtls/mbedtls/library/bignum.c:2027
    75b8:	d2800024 	mov	x4, #0x1                   	// #1
/home/jeferson/optee/optee_os-rpi4/lib/libmbedtls/mbedtls/library/bignum.c:2024
    75bc:	52800025 	mov	w5, #0x1                   	// #1
/home/jeferson/optee/optee_os-rpi4/lib/libmbedtls/mbedtls/library/bignum.c:2027
    75c0:	f9001fe4 	str	x4, [sp, #56]
/home/jeferson/optee/optee_os-rpi4/lib/libmbedtls/mbedtls/library/bignum.c:2028
    75c4:	9100b3e4 	add	x4, sp, #0x2c
/home/jeferson/optee/optee_os-rpi4/lib/libmbedtls/mbedtls/library/bignum.c:2024
    75c8:	b9002fe5 	str	w5, [sp, #44]
/home/jeferson/optee/optee_os-rpi4/lib/libmbedtls/mbedtls/library/bignum.c:2027
    75cc:	790063e5 	strh	w5, [sp, #48]
/home/jeferson/optee/optee_os-rpi4/lib/libmbedtls/mbedtls/library/bignum.c:2028
    75d0:	f90023e4 	str	x4, [sp, #64]
/home/jeferson/optee/optee_os-rpi4/lib/libmbedtls/mbedtls/library/bignum.c:2030
    75d4:	aa0303e4 	mov	x4, x3
    75d8:	2a0203e3 	mov	w3, w2
    75dc:	aa0103e2 	mov	x2, x1
    75e0:	9100c3e1 	add	x1, sp, #0x30
    75e4:	97ffff9b 	bl	7450 <mpi_montmul>
/home/jeferson/optee/optee_os-rpi4/lib/libmbedtls/mbedtls/library/bignum.c:2031
    75e8:	f9409a73 	ldr	x19, [x19, #304]
    75ec:	f94027e0 	ldr	x0, [sp, #72]
    75f0:	f9400261 	ldr	x1, [x19]
    75f4:	eb010000 	subs	x0, x0, x1
    75f8:	d2800001 	mov	x1, #0x0                   	// #0
    75fc:	54000040 	b.eq	7604 <mpi_montred+0x6c>  // b.none
    7600:	97ffe36f 	bl	3bc <__stack_chk_fail>
    7604:	f9400bf3 	ldr	x19, [sp, #16]
    7608:	a8c57bfd 	ldp	x29, x30, [sp], #80
    760c:	d65f03c0 	ret

0000000000007610 <mpi_montg_init.isra.0>:
mpi_montg_init():
/home/jeferson/optee/optee_os-rpi4/lib/libmbedtls/mbedtls/library/bignum.c:1924
    7610:	b9400023 	ldr	w3, [x1]
/home/jeferson/optee/optee_os-rpi4/lib/libmbedtls/mbedtls/library/bignum.c:1928
    7614:	52800062 	mov	w2, #0x3                   	// #3
/home/jeferson/optee/optee_os-rpi4/lib/libmbedtls/mbedtls/library/bignum.c:1931
    7618:	52800045 	mov	w5, #0x2                   	// #2
/home/jeferson/optee/optee_os-rpi4/lib/libmbedtls/mbedtls/library/bignum.c:1928
    761c:	11000861 	add	w1, w3, #0x2
    7620:	531f7821 	lsl	w1, w1, #1
    7624:	121d0021 	and	w1, w1, #0x8
    7628:	0b030021 	add	w1, w1, w3
/home/jeferson/optee/optee_os-rpi4/lib/libmbedtls/mbedtls/library/bignum.c:1931
    762c:	1b019464 	msub	w4, w3, w1, w5
/home/jeferson/optee/optee_os-rpi4/lib/libmbedtls/mbedtls/library/bignum.c:1930
    7630:	71000442 	subs	w2, w2, #0x1
/home/jeferson/optee/optee_os-rpi4/lib/libmbedtls/mbedtls/library/bignum.c:1931
    7634:	1b047c21 	mul	w1, w1, w4
/home/jeferson/optee/optee_os-rpi4/lib/libmbedtls/mbedtls/library/bignum.c:1930
    7638:	54ffffa1 	b.ne	762c <mpi_montg_init.isra.0+0x1c>  // b.any
/home/jeferson/optee/optee_os-rpi4/lib/libmbedtls/mbedtls/library/bignum.c:1933
    763c:	4b0103e1 	neg	w1, w1
    7640:	b9000001 	str	w1, [x0]
/home/jeferson/optee/optee_os-rpi4/lib/libmbedtls/mbedtls/library/bignum.c:1934
    7644:	d65f03c0 	ret

0000000000007648 <mpi_bigendian_to_host.part.0>:
mpi_bigendian_to_host():
/home/jeferson/optee/optee_os-rpi4/lib/libmbedtls/mbedtls/library/bignum.c:804
    7648:	a9be7bfd 	stp	x29, x30, [sp, #-32]!
    764c:	d0000042 	adrp	x2, 11000 <_DYNAMIC>
/home/jeferson/optee/optee_os-rpi4/lib/libmbedtls/mbedtls/library/bignum.c:820
    7650:	8b010801 	add	x1, x0, x1, lsl #2
/home/jeferson/optee/optee_os-rpi4/lib/libmbedtls/mbedtls/library/bignum.c:804
    7654:	910003fd 	mov	x29, sp
    7658:	f9409842 	ldr	x2, [x2, #304]
/home/jeferson/optee/optee_os-rpi4/lib/libmbedtls/mbedtls/library/bignum.c:820
    765c:	d1001021 	sub	x1, x1, #0x4
mpi_uint_bigendian_to_host_c():
/home/jeferson/optee/optee_os-rpi4/lib/libmbedtls/mbedtls/library/bignum.c:755
    7660:	910053e5 	add	x5, sp, #0x14
mpi_bigendian_to_host():
/home/jeferson/optee/optee_os-rpi4/lib/libmbedtls/mbedtls/library/bignum.c:804
    7664:	f9400043 	ldr	x3, [x2]
    7668:	f9000fe3 	str	x3, [sp, #24]
    766c:	d2800003 	mov	x3, #0x0                   	// #0
/home/jeferson/optee/optee_os-rpi4/lib/libmbedtls/mbedtls/library/bignum.c:821
    7670:	eb01001f 	cmp	x0, x1
    7674:	54000129 	b.ls	7698 <mpi_bigendian_to_host.part.0+0x50>  // b.plast
/home/jeferson/optee/optee_os-rpi4/lib/libmbedtls/mbedtls/library/bignum.c:831
    7678:	d0000042 	adrp	x2, 11000 <_DYNAMIC>
    767c:	f9409842 	ldr	x2, [x2, #304]
    7680:	f9400fe0 	ldr	x0, [sp, #24]
    7684:	f9400041 	ldr	x1, [x2]
    7688:	eb010000 	subs	x0, x0, x1
    768c:	d2800001 	mov	x1, #0x0                   	// #0
    7690:	540002e0 	b.eq	76ec <mpi_bigendian_to_host.part.0+0xa4>  // b.none
    7694:	97ffe34a 	bl	3bc <__stack_chk_fail>
mpi_uint_bigendian_to_host():
/home/jeferson/optee/optee_os-rpi4/lib/libmbedtls/mbedtls/library/bignum.c:801
    7698:	b9400002 	ldr	w2, [x0]
mpi_uint_bigendian_to_host_c():
/home/jeferson/optee/optee_os-rpi4/lib/libmbedtls/mbedtls/library/bignum.c:750
    769c:	52800003 	mov	w3, #0x0                   	// #0
    76a0:	b90017e2 	str	w2, [sp, #20]
mpi_bigendian_to_host():
/home/jeferson/optee/optee_os-rpi4/lib/libmbedtls/mbedtls/library/bignum.c:827
    76a4:	d2800002 	mov	x2, #0x0                   	// #0
mpi_uint_bigendian_to_host_c():
/home/jeferson/optee/optee_os-rpi4/lib/libmbedtls/mbedtls/library/bignum.c:755
    76a8:	38656844 	ldrb	w4, [x2, x5]
/home/jeferson/optee/optee_os-rpi4/lib/libmbedtls/mbedtls/library/bignum.c:752
    76ac:	91000442 	add	x2, x2, #0x1
/home/jeferson/optee/optee_os-rpi4/lib/libmbedtls/mbedtls/library/bignum.c:755
    76b0:	2a032083 	orr	w3, w4, w3, lsl #8
/home/jeferson/optee/optee_os-rpi4/lib/libmbedtls/mbedtls/library/bignum.c:752
    76b4:	f100105f 	cmp	x2, #0x4
    76b8:	54ffff81 	b.ne	76a8 <mpi_bigendian_to_host.part.0+0x60>  // b.any
mpi_uint_bigendian_to_host():
/home/jeferson/optee/optee_os-rpi4/lib/libmbedtls/mbedtls/library/bignum.c:801
    76bc:	b9400022 	ldr	w2, [x1]
mpi_uint_bigendian_to_host_c():
/home/jeferson/optee/optee_os-rpi4/lib/libmbedtls/mbedtls/library/bignum.c:750
    76c0:	52800004 	mov	w4, #0x0                   	// #0
    76c4:	b90017e2 	str	w2, [sp, #20]
mpi_bigendian_to_host():
/home/jeferson/optee/optee_os-rpi4/lib/libmbedtls/mbedtls/library/bignum.c:828
    76c8:	d2800002 	mov	x2, #0x0                   	// #0
mpi_uint_bigendian_to_host_c():
/home/jeferson/optee/optee_os-rpi4/lib/libmbedtls/mbedtls/library/bignum.c:755
    76cc:	386268a6 	ldrb	w6, [x5, x2]
/home/jeferson/optee/optee_os-rpi4/lib/libmbedtls/mbedtls/library/bignum.c:752
    76d0:	91000442 	add	x2, x2, #0x1
/home/jeferson/optee/optee_os-rpi4/lib/libmbedtls/mbedtls/library/bignum.c:755
    76d4:	2a0420c4 	orr	w4, w6, w4, lsl #8
/home/jeferson/optee/optee_os-rpi4/lib/libmbedtls/mbedtls/library/bignum.c:752
    76d8:	f100105f 	cmp	x2, #0x4
    76dc:	54ffff81 	b.ne	76cc <mpi_bigendian_to_host.part.0+0x84>  // b.any
mpi_bigendian_to_host():
/home/jeferson/optee/optee_os-rpi4/lib/libmbedtls/mbedtls/library/bignum.c:828
    76e0:	b8004404 	str	w4, [x0], #4
/home/jeferson/optee/optee_os-rpi4/lib/libmbedtls/mbedtls/library/bignum.c:829
    76e4:	b81fc423 	str	w3, [x1], #-4
/home/jeferson/optee/optee_os-rpi4/lib/libmbedtls/mbedtls/library/bignum.c:822
    76e8:	17ffffe2 	b	7670 <mpi_bigendian_to_host.part.0+0x28>
/home/jeferson/optee/optee_os-rpi4/lib/libmbedtls/mbedtls/library/bignum.c:831
    76ec:	a8c27bfd 	ldp	x29, x30, [sp], #32
    76f0:	d65f03c0 	ret

00000000000076f4 <mpi_fill_random_internal>:
mpi_fill_random_internal():
/home/jeferson/optee/optee_os-rpi4/lib/libmbedtls/mbedtls/library/bignum.c:2442
    76f4:	a9bb7bfd 	stp	x29, x30, [sp, #-80]!
/home/jeferson/optee/optee_os-rpi4/lib/libmbedtls/mbedtls/library/bignum.c:2444
    76f8:	f240043f 	tst	x1, #0x3
/home/jeferson/optee/optee_os-rpi4/lib/libmbedtls/mbedtls/library/bignum.c:2442
    76fc:	910003fd 	mov	x29, sp
    7700:	a90153f3 	stp	x19, x20, [sp, #16]
/home/jeferson/optee/optee_os-rpi4/lib/libmbedtls/mbedtls/library/bignum.c:2444
    7704:	d342fc34 	lsr	x20, x1, #2
/home/jeferson/optee/optee_os-rpi4/lib/libmbedtls/mbedtls/library/bignum.c:2442
    7708:	aa0003f3 	mov	x19, x0
/home/jeferson/optee/optee_os-rpi4/lib/libmbedtls/mbedtls/library/bignum.c:2444
    770c:	9a940694 	cinc	x20, x20, ne  // ne = any
/home/jeferson/optee/optee_os-rpi4/lib/libmbedtls/mbedtls/library/bignum.c:2442
    7710:	a9025bf5 	stp	x21, x22, [sp, #32]
/home/jeferson/optee/optee_os-rpi4/lib/libmbedtls/mbedtls/library/bignum.c:2447
    7714:	f9400400 	ldr	x0, [x0, #8]
/home/jeferson/optee/optee_os-rpi4/lib/libmbedtls/mbedtls/library/bignum.c:2442
    7718:	a90363f7 	stp	x23, x24, [sp, #48]
    771c:	f90023f9 	str	x25, [sp, #64]
/home/jeferson/optee/optee_os-rpi4/lib/libmbedtls/mbedtls/library/bignum.c:2445
    7720:	d37ef699 	lsl	x25, x20, #2
    7724:	cb010338 	sub	x24, x25, x1
/home/jeferson/optee/optee_os-rpi4/lib/libmbedtls/mbedtls/library/bignum.c:2447
    7728:	eb14001f 	cmp	x0, x20
    772c:	54000403 	b.cc	77ac <mpi_fill_random_internal+0xb8>  // b.lo, b.ul, b.last
/home/jeferson/optee/optee_os-rpi4/lib/libmbedtls/mbedtls/library/bignum.c:2450
    7730:	f9400a60 	ldr	x0, [x19, #16]
    7734:	aa0303f7 	mov	x23, x3
    7738:	aa0103f5 	mov	x21, x1
    773c:	aa0203f6 	mov	x22, x2
    7740:	52800001 	mov	w1, #0x0                   	// #0
    7744:	aa1803e2 	mov	x2, x24
    7748:	9400144e 	bl	c880 <memset>
/home/jeferson/optee/optee_os-rpi4/lib/libmbedtls/mbedtls/library/bignum.c:2451
    774c:	a9408262 	ldp	x2, x0, [x19, #8]
    7750:	52800001 	mov	w1, #0x0                   	// #0
    7754:	cb140042 	sub	x2, x2, x20
    7758:	8b190000 	add	x0, x0, x25
    775c:	d37ef442 	lsl	x2, x2, #2
    7760:	94001448 	bl	c880 <memset>
/home/jeferson/optee/optee_os-rpi4/lib/libmbedtls/mbedtls/library/bignum.c:2452
    7764:	f9400a61 	ldr	x1, [x19, #16]
    7768:	aa1503e2 	mov	x2, x21
    776c:	aa1703e0 	mov	x0, x23
    7770:	8b180021 	add	x1, x1, x24
    7774:	d63f02c0 	blr	x22
    7778:	2a0003f5 	mov	w21, w0
    777c:	350000a0 	cbnz	w0, 7790 <mpi_fill_random_internal+0x9c>
mpi_bigendian_to_host():
/home/jeferson/optee/optee_os-rpi4/lib/libmbedtls/mbedtls/library/bignum.c:808 (discriminator 2)
    7780:	b4000094 	cbz	x20, 7790 <mpi_fill_random_internal+0x9c>
    7784:	f9400a60 	ldr	x0, [x19, #16]
    7788:	aa1403e1 	mov	x1, x20
    778c:	97ffffaf 	bl	7648 <mpi_bigendian_to_host.part.0>
mpi_fill_random_internal():
/home/jeferson/optee/optee_os-rpi4/lib/libmbedtls/mbedtls/library/bignum.c:2457
    7790:	2a1503e0 	mov	w0, w21
    7794:	a94153f3 	ldp	x19, x20, [sp, #16]
    7798:	a9425bf5 	ldp	x21, x22, [sp, #32]
    779c:	a94363f7 	ldp	x23, x24, [sp, #48]
    77a0:	f94023f9 	ldr	x25, [sp, #64]
    77a4:	a8c57bfd 	ldp	x29, x30, [sp], #80
    77a8:	d65f03c0 	ret
/home/jeferson/optee/optee_os-rpi4/lib/libmbedtls/mbedtls/library/bignum.c:2448
    77ac:	12800075 	mov	w21, #0xfffffffc            	// #-4
    77b0:	17fffff8 	b	7790 <mpi_fill_random_internal+0x9c>

00000000000077b4 <mbedtls_mpi_init>:
mpi_init():
/home/jeferson/optee/optee_os-rpi4/lib/libmbedtls/mbedtls/library/bignum.c:95
    77b4:	52800021 	mov	w1, #0x1                   	// #1
    77b8:	b9000001 	str	w1, [x0]
/home/jeferson/optee/optee_os-rpi4/lib/libmbedtls/mbedtls/library/bignum.c:98
    77bc:	a900fc1f 	stp	xzr, xzr, [x0, #8]
mbedtls_mpi_init():
/home/jeferson/optee/optee_os-rpi4/lib/libmbedtls/mbedtls/library/bignum.c:104
    77c0:	d65f03c0 	ret

00000000000077c4 <mbedtls_mpi_init_mempool>:
mbedtls_mpi_init_mempool():
/home/jeferson/optee/optee_os-rpi4/lib/libmbedtls/mbedtls/library/bignum.c:108
    77c4:	d0000041 	adrp	x1, 11000 <_DYNAMIC>
mpi_init():
/home/jeferson/optee/optee_os-rpi4/lib/libmbedtls/mbedtls/library/bignum.c:95
    77c8:	52800022 	mov	w2, #0x1                   	// #1
/home/jeferson/optee/optee_os-rpi4/lib/libmbedtls/mbedtls/library/bignum.c:98
    77cc:	a900fc1f 	stp	xzr, xzr, [x0, #8]
mbedtls_mpi_init_mempool():
/home/jeferson/optee/optee_os-rpi4/lib/libmbedtls/mbedtls/library/bignum.c:108
    77d0:	f940ec21 	ldr	x1, [x1, #472]
    77d4:	f9400021 	ldr	x1, [x1]
mpi_init():
/home/jeferson/optee/optee_os-rpi4/lib/libmbedtls/mbedtls/library/bignum.c:95
    77d8:	79000002 	strh	w2, [x0]
mbedtls_mpi_init_mempool():
/home/jeferson/optee/optee_os-rpi4/lib/libmbedtls/mbedtls/library/bignum.c:108
    77dc:	f100003f 	cmp	x1, #0x0
    77e0:	1a9f07e1 	cset	w1, ne  // ne = any
mpi_init():
/home/jeferson/optee/optee_os-rpi4/lib/libmbedtls/mbedtls/library/bignum.c:96
    77e4:	79000401 	strh	w1, [x0, #2]
mbedtls_mpi_init_mempool():
/home/jeferson/optee/optee_os-rpi4/lib/libmbedtls/mbedtls/library/bignum.c:109
    77e8:	d65f03c0 	ret

00000000000077ec <mbedtls_mpi_free>:
mbedtls_mpi_free():
/home/jeferson/optee/optee_os-rpi4/lib/libmbedtls/mbedtls/library/bignum.c:116
    77ec:	b4000340 	cbz	x0, 7854 <mbedtls_mpi_free+0x68>
/home/jeferson/optee/optee_os-rpi4/lib/libmbedtls/mbedtls/library/bignum.c:115
    77f0:	a9be7bfd 	stp	x29, x30, [sp, #-32]!
    77f4:	910003fd 	mov	x29, sp
    77f8:	f9000bf3 	str	x19, [sp, #16]
    77fc:	aa0003f3 	mov	x19, x0
/home/jeferson/optee/optee_os-rpi4/lib/libmbedtls/mbedtls/library/bignum.c:119
    7800:	f9400800 	ldr	x0, [x0, #16]
    7804:	b4000160 	cbz	x0, 7830 <mbedtls_mpi_free+0x44>
mbedtls_mpi_zeroize():
/home/jeferson/optee/optee_os-rpi4/lib/libmbedtls/mbedtls/library/bignum.c:85
    7808:	f9400661 	ldr	x1, [x19, #8]
    780c:	d37ef421 	lsl	x1, x1, #2
    7810:	94001045 	bl	b924 <mbedtls_platform_zeroize>
mbedtls_mpi_free():
/home/jeferson/optee/optee_os-rpi4/lib/libmbedtls/mbedtls/library/bignum.c:122
    7814:	79c00660 	ldrsh	w0, [x19, #2]
    7818:	34000180 	cbz	w0, 7848 <mbedtls_mpi_free+0x5c>
/home/jeferson/optee/optee_os-rpi4/lib/libmbedtls/mbedtls/library/bignum.c:123
    781c:	d0000040 	adrp	x0, 11000 <_DYNAMIC>
    7820:	f9400a61 	ldr	x1, [x19, #16]
    7824:	f940ec00 	ldr	x0, [x0, #472]
    7828:	f9400000 	ldr	x0, [x0]
    782c:	94001492 	bl	ca74 <mempool_free>
/home/jeferson/optee/optee_os-rpi4/lib/libmbedtls/mbedtls/library/bignum.c:128
    7830:	52800020 	mov	w0, #0x1                   	// #1
    7834:	79000260 	strh	w0, [x19]
/home/jeferson/optee/optee_os-rpi4/lib/libmbedtls/mbedtls/library/bignum.c:130
    7838:	a900fe7f 	stp	xzr, xzr, [x19, #8]
/home/jeferson/optee/optee_os-rpi4/lib/libmbedtls/mbedtls/library/bignum.c:131
    783c:	f9400bf3 	ldr	x19, [sp, #16]
    7840:	a8c27bfd 	ldp	x29, x30, [sp], #32
    7844:	d65f03c0 	ret
/home/jeferson/optee/optee_os-rpi4/lib/libmbedtls/mbedtls/library/bignum.c:125
    7848:	f9400a60 	ldr	x0, [x19, #16]
    784c:	9400131a 	bl	c4b4 <free>
    7850:	17fffff8 	b	7830 <mbedtls_mpi_free+0x44>
    7854:	d65f03c0 	ret

0000000000007858 <mbedtls_mpi_grow>:
mbedtls_mpi_grow():
/home/jeferson/optee/optee_os-rpi4/lib/libmbedtls/mbedtls/library/bignum.c:137
    7858:	a9bd7bfd 	stp	x29, x30, [sp, #-48]!
    785c:	910003fd 	mov	x29, sp
    7860:	a90153f3 	stp	x19, x20, [sp, #16]
    7864:	aa0003f3 	mov	x19, x0
/home/jeferson/optee/optee_os-rpi4/lib/libmbedtls/mbedtls/library/bignum.c:141
    7868:	d284e200 	mov	x0, #0x2710                	// #10000
/home/jeferson/optee/optee_os-rpi4/lib/libmbedtls/mbedtls/library/bignum.c:137
    786c:	a9025bf5 	stp	x21, x22, [sp, #32]
/home/jeferson/optee/optee_os-rpi4/lib/libmbedtls/mbedtls/library/bignum.c:141
    7870:	eb00003f 	cmp	x1, x0
    7874:	540000c9 	b.ls	788c <mbedtls_mpi_grow+0x34>  // b.plast
/home/jeferson/optee/optee_os-rpi4/lib/libmbedtls/mbedtls/library/bignum.c:142
    7878:	128001e0 	mov	w0, #0xfffffff0            	// #-16
/home/jeferson/optee/optee_os-rpi4/lib/libmbedtls/mbedtls/library/bignum.c:175
    787c:	a94153f3 	ldp	x19, x20, [sp, #16]
    7880:	a9425bf5 	ldp	x21, x22, [sp, #32]
    7884:	a8c37bfd 	ldp	x29, x30, [sp], #48
    7888:	d65f03c0 	ret
/home/jeferson/optee/optee_os-rpi4/lib/libmbedtls/mbedtls/library/bignum.c:144
    788c:	f9400660 	ldr	x0, [x19, #8]
    7890:	aa0103f5 	mov	x21, x1
    7894:	eb01001f 	cmp	x0, x1
    7898:	540003e2 	b.cs	7914 <mbedtls_mpi_grow+0xbc>  // b.hs, b.nlast
/home/jeferson/optee/optee_os-rpi4/lib/libmbedtls/mbedtls/library/bignum.c:146
    789c:	79c00660 	ldrsh	w0, [x19, #2]
    78a0:	340003e0 	cbz	w0, 791c <mbedtls_mpi_grow+0xc4>
/home/jeferson/optee/optee_os-rpi4/lib/libmbedtls/mbedtls/library/bignum.c:148
    78a4:	d0000040 	adrp	x0, 11000 <_DYNAMIC>
    78a8:	d37ef436 	lsl	x22, x1, #2
    78ac:	aa1603e1 	mov	x1, x22
    78b0:	f940ec00 	ldr	x0, [x0, #472]
    78b4:	f9400000 	ldr	x0, [x0]
    78b8:	94001442 	bl	c9c0 <mempool_alloc>
    78bc:	aa0003f4 	mov	x20, x0
/home/jeferson/optee/optee_os-rpi4/lib/libmbedtls/mbedtls/library/bignum.c:149
    78c0:	b4fffdc0 	cbz	x0, 7878 <mbedtls_mpi_grow+0x20>
/home/jeferson/optee/optee_os-rpi4/lib/libmbedtls/mbedtls/library/bignum.c:151
    78c4:	aa1603e2 	mov	x2, x22
    78c8:	52800001 	mov	w1, #0x0                   	// #0
    78cc:	940013ed 	bl	c880 <memset>
/home/jeferson/optee/optee_os-rpi4/lib/libmbedtls/mbedtls/library/bignum.c:160
    78d0:	f9400a61 	ldr	x1, [x19, #16]
    78d4:	b40001e1 	cbz	x1, 7910 <mbedtls_mpi_grow+0xb8>
/home/jeferson/optee/optee_os-rpi4/lib/libmbedtls/mbedtls/library/bignum.c:162
    78d8:	f9400662 	ldr	x2, [x19, #8]
    78dc:	aa1403e0 	mov	x0, x20
    78e0:	d37ef442 	lsl	x2, x2, #2
    78e4:	97ffe1cf 	bl	20 <memcpy>
mbedtls_mpi_zeroize():
/home/jeferson/optee/optee_os-rpi4/lib/libmbedtls/mbedtls/library/bignum.c:85
    78e8:	a9408261 	ldp	x1, x0, [x19, #8]
    78ec:	d37ef421 	lsl	x1, x1, #2
    78f0:	9400100d 	bl	b924 <mbedtls_platform_zeroize>
mbedtls_mpi_grow():
/home/jeferson/optee/optee_os-rpi4/lib/libmbedtls/mbedtls/library/bignum.c:164
    78f4:	79c00660 	ldrsh	w0, [x19, #2]
    78f8:	340001e0 	cbz	w0, 7934 <mbedtls_mpi_grow+0xdc>
/home/jeferson/optee/optee_os-rpi4/lib/libmbedtls/mbedtls/library/bignum.c:165
    78fc:	d0000040 	adrp	x0, 11000 <_DYNAMIC>
    7900:	f9400a61 	ldr	x1, [x19, #16]
    7904:	f940ec00 	ldr	x0, [x0, #472]
    7908:	f9400000 	ldr	x0, [x0]
    790c:	9400145a 	bl	ca74 <mempool_free>
/home/jeferson/optee/optee_os-rpi4/lib/libmbedtls/mbedtls/library/bignum.c:171
    7910:	a900d275 	stp	x21, x20, [x19, #8]
/home/jeferson/optee/optee_os-rpi4/lib/libmbedtls/mbedtls/library/bignum.c:174
    7914:	52800000 	mov	w0, #0x0                   	// #0
    7918:	17ffffd9 	b	787c <mbedtls_mpi_grow+0x24>
/home/jeferson/optee/optee_os-rpi4/lib/libmbedtls/mbedtls/library/bignum.c:155
    791c:	aa1503e0 	mov	x0, x21
    7920:	d2800081 	mov	x1, #0x4                   	// #4
    7924:	940012ca 	bl	c44c <calloc>
    7928:	aa0003f4 	mov	x20, x0
/home/jeferson/optee/optee_os-rpi4/lib/libmbedtls/mbedtls/library/bignum.c:156
    792c:	b5fffd20 	cbnz	x0, 78d0 <mbedtls_mpi_grow+0x78>
    7930:	17ffffd2 	b	7878 <mbedtls_mpi_grow+0x20>
/home/jeferson/optee/optee_os-rpi4/lib/libmbedtls/mbedtls/library/bignum.c:167
    7934:	f9400a60 	ldr	x0, [x19, #16]
    7938:	940012df 	bl	c4b4 <free>
    793c:	17fffff5 	b	7910 <mbedtls_mpi_grow+0xb8>

0000000000007940 <mbedtls_mpi_resize_clear>:
mbedtls_mpi_resize_clear():
/home/jeferson/optee/optee_os-rpi4/lib/libmbedtls/mbedtls/library/bignum.c:235
    7940:	a9be7bfd 	stp	x29, x30, [sp, #-32]!
    7944:	910003fd 	mov	x29, sp
    7948:	a90153f3 	stp	x19, x20, [sp, #16]
/home/jeferson/optee/optee_os-rpi4/lib/libmbedtls/mbedtls/library/bignum.c:236
    794c:	b50000c1 	cbnz	x1, 7964 <mbedtls_mpi_resize_clear+0x24>
/home/jeferson/optee/optee_os-rpi4/lib/libmbedtls/mbedtls/library/bignum.c:238
    7950:	97ffffa7 	bl	77ec <mbedtls_mpi_free>
/home/jeferson/optee/optee_os-rpi4/lib/libmbedtls/mbedtls/library/bignum.c:252
    7954:	52800000 	mov	w0, #0x0                   	// #0
    7958:	a94153f3 	ldp	x19, x20, [sp, #16]
    795c:	a8c27bfd 	ldp	x29, x30, [sp], #32
    7960:	d65f03c0 	ret
/home/jeferson/optee/optee_os-rpi4/lib/libmbedtls/mbedtls/library/bignum.c:241
    7964:	f9400402 	ldr	x2, [x0, #8]
    7968:	aa0003f3 	mov	x19, x0
    796c:	aa0103f4 	mov	x20, x1
    7970:	eb01005f 	cmp	x2, x1
    7974:	54000101 	b.ne	7994 <mbedtls_mpi_resize_clear+0x54>  // b.any
/home/jeferson/optee/optee_os-rpi4/lib/libmbedtls/mbedtls/library/bignum.c:243
    7978:	f9400800 	ldr	x0, [x0, #16]
    797c:	d37ef442 	lsl	x2, x2, #2
    7980:	52800001 	mov	w1, #0x0                   	// #0
    7984:	940013bf 	bl	c880 <memset>
/home/jeferson/optee/optee_os-rpi4/lib/libmbedtls/mbedtls/library/bignum.c:244
    7988:	52800020 	mov	w0, #0x1                   	// #1
    798c:	79000260 	strh	w0, [x19]
/home/jeferson/optee/optee_os-rpi4/lib/libmbedtls/mbedtls/library/bignum.c:245
    7990:	17fffff1 	b	7954 <mbedtls_mpi_resize_clear+0x14>
/home/jeferson/optee/optee_os-rpi4/lib/libmbedtls/mbedtls/library/bignum.c:249
    7994:	97ffff96 	bl	77ec <mbedtls_mpi_free>
/home/jeferson/optee/optee_os-rpi4/lib/libmbedtls/mbedtls/library/bignum.c:250
    7998:	aa1403e1 	mov	x1, x20
    799c:	aa1303e0 	mov	x0, x19
/home/jeferson/optee/optee_os-rpi4/lib/libmbedtls/mbedtls/library/bignum.c:252
    79a0:	a94153f3 	ldp	x19, x20, [sp, #16]
    79a4:	a8c27bfd 	ldp	x29, x30, [sp], #32
/home/jeferson/optee/optee_os-rpi4/lib/libmbedtls/mbedtls/library/bignum.c:250
    79a8:	17ffffac 	b	7858 <mbedtls_mpi_grow>

00000000000079ac <mbedtls_mpi_shrink>:
mbedtls_mpi_shrink():
/home/jeferson/optee/optee_os-rpi4/lib/libmbedtls/mbedtls/library/bignum.c:187
    79ac:	d284e202 	mov	x2, #0x2710                	// #10000
    79b0:	eb02003f 	cmp	x1, x2
    79b4:	54000069 	b.ls	79c0 <mbedtls_mpi_shrink+0x14>  // b.plast
/home/jeferson/optee/optee_os-rpi4/lib/libmbedtls/mbedtls/library/bignum.c:188
    79b8:	128001e0 	mov	w0, #0xfffffff0            	// #-16
/home/jeferson/optee/optee_os-rpi4/lib/libmbedtls/mbedtls/library/bignum.c:231
    79bc:	d65f03c0 	ret
/home/jeferson/optee/optee_os-rpi4/lib/libmbedtls/mbedtls/library/bignum.c:182
    79c0:	a9bd7bfd 	stp	x29, x30, [sp, #-48]!
    79c4:	aa0103e3 	mov	x3, x1
    79c8:	910003fd 	mov	x29, sp
/home/jeferson/optee/optee_os-rpi4/lib/libmbedtls/mbedtls/library/bignum.c:191
    79cc:	f9400402 	ldr	x2, [x0, #8]
/home/jeferson/optee/optee_os-rpi4/lib/libmbedtls/mbedtls/library/bignum.c:182
    79d0:	a90153f3 	stp	x19, x20, [sp, #16]
    79d4:	aa0003f3 	mov	x19, x0
    79d8:	a9025bf5 	stp	x21, x22, [sp, #32]
/home/jeferson/optee/optee_os-rpi4/lib/libmbedtls/mbedtls/library/bignum.c:191
    79dc:	eb01005f 	cmp	x2, x1
    79e0:	54000108 	b.hi	7a00 <mbedtls_mpi_shrink+0x54>  // b.pmore
/home/jeferson/optee/optee_os-rpi4/lib/libmbedtls/mbedtls/library/bignum.c:231
    79e4:	a94153f3 	ldp	x19, x20, [sp, #16]
    79e8:	a9425bf5 	ldp	x21, x22, [sp, #32]
    79ec:	a8c37bfd 	ldp	x29, x30, [sp], #48
/home/jeferson/optee/optee_os-rpi4/lib/libmbedtls/mbedtls/library/bignum.c:192
    79f0:	17ffff9a 	b	7858 <mbedtls_mpi_grow>
/home/jeferson/optee/optee_os-rpi4/lib/libmbedtls/mbedtls/library/bignum.c:196
    79f4:	f9400a60 	ldr	x0, [x19, #16]
    79f8:	b8627800 	ldr	w0, [x0, x2, lsl #2]
    79fc:	35000060 	cbnz	w0, 7a08 <mbedtls_mpi_shrink+0x5c>
/home/jeferson/optee/optee_os-rpi4/lib/libmbedtls/mbedtls/library/bignum.c:195 (discriminator 2)
    7a00:	d1000442 	sub	x2, x2, #0x1
    7a04:	b5ffff82 	cbnz	x2, 79f4 <mbedtls_mpi_shrink+0x48>
/home/jeferson/optee/optee_os-rpi4/lib/libmbedtls/mbedtls/library/bignum.c:203
    7a08:	79c00660 	ldrsh	w0, [x19, #2]
/home/jeferson/optee/optee_os-rpi4/lib/libmbedtls/mbedtls/library/bignum.c:198
    7a0c:	91000442 	add	x2, x2, #0x1
    7a10:	eb03005f 	cmp	x2, x3
    7a14:	9a832054 	csel	x20, x2, x3, cs  // cs = hs, nlast
/home/jeferson/optee/optee_os-rpi4/lib/libmbedtls/mbedtls/library/bignum.c:203
    7a18:	340003c0 	cbz	w0, 7a90 <mbedtls_mpi_shrink+0xe4>
/home/jeferson/optee/optee_os-rpi4/lib/libmbedtls/mbedtls/library/bignum.c:205
    7a1c:	d0000040 	adrp	x0, 11000 <_DYNAMIC>
    7a20:	d37ef696 	lsl	x22, x20, #2
    7a24:	aa1603e1 	mov	x1, x22
    7a28:	f940ec00 	ldr	x0, [x0, #472]
    7a2c:	f9400000 	ldr	x0, [x0]
    7a30:	940013e4 	bl	c9c0 <mempool_alloc>
    7a34:	aa0003f5 	mov	x21, x0
/home/jeferson/optee/optee_os-rpi4/lib/libmbedtls/mbedtls/library/bignum.c:206
    7a38:	b4000360 	cbz	x0, 7aa4 <mbedtls_mpi_shrink+0xf8>
/home/jeferson/optee/optee_os-rpi4/lib/libmbedtls/mbedtls/library/bignum.c:208
    7a3c:	aa1603e2 	mov	x2, x22
    7a40:	52800001 	mov	w1, #0x0                   	// #0
    7a44:	9400138f 	bl	c880 <memset>
/home/jeferson/optee/optee_os-rpi4/lib/libmbedtls/mbedtls/library/bignum.c:217
    7a48:	f9400a61 	ldr	x1, [x19, #16]
    7a4c:	b40001c1 	cbz	x1, 7a84 <mbedtls_mpi_shrink+0xd8>
/home/jeferson/optee/optee_os-rpi4/lib/libmbedtls/mbedtls/library/bignum.c:219
    7a50:	d37ef682 	lsl	x2, x20, #2
    7a54:	aa1503e0 	mov	x0, x21
    7a58:	97ffe172 	bl	20 <memcpy>
mbedtls_mpi_zeroize():
/home/jeferson/optee/optee_os-rpi4/lib/libmbedtls/mbedtls/library/bignum.c:85
    7a5c:	a9408261 	ldp	x1, x0, [x19, #8]
    7a60:	d37ef421 	lsl	x1, x1, #2
    7a64:	94000fb0 	bl	b924 <mbedtls_platform_zeroize>
mbedtls_mpi_shrink():
/home/jeferson/optee/optee_os-rpi4/lib/libmbedtls/mbedtls/library/bignum.c:221
    7a68:	79c00660 	ldrsh	w0, [x19, #2]
    7a6c:	34000260 	cbz	w0, 7ab8 <mbedtls_mpi_shrink+0x10c>
/home/jeferson/optee/optee_os-rpi4/lib/libmbedtls/mbedtls/library/bignum.c:222
    7a70:	d0000040 	adrp	x0, 11000 <_DYNAMIC>
    7a74:	f9400a61 	ldr	x1, [x19, #16]
    7a78:	f940ec00 	ldr	x0, [x0, #472]
    7a7c:	f9400000 	ldr	x0, [x0]
    7a80:	940013fd 	bl	ca74 <mempool_free>
/home/jeferson/optee/optee_os-rpi4/lib/libmbedtls/mbedtls/library/bignum.c:230
    7a84:	52800000 	mov	w0, #0x0                   	// #0
/home/jeferson/optee/optee_os-rpi4/lib/libmbedtls/mbedtls/library/bignum.c:228
    7a88:	a900d674 	stp	x20, x21, [x19, #8]
/home/jeferson/optee/optee_os-rpi4/lib/libmbedtls/mbedtls/library/bignum.c:230
    7a8c:	14000007 	b	7aa8 <mbedtls_mpi_shrink+0xfc>
/home/jeferson/optee/optee_os-rpi4/lib/libmbedtls/mbedtls/library/bignum.c:212
    7a90:	aa1403e0 	mov	x0, x20
    7a94:	d2800081 	mov	x1, #0x4                   	// #4
    7a98:	9400126d 	bl	c44c <calloc>
    7a9c:	aa0003f5 	mov	x21, x0
/home/jeferson/optee/optee_os-rpi4/lib/libmbedtls/mbedtls/library/bignum.c:213
    7aa0:	b5fffd40 	cbnz	x0, 7a48 <mbedtls_mpi_shrink+0x9c>
/home/jeferson/optee/optee_os-rpi4/lib/libmbedtls/mbedtls/library/bignum.c:188
    7aa4:	128001e0 	mov	w0, #0xfffffff0            	// #-16
/home/jeferson/optee/optee_os-rpi4/lib/libmbedtls/mbedtls/library/bignum.c:231
    7aa8:	a94153f3 	ldp	x19, x20, [sp, #16]
    7aac:	a9425bf5 	ldp	x21, x22, [sp, #32]
    7ab0:	a8c37bfd 	ldp	x29, x30, [sp], #48
    7ab4:	d65f03c0 	ret
/home/jeferson/optee/optee_os-rpi4/lib/libmbedtls/mbedtls/library/bignum.c:224
    7ab8:	f9400a60 	ldr	x0, [x19, #16]
    7abc:	9400127e 	bl	c4b4 <free>
    7ac0:	17fffff1 	b	7a84 <mbedtls_mpi_shrink+0xd8>

0000000000007ac4 <mbedtls_mpi_copy>:
mbedtls_mpi_copy():
/home/jeferson/optee/optee_os-rpi4/lib/libmbedtls/mbedtls/library/bignum.c:270
    7ac4:	eb01001f 	cmp	x0, x1
    7ac8:	54000600 	b.eq	7b88 <mbedtls_mpi_copy+0xc4>  // b.none
/home/jeferson/optee/optee_os-rpi4/lib/libmbedtls/mbedtls/library/bignum.c:264
    7acc:	a9bd7bfd 	stp	x29, x30, [sp, #-48]!
    7ad0:	910003fd 	mov	x29, sp
    7ad4:	a90153f3 	stp	x19, x20, [sp, #16]
    7ad8:	aa0003f4 	mov	x20, x0
/home/jeferson/optee/optee_os-rpi4/lib/libmbedtls/mbedtls/library/bignum.c:273
    7adc:	f9400433 	ldr	x19, [x1, #8]
/home/jeferson/optee/optee_os-rpi4/lib/libmbedtls/mbedtls/library/bignum.c:275
    7ae0:	f9400402 	ldr	x2, [x0, #8]
/home/jeferson/optee/optee_os-rpi4/lib/libmbedtls/mbedtls/library/bignum.c:264
    7ae4:	f90013f5 	str	x21, [sp, #32]
    7ae8:	aa0103f5 	mov	x21, x1
/home/jeferson/optee/optee_os-rpi4/lib/libmbedtls/mbedtls/library/bignum.c:273
    7aec:	b50001b3 	cbnz	x19, 7b20 <mbedtls_mpi_copy+0x5c>
/home/jeferson/optee/optee_os-rpi4/lib/libmbedtls/mbedtls/library/bignum.c:275
    7af0:	b40000e2 	cbz	x2, 7b0c <mbedtls_mpi_copy+0x48>
/home/jeferson/optee/optee_os-rpi4/lib/libmbedtls/mbedtls/library/bignum.c:277
    7af4:	52800020 	mov	w0, #0x1                   	// #1
    7af8:	79000280 	strh	w0, [x20]
/home/jeferson/optee/optee_os-rpi4/lib/libmbedtls/mbedtls/library/bignum.c:278
    7afc:	f9400a80 	ldr	x0, [x20, #16]
    7b00:	d37ef442 	lsl	x2, x2, #2
    7b04:	52800001 	mov	w1, #0x0                   	// #0
    7b08:	9400135e 	bl	c880 <memset>
/home/jeferson/optee/optee_os-rpi4/lib/libmbedtls/mbedtls/library/bignum.c:271
    7b0c:	52800000 	mov	w0, #0x0                   	// #0
    7b10:	1400000f 	b	7b4c <mbedtls_mpi_copy+0x88>
/home/jeferson/optee/optee_os-rpi4/lib/libmbedtls/mbedtls/library/bignum.c:284
    7b14:	f9400aa0 	ldr	x0, [x21, #16]
    7b18:	b8737800 	ldr	w0, [x0, x19, lsl #2]
    7b1c:	35000060 	cbnz	w0, 7b28 <mbedtls_mpi_copy+0x64>
/home/jeferson/optee/optee_os-rpi4/lib/libmbedtls/mbedtls/library/bignum.c:283 (discriminator 2)
    7b20:	d1000673 	sub	x19, x19, #0x1
    7b24:	b5ffff93 	cbnz	x19, 7b14 <mbedtls_mpi_copy+0x50>
/home/jeferson/optee/optee_os-rpi4/lib/libmbedtls/mbedtls/library/bignum.c:288
    7b28:	79c002a0 	ldrsh	w0, [x21]
/home/jeferson/optee/optee_os-rpi4/lib/libmbedtls/mbedtls/library/bignum.c:286
    7b2c:	91000673 	add	x19, x19, #0x1
/home/jeferson/optee/optee_os-rpi4/lib/libmbedtls/mbedtls/library/bignum.c:288
    7b30:	79000280 	strh	w0, [x20]
/home/jeferson/optee/optee_os-rpi4/lib/libmbedtls/mbedtls/library/bignum.c:290
    7b34:	eb02027f 	cmp	x19, x2
    7b38:	54000129 	b.ls	7b5c <mbedtls_mpi_copy+0x98>  // b.plast
/home/jeferson/optee/optee_os-rpi4/lib/libmbedtls/mbedtls/library/bignum.c:292
    7b3c:	aa1303e1 	mov	x1, x19
    7b40:	aa1403e0 	mov	x0, x20
    7b44:	97ffff45 	bl	7858 <mbedtls_mpi_grow>
    7b48:	34000160 	cbz	w0, 7b74 <mbedtls_mpi_copy+0xb0>
/home/jeferson/optee/optee_os-rpi4/lib/libmbedtls/mbedtls/library/bignum.c:304
    7b4c:	a94153f3 	ldp	x19, x20, [sp, #16]
    7b50:	f94013f5 	ldr	x21, [sp, #32]
    7b54:	a8c37bfd 	ldp	x29, x30, [sp], #48
    7b58:	d65f03c0 	ret
/home/jeferson/optee/optee_os-rpi4/lib/libmbedtls/mbedtls/library/bignum.c:296
    7b5c:	f9400a80 	ldr	x0, [x20, #16]
    7b60:	cb130042 	sub	x2, x2, x19
    7b64:	52800001 	mov	w1, #0x0                   	// #0
    7b68:	d37ef442 	lsl	x2, x2, #2
    7b6c:	8b130800 	add	x0, x0, x19, lsl #2
    7b70:	94001344 	bl	c880 <memset>
/home/jeferson/optee/optee_os-rpi4/lib/libmbedtls/mbedtls/library/bignum.c:299
    7b74:	f9400a80 	ldr	x0, [x20, #16]
    7b78:	d37ef662 	lsl	x2, x19, #2
    7b7c:	f9400aa1 	ldr	x1, [x21, #16]
    7b80:	97ffe128 	bl	20 <memcpy>
    7b84:	17ffffe2 	b	7b0c <mbedtls_mpi_copy+0x48>
/home/jeferson/optee/optee_os-rpi4/lib/libmbedtls/mbedtls/library/bignum.c:271
    7b88:	52800000 	mov	w0, #0x0                   	// #0
/home/jeferson/optee/optee_os-rpi4/lib/libmbedtls/mbedtls/library/bignum.c:304
    7b8c:	d65f03c0 	ret

0000000000007b90 <mbedtls_mpi_swap>:
mbedtls_mpi_swap():
/home/jeferson/optee/optee_os-rpi4/lib/libmbedtls/mbedtls/library/bignum.c:310
    7b90:	a9bb7bfd 	stp	x29, x30, [sp, #-80]!
/home/jeferson/optee/optee_os-rpi4/lib/libmbedtls/mbedtls/library/bignum.c:315
    7b94:	d2800302 	mov	x2, #0x18                  	// #24
/home/jeferson/optee/optee_os-rpi4/lib/libmbedtls/mbedtls/library/bignum.c:310
    7b98:	910003fd 	mov	x29, sp
    7b9c:	a90153f3 	stp	x19, x20, [sp, #16]
    7ba0:	d0000053 	adrp	x19, 11000 <_DYNAMIC>
    7ba4:	aa0103f4 	mov	x20, x1
    7ba8:	a9025bf5 	stp	x21, x22, [sp, #32]
    7bac:	aa0003f6 	mov	x22, x0
/home/jeferson/optee/optee_os-rpi4/lib/libmbedtls/mbedtls/library/bignum.c:315
    7bb0:	9100c3f5 	add	x21, sp, #0x30
/home/jeferson/optee/optee_os-rpi4/lib/libmbedtls/mbedtls/library/bignum.c:310
    7bb4:	f9409a60 	ldr	x0, [x19, #304]
    7bb8:	f9400001 	ldr	x1, [x0]
    7bbc:	f90027e1 	str	x1, [sp, #72]
    7bc0:	d2800001 	mov	x1, #0x0                   	// #0
/home/jeferson/optee/optee_os-rpi4/lib/libmbedtls/mbedtls/library/bignum.c:315
    7bc4:	aa1503e0 	mov	x0, x21
    7bc8:	aa1603e1 	mov	x1, x22
    7bcc:	97ffe115 	bl	20 <memcpy>
/home/jeferson/optee/optee_os-rpi4/lib/libmbedtls/mbedtls/library/bignum.c:316
    7bd0:	aa1403e1 	mov	x1, x20
    7bd4:	d2800302 	mov	x2, #0x18                  	// #24
    7bd8:	aa1603e0 	mov	x0, x22
    7bdc:	97ffe111 	bl	20 <memcpy>
/home/jeferson/optee/optee_os-rpi4/lib/libmbedtls/mbedtls/library/bignum.c:317
    7be0:	aa1503e1 	mov	x1, x21
    7be4:	aa1403e0 	mov	x0, x20
    7be8:	d2800302 	mov	x2, #0x18                  	// #24
    7bec:	97ffe10d 	bl	20 <memcpy>
/home/jeferson/optee/optee_os-rpi4/lib/libmbedtls/mbedtls/library/bignum.c:318
    7bf0:	f9409a73 	ldr	x19, [x19, #304]
    7bf4:	f94027e0 	ldr	x0, [sp, #72]
    7bf8:	f9400261 	ldr	x1, [x19]
    7bfc:	eb010000 	subs	x0, x0, x1
    7c00:	d2800001 	mov	x1, #0x0                   	// #0
    7c04:	54000040 	b.eq	7c0c <mbedtls_mpi_swap+0x7c>  // b.none
    7c08:	97ffe1ed 	bl	3bc <__stack_chk_fail>
    7c0c:	a94153f3 	ldp	x19, x20, [sp, #16]
    7c10:	a9425bf5 	ldp	x21, x22, [sp, #32]
    7c14:	a8c57bfd 	ldp	x29, x30, [sp], #80
    7c18:	d65f03c0 	ret

0000000000007c1c <mbedtls_mpi_lset>:
mbedtls_mpi_lset():
/home/jeferson/optee/optee_os-rpi4/lib/libmbedtls/mbedtls/library/bignum.c:324
    7c1c:	a9bd7bfd 	stp	x29, x30, [sp, #-48]!
    7c20:	910003fd 	mov	x29, sp
    7c24:	a90153f3 	stp	x19, x20, [sp, #16]
    7c28:	aa0003f4 	mov	x20, x0
    7c2c:	2a0103f3 	mov	w19, w1
/home/jeferson/optee/optee_os-rpi4/lib/libmbedtls/mbedtls/library/bignum.c:328
    7c30:	d2800021 	mov	x1, #0x1                   	// #1
/home/jeferson/optee/optee_os-rpi4/lib/libmbedtls/mbedtls/library/bignum.c:324
    7c34:	f90013f5 	str	x21, [sp, #32]
/home/jeferson/optee/optee_os-rpi4/lib/libmbedtls/mbedtls/library/bignum.c:328
    7c38:	97ffff08 	bl	7858 <mbedtls_mpi_grow>
    7c3c:	2a0003f5 	mov	w21, w0
    7c40:	35000180 	cbnz	w0, 7c70 <mbedtls_mpi_lset+0x54>
/home/jeferson/optee/optee_os-rpi4/lib/libmbedtls/mbedtls/library/bignum.c:329
    7c44:	a9408282 	ldp	x2, x0, [x20, #8]
    7c48:	52800001 	mov	w1, #0x0                   	// #0
    7c4c:	d37ef442 	lsl	x2, x2, #2
    7c50:	9400130c 	bl	c880 <memset>
/home/jeferson/optee/optee_os-rpi4/lib/libmbedtls/mbedtls/library/bignum.c:331
    7c54:	f9400a80 	ldr	x0, [x20, #16]
    7c58:	7100027f 	cmp	w19, #0x0
    7c5c:	5a93a673 	cneg	w19, w19, lt  // lt = tstop
    7c60:	b9000013 	str	w19, [x0]
/home/jeferson/optee/optee_os-rpi4/lib/libmbedtls/mbedtls/library/bignum.c:332
    7c64:	52800020 	mov	w0, #0x1                   	// #1
    7c68:	5a80a400 	cneg	w0, w0, lt  // lt = tstop
    7c6c:	79000280 	strh	w0, [x20]
/home/jeferson/optee/optee_os-rpi4/lib/libmbedtls/mbedtls/library/bignum.c:337
    7c70:	2a1503e0 	mov	w0, w21
    7c74:	a94153f3 	ldp	x19, x20, [sp, #16]
    7c78:	f94013f5 	ldr	x21, [sp, #32]
    7c7c:	a8c37bfd 	ldp	x29, x30, [sp], #48
    7c80:	d65f03c0 	ret

0000000000007c84 <mbedtls_mpi_get_bit>:
mbedtls_mpi_get_bit():
/home/jeferson/optee/optee_os-rpi4/lib/libmbedtls/mbedtls/library/bignum.c:346
    7c84:	f9400402 	ldr	x2, [x0, #8]
    7c88:	eb02143f 	cmp	x1, x2, lsl #5
    7c8c:	540000e2 	b.cs	7ca8 <mbedtls_mpi_get_bit+0x24>  // b.hs, b.nlast
/home/jeferson/optee/optee_os-rpi4/lib/libmbedtls/mbedtls/library/bignum.c:349
    7c90:	f9400800 	ldr	x0, [x0, #16]
    7c94:	d345fc22 	lsr	x2, x1, #5
    7c98:	b8627800 	ldr	w0, [x0, x2, lsl #2]
    7c9c:	1ac12400 	lsr	w0, w0, w1
    7ca0:	12000000 	and	w0, w0, #0x1
/home/jeferson/optee/optee_os-rpi4/lib/libmbedtls/mbedtls/library/bignum.c:350
    7ca4:	d65f03c0 	ret
/home/jeferson/optee/optee_os-rpi4/lib/libmbedtls/mbedtls/library/bignum.c:347
    7ca8:	52800000 	mov	w0, #0x0                   	// #0
    7cac:	17fffffe 	b	7ca4 <mbedtls_mpi_get_bit+0x20>

0000000000007cb0 <mbedtls_mpi_set_bit>:
mbedtls_mpi_set_bit():
/home/jeferson/optee/optee_os-rpi4/lib/libmbedtls/mbedtls/library/bignum.c:360
    7cb0:	a9bd7bfd 	stp	x29, x30, [sp, #-48]!
    7cb4:	910003fd 	mov	x29, sp
    7cb8:	a90153f3 	stp	x19, x20, [sp, #16]
    7cbc:	a9025bf5 	stp	x21, x22, [sp, #32]
    7cc0:	12001c55 	and	w21, w2, #0xff
/home/jeferson/optee/optee_os-rpi4/lib/libmbedtls/mbedtls/library/bignum.c:366
    7cc4:	710006bf 	cmp	w21, #0x1
    7cc8:	54000368 	b.hi	7d34 <mbedtls_mpi_set_bit+0x84>  // b.pmore
    7ccc:	aa0103f3 	mov	x19, x1
    7cd0:	d345fc34 	lsr	x20, x1, #5
/home/jeferson/optee/optee_os-rpi4/lib/libmbedtls/mbedtls/library/bignum.c:369
    7cd4:	f9400401 	ldr	x1, [x0, #8]
    7cd8:	aa0003f6 	mov	x22, x0
    7cdc:	eb01167f 	cmp	x19, x1, lsl #5
    7ce0:	540001a2 	b.cs	7d14 <mbedtls_mpi_set_bit+0x64>  // b.hs, b.nlast
/home/jeferson/optee/optee_os-rpi4/lib/libmbedtls/mbedtls/library/bignum.c:377
    7ce4:	f9400ac1 	ldr	x1, [x22, #16]
    7ce8:	d37ef694 	lsl	x20, x20, #2
/home/jeferson/optee/optee_os-rpi4/lib/libmbedtls/mbedtls/library/bignum.c:363
    7cec:	92401273 	and	x19, x19, #0x1f
/home/jeferson/optee/optee_os-rpi4/lib/libmbedtls/mbedtls/library/bignum.c:377
    7cf0:	52800020 	mov	w0, #0x1                   	// #1
    7cf4:	b8746822 	ldr	w2, [x1, x20]
    7cf8:	1ad32000 	lsl	w0, w0, w19
/home/jeferson/optee/optee_os-rpi4/lib/libmbedtls/mbedtls/library/bignum.c:378
    7cfc:	1ad322b5 	lsl	w21, w21, w19
/home/jeferson/optee/optee_os-rpi4/lib/libmbedtls/mbedtls/library/bignum.c:377
    7d00:	0a200040 	bic	w0, w2, w0
/home/jeferson/optee/optee_os-rpi4/lib/libmbedtls/mbedtls/library/bignum.c:378
    7d04:	2a150000 	orr	w0, w0, w21
    7d08:	b8346820 	str	w0, [x1, x20]
/home/jeferson/optee/optee_os-rpi4/lib/libmbedtls/mbedtls/library/bignum.c:372
    7d0c:	52800000 	mov	w0, #0x0                   	// #0
    7d10:	14000005 	b	7d24 <mbedtls_mpi_set_bit+0x74>
/home/jeferson/optee/optee_os-rpi4/lib/libmbedtls/mbedtls/library/bignum.c:371
    7d14:	34ffffd5 	cbz	w21, 7d0c <mbedtls_mpi_set_bit+0x5c>
/home/jeferson/optee/optee_os-rpi4/lib/libmbedtls/mbedtls/library/bignum.c:374
    7d18:	91000681 	add	x1, x20, #0x1
    7d1c:	97fffecf 	bl	7858 <mbedtls_mpi_grow>
    7d20:	34fffe20 	cbz	w0, 7ce4 <mbedtls_mpi_set_bit+0x34>
/home/jeferson/optee/optee_os-rpi4/lib/libmbedtls/mbedtls/library/bignum.c:383
    7d24:	a94153f3 	ldp	x19, x20, [sp, #16]
    7d28:	a9425bf5 	ldp	x21, x22, [sp, #32]
    7d2c:	a8c37bfd 	ldp	x29, x30, [sp], #48
    7d30:	d65f03c0 	ret
/home/jeferson/optee/optee_os-rpi4/lib/libmbedtls/mbedtls/library/bignum.c:367
    7d34:	12800060 	mov	w0, #0xfffffffc            	// #-4
    7d38:	17fffffb 	b	7d24 <mbedtls_mpi_set_bit+0x74>

0000000000007d3c <mbedtls_mpi_lsb>:
mbedtls_mpi_lsb():
/home/jeferson/optee/optee_os-rpi4/lib/libmbedtls/mbedtls/library/bignum.c:393
    7d3c:	f9400405 	ldr	x5, [x0, #8]
/home/jeferson/optee/optee_os-rpi4/lib/libmbedtls/mbedtls/library/bignum.c:389
    7d40:	aa0003e3 	mov	x3, x0
/home/jeferson/optee/optee_os-rpi4/lib/libmbedtls/mbedtls/library/bignum.c:390
    7d44:	d2800004 	mov	x4, #0x0                   	// #0
/home/jeferson/optee/optee_os-rpi4/lib/libmbedtls/mbedtls/library/bignum.c:393
    7d48:	d2800002 	mov	x2, #0x0                   	// #0
/home/jeferson/optee/optee_os-rpi4/lib/libmbedtls/mbedtls/library/bignum.c:393 (discriminator 1)
    7d4c:	eb0200bf 	cmp	x5, x2
    7d50:	54000061 	b.ne	7d5c <mbedtls_mpi_lsb+0x20>  // b.any
/home/jeferson/optee/optee_os-rpi4/lib/libmbedtls/mbedtls/library/bignum.c:398
    7d54:	d2800000 	mov	x0, #0x0                   	// #0
/home/jeferson/optee/optee_os-rpi4/lib/libmbedtls/mbedtls/library/bignum.c:399
    7d58:	d65f03c0 	ret
/home/jeferson/optee/optee_os-rpi4/lib/libmbedtls/mbedtls/library/bignum.c:395
    7d5c:	f9400860 	ldr	x0, [x3, #16]
/home/jeferson/optee/optee_os-rpi4/lib/libmbedtls/mbedtls/library/bignum.c:394
    7d60:	d2800001 	mov	x1, #0x0                   	// #0
/home/jeferson/optee/optee_os-rpi4/lib/libmbedtls/mbedtls/library/bignum.c:395
    7d64:	b8627806 	ldr	w6, [x0, x2, lsl #2]
    7d68:	8b010080 	add	x0, x4, x1
    7d6c:	1ac124c7 	lsr	w7, w6, w1
    7d70:	3707ff47 	tbnz	w7, #0, 7d58 <mbedtls_mpi_lsb+0x1c>
/home/jeferson/optee/optee_os-rpi4/lib/libmbedtls/mbedtls/library/bignum.c:394 (discriminator 2)
    7d74:	91000421 	add	x1, x1, #0x1
    7d78:	8b010080 	add	x0, x4, x1
    7d7c:	f100803f 	cmp	x1, #0x20
    7d80:	54ffff41 	b.ne	7d68 <mbedtls_mpi_lsb+0x2c>  // b.any
/home/jeferson/optee/optee_os-rpi4/lib/libmbedtls/mbedtls/library/bignum.c:393 (discriminator 2)
    7d84:	91000442 	add	x2, x2, #0x1
/home/jeferson/optee/optee_os-rpi4/lib/libmbedtls/mbedtls/library/bignum.c:394 (discriminator 2)
    7d88:	aa0003e4 	mov	x4, x0
    7d8c:	17fffff0 	b	7d4c <mbedtls_mpi_lsb+0x10>

0000000000007d90 <mbedtls_mpi_bitlen>:
mbedtls_mpi_bitlen():
/home/jeferson/optee/optee_os-rpi4/lib/libmbedtls/mbedtls/library/bignum.c:423
    7d90:	aa0003e2 	mov	x2, x0
/home/jeferson/optee/optee_os-rpi4/lib/libmbedtls/mbedtls/library/bignum.c:426
    7d94:	f9400400 	ldr	x0, [x0, #8]
    7d98:	b4000200 	cbz	x0, 7dd8 <mbedtls_mpi_bitlen+0x48>
/home/jeferson/optee/optee_os-rpi4/lib/libmbedtls/mbedtls/library/bignum.c:429
    7d9c:	d1000401 	sub	x1, x0, #0x1
/home/jeferson/optee/optee_os-rpi4/lib/libmbedtls/mbedtls/library/bignum.c:430
    7da0:	f9400840 	ldr	x0, [x2, #16]
/home/jeferson/optee/optee_os-rpi4/lib/libmbedtls/mbedtls/library/bignum.c:429 (discriminator 1)
    7da4:	b50001c1 	cbnz	x1, 7ddc <mbedtls_mpi_bitlen+0x4c>
/home/jeferson/optee/optee_os-rpi4/lib/libmbedtls/mbedtls/library/bignum.c:433
    7da8:	b8617803 	ldr	w3, [x0, x1, lsl #2]
mbedtls_clz():
/home/jeferson/optee/optee_os-rpi4/lib/libmbedtls/mbedtls/library/bignum.c:407
    7dac:	52b00002 	mov	w2, #0x80000000            	// #-2147483648
/home/jeferson/optee/optee_os-rpi4/lib/libmbedtls/mbedtls/library/bignum.c:409
    7db0:	d2800000 	mov	x0, #0x0                   	// #0
/home/jeferson/optee/optee_os-rpi4/lib/libmbedtls/mbedtls/library/bignum.c:411
    7db4:	6a02007f 	tst	w3, w2
    7db8:	540000a1 	b.ne	7dcc <mbedtls_mpi_bitlen+0x3c>  // b.any
/home/jeferson/optee/optee_os-rpi4/lib/libmbedtls/mbedtls/library/bignum.c:409
    7dbc:	91000400 	add	x0, x0, #0x1
/home/jeferson/optee/optee_os-rpi4/lib/libmbedtls/mbedtls/library/bignum.c:413
    7dc0:	53017c42 	lsr	w2, w2, #1
/home/jeferson/optee/optee_os-rpi4/lib/libmbedtls/mbedtls/library/bignum.c:409
    7dc4:	f100801f 	cmp	x0, #0x20
    7dc8:	54ffff61 	b.ne	7db4 <mbedtls_mpi_bitlen+0x24>  // b.any
mbedtls_mpi_bitlen():
/home/jeferson/optee/optee_os-rpi4/lib/libmbedtls/mbedtls/library/bignum.c:435
    7dcc:	91000421 	add	x1, x1, #0x1
    7dd0:	d37be821 	lsl	x1, x1, #5
    7dd4:	cb000020 	sub	x0, x1, x0
/home/jeferson/optee/optee_os-rpi4/lib/libmbedtls/mbedtls/library/bignum.c:436
    7dd8:	d65f03c0 	ret
/home/jeferson/optee/optee_os-rpi4/lib/libmbedtls/mbedtls/library/bignum.c:430
    7ddc:	b8617802 	ldr	w2, [x0, x1, lsl #2]
    7de0:	35fffe42 	cbnz	w2, 7da8 <mbedtls_mpi_bitlen+0x18>
/home/jeferson/optee/optee_os-rpi4/lib/libmbedtls/mbedtls/library/bignum.c:429 (discriminator 2)
    7de4:	d1000421 	sub	x1, x1, #0x1
    7de8:	17ffffef 	b	7da4 <mbedtls_mpi_bitlen+0x14>

0000000000007dec <mbedtls_mpi_size>:
mbedtls_mpi_size():
/home/jeferson/optee/optee_os-rpi4/lib/libmbedtls/mbedtls/library/bignum.c:442
    7dec:	a9bf7bfd 	stp	x29, x30, [sp, #-16]!
    7df0:	910003fd 	mov	x29, sp
/home/jeferson/optee/optee_os-rpi4/lib/libmbedtls/mbedtls/library/bignum.c:443
    7df4:	97ffffe7 	bl	7d90 <mbedtls_mpi_bitlen>
    7df8:	91001c00 	add	x0, x0, #0x7
/home/jeferson/optee/optee_os-rpi4/lib/libmbedtls/mbedtls/library/bignum.c:444
    7dfc:	a8c17bfd 	ldp	x29, x30, [sp], #16
    7e00:	d343fc00 	lsr	x0, x0, #3
    7e04:	d65f03c0 	ret

0000000000007e08 <mbedtls_mpi_read_binary_le>:
mbedtls_mpi_read_binary_le():
/home/jeferson/optee/optee_os-rpi4/lib/libmbedtls/mbedtls/library/bignum.c:838
    7e08:	a9bd7bfd 	stp	x29, x30, [sp, #-48]!
/home/jeferson/optee/optee_os-rpi4/lib/libmbedtls/mbedtls/library/bignum.c:841
    7e0c:	f240045f 	tst	x2, #0x3
/home/jeferson/optee/optee_os-rpi4/lib/libmbedtls/mbedtls/library/bignum.c:838
    7e10:	910003fd 	mov	x29, sp
    7e14:	f90013f5 	str	x21, [sp, #32]
    7e18:	aa0103f5 	mov	x21, x1
/home/jeferson/optee/optee_os-rpi4/lib/libmbedtls/mbedtls/library/bignum.c:841
    7e1c:	d342fc41 	lsr	x1, x2, #2
/home/jeferson/optee/optee_os-rpi4/lib/libmbedtls/mbedtls/library/bignum.c:838
    7e20:	a90153f3 	stp	x19, x20, [sp, #16]
/home/jeferson/optee/optee_os-rpi4/lib/libmbedtls/mbedtls/library/bignum.c:844
    7e24:	9a810421 	cinc	x1, x1, ne  // ne = any
/home/jeferson/optee/optee_os-rpi4/lib/libmbedtls/mbedtls/library/bignum.c:838
    7e28:	aa0003f4 	mov	x20, x0
    7e2c:	aa0203f3 	mov	x19, x2
/home/jeferson/optee/optee_os-rpi4/lib/libmbedtls/mbedtls/library/bignum.c:844
    7e30:	97fffec4 	bl	7940 <mbedtls_mpi_resize_clear>
    7e34:	34000220 	cbz	w0, 7e78 <mbedtls_mpi_read_binary_le+0x70>
/home/jeferson/optee/optee_os-rpi4/lib/libmbedtls/mbedtls/library/bignum.c:857
    7e38:	a94153f3 	ldp	x19, x20, [sp, #16]
    7e3c:	f94013f5 	ldr	x21, [sp, #32]
    7e40:	a8c37bfd 	ldp	x29, x30, [sp], #48
    7e44:	d65f03c0 	ret
/home/jeferson/optee/optee_os-rpi4/lib/libmbedtls/mbedtls/library/bignum.c:847 (discriminator 3)
    7e48:	f9400a85 	ldr	x5, [x20, #16]
    7e4c:	927ef464 	and	x4, x3, #0xfffffffffffffffc
    7e50:	38636aa2 	ldrb	w2, [x21, x3]
    7e54:	531d0461 	ubfiz	w1, w3, #3, #2
/home/jeferson/optee/optee_os-rpi4/lib/libmbedtls/mbedtls/library/bignum.c:846 (discriminator 3)
    7e58:	91000463 	add	x3, x3, #0x1
/home/jeferson/optee/optee_os-rpi4/lib/libmbedtls/mbedtls/library/bignum.c:847 (discriminator 3)
    7e5c:	1ac12042 	lsl	w2, w2, w1
    7e60:	b86468a1 	ldr	w1, [x5, x4]
    7e64:	2a020021 	orr	w1, w1, w2
    7e68:	b82468a1 	str	w1, [x5, x4]
/home/jeferson/optee/optee_os-rpi4/lib/libmbedtls/mbedtls/library/bignum.c:846 (discriminator 1)
    7e6c:	eb13007f 	cmp	x3, x19
    7e70:	54fffec1 	b.ne	7e48 <mbedtls_mpi_read_binary_le+0x40>  // b.any
/home/jeferson/optee/optee_os-rpi4/lib/libmbedtls/mbedtls/library/bignum.c:849
    7e74:	17fffff1 	b	7e38 <mbedtls_mpi_read_binary_le+0x30>
/home/jeferson/optee/optee_os-rpi4/lib/libmbedtls/mbedtls/library/bignum.c:846
    7e78:	d2800003 	mov	x3, #0x0                   	// #0
    7e7c:	17fffffc 	b	7e6c <mbedtls_mpi_read_binary_le+0x64>

0000000000007e80 <mbedtls_mpi_read_binary>:
mbedtls_mpi_read_binary():
/home/jeferson/optee/optee_os-rpi4/lib/libmbedtls/mbedtls/library/bignum.c:863
    7e80:	a9bc7bfd 	stp	x29, x30, [sp, #-64]!
/home/jeferson/optee/optee_os-rpi4/lib/libmbedtls/mbedtls/library/bignum.c:865
    7e84:	f240045f 	tst	x2, #0x3
/home/jeferson/optee/optee_os-rpi4/lib/libmbedtls/mbedtls/library/bignum.c:863
    7e88:	910003fd 	mov	x29, sp
    7e8c:	a90153f3 	stp	x19, x20, [sp, #16]
/home/jeferson/optee/optee_os-rpi4/lib/libmbedtls/mbedtls/library/bignum.c:865
    7e90:	d342fc54 	lsr	x20, x2, #2
    7e94:	9a940694 	cinc	x20, x20, ne  // ne = any
/home/jeferson/optee/optee_os-rpi4/lib/libmbedtls/mbedtls/library/bignum.c:863
    7e98:	aa0203f3 	mov	x19, x2
    7e9c:	a9025bf5 	stp	x21, x22, [sp, #32]
    7ea0:	aa0003f6 	mov	x22, x0
    7ea4:	f9001bf7 	str	x23, [sp, #48]
    7ea8:	aa0103f7 	mov	x23, x1
/home/jeferson/optee/optee_os-rpi4/lib/libmbedtls/mbedtls/library/bignum.c:873
    7eac:	aa1403e1 	mov	x1, x20
    7eb0:	97fffea4 	bl	7940 <mbedtls_mpi_resize_clear>
    7eb4:	2a0003f5 	mov	w21, w0
    7eb8:	350001a0 	cbnz	w0, 7eec <mbedtls_mpi_read_binary+0x6c>
/home/jeferson/optee/optee_os-rpi4/lib/libmbedtls/mbedtls/library/bignum.c:877 (discriminator 2)
    7ebc:	b4000193 	cbz	x19, 7eec <mbedtls_mpi_read_binary+0x6c>
/home/jeferson/optee/optee_os-rpi4/lib/libmbedtls/mbedtls/library/bignum.c:880
    7ec0:	f9400ac3 	ldr	x3, [x22, #16]
/home/jeferson/optee/optee_os-rpi4/lib/libmbedtls/mbedtls/library/bignum.c:866
    7ec4:	d37ef680 	lsl	x0, x20, #2
    7ec8:	cb130000 	sub	x0, x0, x19
/home/jeferson/optee/optee_os-rpi4/lib/libmbedtls/mbedtls/library/bignum.c:880
    7ecc:	aa1303e2 	mov	x2, x19
    7ed0:	aa1703e1 	mov	x1, x23
    7ed4:	8b000060 	add	x0, x3, x0
    7ed8:	97ffe052 	bl	20 <memcpy>
/home/jeferson/optee/optee_os-rpi4/lib/libmbedtls/mbedtls/library/bignum.c:882
    7edc:	f9400ac0 	ldr	x0, [x22, #16]
mpi_bigendian_to_host():
/home/jeferson/optee/optee_os-rpi4/lib/libmbedtls/mbedtls/library/bignum.c:808
    7ee0:	b4000074 	cbz	x20, 7eec <mbedtls_mpi_read_binary+0x6c>
    7ee4:	aa1403e1 	mov	x1, x20
    7ee8:	97fffdd8 	bl	7648 <mpi_bigendian_to_host.part.0>
mbedtls_mpi_read_binary():
/home/jeferson/optee/optee_os-rpi4/lib/libmbedtls/mbedtls/library/bignum.c:893
    7eec:	2a1503e0 	mov	w0, w21
    7ef0:	a94153f3 	ldp	x19, x20, [sp, #16]
    7ef4:	a9425bf5 	ldp	x21, x22, [sp, #32]
    7ef8:	f9401bf7 	ldr	x23, [sp, #48]
    7efc:	a8c47bfd 	ldp	x29, x30, [sp], #64
    7f00:	d65f03c0 	ret

0000000000007f04 <mbedtls_mpi_write_binary_le>:
mbedtls_mpi_write_binary_le():
/home/jeferson/optee/optee_os-rpi4/lib/libmbedtls/mbedtls/library/bignum.c:901
    7f04:	f9400403 	ldr	x3, [x0, #8]
/home/jeferson/optee/optee_os-rpi4/lib/libmbedtls/mbedtls/library/bignum.c:900
    7f08:	aa0103e5 	mov	x5, x1
/home/jeferson/optee/optee_os-rpi4/lib/libmbedtls/mbedtls/library/bignum.c:901
    7f0c:	d37ef463 	lsl	x3, x3, #2
/home/jeferson/optee/optee_os-rpi4/lib/libmbedtls/mbedtls/library/bignum.c:905
    7f10:	eb02007f 	cmp	x3, x2
    7f14:	54000383 	b.cc	7f84 <mbedtls_mpi_write_binary_le+0x80>  // b.lo, b.ul, b.last
    7f18:	aa0203e4 	mov	x4, x2
/home/jeferson/optee/optee_os-rpi4/lib/libmbedtls/mbedtls/library/bignum.c:915 (discriminator 1)
    7f1c:	eb03009f 	cmp	x4, x3
    7f20:	54000201 	b.ne	7f60 <mbedtls_mpi_write_binary_le+0x5c>  // b.any
    7f24:	aa0203e6 	mov	x6, x2
/home/jeferson/optee/optee_os-rpi4/lib/libmbedtls/mbedtls/library/bignum.c:922
    7f28:	d2800004 	mov	x4, #0x0                   	// #0
/home/jeferson/optee/optee_os-rpi4/lib/libmbedtls/mbedtls/library/bignum.c:922 (discriminator 1)
    7f2c:	eb0400df 	cmp	x6, x4
    7f30:	540002e1 	b.ne	7f8c <mbedtls_mpi_write_binary_le+0x88>  // b.any
/home/jeferson/optee/optee_os-rpi4/lib/libmbedtls/mbedtls/library/bignum.c:925
    7f34:	eb02007f 	cmp	x3, x2
    7f38:	540003e2 	b.cs	7fb4 <mbedtls_mpi_write_binary_le+0xb0>  // b.hs, b.nlast
/home/jeferson/optee/optee_os-rpi4/lib/libmbedtls/mbedtls/library/bignum.c:900
    7f3c:	a9bf7bfd 	stp	x29, x30, [sp, #-16]!
/home/jeferson/optee/optee_os-rpi4/lib/libmbedtls/mbedtls/library/bignum.c:928
    7f40:	cb030042 	sub	x2, x2, x3
    7f44:	8b0300a0 	add	x0, x5, x3
/home/jeferson/optee/optee_os-rpi4/lib/libmbedtls/mbedtls/library/bignum.c:900
    7f48:	910003fd 	mov	x29, sp
/home/jeferson/optee/optee_os-rpi4/lib/libmbedtls/mbedtls/library/bignum.c:928
    7f4c:	52800001 	mov	w1, #0x0                   	// #0
    7f50:	9400124c 	bl	c880 <memset>
/home/jeferson/optee/optee_os-rpi4/lib/libmbedtls/mbedtls/library/bignum.c:931
    7f54:	52800000 	mov	w0, #0x0                   	// #0
/home/jeferson/optee/optee_os-rpi4/lib/libmbedtls/mbedtls/library/bignum.c:932
    7f58:	a8c17bfd 	ldp	x29, x30, [sp], #16
    7f5c:	d65f03c0 	ret
/home/jeferson/optee/optee_os-rpi4/lib/libmbedtls/mbedtls/library/bignum.c:917
    7f60:	f9400807 	ldr	x7, [x0, #16]
    7f64:	927ef481 	and	x1, x4, #0xfffffffffffffffc
    7f68:	531d0486 	ubfiz	w6, w4, #3, #2
    7f6c:	b86168e1 	ldr	w1, [x7, x1]
    7f70:	1ac62421 	lsr	w1, w1, w6
    7f74:	72001c3f 	tst	w1, #0xff
    7f78:	540001a1 	b.ne	7fac <mbedtls_mpi_write_binary_le+0xa8>  // b.any
/home/jeferson/optee/optee_os-rpi4/lib/libmbedtls/mbedtls/library/bignum.c:915 (discriminator 2)
    7f7c:	91000484 	add	x4, x4, #0x1
    7f80:	17ffffe7 	b	7f1c <mbedtls_mpi_write_binary_le+0x18>
    7f84:	aa0303e6 	mov	x6, x3
    7f88:	17ffffe8 	b	7f28 <mbedtls_mpi_write_binary_le+0x24>
/home/jeferson/optee/optee_os-rpi4/lib/libmbedtls/mbedtls/library/bignum.c:923 (discriminator 3)
    7f8c:	f9400808 	ldr	x8, [x0, #16]
    7f90:	927ef481 	and	x1, x4, #0xfffffffffffffffc
    7f94:	531d0487 	ubfiz	w7, w4, #3, #2
    7f98:	b8616901 	ldr	w1, [x8, x1]
    7f9c:	1ac72421 	lsr	w1, w1, w7
    7fa0:	382468a1 	strb	w1, [x5, x4]
/home/jeferson/optee/optee_os-rpi4/lib/libmbedtls/mbedtls/library/bignum.c:922 (discriminator 3)
    7fa4:	91000484 	add	x4, x4, #0x1
    7fa8:	17ffffe1 	b	7f2c <mbedtls_mpi_write_binary_le+0x28>
/home/jeferson/optee/optee_os-rpi4/lib/libmbedtls/mbedtls/library/bignum.c:918
    7fac:	128000e0 	mov	w0, #0xfffffff8            	// #-8
    7fb0:	d65f03c0 	ret
/home/jeferson/optee/optee_os-rpi4/lib/libmbedtls/mbedtls/library/bignum.c:931
    7fb4:	52800000 	mov	w0, #0x0                   	// #0
/home/jeferson/optee/optee_os-rpi4/lib/libmbedtls/mbedtls/library/bignum.c:932
    7fb8:	d65f03c0 	ret

0000000000007fbc <mbedtls_mpi_write_binary>:
mbedtls_mpi_write_binary():
/home/jeferson/optee/optee_os-rpi4/lib/libmbedtls/mbedtls/library/bignum.c:939
    7fbc:	a9bd7bfd 	stp	x29, x30, [sp, #-48]!
    7fc0:	910003fd 	mov	x29, sp
    7fc4:	a90153f3 	stp	x19, x20, [sp, #16]
    7fc8:	aa0003f4 	mov	x20, x0
    7fcc:	aa0103e0 	mov	x0, x1
/home/jeferson/optee/optee_os-rpi4/lib/libmbedtls/mbedtls/library/bignum.c:948
    7fd0:	f9400693 	ldr	x19, [x20, #8]
/home/jeferson/optee/optee_os-rpi4/lib/libmbedtls/mbedtls/library/bignum.c:939
    7fd4:	f90013f5 	str	x21, [sp, #32]
/home/jeferson/optee/optee_os-rpi4/lib/libmbedtls/mbedtls/library/bignum.c:948
    7fd8:	d37ef673 	lsl	x19, x19, #2
/home/jeferson/optee/optee_os-rpi4/lib/libmbedtls/mbedtls/library/bignum.c:950
    7fdc:	eb02027f 	cmp	x19, x2
    7fe0:	54000382 	b.cs	8050 <mbedtls_mpi_write_binary+0x94>  // b.hs, b.nlast
/home/jeferson/optee/optee_os-rpi4/lib/libmbedtls/mbedtls/library/bignum.c:958
    7fe4:	cb130042 	sub	x2, x2, x19
    7fe8:	8b020035 	add	x21, x1, x2
/home/jeferson/optee/optee_os-rpi4/lib/libmbedtls/mbedtls/library/bignum.c:959
    7fec:	52800001 	mov	w1, #0x0                   	// #0
    7ff0:	94001224 	bl	c880 <memset>
/home/jeferson/optee/optee_os-rpi4/lib/libmbedtls/mbedtls/library/bignum.c:958
    7ff4:	aa1503e0 	mov	x0, x21
    7ff8:	aa1303e2 	mov	x2, x19
/home/jeferson/optee/optee_os-rpi4/lib/libmbedtls/mbedtls/library/bignum.c:974
    7ffc:	8b020001 	add	x1, x0, x2
    8000:	d2800003 	mov	x3, #0x0                   	// #0
/home/jeferson/optee/optee_os-rpi4/lib/libmbedtls/mbedtls/library/bignum.c:974 (discriminator 1)
    8004:	d1000421 	sub	x1, x1, #0x1
    8008:	eb03005f 	cmp	x2, x3
    800c:	54000261 	b.ne	8058 <mbedtls_mpi_write_binary+0x9c>  // b.any
/home/jeferson/optee/optee_os-rpi4/lib/libmbedtls/mbedtls/library/bignum.c:977
    8010:	52800000 	mov	w0, #0x0                   	// #0
/home/jeferson/optee/optee_os-rpi4/lib/libmbedtls/mbedtls/library/bignum.c:978
    8014:	a94153f3 	ldp	x19, x20, [sp, #16]
    8018:	f94013f5 	ldr	x21, [sp, #32]
    801c:	a8c37bfd 	ldp	x29, x30, [sp], #48
    8020:	d65f03c0 	ret
/home/jeferson/optee/optee_os-rpi4/lib/libmbedtls/mbedtls/library/bignum.c:969
    8024:	f9400a85 	ldr	x5, [x20, #16]
    8028:	927ef423 	and	x3, x1, #0xfffffffffffffffc
    802c:	531d0424 	ubfiz	w4, w1, #3, #2
    8030:	b86368a3 	ldr	w3, [x5, x3]
    8034:	1ac42463 	lsr	w3, w3, w4
    8038:	72001c7f 	tst	w3, #0xff
    803c:	540001e1 	b.ne	8078 <mbedtls_mpi_write_binary+0xbc>  // b.any
/home/jeferson/optee/optee_os-rpi4/lib/libmbedtls/mbedtls/library/bignum.c:967 (discriminator 2)
    8040:	91000421 	add	x1, x1, #0x1
/home/jeferson/optee/optee_os-rpi4/lib/libmbedtls/mbedtls/library/bignum.c:967 (discriminator 1)
    8044:	eb13003f 	cmp	x1, x19
    8048:	54fffee1 	b.ne	8024 <mbedtls_mpi_write_binary+0x68>  // b.any
    804c:	17ffffec 	b	7ffc <mbedtls_mpi_write_binary+0x40>
    8050:	aa0203e1 	mov	x1, x2
    8054:	17fffffc 	b	8044 <mbedtls_mpi_write_binary+0x88>
/home/jeferson/optee/optee_os-rpi4/lib/libmbedtls/mbedtls/library/bignum.c:975 (discriminator 3)
    8058:	f9400a85 	ldr	x5, [x20, #16]
    805c:	927ef460 	and	x0, x3, #0xfffffffffffffffc
    8060:	531d0464 	ubfiz	w4, w3, #3, #2
/home/jeferson/optee/optee_os-rpi4/lib/libmbedtls/mbedtls/library/bignum.c:974 (discriminator 3)
    8064:	91000463 	add	x3, x3, #0x1
/home/jeferson/optee/optee_os-rpi4/lib/libmbedtls/mbedtls/library/bignum.c:975 (discriminator 3)
    8068:	b86068a0 	ldr	w0, [x5, x0]
    806c:	1ac42400 	lsr	w0, w0, w4
    8070:	39000020 	strb	w0, [x1]
/home/jeferson/optee/optee_os-rpi4/lib/libmbedtls/mbedtls/library/bignum.c:974 (discriminator 3)
    8074:	17ffffe4 	b	8004 <mbedtls_mpi_write_binary+0x48>
/home/jeferson/optee/optee_os-rpi4/lib/libmbedtls/mbedtls/library/bignum.c:970
    8078:	128000e0 	mov	w0, #0xfffffff8            	// #-8
    807c:	17ffffe6 	b	8014 <mbedtls_mpi_write_binary+0x58>

0000000000008080 <mbedtls_mpi_shift_l>:
mbedtls_mpi_shift_l():
/home/jeferson/optee/optee_os-rpi4/lib/libmbedtls/mbedtls/library/bignum.c:984
    8080:	a9bd7bfd 	stp	x29, x30, [sp, #-48]!
    8084:	910003fd 	mov	x29, sp
    8088:	a90153f3 	stp	x19, x20, [sp, #16]
    808c:	aa0003f3 	mov	x19, x0
/home/jeferson/optee/optee_os-rpi4/lib/libmbedtls/mbedtls/library/bignum.c:990
    8090:	d345fc34 	lsr	x20, x1, #5
/home/jeferson/optee/optee_os-rpi4/lib/libmbedtls/mbedtls/library/bignum.c:984
    8094:	a9025bf5 	stp	x21, x22, [sp, #32]
    8098:	aa0103f5 	mov	x21, x1
/home/jeferson/optee/optee_os-rpi4/lib/libmbedtls/mbedtls/library/bignum.c:991
    809c:	92401036 	and	x22, x1, #0x1f
/home/jeferson/optee/optee_os-rpi4/lib/libmbedtls/mbedtls/library/bignum.c:993
    80a0:	97ffff3c 	bl	7d90 <mbedtls_mpi_bitlen>
    80a4:	8b150000 	add	x0, x0, x21
/home/jeferson/optee/optee_os-rpi4/lib/libmbedtls/mbedtls/library/bignum.c:995
    80a8:	f9400661 	ldr	x1, [x19, #8]
    80ac:	eb01141f 	cmp	x0, x1, lsl #5
    80b0:	540000c8 	b.hi	80c8 <mbedtls_mpi_shift_l+0x48>  // b.pmore
/home/jeferson/optee/optee_os-rpi4/lib/libmbedtls/mbedtls/library/bignum.c:1003
    80b4:	f1007ebf 	cmp	x21, #0x1f
    80b8:	540001c8 	b.hi	80f0 <mbedtls_mpi_shift_l+0x70>  // b.pmore
/home/jeferson/optee/optee_os-rpi4/lib/libmbedtls/mbedtls/library/bignum.c:1015
    80bc:	b50004d6 	cbnz	x22, 8154 <mbedtls_mpi_shift_l+0xd4>
/home/jeferson/optee/optee_os-rpi4/lib/libmbedtls/mbedtls/library/bignum.c:998
    80c0:	52800000 	mov	w0, #0x0                   	// #0
    80c4:	14000007 	b	80e0 <mbedtls_mpi_shift_l+0x60>
/home/jeferson/optee/optee_os-rpi4/lib/libmbedtls/mbedtls/library/bignum.c:996
    80c8:	f240101f 	tst	x0, #0x1f
    80cc:	d345fc00 	lsr	x0, x0, #5
    80d0:	9a800401 	cinc	x1, x0, ne  // ne = any
    80d4:	aa1303e0 	mov	x0, x19
    80d8:	97fffde0 	bl	7858 <mbedtls_mpi_grow>
    80dc:	34fffec0 	cbz	w0, 80b4 <mbedtls_mpi_shift_l+0x34>
/home/jeferson/optee/optee_os-rpi4/lib/libmbedtls/mbedtls/library/bignum.c:1029
    80e0:	a94153f3 	ldp	x19, x20, [sp, #16]
    80e4:	a9425bf5 	ldp	x21, x22, [sp, #32]
    80e8:	a8c37bfd 	ldp	x29, x30, [sp], #48
    80ec:	d65f03c0 	ret
/home/jeferson/optee/optee_os-rpi4/lib/libmbedtls/mbedtls/library/bignum.c:1005
    80f0:	f9400661 	ldr	x1, [x19, #8]
    80f4:	92800063 	mov	x3, #0xfffffffffffffffc    	// #-4
    80f8:	9b037e83 	mul	x3, x20, x3
    80fc:	aa0103e2 	mov	x2, x1
    8100:	d37ef420 	lsl	x0, x1, #2
    8104:	d1001000 	sub	x0, x0, #0x4
/home/jeferson/optee/optee_os-rpi4/lib/libmbedtls/mbedtls/library/bignum.c:1005 (discriminator 1)
    8108:	eb14005f 	cmp	x2, x20
    810c:	54000168 	b.hi	8138 <mbedtls_mpi_shift_l+0xb8>  // b.pmore
    8110:	eb010280 	subs	x0, x20, x1
    8114:	9a9f9000 	csel	x0, x0, xzr, ls  // ls = plast
    8118:	8b000021 	add	x1, x1, x0
    811c:	d37ef421 	lsl	x1, x1, #2
/home/jeferson/optee/optee_os-rpi4/lib/libmbedtls/mbedtls/library/bignum.c:1008 (discriminator 2)
    8120:	d1001021 	sub	x1, x1, #0x4
    8124:	b100103f 	cmn	x1, #0x4
    8128:	54fffca0 	b.eq	80bc <mbedtls_mpi_shift_l+0x3c>  // b.none
/home/jeferson/optee/optee_os-rpi4/lib/libmbedtls/mbedtls/library/bignum.c:1009 (discriminator 2)
    812c:	f9400a60 	ldr	x0, [x19, #16]
    8130:	b821681f 	str	wzr, [x0, x1]
    8134:	17fffffb 	b	8120 <mbedtls_mpi_shift_l+0xa0>
/home/jeferson/optee/optee_os-rpi4/lib/libmbedtls/mbedtls/library/bignum.c:1006 (discriminator 3)
    8138:	f9400a64 	ldr	x4, [x19, #16]
/home/jeferson/optee/optee_os-rpi4/lib/libmbedtls/mbedtls/library/bignum.c:1005 (discriminator 3)
    813c:	d1000442 	sub	x2, x2, #0x1
/home/jeferson/optee/optee_os-rpi4/lib/libmbedtls/mbedtls/library/bignum.c:1006 (discriminator 3)
    8140:	8b030085 	add	x5, x4, x3
    8144:	b86068a5 	ldr	w5, [x5, x0]
    8148:	b8206885 	str	w5, [x4, x0]
/home/jeferson/optee/optee_os-rpi4/lib/libmbedtls/mbedtls/library/bignum.c:1005 (discriminator 3)
    814c:	d1001000 	sub	x0, x0, #0x4
    8150:	17ffffee 	b	8108 <mbedtls_mpi_shift_l+0x88>
/home/jeferson/optee/optee_os-rpi4/lib/libmbedtls/mbedtls/library/bignum.c:1017
    8154:	f9400666 	ldr	x6, [x19, #8]
/home/jeferson/optee/optee_os-rpi4/lib/libmbedtls/mbedtls/library/bignum.c:1019
    8158:	52800400 	mov	w0, #0x20                  	// #32
    815c:	4b160000 	sub	w0, w0, w22
/home/jeferson/optee/optee_os-rpi4/lib/libmbedtls/mbedtls/library/bignum.c:987
    8160:	52800002 	mov	w2, #0x0                   	// #0
/home/jeferson/optee/optee_os-rpi4/lib/libmbedtls/mbedtls/library/bignum.c:1017 (discriminator 1)
    8164:	eb1400df 	cmp	x6, x20
    8168:	54fffac9 	b.ls	80c0 <mbedtls_mpi_shift_l+0x40>  // b.plast
/home/jeferson/optee/optee_os-rpi4/lib/libmbedtls/mbedtls/library/bignum.c:1019 (discriminator 3)
    816c:	f9400a65 	ldr	x5, [x19, #16]
    8170:	d37ef684 	lsl	x4, x20, #2
/home/jeferson/optee/optee_os-rpi4/lib/libmbedtls/mbedtls/library/bignum.c:1017 (discriminator 3)
    8174:	91000694 	add	x20, x20, #0x1
/home/jeferson/optee/optee_os-rpi4/lib/libmbedtls/mbedtls/library/bignum.c:1019 (discriminator 3)
    8178:	b86468a3 	ldr	w3, [x5, x4]
/home/jeferson/optee/optee_os-rpi4/lib/libmbedtls/mbedtls/library/bignum.c:1020 (discriminator 3)
    817c:	1ad62061 	lsl	w1, w3, w22
/home/jeferson/optee/optee_os-rpi4/lib/libmbedtls/mbedtls/library/bignum.c:1021 (discriminator 3)
    8180:	2a020021 	orr	w1, w1, w2
/home/jeferson/optee/optee_os-rpi4/lib/libmbedtls/mbedtls/library/bignum.c:1022 (discriminator 3)
    8184:	1ac02462 	lsr	w2, w3, w0
/home/jeferson/optee/optee_os-rpi4/lib/libmbedtls/mbedtls/library/bignum.c:1021 (discriminator 3)
    8188:	b82468a1 	str	w1, [x5, x4]
/home/jeferson/optee/optee_os-rpi4/lib/libmbedtls/mbedtls/library/bignum.c:1017 (discriminator 3)
    818c:	17fffff6 	b	8164 <mbedtls_mpi_shift_l+0xe4>

0000000000008190 <mbedtls_mpi_shift_r>:
mbedtls_mpi_shift_r():
/home/jeferson/optee/optee_os-rpi4/lib/libmbedtls/mbedtls/library/bignum.c:1043
    8190:	f9400402 	ldr	x2, [x0, #8]
/home/jeferson/optee/optee_os-rpi4/lib/libmbedtls/mbedtls/library/bignum.c:1040
    8194:	d345fc26 	lsr	x6, x1, #5
/home/jeferson/optee/optee_os-rpi4/lib/libmbedtls/mbedtls/library/bignum.c:1041
    8198:	92401024 	and	x4, x1, #0x1f
/home/jeferson/optee/optee_os-rpi4/lib/libmbedtls/mbedtls/library/bignum.c:1043
    819c:	eb06005f 	cmp	x2, x6
    81a0:	54000063 	b.cc	81ac <mbedtls_mpi_shift_r+0x1c>  // b.lo, b.ul, b.last
/home/jeferson/optee/optee_os-rpi4/lib/libmbedtls/mbedtls/library/bignum.c:1043 (discriminator 1)
    81a4:	54000081 	b.ne	81b4 <mbedtls_mpi_shift_r+0x24>  // b.any
/home/jeferson/optee/optee_os-rpi4/lib/libmbedtls/mbedtls/library/bignum.c:1043 (discriminator 2)
    81a8:	b40004a4 	cbz	x4, 823c <mbedtls_mpi_shift_r+0xac>
/home/jeferson/optee/optee_os-rpi4/lib/libmbedtls/mbedtls/library/bignum.c:1044
    81ac:	52800001 	mov	w1, #0x0                   	// #0
    81b0:	17fffe9b 	b	7c1c <mbedtls_mpi_lset>
/home/jeferson/optee/optee_os-rpi4/lib/libmbedtls/mbedtls/library/bignum.c:1049
    81b4:	f1007c3f 	cmp	x1, #0x1f
    81b8:	54000468 	b.hi	8244 <mbedtls_mpi_shift_r+0xb4>  // b.pmore
/home/jeferson/optee/optee_os-rpi4/lib/libmbedtls/mbedtls/library/bignum.c:1061
    81bc:	b5000384 	cbnz	x4, 822c <mbedtls_mpi_shift_r+0x9c>
/home/jeferson/optee/optee_os-rpi4/lib/libmbedtls/mbedtls/library/bignum.c:1073
    81c0:	52800000 	mov	w0, #0x0                   	// #0
    81c4:	d65f03c0 	ret
/home/jeferson/optee/optee_os-rpi4/lib/libmbedtls/mbedtls/library/bignum.c:1052 (discriminator 3)
    81c8:	f9400801 	ldr	x1, [x0, #16]
    81cc:	b8656827 	ldr	w7, [x1, x5]
    81d0:	910010a5 	add	x5, x5, #0x4
    81d4:	b8237827 	str	w7, [x1, x3, lsl #2]
/home/jeferson/optee/optee_os-rpi4/lib/libmbedtls/mbedtls/library/bignum.c:1051 (discriminator 3)
    81d8:	91000463 	add	x3, x3, #0x1
/home/jeferson/optee/optee_os-rpi4/lib/libmbedtls/mbedtls/library/bignum.c:1051 (discriminator 1)
    81dc:	cb060041 	sub	x1, x2, x6
    81e0:	eb03003f 	cmp	x1, x3
    81e4:	54ffff28 	b.hi	81c8 <mbedtls_mpi_shift_r+0x38>  // b.pmore
/home/jeferson/optee/optee_os-rpi4/lib/libmbedtls/mbedtls/library/bignum.c:1054 (discriminator 1)
    81e8:	eb01005f 	cmp	x2, x1
    81ec:	54fffe89 	b.ls	81bc <mbedtls_mpi_shift_r+0x2c>  // b.plast
/home/jeferson/optee/optee_os-rpi4/lib/libmbedtls/mbedtls/library/bignum.c:1055 (discriminator 2)
    81f0:	f9400803 	ldr	x3, [x0, #16]
    81f4:	b821787f 	str	wzr, [x3, x1, lsl #2]
/home/jeferson/optee/optee_os-rpi4/lib/libmbedtls/mbedtls/library/bignum.c:1054 (discriminator 2)
    81f8:	91000421 	add	x1, x1, #0x1
    81fc:	17fffffb 	b	81e8 <mbedtls_mpi_shift_r+0x58>
/home/jeferson/optee/optee_os-rpi4/lib/libmbedtls/mbedtls/library/bignum.c:1065 (discriminator 3)
    8200:	f9400808 	ldr	x8, [x0, #16]
    8204:	d37ef441 	lsl	x1, x2, #2
    8208:	b8616907 	ldr	w7, [x8, x1]
/home/jeferson/optee/optee_os-rpi4/lib/libmbedtls/mbedtls/library/bignum.c:1066 (discriminator 3)
    820c:	1ac424e5 	lsr	w5, w7, w4
/home/jeferson/optee/optee_os-rpi4/lib/libmbedtls/mbedtls/library/bignum.c:1067 (discriminator 3)
    8210:	2a0600a5 	orr	w5, w5, w6
/home/jeferson/optee/optee_os-rpi4/lib/libmbedtls/mbedtls/library/bignum.c:1068 (discriminator 3)
    8214:	1ac320e6 	lsl	w6, w7, w3
/home/jeferson/optee/optee_os-rpi4/lib/libmbedtls/mbedtls/library/bignum.c:1067 (discriminator 3)
    8218:	b8216905 	str	w5, [x8, x1]
/home/jeferson/optee/optee_os-rpi4/lib/libmbedtls/mbedtls/library/bignum.c:1063 (discriminator 1)
    821c:	d1000442 	sub	x2, x2, #0x1
    8220:	b100045f 	cmn	x2, #0x1
    8224:	54fffee1 	b.ne	8200 <mbedtls_mpi_shift_r+0x70>  // b.any
    8228:	17ffffe6 	b	81c0 <mbedtls_mpi_shift_r+0x30>
/home/jeferson/optee/optee_os-rpi4/lib/libmbedtls/mbedtls/library/bignum.c:1065
    822c:	52800403 	mov	w3, #0x20                  	// #32
/home/jeferson/optee/optee_os-rpi4/lib/libmbedtls/mbedtls/library/bignum.c:1037
    8230:	52800006 	mov	w6, #0x0                   	// #0
/home/jeferson/optee/optee_os-rpi4/lib/libmbedtls/mbedtls/library/bignum.c:1065
    8234:	4b040063 	sub	w3, w3, w4
    8238:	17fffff9 	b	821c <mbedtls_mpi_shift_r+0x8c>
/home/jeferson/optee/optee_os-rpi4/lib/libmbedtls/mbedtls/library/bignum.c:1049
    823c:	f1007c3f 	cmp	x1, #0x1f
    8240:	54fffc09 	b.ls	81c0 <mbedtls_mpi_shift_r+0x30>  // b.plast
    8244:	d37ef4c5 	lsl	x5, x6, #2
/home/jeferson/optee/optee_os-rpi4/lib/libmbedtls/mbedtls/library/bignum.c:1035 (discriminator 1)
    8248:	d2800003 	mov	x3, #0x0                   	// #0
    824c:	17ffffe4 	b	81dc <mbedtls_mpi_shift_r+0x4c>

0000000000008250 <mbedtls_mpi_cmp_abs>:
mbedtls_mpi_cmp_abs():
/home/jeferson/optee/optee_os-rpi4/lib/libmbedtls/mbedtls/library/bignum.c:1084
    8250:	f9400402 	ldr	x2, [x0, #8]
/home/jeferson/optee/optee_os-rpi4/lib/libmbedtls/mbedtls/library/bignum.c:1084 (discriminator 1)
    8254:	b50000c2 	cbnz	x2, 826c <mbedtls_mpi_cmp_abs+0x1c>
/home/jeferson/optee/optee_os-rpi4/lib/libmbedtls/mbedtls/library/bignum.c:1088
    8258:	f9400423 	ldr	x3, [x1, #8]
/home/jeferson/optee/optee_os-rpi4/lib/libmbedtls/mbedtls/library/bignum.c:1088 (discriminator 1)
    825c:	b5000143 	cbnz	x3, 8284 <mbedtls_mpi_cmp_abs+0x34>
/home/jeferson/optee/optee_os-rpi4/lib/libmbedtls/mbedtls/library/bignum.c:1092
    8260:	f100005f 	cmp	x2, #0x0
    8264:	1a9f07e0 	cset	w0, ne  // ne = any
/home/jeferson/optee/optee_os-rpi4/lib/libmbedtls/mbedtls/library/bignum.c:1105
    8268:	d65f03c0 	ret
/home/jeferson/optee/optee_os-rpi4/lib/libmbedtls/mbedtls/library/bignum.c:1085
    826c:	f9400803 	ldr	x3, [x0, #16]
    8270:	8b020863 	add	x3, x3, x2, lsl #2
    8274:	b85fc063 	ldur	w3, [x3, #-4]
    8278:	35ffff03 	cbnz	w3, 8258 <mbedtls_mpi_cmp_abs+0x8>
/home/jeferson/optee/optee_os-rpi4/lib/libmbedtls/mbedtls/library/bignum.c:1084 (discriminator 2)
    827c:	d1000442 	sub	x2, x2, #0x1
    8280:	17fffff5 	b	8254 <mbedtls_mpi_cmp_abs+0x4>
/home/jeferson/optee/optee_os-rpi4/lib/libmbedtls/mbedtls/library/bignum.c:1089
    8284:	f9400824 	ldr	x4, [x1, #16]
    8288:	8b030885 	add	x5, x4, x3, lsl #2
    828c:	b85fc0a5 	ldur	w5, [x5, #-4]
    8290:	35000065 	cbnz	w5, 829c <mbedtls_mpi_cmp_abs+0x4c>
/home/jeferson/optee/optee_os-rpi4/lib/libmbedtls/mbedtls/library/bignum.c:1088 (discriminator 2)
    8294:	d1000463 	sub	x3, x3, #0x1
    8298:	17fffff1 	b	825c <mbedtls_mpi_cmp_abs+0xc>
/home/jeferson/optee/optee_os-rpi4/lib/libmbedtls/mbedtls/library/bignum.c:1095
    829c:	eb03005f 	cmp	x2, x3
    82a0:	54000228 	b.hi	82e4 <mbedtls_mpi_cmp_abs+0x94>  // b.pmore
/home/jeferson/optee/optee_os-rpi4/lib/libmbedtls/mbedtls/library/bignum.c:1096
    82a4:	540001c3 	b.cc	82dc <mbedtls_mpi_cmp_abs+0x8c>  // b.lo, b.ul, b.last
    82a8:	d1000442 	sub	x2, x2, #0x1
/home/jeferson/optee/optee_os-rpi4/lib/libmbedtls/mbedtls/library/bignum.c:1098 (discriminator 1)
    82ac:	b100045f 	cmn	x2, #0x1
    82b0:	54000061 	b.ne	82bc <mbedtls_mpi_cmp_abs+0x6c>  // b.any
/home/jeferson/optee/optee_os-rpi4/lib/libmbedtls/mbedtls/library/bignum.c:1093
    82b4:	52800000 	mov	w0, #0x0                   	// #0
    82b8:	17ffffec 	b	8268 <mbedtls_mpi_cmp_abs+0x18>
/home/jeferson/optee/optee_os-rpi4/lib/libmbedtls/mbedtls/library/bignum.c:1100
    82bc:	f9400803 	ldr	x3, [x0, #16]
    82c0:	d37ef441 	lsl	x1, x2, #2
    82c4:	b8616863 	ldr	w3, [x3, x1]
    82c8:	b8616881 	ldr	w1, [x4, x1]
    82cc:	6b01007f 	cmp	w3, w1
    82d0:	540000a8 	b.hi	82e4 <mbedtls_mpi_cmp_abs+0x94>  // b.pmore
/home/jeferson/optee/optee_os-rpi4/lib/libmbedtls/mbedtls/library/bignum.c:1101
    82d4:	d1000442 	sub	x2, x2, #0x1
    82d8:	54fffea2 	b.cs	82ac <mbedtls_mpi_cmp_abs+0x5c>  // b.hs, b.nlast
/home/jeferson/optee/optee_os-rpi4/lib/libmbedtls/mbedtls/library/bignum.c:1096
    82dc:	12800000 	mov	w0, #0xffffffff            	// #-1
    82e0:	17ffffe2 	b	8268 <mbedtls_mpi_cmp_abs+0x18>
/home/jeferson/optee/optee_os-rpi4/lib/libmbedtls/mbedtls/library/bignum.c:1095
    82e4:	52800020 	mov	w0, #0x1                   	// #1
    82e8:	17ffffe0 	b	8268 <mbedtls_mpi_cmp_abs+0x18>

00000000000082ec <mbedtls_mpi_cmp_mpi>:
mbedtls_mpi_cmp_mpi():
/home/jeferson/optee/optee_os-rpi4/lib/libmbedtls/mbedtls/library/bignum.c:1116
    82ec:	f9400402 	ldr	x2, [x0, #8]
/home/jeferson/optee/optee_os-rpi4/lib/libmbedtls/mbedtls/library/bignum.c:1111
    82f0:	aa0003e3 	mov	x3, x0
/home/jeferson/optee/optee_os-rpi4/lib/libmbedtls/mbedtls/library/bignum.c:1116 (discriminator 1)
    82f4:	b50000c2 	cbnz	x2, 830c <mbedtls_mpi_cmp_mpi+0x20>
/home/jeferson/optee/optee_os-rpi4/lib/libmbedtls/mbedtls/library/bignum.c:1120
    82f8:	f9400420 	ldr	x0, [x1, #8]
/home/jeferson/optee/optee_os-rpi4/lib/libmbedtls/mbedtls/library/bignum.c:1120 (discriminator 1)
    82fc:	b5000140 	cbnz	x0, 8324 <mbedtls_mpi_cmp_mpi+0x38>
/home/jeferson/optee/optee_os-rpi4/lib/libmbedtls/mbedtls/library/bignum.c:1124
    8300:	b40005a2 	cbz	x2, 83b4 <mbedtls_mpi_cmp_mpi+0xc8>
/home/jeferson/optee/optee_os-rpi4/lib/libmbedtls/mbedtls/library/bignum.c:1127 (discriminator 1)
    8304:	79c00060 	ldrsh	w0, [x3]
/home/jeferson/optee/optee_os-rpi4/lib/libmbedtls/mbedtls/library/bignum.c:1140
    8308:	d65f03c0 	ret
/home/jeferson/optee/optee_os-rpi4/lib/libmbedtls/mbedtls/library/bignum.c:1117
    830c:	f9400860 	ldr	x0, [x3, #16]
    8310:	8b020800 	add	x0, x0, x2, lsl #2
    8314:	b85fc000 	ldur	w0, [x0, #-4]
    8318:	35ffff00 	cbnz	w0, 82f8 <mbedtls_mpi_cmp_mpi+0xc>
/home/jeferson/optee/optee_os-rpi4/lib/libmbedtls/mbedtls/library/bignum.c:1116 (discriminator 2)
    831c:	d1000442 	sub	x2, x2, #0x1
    8320:	17fffff5 	b	82f4 <mbedtls_mpi_cmp_mpi+0x8>
/home/jeferson/optee/optee_os-rpi4/lib/libmbedtls/mbedtls/library/bignum.c:1121
    8324:	f9400824 	ldr	x4, [x1, #16]
    8328:	8b000885 	add	x5, x4, x0, lsl #2
    832c:	b85fc0a5 	ldur	w5, [x5, #-4]
    8330:	35000065 	cbnz	w5, 833c <mbedtls_mpi_cmp_mpi+0x50>
/home/jeferson/optee/optee_os-rpi4/lib/libmbedtls/mbedtls/library/bignum.c:1120 (discriminator 2)
    8334:	d1000400 	sub	x0, x0, #0x1
    8338:	17fffff1 	b	82fc <mbedtls_mpi_cmp_mpi+0x10>
/home/jeferson/optee/optee_os-rpi4/lib/libmbedtls/mbedtls/library/bignum.c:1127
    833c:	eb00005f 	cmp	x2, x0
    8340:	54fffe28 	b.hi	8304 <mbedtls_mpi_cmp_mpi+0x18>  // b.pmore
/home/jeferson/optee/optee_os-rpi4/lib/libmbedtls/mbedtls/library/bignum.c:1128
    8344:	79c00021 	ldrsh	w1, [x1]
    8348:	54000062 	b.cs	8354 <mbedtls_mpi_cmp_mpi+0x68>  // b.hs, b.nlast
/home/jeferson/optee/optee_os-rpi4/lib/libmbedtls/mbedtls/library/bignum.c:1128 (discriminator 1)
    834c:	4b0103e0 	neg	w0, w1
    8350:	17ffffee 	b	8308 <mbedtls_mpi_cmp_mpi+0x1c>
/home/jeferson/optee/optee_os-rpi4/lib/libmbedtls/mbedtls/library/bignum.c:1130
    8354:	79c00060 	ldrsh	w0, [x3]
    8358:	7100001f 	cmp	w0, #0x0
    835c:	5400008d 	b.le	836c <mbedtls_mpi_cmp_mpi+0x80>
/home/jeferson/optee/optee_os-rpi4/lib/libmbedtls/mbedtls/library/bignum.c:1130 (discriminator 1)
    8360:	36f80241 	tbz	w1, #31, 83a8 <mbedtls_mpi_cmp_mpi+0xbc>
/home/jeferson/optee/optee_os-rpi4/lib/libmbedtls/mbedtls/library/bignum.c:1130
    8364:	52800020 	mov	w0, #0x1                   	// #1
    8368:	17ffffe8 	b	8308 <mbedtls_mpi_cmp_mpi+0x1c>
/home/jeferson/optee/optee_os-rpi4/lib/libmbedtls/mbedtls/library/bignum.c:1131
    836c:	7100003f 	cmp	w1, #0x0
    8370:	540001cd 	b.le	83a8 <mbedtls_mpi_cmp_mpi+0xbc>
/home/jeferson/optee/optee_os-rpi4/lib/libmbedtls/mbedtls/library/bignum.c:1131 (discriminator 1)
    8374:	340001a0 	cbz	w0, 83a8 <mbedtls_mpi_cmp_mpi+0xbc>
/home/jeferson/optee/optee_os-rpi4/lib/libmbedtls/mbedtls/library/bignum.c:1131
    8378:	12800000 	mov	w0, #0xffffffff            	// #-1
    837c:	17ffffe3 	b	8308 <mbedtls_mpi_cmp_mpi+0x1c>
/home/jeferson/optee/optee_os-rpi4/lib/libmbedtls/mbedtls/library/bignum.c:1135
    8380:	f9400865 	ldr	x5, [x3, #16]
    8384:	d37ef441 	lsl	x1, x2, #2
    8388:	b86168a5 	ldr	w5, [x5, x1]
    838c:	b8616881 	ldr	w1, [x4, x1]
    8390:	6b0100bf 	cmp	w5, w1
    8394:	54fffba8 	b.hi	8308 <mbedtls_mpi_cmp_mpi+0x1c>  // b.pmore
/home/jeferson/optee/optee_os-rpi4/lib/libmbedtls/mbedtls/library/bignum.c:1136
    8398:	d1000442 	sub	x2, x2, #0x1
    839c:	54000082 	b.cs	83ac <mbedtls_mpi_cmp_mpi+0xc0>  // b.hs, b.nlast
/home/jeferson/optee/optee_os-rpi4/lib/libmbedtls/mbedtls/library/bignum.c:1136 (discriminator 1)
    83a0:	4b0003e0 	neg	w0, w0
    83a4:	17ffffd9 	b	8308 <mbedtls_mpi_cmp_mpi+0x1c>
    83a8:	d1000442 	sub	x2, x2, #0x1
/home/jeferson/optee/optee_os-rpi4/lib/libmbedtls/mbedtls/library/bignum.c:1133 (discriminator 1)
    83ac:	b100045f 	cmn	x2, #0x1
    83b0:	54fffe81 	b.ne	8380 <mbedtls_mpi_cmp_mpi+0x94>  // b.any
/home/jeferson/optee/optee_os-rpi4/lib/libmbedtls/mbedtls/library/bignum.c:1125
    83b4:	52800000 	mov	w0, #0x0                   	// #0
    83b8:	17ffffd4 	b	8308 <mbedtls_mpi_cmp_mpi+0x1c>

00000000000083bc <mbedtls_mpi_cmp_int>:
mbedtls_mpi_cmp_int():
/home/jeferson/optee/optee_os-rpi4/lib/libmbedtls/mbedtls/library/bignum.c:1146
    83bc:	a9bb7bfd 	stp	x29, x30, [sp, #-80]!
/home/jeferson/optee/optee_os-rpi4/lib/libmbedtls/mbedtls/library/bignum.c:1151
    83c0:	7100003f 	cmp	w1, #0x0
    83c4:	5a81a421 	cneg	w1, w1, lt  // lt = tstop
/home/jeferson/optee/optee_os-rpi4/lib/libmbedtls/mbedtls/library/bignum.c:1146
    83c8:	910003fd 	mov	x29, sp
    83cc:	f9000bf3 	str	x19, [sp, #16]
    83d0:	b0000053 	adrp	x19, 11000 <_DYNAMIC>
    83d4:	f9409a62 	ldr	x2, [x19, #304]
    83d8:	f9400043 	ldr	x3, [x2]
    83dc:	f90027e3 	str	x3, [sp, #72]
    83e0:	d2800003 	mov	x3, #0x0                   	// #0
/home/jeferson/optee/optee_os-rpi4/lib/libmbedtls/mbedtls/library/bignum.c:1151
    83e4:	b90043e1 	str	w1, [sp, #64]
/home/jeferson/optee/optee_os-rpi4/lib/libmbedtls/mbedtls/library/bignum.c:1152
    83e8:	52800021 	mov	w1, #0x1                   	// #1
    83ec:	5a81a421 	cneg	w1, w1, lt  // lt = tstop
    83f0:	790053e1 	strh	w1, [sp, #40]
/home/jeferson/optee/optee_os-rpi4/lib/libmbedtls/mbedtls/library/bignum.c:1153
    83f4:	d2800021 	mov	x1, #0x1                   	// #1
    83f8:	f9001be1 	str	x1, [sp, #48]
/home/jeferson/optee/optee_os-rpi4/lib/libmbedtls/mbedtls/library/bignum.c:1154
    83fc:	910103e1 	add	x1, sp, #0x40
    8400:	f9001fe1 	str	x1, [sp, #56]
/home/jeferson/optee/optee_os-rpi4/lib/libmbedtls/mbedtls/library/bignum.c:1156
    8404:	9100a3e1 	add	x1, sp, #0x28
    8408:	97ffffb9 	bl	82ec <mbedtls_mpi_cmp_mpi>
/home/jeferson/optee/optee_os-rpi4/lib/libmbedtls/mbedtls/library/bignum.c:1157
    840c:	f9409a73 	ldr	x19, [x19, #304]
    8410:	f94027e1 	ldr	x1, [sp, #72]
    8414:	f9400262 	ldr	x2, [x19]
    8418:	eb020021 	subs	x1, x1, x2
    841c:	d2800002 	mov	x2, #0x0                   	// #0
    8420:	54000040 	b.eq	8428 <mbedtls_mpi_cmp_int+0x6c>  // b.none
    8424:	97ffdfe6 	bl	3bc <__stack_chk_fail>
    8428:	f9400bf3 	ldr	x19, [sp, #16]
    842c:	a8c57bfd 	ldp	x29, x30, [sp], #80
    8430:	d65f03c0 	ret

0000000000008434 <mbedtls_mpi_add_abs>:
mbedtls_mpi_add_abs():
/home/jeferson/optee/optee_os-rpi4/lib/libmbedtls/mbedtls/library/bignum.c:1163
    8434:	a9bc7bfd 	stp	x29, x30, [sp, #-64]!
    8438:	910003fd 	mov	x29, sp
    843c:	a90153f3 	stp	x19, x20, [sp, #16]
    8440:	aa0003f4 	mov	x20, x0
    8444:	a9025bf5 	stp	x21, x22, [sp, #32]
    8448:	aa0103f6 	mov	x22, x1
    844c:	f9001bf7 	str	x23, [sp, #48]
/home/jeferson/optee/optee_os-rpi4/lib/libmbedtls/mbedtls/library/bignum.c:1171
    8450:	eb02001f 	cmp	x0, x2
    8454:	540000a0 	b.eq	8468 <mbedtls_mpi_add_abs+0x34>  // b.none
    8458:	aa0203f3 	mov	x19, x2
/home/jeferson/optee/optee_os-rpi4/lib/libmbedtls/mbedtls/library/bignum.c:1176
    845c:	eb01001f 	cmp	x0, x1
    8460:	54000461 	b.ne	84ec <mbedtls_mpi_add_abs+0xb8>  // b.any
/home/jeferson/optee/optee_os-rpi4/lib/libmbedtls/mbedtls/library/bignum.c:1163
    8464:	aa1303f6 	mov	x22, x19
/home/jeferson/optee/optee_os-rpi4/lib/libmbedtls/mbedtls/library/bignum.c:1184 (discriminator 2)
    8468:	f94006d3 	ldr	x19, [x22, #8]
/home/jeferson/optee/optee_os-rpi4/lib/libmbedtls/mbedtls/library/bignum.c:1182 (discriminator 2)
    846c:	52800020 	mov	w0, #0x1                   	// #1
    8470:	79000280 	strh	w0, [x20]
/home/jeferson/optee/optee_os-rpi4/lib/libmbedtls/mbedtls/library/bignum.c:1184 (discriminator 1)
    8474:	b50004f3 	cbnz	x19, 8510 <mbedtls_mpi_add_abs+0xdc>
/home/jeferson/optee/optee_os-rpi4/lib/libmbedtls/mbedtls/library/bignum.c:1188
    8478:	aa1303e1 	mov	x1, x19
    847c:	aa1403e0 	mov	x0, x20
    8480:	97fffcf6 	bl	7858 <mbedtls_mpi_grow>
    8484:	2a0003f5 	mov	w21, w0
    8488:	35000380 	cbnz	w0, 84f8 <mbedtls_mpi_add_abs+0xc4>
/home/jeferson/optee/optee_os-rpi4/lib/libmbedtls/mbedtls/library/bignum.c:1190 (discriminator 2)
    848c:	f9400a82 	ldr	x2, [x20, #16]
/home/jeferson/optee/optee_os-rpi4/lib/libmbedtls/mbedtls/library/bignum.c:1195 (discriminator 2)
    8490:	d2800001 	mov	x1, #0x0                   	// #0
/home/jeferson/optee/optee_os-rpi4/lib/libmbedtls/mbedtls/library/bignum.c:1190 (discriminator 2)
    8494:	f9400ac4 	ldr	x4, [x22, #16]
    8498:	52800016 	mov	w22, #0x0                   	// #0
/home/jeferson/optee/optee_os-rpi4/lib/libmbedtls/mbedtls/library/bignum.c:1195 (discriminator 1)
    849c:	eb01027f 	cmp	x19, x1
    84a0:	54000441 	b.ne	8528 <mbedtls_mpi_add_abs+0xf4>  // b.any
    84a4:	8b130842 	add	x2, x2, x19, lsl #2
/home/jeferson/optee/optee_os-rpi4/lib/libmbedtls/mbedtls/library/bignum.c:1202
    84a8:	34000296 	cbz	w22, 84f8 <mbedtls_mpi_add_abs+0xc4>
/home/jeferson/optee/optee_os-rpi4/lib/libmbedtls/mbedtls/library/bignum.c:1204
    84ac:	f9400680 	ldr	x0, [x20, #8]
    84b0:	91000677 	add	x23, x19, #0x1
    84b4:	eb13001f 	cmp	x0, x19
    84b8:	540000e8 	b.hi	84d4 <mbedtls_mpi_add_abs+0xa0>  // b.pmore
/home/jeferson/optee/optee_os-rpi4/lib/libmbedtls/mbedtls/library/bignum.c:1206
    84bc:	aa1703e1 	mov	x1, x23
    84c0:	aa1403e0 	mov	x0, x20
    84c4:	97fffce5 	bl	7858 <mbedtls_mpi_grow>
    84c8:	35000420 	cbnz	w0, 854c <mbedtls_mpi_add_abs+0x118>
/home/jeferson/optee/optee_os-rpi4/lib/libmbedtls/mbedtls/library/bignum.c:1207 (discriminator 2)
    84cc:	f9400a82 	ldr	x2, [x20, #16]
    84d0:	8b130842 	add	x2, x2, x19, lsl #2
/home/jeferson/optee/optee_os-rpi4/lib/libmbedtls/mbedtls/library/bignum.c:1210
    84d4:	b9400040 	ldr	w0, [x2]
    84d8:	aa1703f3 	mov	x19, x23
    84dc:	2b160000 	adds	w0, w0, w22
    84e0:	b8004440 	str	w0, [x2], #4
    84e4:	1a9f37f6 	cset	w22, cs  // cs = hs, nlast
    84e8:	17fffff0 	b	84a8 <mbedtls_mpi_add_abs+0x74>
/home/jeferson/optee/optee_os-rpi4/lib/libmbedtls/mbedtls/library/bignum.c:1177
    84ec:	97fffd76 	bl	7ac4 <mbedtls_mpi_copy>
    84f0:	2a0003f5 	mov	w21, w0
    84f4:	34fffb80 	cbz	w0, 8464 <mbedtls_mpi_add_abs+0x30>
/home/jeferson/optee/optee_os-rpi4/lib/libmbedtls/mbedtls/library/bignum.c:1216
    84f8:	2a1503e0 	mov	w0, w21
    84fc:	a94153f3 	ldp	x19, x20, [sp, #16]
    8500:	a9425bf5 	ldp	x21, x22, [sp, #32]
    8504:	f9401bf7 	ldr	x23, [sp, #48]
    8508:	a8c47bfd 	ldp	x29, x30, [sp], #64
    850c:	d65f03c0 	ret
/home/jeferson/optee/optee_os-rpi4/lib/libmbedtls/mbedtls/library/bignum.c:1185
    8510:	f9400ac0 	ldr	x0, [x22, #16]
    8514:	8b130800 	add	x0, x0, x19, lsl #2
    8518:	b85fc000 	ldur	w0, [x0, #-4]
    851c:	35fffae0 	cbnz	w0, 8478 <mbedtls_mpi_add_abs+0x44>
/home/jeferson/optee/optee_os-rpi4/lib/libmbedtls/mbedtls/library/bignum.c:1184 (discriminator 2)
    8520:	d1000673 	sub	x19, x19, #0x1
    8524:	17ffffd4 	b	8474 <mbedtls_mpi_add_abs+0x40>
/home/jeferson/optee/optee_os-rpi4/lib/libmbedtls/mbedtls/library/bignum.c:1197 (discriminator 3)
    8528:	b8617840 	ldr	w0, [x2, x1, lsl #2]
    852c:	b8617883 	ldr	w3, [x4, x1, lsl #2]
/home/jeferson/optee/optee_os-rpi4/lib/libmbedtls/mbedtls/library/bignum.c:1198 (discriminator 3)
    8530:	2b160000 	adds	w0, w0, w22
    8534:	1a9f37f6 	cset	w22, cs  // cs = hs, nlast
/home/jeferson/optee/optee_os-rpi4/lib/libmbedtls/mbedtls/library/bignum.c:1199 (discriminator 3)
    8538:	2b030000 	adds	w0, w0, w3
    853c:	1a9636d6 	cinc	w22, w22, cs  // cs = hs, nlast
    8540:	b8217840 	str	w0, [x2, x1, lsl #2]
/home/jeferson/optee/optee_os-rpi4/lib/libmbedtls/mbedtls/library/bignum.c:1195 (discriminator 3)
    8544:	91000421 	add	x1, x1, #0x1
    8548:	17ffffd5 	b	849c <mbedtls_mpi_add_abs+0x68>
    854c:	2a0003f5 	mov	w21, w0
/home/jeferson/optee/optee_os-rpi4/lib/libmbedtls/mbedtls/library/bignum.c:1215
    8550:	17ffffea 	b	84f8 <mbedtls_mpi_add_abs+0xc4>

0000000000008554 <mbedtls_mpi_sub_abs>:
mbedtls_mpi_sub_abs():
/home/jeferson/optee/optee_os-rpi4/lib/libmbedtls/mbedtls/library/bignum.c:1256
    8554:	a9bc7bfd 	stp	x29, x30, [sp, #-64]!
    8558:	910003fd 	mov	x29, sp
    855c:	a90153f3 	stp	x19, x20, [sp, #16]
    8560:	aa0003f4 	mov	x20, x0
    8564:	a9025bf5 	stp	x21, x22, [sp, #32]
    8568:	aa0103f5 	mov	x21, x1
/home/jeferson/optee/optee_os-rpi4/lib/libmbedtls/mbedtls/library/bignum.c:1264
    856c:	f9400453 	ldr	x19, [x2, #8]
/home/jeferson/optee/optee_os-rpi4/lib/libmbedtls/mbedtls/library/bignum.c:1256
    8570:	f9001bf7 	str	x23, [sp, #48]
    8574:	aa0203f7 	mov	x23, x2
/home/jeferson/optee/optee_os-rpi4/lib/libmbedtls/mbedtls/library/bignum.c:1264 (discriminator 1)
    8578:	b5000173 	cbnz	x19, 85a4 <mbedtls_mpi_sub_abs+0x50>
/home/jeferson/optee/optee_os-rpi4/lib/libmbedtls/mbedtls/library/bignum.c:1267
    857c:	f94006a1 	ldr	x1, [x21, #8]
    8580:	eb13003f 	cmp	x1, x19
    8584:	540001c2 	b.cs	85bc <mbedtls_mpi_sub_abs+0x68>  // b.hs, b.nlast
/home/jeferson/optee/optee_os-rpi4/lib/libmbedtls/mbedtls/library/bignum.c:1270
    8588:	12800136 	mov	w22, #0xfffffff6            	// #-10
/home/jeferson/optee/optee_os-rpi4/lib/libmbedtls/mbedtls/library/bignum.c:1305
    858c:	2a1603e0 	mov	w0, w22
    8590:	a94153f3 	ldp	x19, x20, [sp, #16]
    8594:	a9425bf5 	ldp	x21, x22, [sp, #32]
    8598:	f9401bf7 	ldr	x23, [sp, #48]
    859c:	a8c47bfd 	ldp	x29, x30, [sp], #64
    85a0:	d65f03c0 	ret
/home/jeferson/optee/optee_os-rpi4/lib/libmbedtls/mbedtls/library/bignum.c:1265
    85a4:	f9400ae0 	ldr	x0, [x23, #16]
    85a8:	8b130800 	add	x0, x0, x19, lsl #2
    85ac:	b85fc000 	ldur	w0, [x0, #-4]
    85b0:	35fffe60 	cbnz	w0, 857c <mbedtls_mpi_sub_abs+0x28>
/home/jeferson/optee/optee_os-rpi4/lib/libmbedtls/mbedtls/library/bignum.c:1264 (discriminator 2)
    85b4:	d1000673 	sub	x19, x19, #0x1
    85b8:	17fffff0 	b	8578 <mbedtls_mpi_sub_abs+0x24>
/home/jeferson/optee/optee_os-rpi4/lib/libmbedtls/mbedtls/library/bignum.c:1274
    85bc:	aa1403e0 	mov	x0, x20
    85c0:	97fffca6 	bl	7858 <mbedtls_mpi_grow>
    85c4:	2a0003f6 	mov	w22, w0
    85c8:	35fffe20 	cbnz	w0, 858c <mbedtls_mpi_sub_abs+0x38>
/home/jeferson/optee/optee_os-rpi4/lib/libmbedtls/mbedtls/library/bignum.c:1279 (discriminator 2)
    85cc:	f94006a2 	ldr	x2, [x21, #8]
    85d0:	eb13005f 	cmp	x2, x19
    85d4:	54000109 	b.ls	85f4 <mbedtls_mpi_sub_abs+0xa0>  // b.plast
/home/jeferson/optee/optee_os-rpi4/lib/libmbedtls/mbedtls/library/bignum.c:1280
    85d8:	f9400a80 	ldr	x0, [x20, #16]
    85dc:	cb130042 	sub	x2, x2, x19
    85e0:	f9400aa1 	ldr	x1, [x21, #16]
    85e4:	d37ef442 	lsl	x2, x2, #2
    85e8:	8b130800 	add	x0, x0, x19, lsl #2
    85ec:	8b130821 	add	x1, x1, x19, lsl #2
    85f0:	97ffde8c 	bl	20 <memcpy>
/home/jeferson/optee/optee_os-rpi4/lib/libmbedtls/mbedtls/library/bignum.c:1281
    85f4:	f9400682 	ldr	x2, [x20, #8]
    85f8:	f94006a0 	ldr	x0, [x21, #8]
    85fc:	eb00005f 	cmp	x2, x0
    8600:	540000e9 	b.ls	861c <mbedtls_mpi_sub_abs+0xc8>  // b.plast
/home/jeferson/optee/optee_os-rpi4/lib/libmbedtls/mbedtls/library/bignum.c:1282
    8604:	f9400a83 	ldr	x3, [x20, #16]
    8608:	cb000042 	sub	x2, x2, x0
    860c:	52800001 	mov	w1, #0x0                   	// #0
    8610:	d37ef442 	lsl	x2, x2, #2
    8614:	8b000860 	add	x0, x3, x0, lsl #2
    8618:	9400109a 	bl	c880 <memset>
/home/jeferson/optee/optee_os-rpi4/lib/libmbedtls/mbedtls/library/bignum.c:1284
    861c:	f9400a80 	ldr	x0, [x20, #16]
mpi_sub_hlp():
/home/jeferson/optee/optee_os-rpi4/lib/libmbedtls/mbedtls/library/bignum.c:1241
    8620:	52800003 	mov	w3, #0x0                   	// #0
mbedtls_mpi_sub_abs():
/home/jeferson/optee/optee_os-rpi4/lib/libmbedtls/mbedtls/library/bignum.c:1284
    8624:	f9400aa5 	ldr	x5, [x21, #16]
mpi_sub_hlp():
/home/jeferson/optee/optee_os-rpi4/lib/libmbedtls/mbedtls/library/bignum.c:1243
    8628:	d2800002 	mov	x2, #0x0                   	// #0
mbedtls_mpi_sub_abs():
/home/jeferson/optee/optee_os-rpi4/lib/libmbedtls/mbedtls/library/bignum.c:1284
    862c:	f9400ae6 	ldr	x6, [x23, #16]
mpi_sub_hlp():
/home/jeferson/optee/optee_os-rpi4/lib/libmbedtls/mbedtls/library/bignum.c:1243
    8630:	eb02027f 	cmp	x19, x2
    8634:	540001e1 	b.ne	8670 <mbedtls_mpi_sub_abs+0x11c>  // b.any
mbedtls_mpi_sub_abs():
/home/jeferson/optee/optee_os-rpi4/lib/libmbedtls/mbedtls/library/bignum.c:1285
    8638:	34000163 	cbz	w3, 8664 <mbedtls_mpi_sub_abs+0x110>
/home/jeferson/optee/optee_os-rpi4/lib/libmbedtls/mbedtls/library/bignum.c:1288
    863c:	f9400682 	ldr	x2, [x20, #8]
/home/jeferson/optee/optee_os-rpi4/lib/libmbedtls/mbedtls/library/bignum.c:1289
    8640:	12800003 	mov	w3, #0xffffffff            	// #-1
/home/jeferson/optee/optee_os-rpi4/lib/libmbedtls/mbedtls/library/bignum.c:1288 (discriminator 1)
    8644:	eb13005f 	cmp	x2, x19
    8648:	54000309 	b.ls	86a8 <mbedtls_mpi_sub_abs+0x154>  // b.plast
/home/jeferson/optee/optee_os-rpi4/lib/libmbedtls/mbedtls/library/bignum.c:1288 (discriminator 2)
    864c:	b8737801 	ldr	w1, [x0, x19, lsl #2]
    8650:	34000261 	cbz	w1, 869c <mbedtls_mpi_sub_abs+0x148>
/home/jeferson/optee/optee_os-rpi4/lib/libmbedtls/mbedtls/library/bignum.c:1297
    8654:	d37ef673 	lsl	x19, x19, #2
    8658:	b8736801 	ldr	w1, [x0, x19]
    865c:	51000421 	sub	w1, w1, #0x1
    8660:	b8336801 	str	w1, [x0, x19]
/home/jeferson/optee/optee_os-rpi4/lib/libmbedtls/mbedtls/library/bignum.c:1301
    8664:	52800020 	mov	w0, #0x1                   	// #1
    8668:	79000280 	strh	w0, [x20]
/home/jeferson/optee/optee_os-rpi4/lib/libmbedtls/mbedtls/library/bignum.c:1304
    866c:	17ffffc8 	b	858c <mbedtls_mpi_sub_abs+0x38>
mpi_sub_hlp():
/home/jeferson/optee/optee_os-rpi4/lib/libmbedtls/mbedtls/library/bignum.c:1245
    8670:	b86278a1 	ldr	w1, [x5, x2, lsl #2]
/home/jeferson/optee/optee_os-rpi4/lib/libmbedtls/mbedtls/library/bignum.c:1246
    8674:	b86278c4 	ldr	w4, [x6, x2, lsl #2]
/home/jeferson/optee/optee_os-rpi4/lib/libmbedtls/mbedtls/library/bignum.c:1245
    8678:	6b03003f 	cmp	w1, w3
    867c:	4b030021 	sub	w1, w1, w3
    8680:	1a9f27e7 	cset	w7, cc  // cc = lo, ul, last
/home/jeferson/optee/optee_os-rpi4/lib/libmbedtls/mbedtls/library/bignum.c:1246
    8684:	6b04003f 	cmp	w1, w4
    8688:	1a8724e3 	cinc	w3, w7, cc  // cc = lo, ul, last
    868c:	4b040021 	sub	w1, w1, w4
    8690:	b8227801 	str	w1, [x0, x2, lsl #2]
/home/jeferson/optee/optee_os-rpi4/lib/libmbedtls/mbedtls/library/bignum.c:1243
    8694:	91000442 	add	x2, x2, #0x1
    8698:	17ffffe6 	b	8630 <mbedtls_mpi_sub_abs+0xdc>
mbedtls_mpi_sub_abs():
/home/jeferson/optee/optee_os-rpi4/lib/libmbedtls/mbedtls/library/bignum.c:1289 (discriminator 3)
    869c:	b8337803 	str	w3, [x0, x19, lsl #2]
/home/jeferson/optee/optee_os-rpi4/lib/libmbedtls/mbedtls/library/bignum.c:1288 (discriminator 3)
    86a0:	91000673 	add	x19, x19, #0x1
    86a4:	17ffffe8 	b	8644 <mbedtls_mpi_sub_abs+0xf0>
/home/jeferson/optee/optee_os-rpi4/lib/libmbedtls/mbedtls/library/bignum.c:1292
    86a8:	54fffd61 	b.ne	8654 <mbedtls_mpi_sub_abs+0x100>  // b.any
    86ac:	17ffffb7 	b	8588 <mbedtls_mpi_sub_abs+0x34>

00000000000086b0 <mbedtls_mpi_add_mpi>:
mbedtls_mpi_add_mpi():
/home/jeferson/optee/optee_os-rpi4/lib/libmbedtls/mbedtls/library/bignum.c:1311
    86b0:	a9bd7bfd 	stp	x29, x30, [sp, #-48]!
    86b4:	910003fd 	mov	x29, sp
/home/jeferson/optee/optee_os-rpi4/lib/libmbedtls/mbedtls/library/bignum.c:1318
    86b8:	79c00043 	ldrsh	w3, [x2]
/home/jeferson/optee/optee_os-rpi4/lib/libmbedtls/mbedtls/library/bignum.c:1311
    86bc:	a90153f3 	stp	x19, x20, [sp, #16]
    86c0:	aa0003f3 	mov	x19, x0
/home/jeferson/optee/optee_os-rpi4/lib/libmbedtls/mbedtls/library/bignum.c:1317
    86c4:	79c00034 	ldrsh	w20, [x1]
/home/jeferson/optee/optee_os-rpi4/lib/libmbedtls/mbedtls/library/bignum.c:1311
    86c8:	a9025bf5 	stp	x21, x22, [sp, #32]
/home/jeferson/optee/optee_os-rpi4/lib/libmbedtls/mbedtls/library/bignum.c:1318
    86cc:	1b147c63 	mul	w3, w3, w20
    86d0:	36f80303 	tbz	w3, #31, 8730 <mbedtls_mpi_add_mpi+0x80>
    86d4:	aa0103f6 	mov	x22, x1
    86d8:	aa0203f5 	mov	x21, x2
/home/jeferson/optee/optee_os-rpi4/lib/libmbedtls/mbedtls/library/bignum.c:1320
    86dc:	aa0203e1 	mov	x1, x2
    86e0:	aa1603e0 	mov	x0, x22
    86e4:	97fffedb 	bl	8250 <mbedtls_mpi_cmp_abs>
    86e8:	37f80140 	tbnz	w0, #31, 8710 <mbedtls_mpi_add_mpi+0x60>
/home/jeferson/optee/optee_os-rpi4/lib/libmbedtls/mbedtls/library/bignum.c:1322
    86ec:	aa1503e2 	mov	x2, x21
    86f0:	aa1603e1 	mov	x1, x22
    86f4:	aa1303e0 	mov	x0, x19
    86f8:	97ffff97 	bl	8554 <mbedtls_mpi_sub_abs>
/home/jeferson/optee/optee_os-rpi4/lib/libmbedtls/mbedtls/library/bignum.c:1333
    86fc:	34000160 	cbz	w0, 8728 <mbedtls_mpi_add_mpi+0x78>
/home/jeferson/optee/optee_os-rpi4/lib/libmbedtls/mbedtls/library/bignum.c:1340
    8700:	a94153f3 	ldp	x19, x20, [sp, #16]
    8704:	a9425bf5 	ldp	x21, x22, [sp, #32]
    8708:	a8c37bfd 	ldp	x29, x30, [sp], #48
    870c:	d65f03c0 	ret
/home/jeferson/optee/optee_os-rpi4/lib/libmbedtls/mbedtls/library/bignum.c:1327
    8710:	aa1603e2 	mov	x2, x22
    8714:	aa1503e1 	mov	x1, x21
    8718:	aa1303e0 	mov	x0, x19
    871c:	97ffff8e 	bl	8554 <mbedtls_mpi_sub_abs>
    8720:	35ffff00 	cbnz	w0, 8700 <mbedtls_mpi_add_mpi+0x50>
/home/jeferson/optee/optee_os-rpi4/lib/libmbedtls/mbedtls/library/bignum.c:1328 (discriminator 2)
    8724:	4b1403f4 	neg	w20, w20
/home/jeferson/optee/optee_os-rpi4/lib/libmbedtls/mbedtls/library/bignum.c:1334 (discriminator 2)
    8728:	79000274 	strh	w20, [x19]
/home/jeferson/optee/optee_os-rpi4/lib/libmbedtls/mbedtls/library/bignum.c:1339 (discriminator 2)
    872c:	17fffff5 	b	8700 <mbedtls_mpi_add_mpi+0x50>
/home/jeferson/optee/optee_os-rpi4/lib/libmbedtls/mbedtls/library/bignum.c:1333
    8730:	97ffff41 	bl	8434 <mbedtls_mpi_add_abs>
    8734:	17fffff2 	b	86fc <mbedtls_mpi_add_mpi+0x4c>

0000000000008738 <mbedtls_mpi_sub_mpi>:
mbedtls_mpi_sub_mpi():
/home/jeferson/optee/optee_os-rpi4/lib/libmbedtls/mbedtls/library/bignum.c:1346
    8738:	a9bd7bfd 	stp	x29, x30, [sp, #-48]!
    873c:	910003fd 	mov	x29, sp
/home/jeferson/optee/optee_os-rpi4/lib/libmbedtls/mbedtls/library/bignum.c:1353
    8740:	79c00043 	ldrsh	w3, [x2]
/home/jeferson/optee/optee_os-rpi4/lib/libmbedtls/mbedtls/library/bignum.c:1346
    8744:	a90153f3 	stp	x19, x20, [sp, #16]
    8748:	aa0003f3 	mov	x19, x0
/home/jeferson/optee/optee_os-rpi4/lib/libmbedtls/mbedtls/library/bignum.c:1352
    874c:	79c00034 	ldrsh	w20, [x1]
/home/jeferson/optee/optee_os-rpi4/lib/libmbedtls/mbedtls/library/bignum.c:1346
    8750:	a9025bf5 	stp	x21, x22, [sp, #32]
/home/jeferson/optee/optee_os-rpi4/lib/libmbedtls/mbedtls/library/bignum.c:1353
    8754:	1b147c63 	mul	w3, w3, w20
    8758:	7100007f 	cmp	w3, #0x0
    875c:	5400030d 	b.le	87bc <mbedtls_mpi_sub_mpi+0x84>
    8760:	aa0103f6 	mov	x22, x1
    8764:	aa0203f5 	mov	x21, x2
/home/jeferson/optee/optee_os-rpi4/lib/libmbedtls/mbedtls/library/bignum.c:1355
    8768:	aa0203e1 	mov	x1, x2
    876c:	aa1603e0 	mov	x0, x22
    8770:	97fffeb8 	bl	8250 <mbedtls_mpi_cmp_abs>
    8774:	37f80140 	tbnz	w0, #31, 879c <mbedtls_mpi_sub_mpi+0x64>
/home/jeferson/optee/optee_os-rpi4/lib/libmbedtls/mbedtls/library/bignum.c:1357
    8778:	aa1503e2 	mov	x2, x21
    877c:	aa1603e1 	mov	x1, x22
    8780:	aa1303e0 	mov	x0, x19
    8784:	97ffff74 	bl	8554 <mbedtls_mpi_sub_abs>
/home/jeferson/optee/optee_os-rpi4/lib/libmbedtls/mbedtls/library/bignum.c:1368
    8788:	34000160 	cbz	w0, 87b4 <mbedtls_mpi_sub_mpi+0x7c>
/home/jeferson/optee/optee_os-rpi4/lib/libmbedtls/mbedtls/library/bignum.c:1375
    878c:	a94153f3 	ldp	x19, x20, [sp, #16]
    8790:	a9425bf5 	ldp	x21, x22, [sp, #32]
    8794:	a8c37bfd 	ldp	x29, x30, [sp], #48
    8798:	d65f03c0 	ret
/home/jeferson/optee/optee_os-rpi4/lib/libmbedtls/mbedtls/library/bignum.c:1362
    879c:	aa1603e2 	mov	x2, x22
    87a0:	aa1503e1 	mov	x1, x21
    87a4:	aa1303e0 	mov	x0, x19
    87a8:	97ffff6b 	bl	8554 <mbedtls_mpi_sub_abs>
    87ac:	35ffff00 	cbnz	w0, 878c <mbedtls_mpi_sub_mpi+0x54>
/home/jeferson/optee/optee_os-rpi4/lib/libmbedtls/mbedtls/library/bignum.c:1363 (discriminator 2)
    87b0:	4b1403f4 	neg	w20, w20
/home/jeferson/optee/optee_os-rpi4/lib/libmbedtls/mbedtls/library/bignum.c:1369 (discriminator 2)
    87b4:	79000274 	strh	w20, [x19]
/home/jeferson/optee/optee_os-rpi4/lib/libmbedtls/mbedtls/library/bignum.c:1374 (discriminator 2)
    87b8:	17fffff5 	b	878c <mbedtls_mpi_sub_mpi+0x54>
/home/jeferson/optee/optee_os-rpi4/lib/libmbedtls/mbedtls/library/bignum.c:1368
    87bc:	97ffff1e 	bl	8434 <mbedtls_mpi_add_abs>
    87c0:	17fffff2 	b	8788 <mbedtls_mpi_sub_mpi+0x50>

00000000000087c4 <mbedtls_mpi_add_int>:
mbedtls_mpi_add_int():
/home/jeferson/optee/optee_os-rpi4/lib/libmbedtls/mbedtls/library/bignum.c:1381
    87c4:	a9bb7bfd 	stp	x29, x30, [sp, #-80]!
/home/jeferson/optee/optee_os-rpi4/lib/libmbedtls/mbedtls/library/bignum.c:1387
    87c8:	7100005f 	cmp	w2, #0x0
    87cc:	5a82a442 	cneg	w2, w2, lt  // lt = tstop
/home/jeferson/optee/optee_os-rpi4/lib/libmbedtls/mbedtls/library/bignum.c:1381
    87d0:	910003fd 	mov	x29, sp
    87d4:	f9000bf3 	str	x19, [sp, #16]
    87d8:	b0000053 	adrp	x19, 11000 <_DYNAMIC>
    87dc:	f9409a63 	ldr	x3, [x19, #304]
    87e0:	f9400064 	ldr	x4, [x3]
    87e4:	f90027e4 	str	x4, [sp, #72]
    87e8:	d2800004 	mov	x4, #0x0                   	// #0
/home/jeferson/optee/optee_os-rpi4/lib/libmbedtls/mbedtls/library/bignum.c:1387
    87ec:	b90043e2 	str	w2, [sp, #64]
/home/jeferson/optee/optee_os-rpi4/lib/libmbedtls/mbedtls/library/bignum.c:1388
    87f0:	52800022 	mov	w2, #0x1                   	// #1
    87f4:	5a82a442 	cneg	w2, w2, lt  // lt = tstop
    87f8:	790053e2 	strh	w2, [sp, #40]
/home/jeferson/optee/optee_os-rpi4/lib/libmbedtls/mbedtls/library/bignum.c:1389
    87fc:	d2800022 	mov	x2, #0x1                   	// #1
    8800:	f9001be2 	str	x2, [sp, #48]
/home/jeferson/optee/optee_os-rpi4/lib/libmbedtls/mbedtls/library/bignum.c:1390
    8804:	910103e2 	add	x2, sp, #0x40
    8808:	f9001fe2 	str	x2, [sp, #56]
/home/jeferson/optee/optee_os-rpi4/lib/libmbedtls/mbedtls/library/bignum.c:1392
    880c:	9100a3e2 	add	x2, sp, #0x28
    8810:	97ffffa8 	bl	86b0 <mbedtls_mpi_add_mpi>
/home/jeferson/optee/optee_os-rpi4/lib/libmbedtls/mbedtls/library/bignum.c:1393
    8814:	f9409a73 	ldr	x19, [x19, #304]
    8818:	f94027e1 	ldr	x1, [sp, #72]
    881c:	f9400262 	ldr	x2, [x19]
    8820:	eb020021 	subs	x1, x1, x2
    8824:	d2800002 	mov	x2, #0x0                   	// #0
    8828:	54000040 	b.eq	8830 <mbedtls_mpi_add_int+0x6c>  // b.none
    882c:	97ffdee4 	bl	3bc <__stack_chk_fail>
    8830:	f9400bf3 	ldr	x19, [sp, #16]
    8834:	a8c57bfd 	ldp	x29, x30, [sp], #80
    8838:	d65f03c0 	ret

000000000000883c <mbedtls_mpi_sub_int>:
mbedtls_mpi_sub_int():
/home/jeferson/optee/optee_os-rpi4/lib/libmbedtls/mbedtls/library/bignum.c:1399
    883c:	a9bb7bfd 	stp	x29, x30, [sp, #-80]!
/home/jeferson/optee/optee_os-rpi4/lib/libmbedtls/mbedtls/library/bignum.c:1405
    8840:	7100005f 	cmp	w2, #0x0
    8844:	5a82a442 	cneg	w2, w2, lt  // lt = tstop
/home/jeferson/optee/optee_os-rpi4/lib/libmbedtls/mbedtls/library/bignum.c:1399
    8848:	910003fd 	mov	x29, sp
    884c:	f9000bf3 	str	x19, [sp, #16]
    8850:	b0000053 	adrp	x19, 11000 <_DYNAMIC>
    8854:	f9409a63 	ldr	x3, [x19, #304]
    8858:	f9400064 	ldr	x4, [x3]
    885c:	f90027e4 	str	x4, [sp, #72]
    8860:	d2800004 	mov	x4, #0x0                   	// #0
/home/jeferson/optee/optee_os-rpi4/lib/libmbedtls/mbedtls/library/bignum.c:1405
    8864:	b90043e2 	str	w2, [sp, #64]
/home/jeferson/optee/optee_os-rpi4/lib/libmbedtls/mbedtls/library/bignum.c:1406
    8868:	52800022 	mov	w2, #0x1                   	// #1
    886c:	5a82a442 	cneg	w2, w2, lt  // lt = tstop
    8870:	790053e2 	strh	w2, [sp, #40]
/home/jeferson/optee/optee_os-rpi4/lib/libmbedtls/mbedtls/library/bignum.c:1407
    8874:	d2800022 	mov	x2, #0x1                   	// #1
    8878:	f9001be2 	str	x2, [sp, #48]
/home/jeferson/optee/optee_os-rpi4/lib/libmbedtls/mbedtls/library/bignum.c:1408
    887c:	910103e2 	add	x2, sp, #0x40
    8880:	f9001fe2 	str	x2, [sp, #56]
/home/jeferson/optee/optee_os-rpi4/lib/libmbedtls/mbedtls/library/bignum.c:1410
    8884:	9100a3e2 	add	x2, sp, #0x28
    8888:	97ffffac 	bl	8738 <mbedtls_mpi_sub_mpi>
/home/jeferson/optee/optee_os-rpi4/lib/libmbedtls/mbedtls/library/bignum.c:1411
    888c:	f9409a73 	ldr	x19, [x19, #304]
    8890:	f94027e1 	ldr	x1, [sp, #72]
    8894:	f9400262 	ldr	x2, [x19]
    8898:	eb020021 	subs	x1, x1, x2
    889c:	d2800002 	mov	x2, #0x0                   	// #0
    88a0:	54000040 	b.eq	88a8 <mbedtls_mpi_sub_int+0x6c>  // b.none
    88a4:	97ffdec6 	bl	3bc <__stack_chk_fail>
    88a8:	f9400bf3 	ldr	x19, [sp, #16]
    88ac:	a8c57bfd 	ldp	x29, x30, [sp], #80
    88b0:	d65f03c0 	ret

00000000000088b4 <mbedtls_mpi_mul_mpi>:
mbedtls_mpi_mul_mpi():
/home/jeferson/optee/optee_os-rpi4/lib/libmbedtls/mbedtls/library/bignum.c:1505
    88b4:	a9b67bfd 	stp	x29, x30, [sp, #-160]!
    88b8:	910003fd 	mov	x29, sp
    88bc:	a9046bf9 	stp	x25, x26, [sp, #64]
    88c0:	aa0003fa 	mov	x26, x0
    88c4:	b0000040 	adrp	x0, 11000 <_DYNAMIC>
    88c8:	a90153f3 	stp	x19, x20, [sp, #16]
    88cc:	f9409800 	ldr	x0, [x0, #304]
    88d0:	a9025bf5 	stp	x21, x22, [sp, #32]
/home/jeferson/optee/optee_os-rpi4/lib/libmbedtls/mbedtls/library/bignum.c:1514
    88d4:	9101a3f6 	add	x22, sp, #0x68
/home/jeferson/optee/optee_os-rpi4/lib/libmbedtls/mbedtls/library/bignum.c:1505
    88d8:	a90363f7 	stp	x23, x24, [sp, #48]
    88dc:	aa0103f8 	mov	x24, x1
    88e0:	aa0203f5 	mov	x21, x2
    88e4:	f9002bfb 	str	x27, [sp, #80]
/home/jeferson/optee/optee_os-rpi4/lib/libmbedtls/mbedtls/library/bignum.c:1514
    88e8:	910203f7 	add	x23, sp, #0x80
/home/jeferson/optee/optee_os-rpi4/lib/libmbedtls/mbedtls/library/bignum.c:1505
    88ec:	f9400001 	ldr	x1, [x0]
    88f0:	f9004fe1 	str	x1, [sp, #152]
    88f4:	d2800001 	mov	x1, #0x0                   	// #0
/home/jeferson/optee/optee_os-rpi4/lib/libmbedtls/mbedtls/library/bignum.c:1514
    88f8:	aa1603e0 	mov	x0, x22
    88fc:	97fffbb2 	bl	77c4 <mbedtls_mpi_init_mempool>
    8900:	aa1703e0 	mov	x0, x23
    8904:	97fffbb0 	bl	77c4 <mbedtls_mpi_init_mempool>
/home/jeferson/optee/optee_os-rpi4/lib/libmbedtls/mbedtls/library/bignum.c:1516
    8908:	eb18035f 	cmp	x26, x24
    890c:	540000e1 	b.ne	8928 <mbedtls_mpi_mul_mpi+0x74>  // b.any
/home/jeferson/optee/optee_os-rpi4/lib/libmbedtls/mbedtls/library/bignum.c:1516 (discriminator 1)
    8910:	aa1a03e1 	mov	x1, x26
    8914:	aa1603e0 	mov	x0, x22
    8918:	97fffc6b 	bl	7ac4 <mbedtls_mpi_copy>
    891c:	2a0003f3 	mov	w19, w0
    8920:	35000400 	cbnz	w0, 89a0 <mbedtls_mpi_mul_mpi+0xec>
/home/jeferson/optee/optee_os-rpi4/lib/libmbedtls/mbedtls/library/bignum.c:1516
    8924:	aa1603f8 	mov	x24, x22
/home/jeferson/optee/optee_os-rpi4/lib/libmbedtls/mbedtls/library/bignum.c:1517
    8928:	eb15035f 	cmp	x26, x21
    892c:	540000e1 	b.ne	8948 <mbedtls_mpi_mul_mpi+0x94>  // b.any
/home/jeferson/optee/optee_os-rpi4/lib/libmbedtls/mbedtls/library/bignum.c:1517 (discriminator 1)
    8930:	aa1a03e1 	mov	x1, x26
    8934:	aa1703e0 	mov	x0, x23
    8938:	97fffc63 	bl	7ac4 <mbedtls_mpi_copy>
    893c:	2a0003f3 	mov	w19, w0
    8940:	35000300 	cbnz	w0, 89a0 <mbedtls_mpi_mul_mpi+0xec>
/home/jeferson/optee/optee_os-rpi4/lib/libmbedtls/mbedtls/library/bignum.c:1517
    8944:	aa1703f5 	mov	x21, x23
/home/jeferson/optee/optee_os-rpi4/lib/libmbedtls/mbedtls/library/bignum.c:1519
    8948:	f940071b 	ldr	x27, [x24, #8]
/home/jeferson/optee/optee_os-rpi4/lib/libmbedtls/mbedtls/library/bignum.c:1519 (discriminator 1)
    894c:	b500043b 	cbnz	x27, 89d0 <mbedtls_mpi_mul_mpi+0x11c>
/home/jeferson/optee/optee_os-rpi4/lib/libmbedtls/mbedtls/library/bignum.c:1523
    8950:	52800039 	mov	w25, #0x1                   	// #1
/home/jeferson/optee/optee_os-rpi4/lib/libmbedtls/mbedtls/library/bignum.c:1525
    8954:	f94006b4 	ldr	x20, [x21, #8]
/home/jeferson/optee/optee_os-rpi4/lib/libmbedtls/mbedtls/library/bignum.c:1525 (discriminator 1)
    8958:	b50004d4 	cbnz	x20, 89f0 <mbedtls_mpi_mul_mpi+0x13c>
/home/jeferson/optee/optee_os-rpi4/lib/libmbedtls/mbedtls/library/bignum.c:1529
    895c:	52800039 	mov	w25, #0x1                   	// #1
/home/jeferson/optee/optee_os-rpi4/lib/libmbedtls/mbedtls/library/bignum.c:1531
    8960:	8b140361 	add	x1, x27, x20
    8964:	aa1a03e0 	mov	x0, x26
    8968:	97fffbbc 	bl	7858 <mbedtls_mpi_grow>
    896c:	2a0003f3 	mov	w19, w0
    8970:	35000180 	cbnz	w0, 89a0 <mbedtls_mpi_mul_mpi+0xec>
/home/jeferson/optee/optee_os-rpi4/lib/libmbedtls/mbedtls/library/bignum.c:1532 (discriminator 2)
    8974:	aa1a03e0 	mov	x0, x26
    8978:	52800001 	mov	w1, #0x0                   	// #0
    897c:	97fffca8 	bl	7c1c <mbedtls_mpi_lset>
    8980:	2a0003f3 	mov	w19, w0
    8984:	350000e0 	cbnz	w0, 89a0 <mbedtls_mpi_mul_mpi+0xec>
/home/jeferson/optee/optee_os-rpi4/lib/libmbedtls/mbedtls/library/bignum.c:1534 (discriminator 2)
    8988:	d1000694 	sub	x20, x20, #0x1
    898c:	b100069f 	cmn	x20, #0x1
    8990:	540003c1 	b.ne	8a08 <mbedtls_mpi_mul_mpi+0x154>  // b.any
/home/jeferson/optee/optee_os-rpi4/lib/libmbedtls/mbedtls/library/bignum.c:1541
    8994:	340004b9 	cbz	w25, 8a28 <mbedtls_mpi_mul_mpi+0x174>
/home/jeferson/optee/optee_os-rpi4/lib/libmbedtls/mbedtls/library/bignum.c:1542
    8998:	52800020 	mov	w0, #0x1                   	// #1
    899c:	79000340 	strh	w0, [x26]
/home/jeferson/optee/optee_os-rpi4/lib/libmbedtls/mbedtls/library/bignum.c:1548
    89a0:	aa1703e0 	mov	x0, x23
    89a4:	97fffb92 	bl	77ec <mbedtls_mpi_free>
    89a8:	aa1603e0 	mov	x0, x22
    89ac:	97fffb90 	bl	77ec <mbedtls_mpi_free>
/home/jeferson/optee/optee_os-rpi4/lib/libmbedtls/mbedtls/library/bignum.c:1551
    89b0:	b0000040 	adrp	x0, 11000 <_DYNAMIC>
    89b4:	f9409800 	ldr	x0, [x0, #304]
    89b8:	f9404fe2 	ldr	x2, [sp, #152]
    89bc:	f9400001 	ldr	x1, [x0]
    89c0:	eb010042 	subs	x2, x2, x1
    89c4:	d2800001 	mov	x1, #0x0                   	// #0
    89c8:	540003c0 	b.eq	8a40 <mbedtls_mpi_mul_mpi+0x18c>  // b.none
    89cc:	97ffde7c 	bl	3bc <__stack_chk_fail>
/home/jeferson/optee/optee_os-rpi4/lib/libmbedtls/mbedtls/library/bignum.c:1520
    89d0:	f9400b00 	ldr	x0, [x24, #16]
    89d4:	8b1b0800 	add	x0, x0, x27, lsl #2
    89d8:	b85fc000 	ldur	w0, [x0, #-4]
    89dc:	35000060 	cbnz	w0, 89e8 <mbedtls_mpi_mul_mpi+0x134>
/home/jeferson/optee/optee_os-rpi4/lib/libmbedtls/mbedtls/library/bignum.c:1519 (discriminator 2)
    89e0:	d100077b 	sub	x27, x27, #0x1
    89e4:	17ffffda 	b	894c <mbedtls_mpi_mul_mpi+0x98>
/home/jeferson/optee/optee_os-rpi4/lib/libmbedtls/mbedtls/library/bignum.c:1509
    89e8:	52800019 	mov	w25, #0x0                   	// #0
    89ec:	17ffffda 	b	8954 <mbedtls_mpi_mul_mpi+0xa0>
/home/jeferson/optee/optee_os-rpi4/lib/libmbedtls/mbedtls/library/bignum.c:1526
    89f0:	f9400aa0 	ldr	x0, [x21, #16]
    89f4:	8b140800 	add	x0, x0, x20, lsl #2
    89f8:	b85fc000 	ldur	w0, [x0, #-4]
    89fc:	35fffb20 	cbnz	w0, 8960 <mbedtls_mpi_mul_mpi+0xac>
/home/jeferson/optee/optee_os-rpi4/lib/libmbedtls/mbedtls/library/bignum.c:1525 (discriminator 2)
    8a00:	d1000694 	sub	x20, x20, #0x1
    8a04:	17ffffd5 	b	8958 <mbedtls_mpi_mul_mpi+0xa4>
/home/jeferson/optee/optee_os-rpi4/lib/libmbedtls/mbedtls/library/bignum.c:1535 (discriminator 2)
    8a08:	f9400aa0 	ldr	x0, [x21, #16]
    8a0c:	f9400b42 	ldr	x2, [x26, #16]
    8a10:	b8747803 	ldr	w3, [x0, x20, lsl #2]
    8a14:	aa1b03e0 	mov	x0, x27
    8a18:	f9400b01 	ldr	x1, [x24, #16]
    8a1c:	8b140842 	add	x2, x2, x20, lsl #2
    8a20:	97fff989 	bl	7044 <mpi_mul_hlp>
    8a24:	17ffffd9 	b	8988 <mbedtls_mpi_mul_mpi+0xd4>
/home/jeferson/optee/optee_os-rpi4/lib/libmbedtls/mbedtls/library/bignum.c:1544
    8a28:	79400300 	ldrh	w0, [x24]
/home/jeferson/optee/optee_os-rpi4/lib/libmbedtls/mbedtls/library/bignum.c:1532
    8a2c:	52800013 	mov	w19, #0x0                   	// #0
/home/jeferson/optee/optee_os-rpi4/lib/libmbedtls/mbedtls/library/bignum.c:1544
    8a30:	794002a1 	ldrh	w1, [x21]
    8a34:	1b017c00 	mul	w0, w0, w1
    8a38:	79000340 	strh	w0, [x26]
    8a3c:	17ffffd9 	b	89a0 <mbedtls_mpi_mul_mpi+0xec>
/home/jeferson/optee/optee_os-rpi4/lib/libmbedtls/mbedtls/library/bignum.c:1551
    8a40:	2a1303e0 	mov	w0, w19
    8a44:	a94153f3 	ldp	x19, x20, [sp, #16]
    8a48:	a9425bf5 	ldp	x21, x22, [sp, #32]
    8a4c:	a94363f7 	ldp	x23, x24, [sp, #48]
    8a50:	a9446bf9 	ldp	x25, x26, [sp, #64]
    8a54:	f9402bfb 	ldr	x27, [sp, #80]
    8a58:	a8ca7bfd 	ldp	x29, x30, [sp], #160
    8a5c:	d65f03c0 	ret

0000000000008a60 <mbedtls_mpi_mul_int>:
mbedtls_mpi_mul_int():
/home/jeferson/optee/optee_os-rpi4/lib/libmbedtls/mbedtls/library/bignum.c:1557
    8a60:	a9bd7bfd 	stp	x29, x30, [sp, #-48]!
    8a64:	910003fd 	mov	x29, sp
    8a68:	a90153f3 	stp	x19, x20, [sp, #16]
    8a6c:	aa0103f4 	mov	x20, x1
/home/jeferson/optee/optee_os-rpi4/lib/libmbedtls/mbedtls/library/bignum.c:1562
    8a70:	f9400433 	ldr	x19, [x1, #8]
/home/jeferson/optee/optee_os-rpi4/lib/libmbedtls/mbedtls/library/bignum.c:1557
    8a74:	a9025bf5 	stp	x21, x22, [sp, #32]
    8a78:	aa0003f5 	mov	x21, x0
    8a7c:	2a0203f6 	mov	w22, w2
/home/jeferson/optee/optee_os-rpi4/lib/libmbedtls/mbedtls/library/bignum.c:1563
    8a80:	b40000d3 	cbz	x19, 8a98 <mbedtls_mpi_mul_int+0x38>
/home/jeferson/optee/optee_os-rpi4/lib/libmbedtls/mbedtls/library/bignum.c:1563 (discriminator 1)
    8a84:	f9400a80 	ldr	x0, [x20, #16]
    8a88:	8b130800 	add	x0, x0, x19, lsl #2
    8a8c:	b85fc000 	ldur	w0, [x0, #-4]
    8a90:	34000100 	cbz	w0, 8ab0 <mbedtls_mpi_mul_int+0x50>
/home/jeferson/optee/optee_os-rpi4/lib/libmbedtls/mbedtls/library/bignum.c:1568
    8a94:	35000136 	cbnz	w22, 8ab8 <mbedtls_mpi_mul_int+0x58>
/home/jeferson/optee/optee_os-rpi4/lib/libmbedtls/mbedtls/library/bignum.c:1570
    8a98:	aa1503e0 	mov	x0, x21
    8a9c:	52800001 	mov	w1, #0x0                   	// #0
/home/jeferson/optee/optee_os-rpi4/lib/libmbedtls/mbedtls/library/bignum.c:1589
    8aa0:	a94153f3 	ldp	x19, x20, [sp, #16]
    8aa4:	a9425bf5 	ldp	x21, x22, [sp, #32]
    8aa8:	a8c37bfd 	ldp	x29, x30, [sp], #48
/home/jeferson/optee/optee_os-rpi4/lib/libmbedtls/mbedtls/library/bignum.c:1570
    8aac:	17fffc5c 	b	7c1c <mbedtls_mpi_lset>
/home/jeferson/optee/optee_os-rpi4/lib/libmbedtls/mbedtls/library/bignum.c:1564
    8ab0:	d1000673 	sub	x19, x19, #0x1
    8ab4:	17fffff3 	b	8a80 <mbedtls_mpi_mul_int+0x20>
/home/jeferson/optee/optee_os-rpi4/lib/libmbedtls/mbedtls/library/bignum.c:1583
    8ab8:	91000661 	add	x1, x19, #0x1
    8abc:	aa1503e0 	mov	x0, x21
    8ac0:	97fffb66 	bl	7858 <mbedtls_mpi_grow>
    8ac4:	2a0003ea 	mov	w10, w0
    8ac8:	35000160 	cbnz	w0, 8af4 <mbedtls_mpi_mul_int+0x94>
/home/jeferson/optee/optee_os-rpi4/lib/libmbedtls/mbedtls/library/bignum.c:1584 (discriminator 2)
    8acc:	aa1403e1 	mov	x1, x20
    8ad0:	aa1503e0 	mov	x0, x21
    8ad4:	97fffbfc 	bl	7ac4 <mbedtls_mpi_copy>
    8ad8:	2a0003ea 	mov	w10, w0
    8adc:	350000c0 	cbnz	w0, 8af4 <mbedtls_mpi_mul_int+0x94>
/home/jeferson/optee/optee_os-rpi4/lib/libmbedtls/mbedtls/library/bignum.c:1585 (discriminator 2)
    8ae0:	f9400a81 	ldr	x1, [x20, #16]
    8ae4:	510006c3 	sub	w3, w22, #0x1
    8ae8:	f9400aa2 	ldr	x2, [x21, #16]
    8aec:	aa1303e0 	mov	x0, x19
    8af0:	97fff955 	bl	7044 <mpi_mul_hlp>
/home/jeferson/optee/optee_os-rpi4/lib/libmbedtls/mbedtls/library/bignum.c:1589
    8af4:	2a0a03e0 	mov	w0, w10
    8af8:	a94153f3 	ldp	x19, x20, [sp, #16]
    8afc:	a9425bf5 	ldp	x21, x22, [sp, #32]
    8b00:	a8c37bfd 	ldp	x29, x30, [sp], #48
    8b04:	d65f03c0 	ret

0000000000008b08 <mbedtls_mpi_read_string>:
mbedtls_mpi_read_string():
/home/jeferson/optee/optee_os-rpi4/lib/libmbedtls/mbedtls/library/bignum.c:467
    8b08:	a9b77bfd 	stp	x29, x30, [sp, #-144]!
    8b0c:	910003fd 	mov	x29, sp
    8b10:	a90153f3 	stp	x19, x20, [sp, #16]
    8b14:	aa0003f4 	mov	x20, x0
    8b18:	b0000040 	adrp	x0, 11000 <_DYNAMIC>
    8b1c:	a9025bf5 	stp	x21, x22, [sp, #32]
    8b20:	f9409800 	ldr	x0, [x0, #304]
    8b24:	a90363f7 	stp	x23, x24, [sp, #48]
    8b28:	2a0103f7 	mov	w23, w1
    8b2c:	a9046bf9 	stp	x25, x26, [sp, #64]
    8b30:	f9002bfb 	str	x27, [sp, #80]
    8b34:	f9400001 	ldr	x1, [x0]
    8b38:	f90047e1 	str	x1, [sp, #136]
    8b3c:	d2800001 	mov	x1, #0x0                   	// #0
/home/jeferson/optee/optee_os-rpi4/lib/libmbedtls/mbedtls/library/bignum.c:476
    8b40:	51000ae0 	sub	w0, w23, #0x2
    8b44:	7100381f 	cmp	w0, #0xe
    8b48:	54000149 	b.ls	8b70 <mbedtls_mpi_read_string+0x68>  // b.plast
/home/jeferson/optee/optee_os-rpi4/lib/libmbedtls/mbedtls/library/bignum.c:477
    8b4c:	12800073 	mov	w19, #0xfffffffc            	// #-4
/home/jeferson/optee/optee_os-rpi4/lib/libmbedtls/mbedtls/library/bignum.c:531
    8b50:	b0000040 	adrp	x0, 11000 <_DYNAMIC>
    8b54:	f9409800 	ldr	x0, [x0, #304]
    8b58:	f94047e2 	ldr	x2, [sp, #136]
    8b5c:	f9400001 	ldr	x1, [x0]
    8b60:	eb010042 	subs	x2, x2, x1
    8b64:	d2800001 	mov	x1, #0x0                   	// #0
    8b68:	54000c60 	b.eq	8cf4 <mbedtls_mpi_read_string+0x1ec>  // b.none
    8b6c:	97ffde14 	bl	3bc <__stack_chk_fail>
    8b70:	aa0203f6 	mov	x22, x2
/home/jeferson/optee/optee_os-rpi4/lib/libmbedtls/mbedtls/library/bignum.c:479
    8b74:	9101c3f8 	add	x24, sp, #0x70
    8b78:	aa1803e0 	mov	x0, x24
    8b7c:	97fffb12 	bl	77c4 <mbedtls_mpi_init_mempool>
/home/jeferson/optee/optee_os-rpi4/lib/libmbedtls/mbedtls/library/bignum.c:481
    8b80:	394002c0 	ldrb	w0, [x22]
    8b84:	350000a0 	cbnz	w0, 8b98 <mbedtls_mpi_read_string+0x90>
/home/jeferson/optee/optee_os-rpi4/lib/libmbedtls/mbedtls/library/bignum.c:483
    8b88:	aa1403e0 	mov	x0, x20
/home/jeferson/optee/optee_os-rpi4/lib/libmbedtls/mbedtls/library/bignum.c:484
    8b8c:	52800013 	mov	w19, #0x0                   	// #0
/home/jeferson/optee/optee_os-rpi4/lib/libmbedtls/mbedtls/library/bignum.c:483
    8b90:	97fffb17 	bl	77ec <mbedtls_mpi_free>
/home/jeferson/optee/optee_os-rpi4/lib/libmbedtls/mbedtls/library/bignum.c:484
    8b94:	17ffffef 	b	8b50 <mbedtls_mpi_read_string+0x48>
/home/jeferson/optee/optee_os-rpi4/lib/libmbedtls/mbedtls/library/bignum.c:487
    8b98:	7100b41f 	cmp	w0, #0x2d
    8b9c:	540004a1 	b.ne	8c30 <mbedtls_mpi_read_string+0x128>  // b.any
/home/jeferson/optee/optee_os-rpi4/lib/libmbedtls/mbedtls/library/bignum.c:489
    8ba0:	910006d6 	add	x22, x22, #0x1
/home/jeferson/optee/optee_os-rpi4/lib/libmbedtls/mbedtls/library/bignum.c:490
    8ba4:	1280001a 	mov	w26, #0xffffffff            	// #-1
/home/jeferson/optee/optee_os-rpi4/lib/libmbedtls/mbedtls/library/bignum.c:493
    8ba8:	aa1603e0 	mov	x0, x22
    8bac:	97ffe266 	bl	1544 <strlen>
    8bb0:	aa0003f5 	mov	x21, x0
/home/jeferson/optee/optee_os-rpi4/lib/libmbedtls/mbedtls/library/bignum.c:495
    8bb4:	710042ff 	cmp	w23, #0x10
    8bb8:	54000641 	b.ne	8c80 <mbedtls_mpi_read_string+0x178>  // b.any
/home/jeferson/optee/optee_os-rpi4/lib/libmbedtls/mbedtls/library/bignum.c:497
    8bbc:	92f80000 	mov	x0, #0x3fffffffffffffff    	// #4611686018427387903
    8bc0:	eb0002bf 	cmp	x21, x0
    8bc4:	54fffc48 	b.hi	8b4c <mbedtls_mpi_read_string+0x44>  // b.pmore
/home/jeferson/optee/optee_os-rpi4/lib/libmbedtls/mbedtls/library/bignum.c:500
    8bc8:	d37e0aa0 	ubfiz	x0, x21, #2, #3
    8bcc:	d343f6a1 	ubfx	x1, x21, #3, #59
    8bd0:	f100001f 	cmp	x0, #0x0
/home/jeferson/optee/optee_os-rpi4/lib/libmbedtls/mbedtls/library/bignum.c:502
    8bd4:	aa1403e0 	mov	x0, x20
    8bd8:	9a810421 	cinc	x1, x1, ne  // ne = any
    8bdc:	97fffb1f 	bl	7858 <mbedtls_mpi_grow>
    8be0:	2a0003f3 	mov	w19, w0
    8be4:	35000200 	cbnz	w0, 8c24 <mbedtls_mpi_read_string+0x11c>
/home/jeferson/optee/optee_os-rpi4/lib/libmbedtls/mbedtls/library/bignum.c:503 (discriminator 2)
    8be8:	aa1403e0 	mov	x0, x20
    8bec:	52800001 	mov	w1, #0x0                   	// #0
    8bf0:	97fffc0b 	bl	7c1c <mbedtls_mpi_lset>
    8bf4:	2a0003f3 	mov	w19, w0
    8bf8:	35000160 	cbnz	w0, 8c24 <mbedtls_mpi_read_string+0x11c>
/home/jeferson/optee/optee_os-rpi4/lib/libmbedtls/mbedtls/library/bignum.c:507
    8bfc:	9101b3e6 	add	x6, sp, #0x6c
/home/jeferson/optee/optee_os-rpi4/lib/libmbedtls/mbedtls/library/bignum.c:505
    8c00:	d2800005 	mov	x5, #0x0                   	// #0
/home/jeferson/optee/optee_os-rpi4/lib/libmbedtls/mbedtls/library/bignum.c:505 (discriminator 2)
    8c04:	b50001b5 	cbnz	x21, 8c38 <mbedtls_mpi_read_string+0x130>
/home/jeferson/optee/optee_os-rpi4/lib/libmbedtls/mbedtls/library/bignum.c:523
    8c08:	3100075f 	cmn	w26, #0x1
    8c0c:	540000a1 	b.ne	8c20 <mbedtls_mpi_read_string+0x118>  // b.any
/home/jeferson/optee/optee_os-rpi4/lib/libmbedtls/mbedtls/library/bignum.c:523 (discriminator 1)
    8c10:	aa1403e0 	mov	x0, x20
    8c14:	97fffc5f 	bl	7d90 <mbedtls_mpi_bitlen>
    8c18:	b4000040 	cbz	x0, 8c20 <mbedtls_mpi_read_string+0x118>
/home/jeferson/optee/optee_os-rpi4/lib/libmbedtls/mbedtls/library/bignum.c:524
    8c1c:	7900029a 	strh	w26, [x20]
    8c20:	52800013 	mov	w19, #0x0                   	// #0
/home/jeferson/optee/optee_os-rpi4/lib/libmbedtls/mbedtls/library/bignum.c:528
    8c24:	aa1803e0 	mov	x0, x24
    8c28:	97fffaf1 	bl	77ec <mbedtls_mpi_free>
/home/jeferson/optee/optee_os-rpi4/lib/libmbedtls/mbedtls/library/bignum.c:530
    8c2c:	17ffffc9 	b	8b50 <mbedtls_mpi_read_string+0x48>
/home/jeferson/optee/optee_os-rpi4/lib/libmbedtls/mbedtls/library/bignum.c:470
    8c30:	5280003a 	mov	w26, #0x1                   	// #1
    8c34:	17ffffdd 	b	8ba8 <mbedtls_mpi_read_string+0xa0>
/home/jeferson/optee/optee_os-rpi4/lib/libmbedtls/mbedtls/library/bignum.c:507
    8c38:	d10006b5 	sub	x21, x21, #0x1
    8c3c:	aa0603e0 	mov	x0, x6
    8c40:	52800201 	mov	w1, #0x10                  	// #16
    8c44:	38756ac2 	ldrb	w2, [x22, x21]
    8c48:	97fff8e6 	bl	6fe0 <mpi_get_digit>
    8c4c:	2a0003f3 	mov	w19, w0
    8c50:	35fffea0 	cbnz	w0, 8c24 <mbedtls_mpi_read_string+0x11c>
/home/jeferson/optee/optee_os-rpi4/lib/libmbedtls/mbedtls/library/bignum.c:508 (discriminator 2)
    8c54:	d343fca0 	lsr	x0, x5, #3
    8c58:	b9406fe2 	ldr	w2, [sp, #108]
    8c5c:	f9400a83 	ldr	x3, [x20, #16]
    8c60:	d37ef400 	lsl	x0, x0, #2
    8c64:	531e08a1 	ubfiz	w1, w5, #2, #3
/home/jeferson/optee/optee_os-rpi4/lib/libmbedtls/mbedtls/library/bignum.c:505 (discriminator 2)
    8c68:	910004a5 	add	x5, x5, #0x1
/home/jeferson/optee/optee_os-rpi4/lib/libmbedtls/mbedtls/library/bignum.c:508 (discriminator 2)
    8c6c:	1ac12042 	lsl	w2, w2, w1
    8c70:	b8606861 	ldr	w1, [x3, x0]
    8c74:	2a020021 	orr	w1, w1, w2
    8c78:	b8206861 	str	w1, [x3, x0]
/home/jeferson/optee/optee_os-rpi4/lib/libmbedtls/mbedtls/library/bignum.c:505 (discriminator 2)
    8c7c:	17ffffe2 	b	8c04 <mbedtls_mpi_read_string+0xfc>
/home/jeferson/optee/optee_os-rpi4/lib/libmbedtls/mbedtls/library/bignum.c:513
    8c80:	aa1403e0 	mov	x0, x20
    8c84:	52800001 	mov	w1, #0x0                   	// #0
    8c88:	97fffbe5 	bl	7c1c <mbedtls_mpi_lset>
    8c8c:	2a0003f3 	mov	w19, w0
    8c90:	35fffca0 	cbnz	w0, 8c24 <mbedtls_mpi_read_string+0x11c>
/home/jeferson/optee/optee_os-rpi4/lib/libmbedtls/mbedtls/library/bignum.c:517
    8c94:	9101b3fb 	add	x27, sp, #0x6c
/home/jeferson/optee/optee_os-rpi4/lib/libmbedtls/mbedtls/library/bignum.c:515
    8c98:	d2800019 	mov	x25, #0x0                   	// #0
/home/jeferson/optee/optee_os-rpi4/lib/libmbedtls/mbedtls/library/bignum.c:515 (discriminator 2)
    8c9c:	eb15033f 	cmp	x25, x21
    8ca0:	54fffb40 	b.eq	8c08 <mbedtls_mpi_read_string+0x100>  // b.none
/home/jeferson/optee/optee_os-rpi4/lib/libmbedtls/mbedtls/library/bignum.c:517
    8ca4:	38796ac2 	ldrb	w2, [x22, x25]
    8ca8:	2a1703e1 	mov	w1, w23
    8cac:	aa1b03e0 	mov	x0, x27
    8cb0:	97fff8cc 	bl	6fe0 <mpi_get_digit>
    8cb4:	2a0003f3 	mov	w19, w0
    8cb8:	35fffb60 	cbnz	w0, 8c24 <mbedtls_mpi_read_string+0x11c>
/home/jeferson/optee/optee_os-rpi4/lib/libmbedtls/mbedtls/library/bignum.c:518 (discriminator 2)
    8cbc:	2a1703e2 	mov	w2, w23
    8cc0:	aa1403e1 	mov	x1, x20
    8cc4:	aa1803e0 	mov	x0, x24
    8cc8:	97ffff66 	bl	8a60 <mbedtls_mpi_mul_int>
    8ccc:	2a0003f3 	mov	w19, w0
    8cd0:	35fffaa0 	cbnz	w0, 8c24 <mbedtls_mpi_read_string+0x11c>
/home/jeferson/optee/optee_os-rpi4/lib/libmbedtls/mbedtls/library/bignum.c:519 (discriminator 2)
    8cd4:	b9406fe2 	ldr	w2, [sp, #108]
    8cd8:	aa1803e1 	mov	x1, x24
    8cdc:	aa1403e0 	mov	x0, x20
    8ce0:	97fffeb9 	bl	87c4 <mbedtls_mpi_add_int>
    8ce4:	2a0003f3 	mov	w19, w0
    8ce8:	35fff9e0 	cbnz	w0, 8c24 <mbedtls_mpi_read_string+0x11c>
/home/jeferson/optee/optee_os-rpi4/lib/libmbedtls/mbedtls/library/bignum.c:515 (discriminator 2)
    8cec:	91000739 	add	x25, x25, #0x1
    8cf0:	17ffffeb 	b	8c9c <mbedtls_mpi_read_string+0x194>
/home/jeferson/optee/optee_os-rpi4/lib/libmbedtls/mbedtls/library/bignum.c:531
    8cf4:	2a1303e0 	mov	w0, w19
    8cf8:	a94153f3 	ldp	x19, x20, [sp, #16]
    8cfc:	a9425bf5 	ldp	x21, x22, [sp, #32]
    8d00:	a94363f7 	ldp	x23, x24, [sp, #48]
    8d04:	a9446bf9 	ldp	x25, x26, [sp, #64]
    8d08:	f9402bfb 	ldr	x27, [sp, #80]
    8d0c:	a8c97bfd 	ldp	x29, x30, [sp], #144
    8d10:	d65f03c0 	ret

0000000000008d14 <mbedtls_mpi_div_mpi>:
mbedtls_mpi_div_mpi():
/home/jeferson/optee/optee_os-rpi4/lib/libmbedtls/mbedtls/library/bignum.c:1692
    8d14:	a9ad7bfd 	stp	x29, x30, [sp, #-304]!
    8d18:	910003fd 	mov	x29, sp
    8d1c:	a9046bf9 	stp	x25, x26, [sp, #64]
    8d20:	aa0003f9 	mov	x25, x0
    8d24:	b0000040 	adrp	x0, 11000 <_DYNAMIC>
    8d28:	a90153f3 	stp	x19, x20, [sp, #16]
    8d2c:	f9409800 	ldr	x0, [x0, #304]
    8d30:	a9025bf5 	stp	x21, x22, [sp, #32]
    8d34:	a90363f7 	stp	x23, x24, [sp, #48]
    8d38:	aa0103f8 	mov	x24, x1
    8d3c:	aa0203f7 	mov	x23, x2
    8d40:	a90573fb 	stp	x27, x28, [sp, #80]
    8d44:	f9003be3 	str	x3, [sp, #112]
    8d48:	f9400001 	ldr	x1, [x0]
    8d4c:	f90097e1 	str	x1, [sp, #296]
    8d50:	d2800001 	mov	x1, #0x0                   	// #0
/home/jeferson/optee/optee_os-rpi4/lib/libmbedtls/mbedtls/library/bignum.c:1700
    8d54:	aa0303e0 	mov	x0, x3
    8d58:	97fffd99 	bl	83bc <mbedtls_mpi_cmp_int>
    8d5c:	34002580 	cbz	w0, 920c <mbedtls_mpi_div_mpi+0x4f8>
/home/jeferson/optee/optee_os-rpi4/lib/libmbedtls/mbedtls/library/bignum.c:1703
    8d60:	910283f3 	add	x19, sp, #0xa0
    8d64:	9102e3f6 	add	x22, sp, #0xb8
    8d68:	aa1303e0 	mov	x0, x19
    8d6c:	97fffa96 	bl	77c4 <mbedtls_mpi_init_mempool>
    8d70:	aa1603e0 	mov	x0, x22
/home/jeferson/optee/optee_os-rpi4/lib/libmbedtls/mbedtls/library/bignum.c:1704
    8d74:	910343fc 	add	x28, sp, #0xd0
/home/jeferson/optee/optee_os-rpi4/lib/libmbedtls/mbedtls/library/bignum.c:1703
    8d78:	97fffa93 	bl	77c4 <mbedtls_mpi_init_mempool>
/home/jeferson/optee/optee_os-rpi4/lib/libmbedtls/mbedtls/library/bignum.c:1704
    8d7c:	9103a3f5 	add	x21, sp, #0xe8
    8d80:	aa1c03e0 	mov	x0, x28
    8d84:	97fffa90 	bl	77c4 <mbedtls_mpi_init_mempool>
    8d88:	aa1503e0 	mov	x0, x21
    8d8c:	97fffa8e 	bl	77c4 <mbedtls_mpi_init_mempool>
/home/jeferson/optee/optee_os-rpi4/lib/libmbedtls/mbedtls/library/bignum.c:1716
    8d90:	f9403be1 	ldr	x1, [sp, #112]
/home/jeferson/optee/optee_os-rpi4/lib/libmbedtls/mbedtls/library/bignum.c:1713
    8d94:	d2800060 	mov	x0, #0x3                   	// #3
    8d98:	f90087e0 	str	x0, [sp, #264]
/home/jeferson/optee/optee_os-rpi4/lib/libmbedtls/mbedtls/library/bignum.c:1714
    8d9c:	910463e0 	add	x0, sp, #0x118
/home/jeferson/optee/optee_os-rpi4/lib/libmbedtls/mbedtls/library/bignum.c:1712
    8da0:	52800034 	mov	w20, #0x1                   	// #1
/home/jeferson/optee/optee_os-rpi4/lib/libmbedtls/mbedtls/library/bignum.c:1714
    8da4:	f90047e0 	str	x0, [sp, #136]
/home/jeferson/optee/optee_os-rpi4/lib/libmbedtls/mbedtls/library/bignum.c:1712
    8da8:	790203f4 	strh	w20, [sp, #256]
/home/jeferson/optee/optee_os-rpi4/lib/libmbedtls/mbedtls/library/bignum.c:1714
    8dac:	f9008be0 	str	x0, [sp, #272]
/home/jeferson/optee/optee_os-rpi4/lib/libmbedtls/mbedtls/library/bignum.c:1716
    8db0:	aa1703e0 	mov	x0, x23
    8db4:	97fffd27 	bl	8250 <mbedtls_mpi_cmp_abs>
    8db8:	36f80460 	tbz	w0, #31, 8e44 <mbedtls_mpi_div_mpi+0x130>
/home/jeferson/optee/optee_os-rpi4/lib/libmbedtls/mbedtls/library/bignum.c:1718
    8dbc:	b5000179 	cbnz	x25, 8de8 <mbedtls_mpi_div_mpi+0xd4>
/home/jeferson/optee/optee_os-rpi4/lib/libmbedtls/mbedtls/library/bignum.c:1719
    8dc0:	b5000378 	cbnz	x24, 8e2c <mbedtls_mpi_div_mpi+0x118>
/home/jeferson/optee/optee_os-rpi4/lib/libmbedtls/mbedtls/library/bignum.c:1720
    8dc4:	5280001b 	mov	w27, #0x0                   	// #0
/home/jeferson/optee/optee_os-rpi4/lib/libmbedtls/mbedtls/library/bignum.c:1813
    8dc8:	b0000040 	adrp	x0, 11000 <_DYNAMIC>
    8dcc:	f9409800 	ldr	x0, [x0, #304]
    8dd0:	f94097e2 	ldr	x2, [sp, #296]
    8dd4:	f9400001 	ldr	x1, [x0]
    8dd8:	eb010042 	subs	x2, x2, x1
    8ddc:	d2800001 	mov	x1, #0x0                   	// #0
    8de0:	540021a0 	b.eq	9214 <mbedtls_mpi_div_mpi+0x500>  // b.none
    8de4:	97ffdd76 	bl	3bc <__stack_chk_fail>
/home/jeferson/optee/optee_os-rpi4/lib/libmbedtls/mbedtls/library/bignum.c:1718 (discriminator 1)
    8de8:	aa1903e0 	mov	x0, x25
    8dec:	52800001 	mov	w1, #0x0                   	// #0
    8df0:	97fffb8b 	bl	7c1c <mbedtls_mpi_lset>
    8df4:	2a0003fb 	mov	w27, w0
    8df8:	34fffe40 	cbz	w0, 8dc0 <mbedtls_mpi_div_mpi+0xac>
/home/jeferson/optee/optee_os-rpi4/lib/libmbedtls/mbedtls/library/bignum.c:1808
    8dfc:	aa1303e0 	mov	x0, x19
    8e00:	97fffa7b 	bl	77ec <mbedtls_mpi_free>
    8e04:	aa1603e0 	mov	x0, x22
    8e08:	97fffa79 	bl	77ec <mbedtls_mpi_free>
    8e0c:	aa1c03e0 	mov	x0, x28
    8e10:	97fffa77 	bl	77ec <mbedtls_mpi_free>
/home/jeferson/optee/optee_os-rpi4/lib/libmbedtls/mbedtls/library/bignum.c:1809
    8e14:	aa1503e0 	mov	x0, x21
    8e18:	97fffa75 	bl	77ec <mbedtls_mpi_free>
/home/jeferson/optee/optee_os-rpi4/lib/libmbedtls/mbedtls/library/bignum.c:1810
    8e1c:	f94047e0 	ldr	x0, [sp, #136]
    8e20:	d2800181 	mov	x1, #0xc                   	// #12
    8e24:	94000ac0 	bl	b924 <mbedtls_platform_zeroize>
/home/jeferson/optee/optee_os-rpi4/lib/libmbedtls/mbedtls/library/bignum.c:1812
    8e28:	17ffffe8 	b	8dc8 <mbedtls_mpi_div_mpi+0xb4>
/home/jeferson/optee/optee_os-rpi4/lib/libmbedtls/mbedtls/library/bignum.c:1719 (discriminator 1)
    8e2c:	aa1703e1 	mov	x1, x23
    8e30:	aa1803e0 	mov	x0, x24
    8e34:	97fffb24 	bl	7ac4 <mbedtls_mpi_copy>
    8e38:	2a0003fb 	mov	w27, w0
    8e3c:	35fffe00 	cbnz	w0, 8dfc <mbedtls_mpi_div_mpi+0xe8>
    8e40:	17ffffe1 	b	8dc4 <mbedtls_mpi_div_mpi+0xb0>
/home/jeferson/optee/optee_os-rpi4/lib/libmbedtls/mbedtls/library/bignum.c:1723
    8e44:	aa1703e1 	mov	x1, x23
    8e48:	aa1303e0 	mov	x0, x19
    8e4c:	97fffb1e 	bl	7ac4 <mbedtls_mpi_copy>
    8e50:	2a0003fb 	mov	w27, w0
    8e54:	35fffd40 	cbnz	w0, 8dfc <mbedtls_mpi_div_mpi+0xe8>
/home/jeferson/optee/optee_os-rpi4/lib/libmbedtls/mbedtls/library/bignum.c:1724 (discriminator 2)
    8e58:	f9403be1 	ldr	x1, [sp, #112]
    8e5c:	aa1603e0 	mov	x0, x22
    8e60:	97fffb19 	bl	7ac4 <mbedtls_mpi_copy>
    8e64:	2a0003fb 	mov	w27, w0
    8e68:	35fffca0 	cbnz	w0, 8dfc <mbedtls_mpi_div_mpi+0xe8>
/home/jeferson/optee/optee_os-rpi4/lib/libmbedtls/mbedtls/library/bignum.c:1727 (discriminator 2)
    8e6c:	f94006e1 	ldr	x1, [x23, #8]
    8e70:	aa1c03e0 	mov	x0, x28
/home/jeferson/optee/optee_os-rpi4/lib/libmbedtls/mbedtls/library/bignum.c:1725 (discriminator 2)
    8e74:	790143f4 	strh	w20, [sp, #160]
/home/jeferson/optee/optee_os-rpi4/lib/libmbedtls/mbedtls/library/bignum.c:1727 (discriminator 2)
    8e78:	91000821 	add	x1, x1, #0x2
/home/jeferson/optee/optee_os-rpi4/lib/libmbedtls/mbedtls/library/bignum.c:1725 (discriminator 2)
    8e7c:	790173f4 	strh	w20, [sp, #184]
/home/jeferson/optee/optee_os-rpi4/lib/libmbedtls/mbedtls/library/bignum.c:1727 (discriminator 2)
    8e80:	97fffa76 	bl	7858 <mbedtls_mpi_grow>
    8e84:	2a0003fb 	mov	w27, w0
    8e88:	35fffba0 	cbnz	w0, 8dfc <mbedtls_mpi_div_mpi+0xe8>
/home/jeferson/optee/optee_os-rpi4/lib/libmbedtls/mbedtls/library/bignum.c:1728 (discriminator 2)
    8e8c:	aa1c03e0 	mov	x0, x28
    8e90:	52800001 	mov	w1, #0x0                   	// #0
    8e94:	97fffb62 	bl	7c1c <mbedtls_mpi_lset>
    8e98:	2a0003fb 	mov	w27, w0
    8e9c:	35fffb00 	cbnz	w0, 8dfc <mbedtls_mpi_div_mpi+0xe8>
/home/jeferson/optee/optee_os-rpi4/lib/libmbedtls/mbedtls/library/bignum.c:1729 (discriminator 2)
    8ea0:	f94006e1 	ldr	x1, [x23, #8]
    8ea4:	aa1503e0 	mov	x0, x21
    8ea8:	91000821 	add	x1, x1, #0x2
    8eac:	97fffa6b 	bl	7858 <mbedtls_mpi_grow>
    8eb0:	2a0003fb 	mov	w27, w0
    8eb4:	35fffa40 	cbnz	w0, 8dfc <mbedtls_mpi_div_mpi+0xe8>
/home/jeferson/optee/optee_os-rpi4/lib/libmbedtls/mbedtls/library/bignum.c:1731 (discriminator 2)
    8eb8:	aa1603e0 	mov	x0, x22
    8ebc:	97fffbb5 	bl	7d90 <mbedtls_mpi_bitlen>
    8ec0:	92401000 	and	x0, x0, #0x1f
/home/jeferson/optee/optee_os-rpi4/lib/libmbedtls/mbedtls/library/bignum.c:1732 (discriminator 2)
    8ec4:	f1007c1f 	cmp	x0, #0x1f
    8ec8:	54000a20 	b.eq	900c <mbedtls_mpi_div_mpi+0x2f8>  // b.none
/home/jeferson/optee/optee_os-rpi4/lib/libmbedtls/mbedtls/library/bignum.c:1734
    8ecc:	d28003fa 	mov	x26, #0x1f                  	// #31
    8ed0:	cb00035a 	sub	x26, x26, x0
/home/jeferson/optee/optee_os-rpi4/lib/libmbedtls/mbedtls/library/bignum.c:1735
    8ed4:	aa1a03e1 	mov	x1, x26
    8ed8:	aa1303e0 	mov	x0, x19
    8edc:	97fffc69 	bl	8080 <mbedtls_mpi_shift_l>
    8ee0:	2a0003fb 	mov	w27, w0
    8ee4:	35fff8c0 	cbnz	w0, 8dfc <mbedtls_mpi_div_mpi+0xe8>
/home/jeferson/optee/optee_os-rpi4/lib/libmbedtls/mbedtls/library/bignum.c:1736 (discriminator 2)
    8ee8:	aa1a03e1 	mov	x1, x26
    8eec:	aa1603e0 	mov	x0, x22
    8ef0:	97fffc64 	bl	8080 <mbedtls_mpi_shift_l>
    8ef4:	2a0003fb 	mov	w27, w0
    8ef8:	35fff820 	cbnz	w0, 8dfc <mbedtls_mpi_div_mpi+0xe8>
/home/jeferson/optee/optee_os-rpi4/lib/libmbedtls/mbedtls/library/bignum.c:1740
    8efc:	f94057e0 	ldr	x0, [sp, #168]
    8f00:	f90037e0 	str	x0, [sp, #104]
/home/jeferson/optee/optee_os-rpi4/lib/libmbedtls/mbedtls/library/bignum.c:1741
    8f04:	f94063e0 	ldr	x0, [sp, #192]
    8f08:	f9003fe0 	str	x0, [sp, #120]
/home/jeferson/optee/optee_os-rpi4/lib/libmbedtls/mbedtls/library/bignum.c:1742
    8f0c:	f94037e0 	ldr	x0, [sp, #104]
    8f10:	f9403fe1 	ldr	x1, [sp, #120]
    8f14:	cb010014 	sub	x20, x0, x1
    8f18:	d37bea80 	lsl	x0, x20, #5
    8f1c:	f90043e0 	str	x0, [sp, #128]
    8f20:	aa0003e1 	mov	x1, x0
    8f24:	aa1603e0 	mov	x0, x22
    8f28:	97fffc56 	bl	8080 <mbedtls_mpi_shift_l>
    8f2c:	2a0003fb 	mov	w27, w0
    8f30:	35fff660 	cbnz	w0, 8dfc <mbedtls_mpi_div_mpi+0xe8>
/home/jeferson/optee/optee_os-rpi4/lib/libmbedtls/mbedtls/library/bignum.c:1746
    8f34:	d37ef694 	lsl	x20, x20, #2
/home/jeferson/optee/optee_os-rpi4/lib/libmbedtls/mbedtls/library/bignum.c:1744 (discriminator 2)
    8f38:	aa1603e1 	mov	x1, x22
    8f3c:	aa1303e0 	mov	x0, x19
    8f40:	97fffceb 	bl	82ec <mbedtls_mpi_cmp_mpi>
    8f44:	36f80680 	tbz	w0, #31, 9014 <mbedtls_mpi_div_mpi+0x300>
/home/jeferson/optee/optee_os-rpi4/lib/libmbedtls/mbedtls/library/bignum.c:1749
    8f48:	f94043e1 	ldr	x1, [sp, #128]
    8f4c:	aa1603e0 	mov	x0, x22
    8f50:	97fffc90 	bl	8190 <mbedtls_mpi_shift_r>
    8f54:	2a0003fb 	mov	w27, w0
    8f58:	35fff520 	cbnz	w0, 8dfc <mbedtls_mpi_div_mpi+0xe8>
/home/jeferson/optee/optee_os-rpi4/lib/libmbedtls/mbedtls/library/bignum.c:1740
    8f5c:	f94037e0 	ldr	x0, [sp, #104]
    8f60:	d1001294 	sub	x20, x20, #0x4
    8f64:	d1000400 	sub	x0, x0, #0x1
    8f68:	f90037e0 	str	x0, [sp, #104]
/home/jeferson/optee/optee_os-rpi4/lib/libmbedtls/mbedtls/library/bignum.c:1741
    8f6c:	f9403fe0 	ldr	x0, [sp, #120]
    8f70:	d1000400 	sub	x0, x0, #0x1
    8f74:	f90043e0 	str	x0, [sp, #128]
/home/jeferson/optee/optee_os-rpi4/lib/libmbedtls/mbedtls/library/bignum.c:1753
    8f78:	d37ef400 	lsl	x0, x0, #2
    8f7c:	f9003fe0 	str	x0, [sp, #120]
/home/jeferson/optee/optee_os-rpi4/lib/libmbedtls/mbedtls/library/bignum.c:1775
    8f80:	910403e0 	add	x0, sp, #0x100
    8f84:	f9004be0 	str	x0, [sp, #144]
/home/jeferson/optee/optee_os-rpi4/lib/libmbedtls/mbedtls/library/bignum.c:1751 (discriminator 1)
    8f88:	f94037e0 	ldr	x0, [sp, #104]
    8f8c:	f94043e1 	ldr	x1, [sp, #128]
    8f90:	eb01001f 	cmp	x0, x1
    8f94:	54000568 	b.hi	9040 <mbedtls_mpi_div_mpi+0x32c>  // b.pmore
/home/jeferson/optee/optee_os-rpi4/lib/libmbedtls/mbedtls/library/bignum.c:1790
    8f98:	b4000159 	cbz	x25, 8fc0 <mbedtls_mpi_div_mpi+0x2ac>
/home/jeferson/optee/optee_os-rpi4/lib/libmbedtls/mbedtls/library/bignum.c:1792
    8f9c:	aa1c03e1 	mov	x1, x28
    8fa0:	aa1903e0 	mov	x0, x25
    8fa4:	97fffac8 	bl	7ac4 <mbedtls_mpi_copy>
    8fa8:	350012e0 	cbnz	w0, 9204 <mbedtls_mpi_div_mpi+0x4f0>
/home/jeferson/optee/optee_os-rpi4/lib/libmbedtls/mbedtls/library/bignum.c:1793 (discriminator 2)
    8fac:	f9403be1 	ldr	x1, [sp, #112]
    8fb0:	794002e0 	ldrh	w0, [x23]
    8fb4:	79400021 	ldrh	w1, [x1]
    8fb8:	1b017c00 	mul	w0, w0, w1
    8fbc:	79000320 	strh	w0, [x25]
/home/jeferson/optee/optee_os-rpi4/lib/libmbedtls/mbedtls/library/bignum.c:1796
    8fc0:	b4fff1f8 	cbz	x24, 8dfc <mbedtls_mpi_div_mpi+0xe8>
/home/jeferson/optee/optee_os-rpi4/lib/libmbedtls/mbedtls/library/bignum.c:1798
    8fc4:	aa1a03e1 	mov	x1, x26
    8fc8:	aa1303e0 	mov	x0, x19
    8fcc:	97fffc71 	bl	8190 <mbedtls_mpi_shift_r>
    8fd0:	350011a0 	cbnz	w0, 9204 <mbedtls_mpi_div_mpi+0x4f0>
/home/jeferson/optee/optee_os-rpi4/lib/libmbedtls/mbedtls/library/bignum.c:1799 (discriminator 2)
    8fd4:	794002e0 	ldrh	w0, [x23]
/home/jeferson/optee/optee_os-rpi4/lib/libmbedtls/mbedtls/library/bignum.c:1800 (discriminator 2)
    8fd8:	aa1303e1 	mov	x1, x19
/home/jeferson/optee/optee_os-rpi4/lib/libmbedtls/mbedtls/library/bignum.c:1799 (discriminator 2)
    8fdc:	790143e0 	strh	w0, [sp, #160]
/home/jeferson/optee/optee_os-rpi4/lib/libmbedtls/mbedtls/library/bignum.c:1800 (discriminator 2)
    8fe0:	aa1803e0 	mov	x0, x24
    8fe4:	97fffab8 	bl	7ac4 <mbedtls_mpi_copy>
    8fe8:	350010e0 	cbnz	w0, 9204 <mbedtls_mpi_div_mpi+0x4f0>
/home/jeferson/optee/optee_os-rpi4/lib/libmbedtls/mbedtls/library/bignum.c:1802 (discriminator 2)
    8fec:	aa1803e0 	mov	x0, x24
    8ff0:	52800001 	mov	w1, #0x0                   	// #0
    8ff4:	97fffcf2 	bl	83bc <mbedtls_mpi_cmp_int>
    8ff8:	35fff020 	cbnz	w0, 8dfc <mbedtls_mpi_div_mpi+0xe8>
/home/jeferson/optee/optee_os-rpi4/lib/libmbedtls/mbedtls/library/bignum.c:1803
    8ffc:	52800020 	mov	w0, #0x1                   	// #1
/home/jeferson/optee/optee_os-rpi4/lib/libmbedtls/mbedtls/library/bignum.c:1800
    9000:	5280001b 	mov	w27, #0x0                   	// #0
/home/jeferson/optee/optee_os-rpi4/lib/libmbedtls/mbedtls/library/bignum.c:1803
    9004:	79000300 	strh	w0, [x24]
    9008:	17ffff7d 	b	8dfc <mbedtls_mpi_div_mpi+0xe8>
/home/jeferson/optee/optee_os-rpi4/lib/libmbedtls/mbedtls/library/bignum.c:1738
    900c:	d280001a 	mov	x26, #0x0                   	// #0
    9010:	17ffffbb 	b	8efc <mbedtls_mpi_div_mpi+0x1e8>
/home/jeferson/optee/optee_os-rpi4/lib/libmbedtls/mbedtls/library/bignum.c:1746
    9014:	f94073e1 	ldr	x1, [sp, #224]
/home/jeferson/optee/optee_os-rpi4/lib/libmbedtls/mbedtls/library/bignum.c:1747
    9018:	aa1603e2 	mov	x2, x22
/home/jeferson/optee/optee_os-rpi4/lib/libmbedtls/mbedtls/library/bignum.c:1746
    901c:	b8746820 	ldr	w0, [x1, x20]
    9020:	11000400 	add	w0, w0, #0x1
    9024:	b8346820 	str	w0, [x1, x20]
/home/jeferson/optee/optee_os-rpi4/lib/libmbedtls/mbedtls/library/bignum.c:1747
    9028:	aa1303e1 	mov	x1, x19
    902c:	aa1303e0 	mov	x0, x19
    9030:	97fffdc2 	bl	8738 <mbedtls_mpi_sub_mpi>
    9034:	2a0003fb 	mov	w27, w0
    9038:	34fff800 	cbz	w0, 8f38 <mbedtls_mpi_div_mpi+0x224>
    903c:	17ffff70 	b	8dfc <mbedtls_mpi_div_mpi+0xe8>
/home/jeferson/optee/optee_os-rpi4/lib/libmbedtls/mbedtls/library/bignum.c:1753
    9040:	f94037e0 	ldr	x0, [sp, #104]
    9044:	f9403fe3 	ldr	x3, [sp, #120]
    9048:	f94067e1 	ldr	x1, [sp, #200]
    904c:	d37ef405 	lsl	x5, x0, #2
    9050:	f9405be2 	ldr	x2, [sp, #176]
/home/jeferson/optee/optee_os-rpi4/lib/libmbedtls/mbedtls/library/bignum.c:1757
    9054:	d10010a6 	sub	x6, x5, #0x4
/home/jeferson/optee/optee_os-rpi4/lib/libmbedtls/mbedtls/library/bignum.c:1753
    9058:	b8636824 	ldr	w4, [x1, x3]
/home/jeferson/optee/optee_os-rpi4/lib/libmbedtls/mbedtls/library/bignum.c:1754
    905c:	f94073e1 	ldr	x1, [sp, #224]
/home/jeferson/optee/optee_os-rpi4/lib/libmbedtls/mbedtls/library/bignum.c:1753
    9060:	8b000847 	add	x7, x2, x0, lsl #2
    9064:	b8656840 	ldr	w0, [x2, x5]
/home/jeferson/optee/optee_os-rpi4/lib/libmbedtls/mbedtls/library/bignum.c:1754
    9068:	8b140021 	add	x1, x1, x20
/home/jeferson/optee/optee_os-rpi4/lib/libmbedtls/mbedtls/library/bignum.c:1753
    906c:	6b04001f 	cmp	w0, w4
    9070:	54000be2 	b.cs	91ec <mbedtls_mpi_div_mpi+0x4d8>  // b.hs, b.nlast
mbedtls_int_div_int():
/home/jeferson/optee/optee_os-rpi4/lib/libmbedtls/mbedtls/library/bignum.c:1620
    9074:	b8666848 	ldr	w8, [x2, x6]
/home/jeferson/optee/optee_os-rpi4/lib/libmbedtls/mbedtls/library/bignum.c:1621
    9078:	2a0403e4 	mov	w4, w4
/home/jeferson/optee/optee_os-rpi4/lib/libmbedtls/mbedtls/library/bignum.c:1628
    907c:	b2407fe3 	mov	x3, #0xffffffff            	// #4294967295
/home/jeferson/optee/optee_os-rpi4/lib/libmbedtls/mbedtls/library/bignum.c:1620
    9080:	aa008100 	orr	x0, x8, x0, lsl #32
/home/jeferson/optee/optee_os-rpi4/lib/libmbedtls/mbedtls/library/bignum.c:1621
    9084:	9ac40800 	udiv	x0, x0, x4
/home/jeferson/optee/optee_os-rpi4/lib/libmbedtls/mbedtls/library/bignum.c:1628
    9088:	eb03001f 	cmp	x0, x3
    908c:	9a839000 	csel	x0, x0, x3, ls  // ls = plast
mbedtls_mpi_div_mpi():
/home/jeferson/optee/optee_os-rpi4/lib/libmbedtls/mbedtls/library/bignum.c:1754
    9090:	b9000020 	str	w0, [x1]
/home/jeferson/optee/optee_os-rpi4/lib/libmbedtls/mbedtls/library/bignum.c:1761
    9094:	f94037e0 	ldr	x0, [sp, #104]
    9098:	f100041f 	cmp	x0, #0x1
    909c:	54000ac0 	b.eq	91f4 <mbedtls_mpi_div_mpi+0x4e0>  // b.none
/home/jeferson/optee/optee_os-rpi4/lib/libmbedtls/mbedtls/library/bignum.c:1761 (discriminator 1)
    90a0:	b85f80e4 	ldur	w4, [x7, #-8]
/home/jeferson/optee/optee_os-rpi4/lib/libmbedtls/mbedtls/library/bignum.c:1761 (discriminator 4)
    90a4:	f9408be0 	ldr	x0, [sp, #272]
    90a8:	b9000004 	str	w4, [x0]
/home/jeferson/optee/optee_os-rpi4/lib/libmbedtls/mbedtls/library/bignum.c:1762 (discriminator 4)
    90ac:	b8666844 	ldr	w4, [x2, x6]
    90b0:	b9000404 	str	w4, [x0, #4]
/home/jeferson/optee/optee_os-rpi4/lib/libmbedtls/mbedtls/library/bignum.c:1763 (discriminator 4)
    90b4:	b8656842 	ldr	w2, [x2, x5]
    90b8:	b9000802 	str	w2, [x0, #8]
/home/jeferson/optee/optee_os-rpi4/lib/libmbedtls/mbedtls/library/bignum.c:1765 (discriminator 4)
    90bc:	b9400020 	ldr	w0, [x1]
    90c0:	11000400 	add	w0, w0, #0x1
    90c4:	b9000020 	str	w0, [x1]
/home/jeferson/optee/optee_os-rpi4/lib/libmbedtls/mbedtls/library/bignum.c:1768
    90c8:	f94073e1 	ldr	x1, [sp, #224]
    90cc:	b8746820 	ldr	w0, [x1, x20]
    90d0:	51000400 	sub	w0, w0, #0x1
    90d4:	b8346820 	str	w0, [x1, x20]
/home/jeferson/optee/optee_os-rpi4/lib/libmbedtls/mbedtls/library/bignum.c:1770
    90d8:	aa1503e0 	mov	x0, x21
    90dc:	52800001 	mov	w1, #0x0                   	// #0
    90e0:	97fffacf 	bl	7c1c <mbedtls_mpi_lset>
    90e4:	35000900 	cbnz	w0, 9204 <mbedtls_mpi_div_mpi+0x4f0>
/home/jeferson/optee/optee_os-rpi4/lib/libmbedtls/mbedtls/library/bignum.c:1771 (discriminator 2)
    90e8:	f94043e0 	ldr	x0, [sp, #128]
    90ec:	f94067e1 	ldr	x1, [sp, #200]
    90f0:	b4000860 	cbz	x0, 91fc <mbedtls_mpi_div_mpi+0x4e8>
/home/jeferson/optee/optee_os-rpi4/lib/libmbedtls/mbedtls/library/bignum.c:1771 (discriminator 1)
    90f4:	f9403fe0 	ldr	x0, [sp, #120]
    90f8:	8b000020 	add	x0, x1, x0
    90fc:	b85fc002 	ldur	w2, [x0, #-4]
/home/jeferson/optee/optee_os-rpi4/lib/libmbedtls/mbedtls/library/bignum.c:1771 (discriminator 4)
    9100:	f9407fe0 	ldr	x0, [sp, #248]
    9104:	b9000002 	str	w2, [x0]
/home/jeferson/optee/optee_os-rpi4/lib/libmbedtls/mbedtls/library/bignum.c:1772 (discriminator 4)
    9108:	f9403fe2 	ldr	x2, [sp, #120]
    910c:	b8626821 	ldr	w1, [x1, x2]
    9110:	b9000401 	str	w1, [x0, #4]
/home/jeferson/optee/optee_os-rpi4/lib/libmbedtls/mbedtls/library/bignum.c:1773 (discriminator 4)
    9114:	aa1503e1 	mov	x1, x21
    9118:	f94073e0 	ldr	x0, [sp, #224]
    911c:	b8746802 	ldr	w2, [x0, x20]
    9120:	aa1503e0 	mov	x0, x21
    9124:	97fffe4f 	bl	8a60 <mbedtls_mpi_mul_int>
    9128:	350006e0 	cbnz	w0, 9204 <mbedtls_mpi_div_mpi+0x4f0>
/home/jeferson/optee/optee_os-rpi4/lib/libmbedtls/mbedtls/library/bignum.c:1775 (discriminator 2)
    912c:	f9404be1 	ldr	x1, [sp, #144]
    9130:	aa1503e0 	mov	x0, x21
    9134:	97fffc6e 	bl	82ec <mbedtls_mpi_cmp_mpi>
    9138:	7100001f 	cmp	w0, #0x0
    913c:	54fffc6c 	b.gt	90c8 <mbedtls_mpi_div_mpi+0x3b4>
/home/jeferson/optee/optee_os-rpi4/lib/libmbedtls/mbedtls/library/bignum.c:1777
    9140:	f94073e0 	ldr	x0, [sp, #224]
    9144:	aa1603e1 	mov	x1, x22
    9148:	b8746802 	ldr	w2, [x0, x20]
    914c:	aa1503e0 	mov	x0, x21
    9150:	97fffe44 	bl	8a60 <mbedtls_mpi_mul_int>
    9154:	35000580 	cbnz	w0, 9204 <mbedtls_mpi_div_mpi+0x4f0>
/home/jeferson/optee/optee_os-rpi4/lib/libmbedtls/mbedtls/library/bignum.c:1778 (discriminator 2)
    9158:	d37df280 	lsl	x0, x20, #3
    915c:	f9004fe0 	str	x0, [sp, #152]
    9160:	aa0003e1 	mov	x1, x0
    9164:	aa1503e0 	mov	x0, x21
    9168:	97fffbc6 	bl	8080 <mbedtls_mpi_shift_l>
    916c:	350004c0 	cbnz	w0, 9204 <mbedtls_mpi_div_mpi+0x4f0>
/home/jeferson/optee/optee_os-rpi4/lib/libmbedtls/mbedtls/library/bignum.c:1779 (discriminator 2)
    9170:	aa1503e2 	mov	x2, x21
    9174:	aa1303e1 	mov	x1, x19
    9178:	aa1303e0 	mov	x0, x19
    917c:	97fffd6f 	bl	8738 <mbedtls_mpi_sub_mpi>
    9180:	35000420 	cbnz	w0, 9204 <mbedtls_mpi_div_mpi+0x4f0>
/home/jeferson/optee/optee_os-rpi4/lib/libmbedtls/mbedtls/library/bignum.c:1781 (discriminator 2)
    9184:	aa1303e0 	mov	x0, x19
    9188:	52800001 	mov	w1, #0x0                   	// #0
    918c:	97fffc8c 	bl	83bc <mbedtls_mpi_cmp_int>
    9190:	36f80240 	tbz	w0, #31, 91d8 <mbedtls_mpi_div_mpi+0x4c4>
/home/jeferson/optee/optee_os-rpi4/lib/libmbedtls/mbedtls/library/bignum.c:1783
    9194:	aa1603e1 	mov	x1, x22
    9198:	aa1503e0 	mov	x0, x21
    919c:	97fffa4a 	bl	7ac4 <mbedtls_mpi_copy>
    91a0:	35000320 	cbnz	w0, 9204 <mbedtls_mpi_div_mpi+0x4f0>
/home/jeferson/optee/optee_os-rpi4/lib/libmbedtls/mbedtls/library/bignum.c:1784 (discriminator 2)
    91a4:	d37df281 	lsl	x1, x20, #3
    91a8:	aa1503e0 	mov	x0, x21
    91ac:	97fffbb5 	bl	8080 <mbedtls_mpi_shift_l>
    91b0:	350002a0 	cbnz	w0, 9204 <mbedtls_mpi_div_mpi+0x4f0>
/home/jeferson/optee/optee_os-rpi4/lib/libmbedtls/mbedtls/library/bignum.c:1785 (discriminator 2)
    91b4:	aa1503e2 	mov	x2, x21
    91b8:	aa1303e1 	mov	x1, x19
    91bc:	aa1303e0 	mov	x0, x19
    91c0:	97fffd3c 	bl	86b0 <mbedtls_mpi_add_mpi>
    91c4:	35000200 	cbnz	w0, 9204 <mbedtls_mpi_div_mpi+0x4f0>
/home/jeferson/optee/optee_os-rpi4/lib/libmbedtls/mbedtls/library/bignum.c:1786 (discriminator 2)
    91c8:	f94073e1 	ldr	x1, [sp, #224]
    91cc:	b8746820 	ldr	w0, [x1, x20]
    91d0:	51000400 	sub	w0, w0, #0x1
    91d4:	b8346820 	str	w0, [x1, x20]
/home/jeferson/optee/optee_os-rpi4/lib/libmbedtls/mbedtls/library/bignum.c:1751 (discriminator 2)
    91d8:	f94037e0 	ldr	x0, [sp, #104]
    91dc:	d1001294 	sub	x20, x20, #0x4
    91e0:	d1000400 	sub	x0, x0, #0x1
    91e4:	f90037e0 	str	x0, [sp, #104]
    91e8:	17ffff68 	b	8f88 <mbedtls_mpi_div_mpi+0x274>
    91ec:	12800000 	mov	w0, #0xffffffff            	// #-1
    91f0:	17ffffa8 	b	9090 <mbedtls_mpi_div_mpi+0x37c>
/home/jeferson/optee/optee_os-rpi4/lib/libmbedtls/mbedtls/library/bignum.c:1761
    91f4:	52800004 	mov	w4, #0x0                   	// #0
    91f8:	17ffffab 	b	90a4 <mbedtls_mpi_div_mpi+0x390>
/home/jeferson/optee/optee_os-rpi4/lib/libmbedtls/mbedtls/library/bignum.c:1771
    91fc:	52800002 	mov	w2, #0x0                   	// #0
    9200:	17ffffc0 	b	9100 <mbedtls_mpi_div_mpi+0x3ec>
    9204:	2a0003fb 	mov	w27, w0
    9208:	17fffefd 	b	8dfc <mbedtls_mpi_div_mpi+0xe8>
/home/jeferson/optee/optee_os-rpi4/lib/libmbedtls/mbedtls/library/bignum.c:1701
    920c:	1280017b 	mov	w27, #0xfffffff4            	// #-12
    9210:	17fffeee 	b	8dc8 <mbedtls_mpi_div_mpi+0xb4>
/home/jeferson/optee/optee_os-rpi4/lib/libmbedtls/mbedtls/library/bignum.c:1813
    9214:	2a1b03e0 	mov	w0, w27
    9218:	a94153f3 	ldp	x19, x20, [sp, #16]
    921c:	a9425bf5 	ldp	x21, x22, [sp, #32]
    9220:	a94363f7 	ldp	x23, x24, [sp, #48]
    9224:	a9446bf9 	ldp	x25, x26, [sp, #64]
    9228:	a94573fb 	ldp	x27, x28, [sp, #80]
    922c:	a8d37bfd 	ldp	x29, x30, [sp], #304
    9230:	d65f03c0 	ret

0000000000009234 <mbedtls_mpi_div_int>:
mbedtls_mpi_div_int():
/home/jeferson/optee/optee_os-rpi4/lib/libmbedtls/mbedtls/library/bignum.c:1821
    9234:	a9bb7bfd 	stp	x29, x30, [sp, #-80]!
/home/jeferson/optee/optee_os-rpi4/lib/libmbedtls/mbedtls/library/bignum.c:1826
    9238:	7100007f 	cmp	w3, #0x0
    923c:	5a83a463 	cneg	w3, w3, lt  // lt = tstop
/home/jeferson/optee/optee_os-rpi4/lib/libmbedtls/mbedtls/library/bignum.c:1821
    9240:	910003fd 	mov	x29, sp
    9244:	f9000bf3 	str	x19, [sp, #16]
    9248:	90000053 	adrp	x19, 11000 <_DYNAMIC>
    924c:	f9409a64 	ldr	x4, [x19, #304]
    9250:	f9400085 	ldr	x5, [x4]
    9254:	f90027e5 	str	x5, [sp, #72]
    9258:	d2800005 	mov	x5, #0x0                   	// #0
/home/jeferson/optee/optee_os-rpi4/lib/libmbedtls/mbedtls/library/bignum.c:1826
    925c:	b90043e3 	str	w3, [sp, #64]
/home/jeferson/optee/optee_os-rpi4/lib/libmbedtls/mbedtls/library/bignum.c:1827
    9260:	52800023 	mov	w3, #0x1                   	// #1
    9264:	5a83a463 	cneg	w3, w3, lt  // lt = tstop
    9268:	790053e3 	strh	w3, [sp, #40]
/home/jeferson/optee/optee_os-rpi4/lib/libmbedtls/mbedtls/library/bignum.c:1828
    926c:	d2800023 	mov	x3, #0x1                   	// #1
    9270:	f9001be3 	str	x3, [sp, #48]
/home/jeferson/optee/optee_os-rpi4/lib/libmbedtls/mbedtls/library/bignum.c:1829
    9274:	910103e3 	add	x3, sp, #0x40
    9278:	f9001fe3 	str	x3, [sp, #56]
/home/jeferson/optee/optee_os-rpi4/lib/libmbedtls/mbedtls/library/bignum.c:1831
    927c:	9100a3e3 	add	x3, sp, #0x28
    9280:	97fffea5 	bl	8d14 <mbedtls_mpi_div_mpi>
/home/jeferson/optee/optee_os-rpi4/lib/libmbedtls/mbedtls/library/bignum.c:1832
    9284:	f9409a73 	ldr	x19, [x19, #304]
    9288:	f94027e1 	ldr	x1, [sp, #72]
    928c:	f9400262 	ldr	x2, [x19]
    9290:	eb020021 	subs	x1, x1, x2
    9294:	d2800002 	mov	x2, #0x0                   	// #0
    9298:	54000040 	b.eq	92a0 <mbedtls_mpi_div_int+0x6c>  // b.none
    929c:	97ffdc48 	bl	3bc <__stack_chk_fail>
    92a0:	f9400bf3 	ldr	x19, [sp, #16]
    92a4:	a8c57bfd 	ldp	x29, x30, [sp], #80
    92a8:	d65f03c0 	ret

00000000000092ac <mbedtls_mpi_mod_mpi>:
mbedtls_mpi_mod_mpi():
/home/jeferson/optee/optee_os-rpi4/lib/libmbedtls/mbedtls/library/bignum.c:1838
    92ac:	a9bd7bfd 	stp	x29, x30, [sp, #-48]!
    92b0:	910003fd 	mov	x29, sp
    92b4:	a90153f3 	stp	x19, x20, [sp, #16]
    92b8:	aa0003f3 	mov	x19, x0
    92bc:	aa0103f4 	mov	x20, x1
/home/jeferson/optee/optee_os-rpi4/lib/libmbedtls/mbedtls/library/bignum.c:1844
    92c0:	aa0203e0 	mov	x0, x2
    92c4:	52800001 	mov	w1, #0x0                   	// #0
/home/jeferson/optee/optee_os-rpi4/lib/libmbedtls/mbedtls/library/bignum.c:1838
    92c8:	f90013f5 	str	x21, [sp, #32]
    92cc:	aa0203f5 	mov	x21, x2
/home/jeferson/optee/optee_os-rpi4/lib/libmbedtls/mbedtls/library/bignum.c:1844
    92d0:	97fffc3b 	bl	83bc <mbedtls_mpi_cmp_int>
    92d4:	37f80420 	tbnz	w0, #31, 9358 <mbedtls_mpi_mod_mpi+0xac>
/home/jeferson/optee/optee_os-rpi4/lib/libmbedtls/mbedtls/library/bignum.c:1847
    92d8:	aa1403e2 	mov	x2, x20
    92dc:	aa1503e3 	mov	x3, x21
    92e0:	aa1303e1 	mov	x1, x19
    92e4:	d2800000 	mov	x0, #0x0                   	// #0
    92e8:	97fffe8b 	bl	8d14 <mbedtls_mpi_div_mpi>
    92ec:	2a0003f4 	mov	w20, w0
    92f0:	34000160 	cbz	w0, 931c <mbedtls_mpi_mod_mpi+0x70>
/home/jeferson/optee/optee_os-rpi4/lib/libmbedtls/mbedtls/library/bignum.c:1858
    92f4:	2a1403e0 	mov	w0, w20
    92f8:	a94153f3 	ldp	x19, x20, [sp, #16]
    92fc:	f94013f5 	ldr	x21, [sp, #32]
    9300:	a8c37bfd 	ldp	x29, x30, [sp], #48
    9304:	d65f03c0 	ret
/home/jeferson/optee/optee_os-rpi4/lib/libmbedtls/mbedtls/library/bignum.c:1850
    9308:	aa1503e2 	mov	x2, x21
    930c:	aa1303e1 	mov	x1, x19
    9310:	aa1303e0 	mov	x0, x19
    9314:	97fffce7 	bl	86b0 <mbedtls_mpi_add_mpi>
    9318:	350001c0 	cbnz	w0, 9350 <mbedtls_mpi_mod_mpi+0xa4>
/home/jeferson/optee/optee_os-rpi4/lib/libmbedtls/mbedtls/library/bignum.c:1849
    931c:	aa1303e0 	mov	x0, x19
    9320:	52800001 	mov	w1, #0x0                   	// #0
    9324:	97fffc26 	bl	83bc <mbedtls_mpi_cmp_int>
    9328:	37ffff00 	tbnz	w0, #31, 9308 <mbedtls_mpi_mod_mpi+0x5c>
/home/jeferson/optee/optee_os-rpi4/lib/libmbedtls/mbedtls/library/bignum.c:1852
    932c:	aa1503e1 	mov	x1, x21
    9330:	aa1303e0 	mov	x0, x19
    9334:	97fffbee 	bl	82ec <mbedtls_mpi_cmp_mpi>
    9338:	37fffde0 	tbnz	w0, #31, 92f4 <mbedtls_mpi_mod_mpi+0x48>
/home/jeferson/optee/optee_os-rpi4/lib/libmbedtls/mbedtls/library/bignum.c:1853
    933c:	aa1503e2 	mov	x2, x21
    9340:	aa1303e1 	mov	x1, x19
    9344:	aa1303e0 	mov	x0, x19
    9348:	97fffcfc 	bl	8738 <mbedtls_mpi_sub_mpi>
    934c:	34ffff00 	cbz	w0, 932c <mbedtls_mpi_mod_mpi+0x80>
    9350:	2a0003f4 	mov	w20, w0
    9354:	17ffffe8 	b	92f4 <mbedtls_mpi_mod_mpi+0x48>
/home/jeferson/optee/optee_os-rpi4/lib/libmbedtls/mbedtls/library/bignum.c:1845
    9358:	12800134 	mov	w20, #0xfffffff6            	// #-10
    935c:	17ffffe6 	b	92f4 <mbedtls_mpi_mod_mpi+0x48>

0000000000009360 <mbedtls_mpi_mod_int>:
mbedtls_mpi_mod_int():
/home/jeferson/optee/optee_os-rpi4/lib/libmbedtls/mbedtls/library/bignum.c:1870
    9360:	7100005f 	cmp	w2, #0x0
    9364:	34000442 	cbz	w2, 93ec <mbedtls_mpi_mod_int+0x8c>
/home/jeferson/optee/optee_os-rpi4/lib/libmbedtls/mbedtls/library/bignum.c:1873
    9368:	5400046b 	b.lt	93f4 <mbedtls_mpi_mod_int+0x94>  // b.tstop
/home/jeferson/optee/optee_os-rpi4/lib/libmbedtls/mbedtls/library/bignum.c:1879
    936c:	7100045f 	cmp	w2, #0x1
    9370:	54000060 	b.eq	937c <mbedtls_mpi_mod_int+0x1c>  // b.none
/home/jeferson/optee/optee_os-rpi4/lib/libmbedtls/mbedtls/library/bignum.c:1879 (discriminator 1)
    9374:	f9400424 	ldr	x4, [x1, #8]
    9378:	b5000084 	cbnz	x4, 9388 <mbedtls_mpi_mod_int+0x28>
/home/jeferson/optee/optee_os-rpi4/lib/libmbedtls/mbedtls/library/bignum.c:1881
    937c:	b900001f 	str	wzr, [x0]
/home/jeferson/optee/optee_os-rpi4/lib/libmbedtls/mbedtls/library/bignum.c:1916
    9380:	52800000 	mov	w0, #0x0                   	// #0
/home/jeferson/optee/optee_os-rpi4/lib/libmbedtls/mbedtls/library/bignum.c:1917
    9384:	d65f03c0 	ret
/home/jeferson/optee/optee_os-rpi4/lib/libmbedtls/mbedtls/library/bignum.c:1887
    9388:	f9400827 	ldr	x7, [x1, #16]
/home/jeferson/optee/optee_os-rpi4/lib/libmbedtls/mbedtls/library/bignum.c:1885
    938c:	7100085f 	cmp	w2, #0x2
    9390:	540000a1 	b.ne	93a4 <mbedtls_mpi_mod_int+0x44>  // b.any
/home/jeferson/optee/optee_os-rpi4/lib/libmbedtls/mbedtls/library/bignum.c:1887
    9394:	b94000e1 	ldr	w1, [x7]
    9398:	12000021 	and	w1, w1, #0x1
    939c:	b9000001 	str	w1, [x0]
/home/jeferson/optee/optee_os-rpi4/lib/libmbedtls/mbedtls/library/bignum.c:1888
    93a0:	17fffff8 	b	9380 <mbedtls_mpi_mod_int+0x20>
    93a4:	8b0408e4 	add	x4, x7, x4, lsl #2
/home/jeferson/optee/optee_os-rpi4/lib/libmbedtls/mbedtls/library/bignum.c:1894
    93a8:	52800003 	mov	w3, #0x0                   	// #0
/home/jeferson/optee/optee_os-rpi4/lib/libmbedtls/mbedtls/library/bignum.c:1896 (discriminator 3)
    93ac:	b85fcc86 	ldr	w6, [x4, #-4]!
/home/jeferson/optee/optee_os-rpi4/lib/libmbedtls/mbedtls/library/bignum.c:1897 (discriminator 3)
    93b0:	13864063 	extr	w3, w3, w6, #16
/home/jeferson/optee/optee_os-rpi4/lib/libmbedtls/mbedtls/library/bignum.c:1902 (discriminator 3)
    93b4:	12003cc6 	and	w6, w6, #0xffff
    93b8:	1ac20865 	udiv	w5, w3, w2
    93bc:	1b028ca5 	msub	w5, w5, w2, w3
    93c0:	2a0540c5 	orr	w5, w6, w5, lsl #16
    93c4:	1ac208a3 	udiv	w3, w5, w2
    93c8:	1b029463 	msub	w3, w3, w2, w5
/home/jeferson/optee/optee_os-rpi4/lib/libmbedtls/mbedtls/library/bignum.c:1894 (discriminator 3)
    93cc:	eb0400ff 	cmp	x7, x4
    93d0:	54fffee1 	b.ne	93ac <mbedtls_mpi_mod_int+0x4c>  // b.any
/home/jeferson/optee/optee_os-rpi4/lib/libmbedtls/mbedtls/library/bignum.c:1911
    93d4:	79c00021 	ldrsh	w1, [x1]
    93d8:	36f80061 	tbz	w1, #31, 93e4 <mbedtls_mpi_mod_int+0x84>
/home/jeferson/optee/optee_os-rpi4/lib/libmbedtls/mbedtls/library/bignum.c:1911 (discriminator 1)
    93dc:	34000043 	cbz	w3, 93e4 <mbedtls_mpi_mod_int+0x84>
/home/jeferson/optee/optee_os-rpi4/lib/libmbedtls/mbedtls/library/bignum.c:1912
    93e0:	4b030043 	sub	w3, w2, w3
/home/jeferson/optee/optee_os-rpi4/lib/libmbedtls/mbedtls/library/bignum.c:1914
    93e4:	b9000003 	str	w3, [x0]
    93e8:	17ffffe6 	b	9380 <mbedtls_mpi_mod_int+0x20>
/home/jeferson/optee/optee_os-rpi4/lib/libmbedtls/mbedtls/library/bignum.c:1871
    93ec:	12800160 	mov	w0, #0xfffffff4            	// #-12
    93f0:	17ffffe5 	b	9384 <mbedtls_mpi_mod_int+0x24>
/home/jeferson/optee/optee_os-rpi4/lib/libmbedtls/mbedtls/library/bignum.c:1874
    93f4:	12800120 	mov	w0, #0xfffffff6            	// #-10
    93f8:	17ffffe3 	b	9384 <mbedtls_mpi_mod_int+0x24>

00000000000093fc <mbedtls_mpi_write_string>:
mbedtls_mpi_write_string():
/home/jeferson/optee/optee_os-rpi4/lib/libmbedtls/mbedtls/library/bignum.c:577
    93fc:	a9b77bfd 	stp	x29, x30, [sp, #-144]!
    9400:	910003fd 	mov	x29, sp
    9404:	a90363f7 	stp	x23, x24, [sp, #48]
    9408:	aa0203f7 	mov	x23, x2
    940c:	90000042 	adrp	x2, 11000 <_DYNAMIC>
    9410:	a90153f3 	stp	x19, x20, [sp, #16]
    9414:	f9409842 	ldr	x2, [x2, #304]
    9418:	a9025bf5 	stp	x21, x22, [sp, #32]
    941c:	2a0103f5 	mov	w21, w1
    9420:	a9046bf9 	stp	x25, x26, [sp, #64]
    9424:	a90573fb 	stp	x27, x28, [sp, #80]
    9428:	f9400041 	ldr	x1, [x2]
    942c:	f90047e1 	str	x1, [sp, #136]
    9430:	d2800001 	mov	x1, #0x0                   	// #0
/home/jeferson/optee/optee_os-rpi4/lib/libmbedtls/mbedtls/library/bignum.c:586
    9434:	51000aa1 	sub	w1, w21, #0x2
    9438:	7100383f 	cmp	w1, #0xe
    943c:	54001028 	b.hi	9640 <mbedtls_mpi_write_string+0x244>  // b.pmore
    9440:	aa0003f4 	mov	x20, x0
    9444:	aa0303f8 	mov	x24, x3
    9448:	aa0403f6 	mov	x22, x4
/home/jeferson/optee/optee_os-rpi4/lib/libmbedtls/mbedtls/library/bignum.c:589
    944c:	97fffa51 	bl	7d90 <mbedtls_mpi_bitlen>
/home/jeferson/optee/optee_os-rpi4/lib/libmbedtls/mbedtls/library/bignum.c:590
    9450:	71000ebf 	cmp	w21, #0x3
    9454:	5400004d 	b.le	945c <mbedtls_mpi_write_string+0x60>
/home/jeferson/optee/optee_os-rpi4/lib/libmbedtls/mbedtls/library/bignum.c:590 (discriminator 1)
    9458:	d341fc00 	lsr	x0, x0, #1
/home/jeferson/optee/optee_os-rpi4/lib/libmbedtls/mbedtls/library/bignum.c:594
    945c:	710042bf 	cmp	w21, #0x10
    9460:	54000041 	b.ne	9468 <mbedtls_mpi_write_string+0x6c>  // b.any
/home/jeferson/optee/optee_os-rpi4/lib/libmbedtls/mbedtls/library/bignum.c:594 (discriminator 1)
    9464:	d341fc00 	lsr	x0, x0, #1
/home/jeferson/optee/optee_os-rpi4/lib/libmbedtls/mbedtls/library/bignum.c:601
    9468:	91001002 	add	x2, x0, #0x4
    946c:	927ff842 	and	x2, x2, #0xfffffffffffffffe
/home/jeferson/optee/optee_os-rpi4/lib/libmbedtls/mbedtls/library/bignum.c:604
    9470:	eb18005f 	cmp	x2, x24
    9474:	54000169 	b.ls	94a0 <mbedtls_mpi_write_string+0xa4>  // b.plast
/home/jeferson/optee/optee_os-rpi4/lib/libmbedtls/mbedtls/library/bignum.c:607
    9478:	128000f4 	mov	w20, #0xfffffff8            	// #-8
/home/jeferson/optee/optee_os-rpi4/lib/libmbedtls/mbedtls/library/bignum.c:606
    947c:	f90002c2 	str	x2, [x22]
/home/jeferson/optee/optee_os-rpi4/lib/libmbedtls/mbedtls/library/bignum.c:657
    9480:	90000042 	adrp	x2, 11000 <_DYNAMIC>
    9484:	f9409842 	ldr	x2, [x2, #304]
    9488:	f94047e0 	ldr	x0, [sp, #136]
    948c:	f9400041 	ldr	x1, [x2]
    9490:	eb010000 	subs	x0, x0, x1
    9494:	d2800001 	mov	x1, #0x0                   	// #0
    9498:	54000dc0 	b.eq	9650 <mbedtls_mpi_write_string+0x254>  // b.none
    949c:	97ffdbc8 	bl	3bc <__stack_chk_fail>
/home/jeferson/optee/optee_os-rpi4/lib/libmbedtls/mbedtls/library/bignum.c:611
    94a0:	9101c3fb 	add	x27, sp, #0x70
/home/jeferson/optee/optee_os-rpi4/lib/libmbedtls/mbedtls/library/bignum.c:615
    94a4:	aa1703f3 	mov	x19, x23
/home/jeferson/optee/optee_os-rpi4/lib/libmbedtls/mbedtls/library/bignum.c:611
    94a8:	aa1b03e0 	mov	x0, x27
    94ac:	97fff8c6 	bl	77c4 <mbedtls_mpi_init_mempool>
/home/jeferson/optee/optee_os-rpi4/lib/libmbedtls/mbedtls/library/bignum.c:613
    94b0:	79c00280 	ldrsh	w0, [x20]
    94b4:	3100041f 	cmn	w0, #0x1
    94b8:	54000081 	b.ne	94c8 <mbedtls_mpi_write_string+0xcc>  // b.any
/home/jeferson/optee/optee_os-rpi4/lib/libmbedtls/mbedtls/library/bignum.c:616
    94bc:	d1000718 	sub	x24, x24, #0x1
/home/jeferson/optee/optee_os-rpi4/lib/libmbedtls/mbedtls/library/bignum.c:615
    94c0:	528005a0 	mov	w0, #0x2d                  	// #45
    94c4:	38001660 	strb	w0, [x19], #1
/home/jeferson/optee/optee_os-rpi4/lib/libmbedtls/mbedtls/library/bignum.c:619
    94c8:	710042bf 	cmp	w21, #0x10
    94cc:	54000581 	b.ne	957c <mbedtls_mpi_write_string+0x180>  // b.any
/home/jeferson/optee/optee_os-rpi4/lib/libmbedtls/mbedtls/library/bignum.c:624
    94d0:	f9400680 	ldr	x0, [x20, #8]
/home/jeferson/optee/optee_os-rpi4/lib/libmbedtls/mbedtls/library/bignum.c:633
    94d4:	d0000023 	adrp	x3, f000 <__text_end+0x2508>
    94d8:	913c9063 	add	x3, x3, #0xf24
/home/jeferson/optee/optee_os-rpi4/lib/libmbedtls/mbedtls/library/bignum.c:624
    94dc:	d2800001 	mov	x1, #0x0                   	// #0
/home/jeferson/optee/optee_os-rpi4/lib/libmbedtls/mbedtls/library/bignum.c:624 (discriminator 1)
    94e0:	b5000100 	cbnz	x0, 9500 <mbedtls_mpi_write_string+0x104>
/home/jeferson/optee/optee_os-rpi4/lib/libmbedtls/mbedtls/library/bignum.c:649 (discriminator 2)
    94e4:	3800167f 	strb	wzr, [x19], #1
/home/jeferson/optee/optee_os-rpi4/lib/libmbedtls/mbedtls/library/bignum.c:650 (discriminator 2)
    94e8:	52800014 	mov	w20, #0x0                   	// #0
    94ec:	cb170273 	sub	x19, x19, x23
    94f0:	f90002d3 	str	x19, [x22]
/home/jeferson/optee/optee_os-rpi4/lib/libmbedtls/mbedtls/library/bignum.c:654
    94f4:	aa1b03e0 	mov	x0, x27
    94f8:	97fff8bd 	bl	77ec <mbedtls_mpi_free>
/home/jeferson/optee/optee_os-rpi4/lib/libmbedtls/mbedtls/library/bignum.c:656
    94fc:	17ffffe1 	b	9480 <mbedtls_mpi_write_string+0x84>
/home/jeferson/optee/optee_os-rpi4/lib/libmbedtls/mbedtls/library/bignum.c:628
    9500:	d37ef406 	lsl	x6, x0, #2
    9504:	91001005 	add	x5, x0, #0x4
    9508:	d10010c6 	sub	x6, x6, #0x4
    950c:	52800304 	mov	w4, #0x18                  	// #24
    9510:	f9400a82 	ldr	x2, [x20, #16]
/home/jeferson/optee/optee_os-rpi4/lib/libmbedtls/mbedtls/library/bignum.c:630
    9514:	52000021 	eor	w1, w1, #0x1
/home/jeferson/optee/optee_os-rpi4/lib/libmbedtls/mbedtls/library/bignum.c:628
    9518:	b8666842 	ldr	w2, [x2, x6]
    951c:	1ac42442 	lsr	w2, w2, w4
/home/jeferson/optee/optee_os-rpi4/lib/libmbedtls/mbedtls/library/bignum.c:630
    9520:	72001c47 	ands	w7, w2, #0xff
    9524:	1a9f17e8 	cset	w8, eq  // eq = none
    9528:	6a01011f 	tst	w8, w1
    952c:	54000060 	b.eq	9538 <mbedtls_mpi_write_string+0x13c>  // b.none
/home/jeferson/optee/optee_os-rpi4/lib/libmbedtls/mbedtls/library/bignum.c:630 (discriminator 1)
    9530:	f10008bf 	cmp	x5, #0x2
    9534:	54000201 	b.ne	9574 <mbedtls_mpi_write_string+0x178>  // b.any
/home/jeferson/optee/optee_os-rpi4/lib/libmbedtls/mbedtls/library/bignum.c:633
    9538:	d3441ce1 	ubfx	x1, x7, #4, #4
/home/jeferson/optee/optee_os-rpi4/lib/libmbedtls/mbedtls/library/bignum.c:634
    953c:	92400c42 	and	x2, x2, #0xf
/home/jeferson/optee/optee_os-rpi4/lib/libmbedtls/mbedtls/library/bignum.c:633
    9540:	38616867 	ldrb	w7, [x3, x1]
    9544:	aa1303e1 	mov	x1, x19
/home/jeferson/optee/optee_os-rpi4/lib/libmbedtls/mbedtls/library/bignum.c:634
    9548:	38626862 	ldrb	w2, [x3, x2]
/home/jeferson/optee/optee_os-rpi4/lib/libmbedtls/mbedtls/library/bignum.c:633
    954c:	38002427 	strb	w7, [x1], #2
/home/jeferson/optee/optee_os-rpi4/lib/libmbedtls/mbedtls/library/bignum.c:634
    9550:	39000662 	strb	w2, [x19, #1]
    9554:	aa0103f3 	mov	x19, x1
/home/jeferson/optee/optee_os-rpi4/lib/libmbedtls/mbedtls/library/bignum.c:635
    9558:	d2800021 	mov	x1, #0x1                   	// #1
/home/jeferson/optee/optee_os-rpi4/lib/libmbedtls/mbedtls/library/bignum.c:626 (discriminator 2)
    955c:	51002084 	sub	w4, w4, #0x8
    9560:	d10004a5 	sub	x5, x5, #0x1
    9564:	3100209f 	cmn	w4, #0x8
    9568:	54fffd41 	b.ne	9510 <mbedtls_mpi_write_string+0x114>  // b.any
/home/jeferson/optee/optee_os-rpi4/lib/libmbedtls/mbedtls/library/bignum.c:624 (discriminator 2)
    956c:	d1000400 	sub	x0, x0, #0x1
    9570:	17ffffdc 	b	94e0 <mbedtls_mpi_write_string+0xe4>
    9574:	d2800001 	mov	x1, #0x0                   	// #0
    9578:	17fffff9 	b	955c <mbedtls_mpi_write_string+0x160>
/home/jeferson/optee/optee_os-rpi4/lib/libmbedtls/mbedtls/library/bignum.c:641
    957c:	aa1403e1 	mov	x1, x20
    9580:	aa1b03e0 	mov	x0, x27
    9584:	97fff950 	bl	7ac4 <mbedtls_mpi_copy>
    9588:	2a0003f4 	mov	w20, w0
    958c:	35fffb40 	cbnz	w0, 94f4 <mbedtls_mpi_write_string+0xf8>
/home/jeferson/optee/optee_os-rpi4/lib/libmbedtls/mbedtls/library/bignum.c:643 (discriminator 2)
    9590:	79c0e3e0 	ldrsh	w0, [sp, #112]
    9594:	3100041f 	cmn	w0, #0x1
    9598:	54000061 	b.ne	95a4 <mbedtls_mpi_write_string+0x1a8>  // b.any
/home/jeferson/optee/optee_os-rpi4/lib/libmbedtls/mbedtls/library/bignum.c:644
    959c:	52800020 	mov	w0, #0x1                   	// #1
    95a0:	7900e3e0 	strh	w0, [sp, #112]
mpi_write_hlp():
/home/jeferson/optee/optee_os-rpi4/lib/libmbedtls/mbedtls/library/bignum.c:542
    95a4:	8b180279 	add	x25, x19, x24
/home/jeferson/optee/optee_os-rpi4/lib/libmbedtls/mbedtls/library/bignum.c:551
    95a8:	9101b3fa 	add	x26, sp, #0x6c
/home/jeferson/optee/optee_os-rpi4/lib/libmbedtls/mbedtls/library/bignum.c:542
    95ac:	aa1903fc 	mov	x28, x25
/home/jeferson/optee/optee_os-rpi4/lib/libmbedtls/mbedtls/library/bignum.c:546
    95b0:	cb1c0320 	sub	x0, x25, x28
    95b4:	eb00031f 	cmp	x24, x0
    95b8:	54000489 	b.ls	9648 <mbedtls_mpi_write_string+0x24c>  // b.plast
/home/jeferson/optee/optee_os-rpi4/lib/libmbedtls/mbedtls/library/bignum.c:551
    95bc:	2a1503e2 	mov	w2, w21
    95c0:	aa1b03e1 	mov	x1, x27
    95c4:	aa1a03e0 	mov	x0, x26
    95c8:	97ffff66 	bl	9360 <mbedtls_mpi_mod_int>
    95cc:	2a0003f4 	mov	w20, w0
    95d0:	35fff920 	cbnz	w0, 94f4 <mbedtls_mpi_write_string+0xf8>
/home/jeferson/optee/optee_os-rpi4/lib/libmbedtls/mbedtls/library/bignum.c:552
    95d4:	2a1503e3 	mov	w3, w21
    95d8:	aa1b03e2 	mov	x2, x27
    95dc:	aa1b03e0 	mov	x0, x27
    95e0:	d2800001 	mov	x1, #0x0                   	// #0
    95e4:	97ffff14 	bl	9234 <mbedtls_mpi_div_int>
    95e8:	2a0003f4 	mov	w20, w0
    95ec:	35fff840 	cbnz	w0, 94f4 <mbedtls_mpi_write_string+0xf8>
/home/jeferson/optee/optee_os-rpi4/lib/libmbedtls/mbedtls/library/bignum.c:556
    95f0:	b9406fe2 	ldr	w2, [sp, #108]
/home/jeferson/optee/optee_os-rpi4/lib/libmbedtls/mbedtls/library/bignum.c:557
    95f4:	12001c40 	and	w0, w2, #0xff
    95f8:	7100245f 	cmp	w2, #0x9
    95fc:	1100c001 	add	w1, w0, #0x30
    9600:	1100dc00 	add	w0, w0, #0x37
    9604:	12001c21 	and	w1, w1, #0xff
    9608:	12001c00 	and	w0, w0, #0xff
    960c:	1a818000 	csel	w0, w0, w1, hi  // hi = pmore
    9610:	381fff80 	strb	w0, [x28, #-1]!
/home/jeferson/optee/optee_os-rpi4/lib/libmbedtls/mbedtls/library/bignum.c:562
    9614:	52800001 	mov	w1, #0x0                   	// #0
    9618:	aa1b03e0 	mov	x0, x27
    961c:	cb1c0334 	sub	x20, x25, x28
    9620:	97fffb67 	bl	83bc <mbedtls_mpi_cmp_int>
    9624:	35fffc60 	cbnz	w0, 95b0 <mbedtls_mpi_write_string+0x1b4>
/home/jeferson/optee/optee_os-rpi4/lib/libmbedtls/mbedtls/library/bignum.c:564
    9628:	aa1303e0 	mov	x0, x19
    962c:	aa1403e2 	mov	x2, x20
    9630:	aa1c03e1 	mov	x1, x28
/home/jeferson/optee/optee_os-rpi4/lib/libmbedtls/mbedtls/library/bignum.c:565
    9634:	8b140273 	add	x19, x19, x20
/home/jeferson/optee/optee_os-rpi4/lib/libmbedtls/mbedtls/library/bignum.c:564
    9638:	94000c7b 	bl	c824 <memmove>
/home/jeferson/optee/optee_os-rpi4/lib/libmbedtls/mbedtls/library/bignum.c:565
    963c:	17ffffaa 	b	94e4 <mbedtls_mpi_write_string+0xe8>
mbedtls_mpi_write_string():
/home/jeferson/optee/optee_os-rpi4/lib/libmbedtls/mbedtls/library/bignum.c:587
    9640:	12800074 	mov	w20, #0xfffffffc            	// #-4
    9644:	17ffff8f 	b	9480 <mbedtls_mpi_write_string+0x84>
mpi_write_hlp():
/home/jeferson/optee/optee_os-rpi4/lib/libmbedtls/mbedtls/library/bignum.c:548
    9648:	128000f4 	mov	w20, #0xfffffff8            	// #-8
    964c:	17ffffaa 	b	94f4 <mbedtls_mpi_write_string+0xf8>
mbedtls_mpi_write_string():
/home/jeferson/optee/optee_os-rpi4/lib/libmbedtls/mbedtls/library/bignum.c:657
    9650:	2a1403e0 	mov	w0, w20
    9654:	a94153f3 	ldp	x19, x20, [sp, #16]
    9658:	a9425bf5 	ldp	x21, x22, [sp, #32]
    965c:	a94363f7 	ldp	x23, x24, [sp, #48]
    9660:	a9446bf9 	ldp	x25, x26, [sp, #64]
    9664:	a94573fb 	ldp	x27, x28, [sp, #80]
    9668:	a8c97bfd 	ldp	x29, x30, [sp], #144
    966c:	d65f03c0 	ret

0000000000009670 <mpi_check_small_factors>:
mpi_check_small_factors():
/home/jeferson/optee/optee_os-rpi4/lib/libmbedtls/mbedtls/library/bignum.c:2699
    9670:	a9bc7bfd 	stp	x29, x30, [sp, #-64]!
    9674:	90000042 	adrp	x2, 11000 <_DYNAMIC>
    9678:	910003fd 	mov	x29, sp
    967c:	f9409842 	ldr	x2, [x2, #304]
    9680:	a90153f3 	stp	x19, x20, [sp, #16]
    9684:	aa0003f4 	mov	x20, x0
    9688:	a9025bf5 	stp	x21, x22, [sp, #32]
    968c:	f9400040 	ldr	x0, [x2]
    9690:	f9001fe0 	str	x0, [sp, #56]
    9694:	d2800000 	mov	x0, #0x0                   	// #0
/home/jeferson/optee/optee_os-rpi4/lib/libmbedtls/mbedtls/library/bignum.c:2704
    9698:	f9400a80 	ldr	x0, [x20, #16]
    969c:	b9400000 	ldr	w0, [x0]
    96a0:	360003a0 	tbz	w0, #0, 9714 <mpi_check_small_factors+0xa4>
    96a4:	d0000033 	adrp	x19, f000 <__text_end+0x2508>
/home/jeferson/optee/optee_os-rpi4/lib/libmbedtls/mbedtls/library/bignum.c:2712
    96a8:	9100d3f6 	add	x22, sp, #0x34
    96ac:	91191273 	add	x19, x19, #0x644
/home/jeferson/optee/optee_os-rpi4/lib/libmbedtls/mbedtls/library/bignum.c:2707
    96b0:	b9400275 	ldr	w21, [x19]
    96b4:	710002bf 	cmp	w21, #0x0
    96b8:	5400014c 	b.gt	96e0 <mpi_check_small_factors+0x70>
/home/jeferson/optee/optee_os-rpi4/lib/libmbedtls/mbedtls/library/bignum.c:2718
    96bc:	52800000 	mov	w0, #0x0                   	// #0
/home/jeferson/optee/optee_os-rpi4/lib/libmbedtls/mbedtls/library/bignum.c:2720
    96c0:	90000042 	adrp	x2, 11000 <_DYNAMIC>
    96c4:	f9409842 	ldr	x2, [x2, #304]
    96c8:	f9401fe1 	ldr	x1, [sp, #56]
    96cc:	f9400043 	ldr	x3, [x2]
    96d0:	eb030021 	subs	x1, x1, x3
    96d4:	d2800003 	mov	x3, #0x0                   	// #0
    96d8:	54000260 	b.eq	9724 <mpi_check_small_factors+0xb4>  // b.none
    96dc:	97ffdb38 	bl	3bc <__stack_chk_fail>
/home/jeferson/optee/optee_os-rpi4/lib/libmbedtls/mbedtls/library/bignum.c:2709
    96e0:	2a1503e1 	mov	w1, w21
    96e4:	aa1403e0 	mov	x0, x20
    96e8:	97fffb35 	bl	83bc <mbedtls_mpi_cmp_int>
    96ec:	7100001f 	cmp	w0, #0x0
    96f0:	5400016d 	b.le	971c <mpi_check_small_factors+0xac>
/home/jeferson/optee/optee_os-rpi4/lib/libmbedtls/mbedtls/library/bignum.c:2712
    96f4:	2a1503e2 	mov	w2, w21
    96f8:	aa1403e1 	mov	x1, x20
    96fc:	aa1603e0 	mov	x0, x22
    9700:	97ffff18 	bl	9360 <mbedtls_mpi_mod_int>
    9704:	35fffde0 	cbnz	w0, 96c0 <mpi_check_small_factors+0x50>
/home/jeferson/optee/optee_os-rpi4/lib/libmbedtls/mbedtls/library/bignum.c:2714
    9708:	b94037e0 	ldr	w0, [sp, #52]
    970c:	91001273 	add	x19, x19, #0x4
    9710:	35fffd00 	cbnz	w0, 96b0 <mpi_check_small_factors+0x40>
/home/jeferson/optee/optee_os-rpi4/lib/libmbedtls/mbedtls/library/bignum.c:2705
    9714:	128001a0 	mov	w0, #0xfffffff2            	// #-14
    9718:	17ffffea 	b	96c0 <mpi_check_small_factors+0x50>
/home/jeferson/optee/optee_os-rpi4/lib/libmbedtls/mbedtls/library/bignum.c:2710
    971c:	52800020 	mov	w0, #0x1                   	// #1
    9720:	17ffffe8 	b	96c0 <mpi_check_small_factors+0x50>
/home/jeferson/optee/optee_os-rpi4/lib/libmbedtls/mbedtls/library/bignum.c:2720
    9724:	a94153f3 	ldp	x19, x20, [sp, #16]
    9728:	a9425bf5 	ldp	x21, x22, [sp, #32]
    972c:	a8c47bfd 	ldp	x29, x30, [sp], #64
    9730:	d65f03c0 	ret

0000000000009734 <mbedtls_mpi_montg_init>:
mbedtls_mpi_montg_init():
/home/jeferson/optee/optee_os-rpi4/lib/libmbedtls/mbedtls/library/bignum.c:1938
    9734:	f9400821 	ldr	x1, [x1, #16]
    9738:	17fff7b6 	b	7610 <mpi_montg_init.isra.0>

000000000000973c <mbedtls_mpi_montmul>:
mbedtls_mpi_montmul():
/home/jeferson/optee/optee_os-rpi4/lib/libmbedtls/mbedtls/library/bignum.c:2013
    973c:	17fff745 	b	7450 <mpi_montmul>

0000000000009740 <mbedtls_mpi_montred>:
mbedtls_mpi_montred():
/home/jeferson/optee/optee_os-rpi4/lib/libmbedtls/mbedtls/library/bignum.c:2036
    9740:	17fff796 	b	7598 <mpi_montred>

0000000000009744 <mbedtls_mpi_exp_mod>:
mbedtls_mpi_exp_mod():
/home/jeferson/optee/optee_os-rpi4/lib/libmbedtls/mbedtls/library/bignum.c:2074
    9744:	a9ac7bfd 	stp	x29, x30, [sp, #-320]!
    9748:	910003fd 	mov	x29, sp
    974c:	a9046bf9 	stp	x25, x26, [sp, #64]
    9750:	9000005a 	adrp	x26, 11000 <_DYNAMIC>
    9754:	aa0103f9 	mov	x25, x1
    9758:	a9025bf5 	stp	x21, x22, [sp, #32]
    975c:	aa0003f6 	mov	x22, x0
    9760:	f9409b40 	ldr	x0, [x26, #304]
    9764:	a90153f3 	stp	x19, x20, [sp, #16]
    9768:	aa0303f4 	mov	x20, x3
    976c:	a90363f7 	stp	x23, x24, [sp, #48]
    9770:	a90573fb 	stp	x27, x28, [sp, #80]
    9774:	a90693e2 	stp	x2, x4, [sp, #104]
    9778:	f9400001 	ldr	x1, [x0]
    977c:	f9009fe1 	str	x1, [sp, #312]
    9780:	d2800001 	mov	x1, #0x0                   	// #0
/home/jeferson/optee/optee_os-rpi4/lib/libmbedtls/mbedtls/library/bignum.c:2090
    9784:	aa0303e0 	mov	x0, x3
    9788:	97fffb0d 	bl	83bc <mbedtls_mpi_cmp_int>
    978c:	f90053fa 	str	x26, [sp, #160]
    9790:	7100001f 	cmp	w0, #0x0
    9794:	5400014c 	b.gt	97bc <mbedtls_mpi_exp_mod+0x78>
/home/jeferson/optee/optee_os-rpi4/lib/libmbedtls/mbedtls/library/bignum.c:2091
    9798:	12800073 	mov	w19, #0xfffffffc            	// #-4
/home/jeferson/optee/optee_os-rpi4/lib/libmbedtls/mbedtls/library/bignum.c:2316
    979c:	f94053e0 	ldr	x0, [sp, #160]
    97a0:	f9409800 	ldr	x0, [x0, #304]
    97a4:	f9409fe2 	ldr	x2, [sp, #312]
    97a8:	f9400001 	ldr	x1, [x0]
    97ac:	eb010042 	subs	x2, x2, x1
    97b0:	d2800001 	mov	x1, #0x0                   	// #0
    97b4:	54003200 	b.eq	9df4 <mbedtls_mpi_exp_mod+0x6b0>  // b.none
    97b8:	97ffdb01 	bl	3bc <__stack_chk_fail>
/home/jeferson/optee/optee_os-rpi4/lib/libmbedtls/mbedtls/library/bignum.c:2090 (discriminator 1)
    97bc:	f9400a80 	ldr	x0, [x20, #16]
    97c0:	b9400000 	ldr	w0, [x0]
    97c4:	12000001 	and	w1, w0, #0x1
    97c8:	b900afe1 	str	w1, [sp, #172]
    97cc:	3607fe60 	tbz	w0, #0, 9798 <mbedtls_mpi_exp_mod+0x54>
/home/jeferson/optee/optee_os-rpi4/lib/libmbedtls/mbedtls/library/bignum.c:2093
    97d0:	f94037e0 	ldr	x0, [sp, #104]
    97d4:	52800001 	mov	w1, #0x0                   	// #0
    97d8:	97fffaf9 	bl	83bc <mbedtls_mpi_cmp_int>
    97dc:	37fffde0 	tbnz	w0, #31, 9798 <mbedtls_mpi_exp_mod+0x54>
/home/jeferson/optee/optee_os-rpi4/lib/libmbedtls/mbedtls/library/bignum.c:2096
    97e0:	f94037e0 	ldr	x0, [sp, #104]
    97e4:	97fff96b 	bl	7d90 <mbedtls_mpi_bitlen>
    97e8:	f140081f 	cmp	x0, #0x2, lsl #12
    97ec:	54fffd68 	b.hi	9798 <mbedtls_mpi_exp_mod+0x54>  // b.pmore
/home/jeferson/optee/optee_os-rpi4/lib/libmbedtls/mbedtls/library/bignum.c:2097 (discriminator 1)
    97f0:	aa1403e0 	mov	x0, x20
    97f4:	97fff967 	bl	7d90 <mbedtls_mpi_bitlen>
/home/jeferson/optee/optee_os-rpi4/lib/libmbedtls/mbedtls/library/bignum.c:2096 (discriminator 1)
    97f8:	f140081f 	cmp	x0, #0x2, lsl #12
    97fc:	54fffce8 	b.hi	9798 <mbedtls_mpi_exp_mod+0x54>  // b.pmore
/home/jeferson/optee/optee_os-rpi4/lib/libmbedtls/mbedtls/library/bignum.c:2103
    9800:	f9400a81 	ldr	x1, [x20, #16]
    9804:	910353e0 	add	x0, sp, #0xd4
/home/jeferson/optee/optee_os-rpi4/lib/libmbedtls/mbedtls/library/bignum.c:2104
    9808:	910363f8 	add	x24, sp, #0xd8
    980c:	9103c3f7 	add	x23, sp, #0xf0
/home/jeferson/optee/optee_os-rpi4/lib/libmbedtls/mbedtls/library/bignum.c:2103
    9810:	97fff780 	bl	7610 <mpi_montg_init.isra.0>
/home/jeferson/optee/optee_os-rpi4/lib/libmbedtls/mbedtls/library/bignum.c:2104
    9814:	aa1803e0 	mov	x0, x24
    9818:	97fff7eb 	bl	77c4 <mbedtls_mpi_init_mempool>
    981c:	aa1703e0 	mov	x0, x23
    9820:	97fff7e5 	bl	77b4 <mbedtls_mpi_init>
/home/jeferson/optee/optee_os-rpi4/lib/libmbedtls/mbedtls/library/bignum.c:2105
    9824:	910483e0 	add	x0, sp, #0x120
    9828:	f90047e0 	str	x0, [sp, #136]
    982c:	97fff7e6 	bl	77c4 <mbedtls_mpi_init_mempool>
/home/jeferson/optee/optee_os-rpi4/lib/libmbedtls/mbedtls/library/bignum.c:2106
    9830:	910423e0 	add	x0, sp, #0x108
    9834:	f9004be0 	str	x0, [sp, #144]
    9838:	97fff7e3 	bl	77c4 <mbedtls_mpi_init_mempool>
/home/jeferson/optee/optee_os-rpi4/lib/libmbedtls/mbedtls/library/bignum.c:2108
    983c:	f94037e0 	ldr	x0, [sp, #104]
    9840:	97fff954 	bl	7d90 <mbedtls_mpi_bitlen>
/home/jeferson/optee/optee_os-rpi4/lib/libmbedtls/mbedtls/library/bignum.c:2110
    9844:	f10a7c1f 	cmp	x0, #0x29f
    9848:	54001448 	b.hi	9ad0 <mbedtls_mpi_exp_mod+0x38c>  // b.pmore
/home/jeferson/optee/optee_os-rpi4/lib/libmbedtls/mbedtls/library/bignum.c:2110 (discriminator 1)
    984c:	f103bc1f 	cmp	x0, #0xef
    9850:	54001448 	b.hi	9ad8 <mbedtls_mpi_exp_mod+0x394>  // b.pmore
/home/jeferson/optee/optee_os-rpi4/lib/libmbedtls/mbedtls/library/bignum.c:2110 (discriminator 3)
    9854:	f1013c1f 	cmp	x0, #0x4f
    9858:	54001448 	b.hi	9ae0 <mbedtls_mpi_exp_mod+0x39c>  // b.pmore
/home/jeferson/optee/optee_os-rpi4/lib/libmbedtls/mbedtls/library/bignum.c:2110 (discriminator 5)
    985c:	f1005c1f 	cmp	x0, #0x17
    9860:	d2800060 	mov	x0, #0x3                   	// #3
    9864:	9a9f8400 	csinc	x0, x0, xzr, hi  // hi = pmore
/home/jeferson/optee/optee_os-rpi4/lib/libmbedtls/mbedtls/library/bignum.c:2118
    9868:	f940069b 	ldr	x27, [x20, #8]
/home/jeferson/optee/optee_os-rpi4/lib/libmbedtls/mbedtls/library/bignum.c:2110
    986c:	f90033e0 	str	x0, [sp, #96]
/home/jeferson/optee/optee_os-rpi4/lib/libmbedtls/mbedtls/library/bignum.c:2124
    9870:	aa1603e0 	mov	x0, x22
/home/jeferson/optee/optee_os-rpi4/lib/libmbedtls/mbedtls/library/bignum.c:2118
    9874:	9100077b 	add	x27, x27, #0x1
/home/jeferson/optee/optee_os-rpi4/lib/libmbedtls/mbedtls/library/bignum.c:2124
    9878:	aa1b03e1 	mov	x1, x27
    987c:	97fff7f7 	bl	7858 <mbedtls_mpi_grow>
    9880:	2a0003f3 	mov	w19, w0
    9884:	35002b00 	cbnz	w0, 9de4 <mbedtls_mpi_exp_mod+0x6a0>
/home/jeferson/optee/optee_os-rpi4/lib/libmbedtls/mbedtls/library/bignum.c:2126 (discriminator 2)
    9888:	d37ffb61 	lsl	x1, x27, #1
    988c:	aa1703e0 	mov	x0, x23
    9890:	97fff7f2 	bl	7858 <mbedtls_mpi_grow>
    9894:	2a0003f3 	mov	w19, w0
    9898:	35002a60 	cbnz	w0, 9de4 <mbedtls_mpi_exp_mod+0x6a0>
/home/jeferson/optee/optee_os-rpi4/lib/libmbedtls/mbedtls/library/bignum.c:2131 (discriminator 2)
    989c:	79c00320 	ldrsh	w0, [x25]
    98a0:	b9009fe0 	str	w0, [sp, #156]
/home/jeferson/optee/optee_os-rpi4/lib/libmbedtls/mbedtls/library/bignum.c:2132 (discriminator 2)
    98a4:	3100041f 	cmn	w0, #0x1
    98a8:	54000121 	b.ne	98cc <mbedtls_mpi_exp_mod+0x188>  // b.any
/home/jeferson/optee/optee_os-rpi4/lib/libmbedtls/mbedtls/library/bignum.c:2134
    98ac:	f94047e0 	ldr	x0, [sp, #136]
    98b0:	aa1903e1 	mov	x1, x25
    98b4:	97fff884 	bl	7ac4 <mbedtls_mpi_copy>
    98b8:	2a0003f3 	mov	w19, w0
    98bc:	35002940 	cbnz	w0, 9de4 <mbedtls_mpi_exp_mod+0x6a0>
/home/jeferson/optee/optee_os-rpi4/lib/libmbedtls/mbedtls/library/bignum.c:2136 (discriminator 2)
    98c0:	f94047f9 	ldr	x25, [sp, #136]
/home/jeferson/optee/optee_os-rpi4/lib/libmbedtls/mbedtls/library/bignum.c:2135 (discriminator 2)
    98c4:	52800020 	mov	w0, #0x1                   	// #1
    98c8:	790243e0 	strh	w0, [sp, #288]
/home/jeferson/optee/optee_os-rpi4/lib/libmbedtls/mbedtls/library/bignum.c:2142
    98cc:	f9403be0 	ldr	x0, [sp, #112]
    98d0:	b4000060 	cbz	x0, 98dc <mbedtls_mpi_exp_mod+0x198>
/home/jeferson/optee/optee_os-rpi4/lib/libmbedtls/mbedtls/library/bignum.c:2142 (discriminator 1)
    98d4:	f9400800 	ldr	x0, [x0, #16]
    98d8:	b5001080 	cbnz	x0, 9ae8 <mbedtls_mpi_exp_mod+0x3a4>
/home/jeferson/optee/optee_os-rpi4/lib/libmbedtls/mbedtls/library/bignum.c:2144
    98dc:	aa1803e0 	mov	x0, x24
    98e0:	52800021 	mov	w1, #0x1                   	// #1
    98e4:	97fff8ce 	bl	7c1c <mbedtls_mpi_lset>
    98e8:	2a0003f3 	mov	w19, w0
    98ec:	350027c0 	cbnz	w0, 9de4 <mbedtls_mpi_exp_mod+0x6a0>
/home/jeferson/optee/optee_os-rpi4/lib/libmbedtls/mbedtls/library/bignum.c:2145 (discriminator 2)
    98f0:	f9400681 	ldr	x1, [x20, #8]
    98f4:	aa1803e0 	mov	x0, x24
    98f8:	d37ae421 	lsl	x1, x1, #6
    98fc:	97fff9e1 	bl	8080 <mbedtls_mpi_shift_l>
    9900:	2a0003f3 	mov	w19, w0
    9904:	35002700 	cbnz	w0, 9de4 <mbedtls_mpi_exp_mod+0x6a0>
/home/jeferson/optee/optee_os-rpi4/lib/libmbedtls/mbedtls/library/bignum.c:2146 (discriminator 2)
    9908:	aa1403e2 	mov	x2, x20
    990c:	aa1803e1 	mov	x1, x24
    9910:	aa1803e0 	mov	x0, x24
    9914:	97fffe66 	bl	92ac <mbedtls_mpi_mod_mpi>
    9918:	2a0003f3 	mov	w19, w0
    991c:	35002640 	cbnz	w0, 9de4 <mbedtls_mpi_exp_mod+0x6a0>
/home/jeferson/optee/optee_os-rpi4/lib/libmbedtls/mbedtls/library/bignum.c:2148 (discriminator 2)
    9920:	f9403be0 	ldr	x0, [sp, #112]
    9924:	b4000080 	cbz	x0, 9934 <mbedtls_mpi_exp_mod+0x1f0>
/home/jeferson/optee/optee_os-rpi4/lib/libmbedtls/mbedtls/library/bignum.c:2149
    9928:	aa1803e1 	mov	x1, x24
    992c:	d2800302 	mov	x2, #0x18                  	// #24
/home/jeferson/optee/optee_os-rpi4/lib/libmbedtls/mbedtls/library/bignum.c:2152
    9930:	97ffd9bc 	bl	20 <memcpy>
/home/jeferson/optee/optee_os-rpi4/lib/libmbedtls/mbedtls/library/bignum.c:2154
    9934:	f94053e0 	ldr	x0, [sp, #160]
    9938:	d2818001 	mov	x1, #0xc00                 	// #3072
    993c:	f940ec00 	ldr	x0, [x0, #472]
    9940:	f9400000 	ldr	x0, [x0]
    9944:	94000c1f 	bl	c9c0 <mempool_alloc>
    9948:	aa0003f5 	mov	x21, x0
/home/jeferson/optee/optee_os-rpi4/lib/libmbedtls/mbedtls/library/bignum.c:2156
    994c:	b4002500 	cbz	x0, 9dec <mbedtls_mpi_exp_mod+0x6a8>
    9950:	aa1503f3 	mov	x19, x21
    9954:	91300000 	add	x0, x0, #0xc00
    9958:	f90043f5 	str	x21, [sp, #128]
    995c:	f9005fe0 	str	x0, [sp, #184]
/home/jeferson/optee/optee_os-rpi4/lib/libmbedtls/mbedtls/library/bignum.c:2161 (discriminator 3)
    9960:	aa1303e0 	mov	x0, x19
    9964:	97fff798 	bl	77c4 <mbedtls_mpi_init_mempool>
/home/jeferson/optee/optee_os-rpi4/lib/libmbedtls/mbedtls/library/bignum.c:2160 (discriminator 3)
    9968:	f9405fe0 	ldr	x0, [sp, #184]
    996c:	91006273 	add	x19, x19, #0x18
    9970:	eb00027f 	cmp	x19, x0
    9974:	54ffff61 	b.ne	9960 <mbedtls_mpi_exp_mod+0x21c>  // b.any
/home/jeferson/optee/optee_os-rpi4/lib/libmbedtls/mbedtls/library/bignum.c:2162
    9978:	910062ba 	add	x26, x21, #0x18
    997c:	aa1b03e1 	mov	x1, x27
    9980:	aa1a03e0 	mov	x0, x26
    9984:	97fff7b5 	bl	7858 <mbedtls_mpi_grow>
    9988:	2a0003f3 	mov	w19, w0
    998c:	35001f80 	cbnz	w0, 9d7c <mbedtls_mpi_exp_mod+0x638>
/home/jeferson/optee/optee_os-rpi4/lib/libmbedtls/mbedtls/library/bignum.c:2167 (discriminator 2)
    9990:	aa1403e1 	mov	x1, x20
    9994:	aa1903e0 	mov	x0, x25
    9998:	97fffa55 	bl	82ec <mbedtls_mpi_cmp_mpi>
    999c:	37f80ae0 	tbnz	w0, #31, 9af8 <mbedtls_mpi_exp_mod+0x3b4>
/home/jeferson/optee/optee_os-rpi4/lib/libmbedtls/mbedtls/library/bignum.c:2169
    99a0:	aa1403e2 	mov	x2, x20
    99a4:	aa1903e1 	mov	x1, x25
    99a8:	aa1a03e0 	mov	x0, x26
    99ac:	97fffe40 	bl	92ac <mbedtls_mpi_mod_mpi>
    99b0:	2a0003f3 	mov	w19, w0
    99b4:	35001e40 	cbnz	w0, 9d7c <mbedtls_mpi_exp_mod+0x638>
/home/jeferson/optee/optee_os-rpi4/lib/libmbedtls/mbedtls/library/bignum.c:2173 (discriminator 2)
    99b8:	f9400681 	ldr	x1, [x20, #8]
    99bc:	aa1a03e0 	mov	x0, x26
    99c0:	91000421 	add	x1, x1, #0x1
    99c4:	97fff7a5 	bl	7858 <mbedtls_mpi_grow>
    99c8:	2a0003f3 	mov	w19, w0
    99cc:	35001d80 	cbnz	w0, 9d7c <mbedtls_mpi_exp_mod+0x638>
/home/jeferson/optee/optee_os-rpi4/lib/libmbedtls/mbedtls/library/bignum.c:2180
    99d0:	b940d7f9 	ldr	w25, [sp, #212]
    99d4:	aa1703e4 	mov	x4, x23
    99d8:	aa1403e2 	mov	x2, x20
    99dc:	aa1803e1 	mov	x1, x24
    99e0:	2a1903e3 	mov	w3, w25
    99e4:	aa1a03e0 	mov	x0, x26
    99e8:	97fff69a 	bl	7450 <mpi_montmul>
/home/jeferson/optee/optee_os-rpi4/lib/libmbedtls/mbedtls/library/bignum.c:2185
    99ec:	aa1803e1 	mov	x1, x24
    99f0:	aa1603e0 	mov	x0, x22
    99f4:	97fff834 	bl	7ac4 <mbedtls_mpi_copy>
    99f8:	2a0003f3 	mov	w19, w0
    99fc:	35001c00 	cbnz	w0, 9d7c <mbedtls_mpi_exp_mod+0x638>
/home/jeferson/optee/optee_os-rpi4/lib/libmbedtls/mbedtls/library/bignum.c:2186 (discriminator 2)
    9a00:	aa1603e0 	mov	x0, x22
    9a04:	aa1703e3 	mov	x3, x23
    9a08:	2a1903e2 	mov	w2, w25
    9a0c:	aa1403e1 	mov	x1, x20
    9a10:	97fff6e2 	bl	7598 <mpi_montred>
/home/jeferson/optee/optee_os-rpi4/lib/libmbedtls/mbedtls/library/bignum.c:2193 (discriminator 2)
    9a14:	b94063e0 	ldr	w0, [sp, #96]
    9a18:	b900abe0 	str	w0, [sp, #168]
/home/jeferson/optee/optee_os-rpi4/lib/libmbedtls/mbedtls/library/bignum.c:2188 (discriminator 2)
    9a1c:	f94033e0 	ldr	x0, [sp, #96]
    9a20:	f100041f 	cmp	x0, #0x1
    9a24:	54000721 	b.ne	9b08 <mbedtls_mpi_exp_mod+0x3c4>  // b.any
/home/jeferson/optee/optee_os-rpi4/lib/libmbedtls/mbedtls/library/bignum.c:2213
    9a28:	f94037e0 	ldr	x0, [sp, #104]
/home/jeferson/optee/optee_os-rpi4/lib/libmbedtls/mbedtls/library/bignum.c:2217
    9a2c:	52800002 	mov	w2, #0x0                   	// #0
/home/jeferson/optee/optee_os-rpi4/lib/libmbedtls/mbedtls/library/bignum.c:2269
    9a30:	3942a3e1 	ldrb	w1, [sp, #168]
/home/jeferson/optee/optee_os-rpi4/lib/libmbedtls/mbedtls/library/bignum.c:2215
    9a34:	d2800005 	mov	x5, #0x0                   	// #0
/home/jeferson/optee/optee_os-rpi4/lib/libmbedtls/mbedtls/library/bignum.c:2216
    9a38:	d280001b 	mov	x27, #0x0                   	// #0
/home/jeferson/optee/optee_os-rpi4/lib/libmbedtls/mbedtls/library/bignum.c:2214
    9a3c:	f9003fff 	str	xzr, [sp, #120]
/home/jeferson/optee/optee_os-rpi4/lib/libmbedtls/mbedtls/library/bignum.c:2213
    9a40:	f940041c 	ldr	x28, [x0, #8]
/home/jeferson/optee/optee_os-rpi4/lib/libmbedtls/mbedtls/library/bignum.c:2269
    9a44:	d2800020 	mov	x0, #0x1                   	// #1
    9a48:	9ac12000 	lsl	x0, x0, x1
    9a4c:	f9005be0 	str	x0, [sp, #176]
/home/jeferson/optee/optee_os-rpi4/lib/libmbedtls/mbedtls/library/bignum.c:2221
    9a50:	f9403fe0 	ldr	x0, [sp, #120]
    9a54:	b50000a0 	cbnz	x0, 9a68 <mbedtls_mpi_exp_mod+0x324>
/home/jeferson/optee/optee_os-rpi4/lib/libmbedtls/mbedtls/library/bignum.c:2223
    9a58:	b400163c 	cbz	x28, 9d1c <mbedtls_mpi_exp_mod+0x5d8>
/home/jeferson/optee/optee_os-rpi4/lib/libmbedtls/mbedtls/library/bignum.c:2226
    9a5c:	d100079c 	sub	x28, x28, #0x1
/home/jeferson/optee/optee_os-rpi4/lib/libmbedtls/mbedtls/library/bignum.c:2228
    9a60:	d2800400 	mov	x0, #0x20                  	// #32
    9a64:	f9003fe0 	str	x0, [sp, #120]
/home/jeferson/optee/optee_os-rpi4/lib/libmbedtls/mbedtls/library/bignum.c:2231
    9a68:	f9403fe0 	ldr	x0, [sp, #120]
    9a6c:	d1000400 	sub	x0, x0, #0x1
    9a70:	f9003fe0 	str	x0, [sp, #120]
/home/jeferson/optee/optee_os-rpi4/lib/libmbedtls/mbedtls/library/bignum.c:2233
    9a74:	f94037e0 	ldr	x0, [sp, #104]
    9a78:	3941e3e1 	ldrb	w1, [sp, #120]
    9a7c:	f9400800 	ldr	x0, [x0, #16]
    9a80:	b87c7800 	ldr	w0, [x0, x28, lsl #2]
    9a84:	1ac12400 	lsr	w0, w0, w1
    9a88:	12000000 	and	w0, w0, #0x1
/home/jeferson/optee/optee_os-rpi4/lib/libmbedtls/mbedtls/library/bignum.c:2238
    9a8c:	2a000041 	orr	w1, w2, w0
    9a90:	34000bc1 	cbz	w1, 9c08 <mbedtls_mpi_exp_mod+0x4c4>
/home/jeferson/optee/optee_os-rpi4/lib/libmbedtls/mbedtls/library/bignum.c:2241
    9a94:	7100045f 	cmp	w2, #0x1
    9a98:	52000001 	eor	w1, w0, #0x1
    9a9c:	1a9f17e2 	cset	w2, eq  // eq = none
    9aa0:	6a01005f 	tst	w2, w1
    9aa4:	54000b60 	b.eq	9c10 <mbedtls_mpi_exp_mod+0x4cc>  // b.none
/home/jeferson/optee/optee_os-rpi4/lib/libmbedtls/mbedtls/library/bignum.c:2246 (discriminator 1)
    9aa8:	aa1603e1 	mov	x1, x22
    9aac:	aa1703e4 	mov	x4, x23
    9ab0:	2a1903e3 	mov	w3, w25
    9ab4:	aa1403e2 	mov	x2, x20
    9ab8:	aa1603e0 	mov	x0, x22
    9abc:	f90063e5 	str	x5, [sp, #192]
    9ac0:	97fff664 	bl	7450 <mpi_montmul>
/home/jeferson/optee/optee_os-rpi4/lib/libmbedtls/mbedtls/library/bignum.c:2247 (discriminator 1)
    9ac4:	b940afe1 	ldr	w1, [sp, #172]
    9ac8:	f94063e5 	ldr	x5, [sp, #192]
    9acc:	1400004f 	b	9c08 <mbedtls_mpi_exp_mod+0x4c4>
/home/jeferson/optee/optee_os-rpi4/lib/libmbedtls/mbedtls/library/bignum.c:2110
    9ad0:	d28000c0 	mov	x0, #0x6                   	// #6
    9ad4:	17ffff65 	b	9868 <mbedtls_mpi_exp_mod+0x124>
    9ad8:	d28000a0 	mov	x0, #0x5                   	// #5
    9adc:	17ffff63 	b	9868 <mbedtls_mpi_exp_mod+0x124>
    9ae0:	d2800080 	mov	x0, #0x4                   	// #4
    9ae4:	17ffff61 	b	9868 <mbedtls_mpi_exp_mod+0x124>
/home/jeferson/optee/optee_os-rpi4/lib/libmbedtls/mbedtls/library/bignum.c:2152
    9ae8:	aa1803e0 	mov	x0, x24
    9aec:	d2800302 	mov	x2, #0x18                  	// #24
    9af0:	f9403be1 	ldr	x1, [sp, #112]
    9af4:	17ffff8f 	b	9930 <mbedtls_mpi_exp_mod+0x1ec>
/home/jeferson/optee/optee_os-rpi4/lib/libmbedtls/mbedtls/library/bignum.c:2176
    9af8:	aa1903e1 	mov	x1, x25
    9afc:	aa1a03e0 	mov	x0, x26
    9b00:	97fff7f1 	bl	7ac4 <mbedtls_mpi_copy>
    9b04:	17ffffb1 	b	99c8 <mbedtls_mpi_exp_mod+0x284>
/home/jeferson/optee/optee_os-rpi4/lib/libmbedtls/mbedtls/library/bignum.c:2193
    9b08:	b94063e0 	ldr	w0, [sp, #96]
/home/jeferson/optee/optee_os-rpi4/lib/libmbedtls/mbedtls/library/bignum.c:2195
    9b0c:	d2800305 	mov	x5, #0x18                  	// #24
    9b10:	f9400681 	ldr	x1, [x20, #8]
/home/jeferson/optee/optee_os-rpi4/lib/libmbedtls/mbedtls/library/bignum.c:2193
    9b14:	5100041b 	sub	w27, w0, #0x1
/home/jeferson/optee/optee_os-rpi4/lib/libmbedtls/mbedtls/library/bignum.c:2195
    9b18:	9adb20a5 	lsl	x5, x5, x27
    9b1c:	8b0502a5 	add	x5, x21, x5
    9b20:	aa0503e0 	mov	x0, x5
    9b24:	91000421 	add	x1, x1, #0x1
    9b28:	f9003fe5 	str	x5, [sp, #120]
    9b2c:	97fff74b 	bl	7858 <mbedtls_mpi_grow>
    9b30:	35001240 	cbnz	w0, 9d78 <mbedtls_mpi_exp_mod+0x634>
/home/jeferson/optee/optee_os-rpi4/lib/libmbedtls/mbedtls/library/bignum.c:2196 (discriminator 2)
    9b34:	f9403fe5 	ldr	x5, [sp, #120]
    9b38:	aa1a03e1 	mov	x1, x26
    9b3c:	aa0503e0 	mov	x0, x5
    9b40:	97fff7e1 	bl	7ac4 <mbedtls_mpi_copy>
    9b44:	350011a0 	cbnz	w0, 9d78 <mbedtls_mpi_exp_mod+0x634>
/home/jeferson/optee/optee_os-rpi4/lib/libmbedtls/mbedtls/library/bignum.c:2198
    9b48:	f94033e0 	ldr	x0, [sp, #96]
    9b4c:	d280001c 	mov	x28, #0x0                   	// #0
    9b50:	f9403fe5 	ldr	x5, [sp, #120]
    9b54:	d1000406 	sub	x6, x0, #0x1
/home/jeferson/optee/optee_os-rpi4/lib/libmbedtls/mbedtls/library/bignum.c:2199 (discriminator 3)
    9b58:	aa0503e1 	mov	x1, x5
    9b5c:	aa0503e0 	mov	x0, x5
    9b60:	aa1703e4 	mov	x4, x23
    9b64:	2a1903e3 	mov	w3, w25
    9b68:	aa1403e2 	mov	x2, x20
    9b6c:	f9003fe5 	str	x5, [sp, #120]
    9b70:	f9005be6 	str	x6, [sp, #176]
    9b74:	97fff637 	bl	7450 <mpi_montmul>
/home/jeferson/optee/optee_os-rpi4/lib/libmbedtls/mbedtls/library/bignum.c:2198 (discriminator 3)
    9b78:	f9405be6 	ldr	x6, [sp, #176]
    9b7c:	9100079c 	add	x28, x28, #0x1
    9b80:	f9403fe5 	ldr	x5, [sp, #120]
    9b84:	eb1c00df 	cmp	x6, x28
    9b88:	54fffe88 	b.hi	9b58 <mbedtls_mpi_exp_mod+0x414>  // b.pmore
/home/jeferson/optee/optee_os-rpi4/lib/libmbedtls/mbedtls/library/bignum.c:2204
    9b8c:	3942a3e0 	ldrb	w0, [sp, #168]
/home/jeferson/optee/optee_os-rpi4/lib/libmbedtls/mbedtls/library/bignum.c:2193
    9b90:	d280003c 	mov	x28, #0x1                   	// #1
    9b94:	9adb239b 	lsl	x27, x28, x27
/home/jeferson/optee/optee_os-rpi4/lib/libmbedtls/mbedtls/library/bignum.c:2204
    9b98:	8b1c037b 	add	x27, x27, x28
    9b9c:	9ac02380 	lsl	x0, x28, x0
    9ba0:	f9003fe0 	str	x0, [sp, #120]
/home/jeferson/optee/optee_os-rpi4/lib/libmbedtls/mbedtls/library/bignum.c:2204 (discriminator 2)
    9ba4:	f9403fe0 	ldr	x0, [sp, #120]
    9ba8:	eb1b001f 	cmp	x0, x27
    9bac:	54fff3e9 	b.ls	9a28 <mbedtls_mpi_exp_mod+0x2e4>  // b.plast
/home/jeferson/optee/optee_os-rpi4/lib/libmbedtls/mbedtls/library/bignum.c:2206
    9bb0:	f9400681 	ldr	x1, [x20, #8]
    9bb4:	910060bc 	add	x28, x5, #0x18
    9bb8:	aa1c03e0 	mov	x0, x28
    9bbc:	f9005be5 	str	x5, [sp, #176]
    9bc0:	91000421 	add	x1, x1, #0x1
    9bc4:	97fff725 	bl	7858 <mbedtls_mpi_grow>
    9bc8:	35000d80 	cbnz	w0, 9d78 <mbedtls_mpi_exp_mod+0x634>
/home/jeferson/optee/optee_os-rpi4/lib/libmbedtls/mbedtls/library/bignum.c:2207 (discriminator 2)
    9bcc:	f9405be5 	ldr	x5, [sp, #176]
    9bd0:	aa1c03e0 	mov	x0, x28
    9bd4:	aa0503e1 	mov	x1, x5
    9bd8:	97fff7bb 	bl	7ac4 <mbedtls_mpi_copy>
    9bdc:	35000ce0 	cbnz	w0, 9d78 <mbedtls_mpi_exp_mod+0x634>
/home/jeferson/optee/optee_os-rpi4/lib/libmbedtls/mbedtls/library/bignum.c:2209 (discriminator 2)
    9be0:	aa1703e4 	mov	x4, x23
    9be4:	2a1903e3 	mov	w3, w25
    9be8:	aa1403e2 	mov	x2, x20
    9bec:	aa1a03e1 	mov	x1, x26
    9bf0:	aa1c03e0 	mov	x0, x28
    9bf4:	97fff617 	bl	7450 <mpi_montmul>
/home/jeferson/optee/optee_os-rpi4/lib/libmbedtls/mbedtls/library/bignum.c:2204 (discriminator 2)
    9bf8:	9100077b 	add	x27, x27, #0x1
    9bfc:	aa1c03e5 	mov	x5, x28
    9c00:	17ffffe9 	b	9ba4 <mbedtls_mpi_exp_mod+0x460>
/home/jeferson/optee/optee_os-rpi4/lib/libmbedtls/mbedtls/library/bignum.c:2253
    9c04:	52800041 	mov	w1, #0x2                   	// #2
/home/jeferson/optee/optee_os-rpi4/lib/libmbedtls/mbedtls/library/bignum.c:2274
    9c08:	2a0103e2 	mov	w2, w1
    9c0c:	17ffff91 	b	9a50 <mbedtls_mpi_exp_mod+0x30c>
/home/jeferson/optee/optee_os-rpi4/lib/libmbedtls/mbedtls/library/bignum.c:2256
    9c10:	b940abe1 	ldr	w1, [sp, #168]
/home/jeferson/optee/optee_os-rpi4/lib/libmbedtls/mbedtls/library/bignum.c:2255
    9c14:	910004a5 	add	x5, x5, #0x1
/home/jeferson/optee/optee_os-rpi4/lib/libmbedtls/mbedtls/library/bignum.c:2256
    9c18:	4b050021 	sub	w1, w1, w5
    9c1c:	1ac12000 	lsl	w0, w0, w1
    9c20:	aa00037b 	orr	x27, x27, x0
/home/jeferson/optee/optee_os-rpi4/lib/libmbedtls/mbedtls/library/bignum.c:2258
    9c24:	f94033e0 	ldr	x0, [sp, #96]
    9c28:	eb05001f 	cmp	x0, x5
    9c2c:	54fffec1 	b.ne	9c04 <mbedtls_mpi_exp_mod+0x4c0>  // b.any
/home/jeferson/optee/optee_os-rpi4/lib/libmbedtls/mbedtls/library/bignum.c:2263
    9c30:	d2800006 	mov	x6, #0x0                   	// #0
/home/jeferson/optee/optee_os-rpi4/lib/libmbedtls/mbedtls/library/bignum.c:2264 (discriminator 3)
    9c34:	aa1703e4 	mov	x4, x23
    9c38:	2a1903e3 	mov	w3, w25
    9c3c:	aa1403e2 	mov	x2, x20
    9c40:	aa1603e1 	mov	x1, x22
    9c44:	aa1603e0 	mov	x0, x22
    9c48:	a90c1be5 	stp	x5, x6, [sp, #192]
    9c4c:	97fff601 	bl	7450 <mpi_montmul>
/home/jeferson/optee/optee_os-rpi4/lib/libmbedtls/mbedtls/library/bignum.c:2263 (discriminator 3)
    9c50:	a94c1be5 	ldp	x5, x6, [sp, #192]
    9c54:	910004c6 	add	x6, x6, #0x1
    9c58:	eb0600bf 	cmp	x5, x6
    9c5c:	54fffec8 	b.hi	9c34 <mbedtls_mpi_exp_mod+0x4f0>  // b.pmore
mpi_select():
/home/jeferson/optee/optee_os-rpi4/lib/libmbedtls/mbedtls/library/bignum.c:2058
    9c60:	d2800003 	mov	x3, #0x0                   	// #0
/home/jeferson/optee/optee_os-rpi4/lib/libmbedtls/mbedtls/library/bignum.c:2060
    9c64:	aa1b03e1 	mov	x1, x27
    9c68:	aa0303e0 	mov	x0, x3
    9c6c:	f90063e3 	str	x3, [sp, #192]
    9c70:	9400055e 	bl	b1e8 <mbedtls_ct_size_bool_eq>
    9c74:	f94063e3 	ldr	x3, [sp, #192]
    9c78:	2a0003e2 	mov	w2, w0
    9c7c:	d2800300 	mov	x0, #0x18                  	// #24
    9c80:	9b005461 	madd	x1, x3, x0, x21
    9c84:	f9404be0 	ldr	x0, [sp, #144]
    9c88:	940005dc 	bl	b3f8 <mbedtls_mpi_safe_cond_assign>
    9c8c:	35000760 	cbnz	w0, 9d78 <mbedtls_mpi_exp_mod+0x634>
/home/jeferson/optee/optee_os-rpi4/lib/libmbedtls/mbedtls/library/bignum.c:2058
    9c90:	f94063e3 	ldr	x3, [sp, #192]
    9c94:	f9405be0 	ldr	x0, [sp, #176]
    9c98:	91000463 	add	x3, x3, #0x1
    9c9c:	eb03001f 	cmp	x0, x3
    9ca0:	54fffe28 	b.hi	9c64 <mbedtls_mpi_exp_mod+0x520>  // b.pmore
mbedtls_mpi_exp_mod():
/home/jeferson/optee/optee_os-rpi4/lib/libmbedtls/mbedtls/library/bignum.c:2270 (discriminator 2)
    9ca4:	f9404be1 	ldr	x1, [sp, #144]
    9ca8:	aa1703e4 	mov	x4, x23
    9cac:	2a1903e3 	mov	w3, w25
    9cb0:	aa1403e2 	mov	x2, x20
    9cb4:	aa1603e0 	mov	x0, x22
/home/jeferson/optee/optee_os-rpi4/lib/libmbedtls/mbedtls/library/bignum.c:2274 (discriminator 2)
    9cb8:	d280001b 	mov	x27, #0x0                   	// #0
/home/jeferson/optee/optee_os-rpi4/lib/libmbedtls/mbedtls/library/bignum.c:2270 (discriminator 2)
    9cbc:	97fff5e5 	bl	7450 <mpi_montmul>
/home/jeferson/optee/optee_os-rpi4/lib/libmbedtls/mbedtls/library/bignum.c:2272 (discriminator 2)
    9cc0:	b940afe1 	ldr	w1, [sp, #172]
/home/jeferson/optee/optee_os-rpi4/lib/libmbedtls/mbedtls/library/bignum.c:2273 (discriminator 2)
    9cc4:	d2800005 	mov	x5, #0x0                   	// #0
    9cc8:	17ffffd0 	b	9c08 <mbedtls_mpi_exp_mod+0x4c4>
/home/jeferson/optee/optee_os-rpi4/lib/libmbedtls/mbedtls/library/bignum.c:2283
    9ccc:	aa1603e0 	mov	x0, x22
    9cd0:	aa1703e4 	mov	x4, x23
    9cd4:	2a1903e3 	mov	w3, w25
    9cd8:	aa1403e2 	mov	x2, x20
    9cdc:	aa1603e1 	mov	x1, x22
    9ce0:	f90033e5 	str	x5, [sp, #96]
    9ce4:	97fff5db 	bl	7450 <mpi_montmul>
/home/jeferson/optee/optee_os-rpi4/lib/libmbedtls/mbedtls/library/bignum.c:2285
    9ce8:	d37ffb7b 	lsl	x27, x27, #1
/home/jeferson/optee/optee_os-rpi4/lib/libmbedtls/mbedtls/library/bignum.c:2287
    9cec:	f9405be0 	ldr	x0, [sp, #176]
    9cf0:	f94033e5 	ldr	x5, [sp, #96]
    9cf4:	ea1b001f 	tst	x0, x27
    9cf8:	54000100 	b.eq	9d18 <mbedtls_mpi_exp_mod+0x5d4>  // b.none
/home/jeferson/optee/optee_os-rpi4/lib/libmbedtls/mbedtls/library/bignum.c:2288
    9cfc:	aa1703e4 	mov	x4, x23
    9d00:	2a1903e3 	mov	w3, w25
    9d04:	aa1403e2 	mov	x2, x20
    9d08:	aa1a03e1 	mov	x1, x26
    9d0c:	aa1603e0 	mov	x0, x22
    9d10:	97fff5d0 	bl	7450 <mpi_montmul>
    9d14:	f94033e5 	ldr	x5, [sp, #96]
/home/jeferson/optee/optee_os-rpi4/lib/libmbedtls/mbedtls/library/bignum.c:2281 (discriminator 2)
    9d18:	9100079c 	add	x28, x28, #0x1
/home/jeferson/optee/optee_os-rpi4/lib/libmbedtls/mbedtls/library/bignum.c:2281 (discriminator 1)
    9d1c:	eb05039f 	cmp	x28, x5
    9d20:	54fffd61 	b.ne	9ccc <mbedtls_mpi_exp_mod+0x588>  // b.any
/home/jeferson/optee/optee_os-rpi4/lib/libmbedtls/mbedtls/library/bignum.c:2294
    9d24:	aa1603e0 	mov	x0, x22
    9d28:	aa1703e3 	mov	x3, x23
    9d2c:	2a1903e2 	mov	w2, w25
    9d30:	aa1403e1 	mov	x1, x20
    9d34:	97fff619 	bl	7598 <mpi_montred>
/home/jeferson/optee/optee_os-rpi4/lib/libmbedtls/mbedtls/library/bignum.c:2296
    9d38:	b9409fe0 	ldr	w0, [sp, #156]
    9d3c:	3100041f 	cmn	w0, #0x1
    9d40:	540001e1 	b.ne	9d7c <mbedtls_mpi_exp_mod+0x638>  // b.any
/home/jeferson/optee/optee_os-rpi4/lib/libmbedtls/mbedtls/library/bignum.c:2296 (discriminator 1)
    9d44:	f94037e0 	ldr	x0, [sp, #104]
    9d48:	f9400400 	ldr	x0, [x0, #8]
    9d4c:	b4000180 	cbz	x0, 9d7c <mbedtls_mpi_exp_mod+0x638>
/home/jeferson/optee/optee_os-rpi4/lib/libmbedtls/mbedtls/library/bignum.c:2296 (discriminator 2)
    9d50:	f94037e0 	ldr	x0, [sp, #104]
    9d54:	f9400800 	ldr	x0, [x0, #16]
    9d58:	b9400000 	ldr	w0, [x0]
    9d5c:	36000100 	tbz	w0, #0, 9d7c <mbedtls_mpi_exp_mod+0x638>
/home/jeferson/optee/optee_os-rpi4/lib/libmbedtls/mbedtls/library/bignum.c:2298
    9d60:	79413be0 	ldrh	w0, [sp, #156]
/home/jeferson/optee/optee_os-rpi4/lib/libmbedtls/mbedtls/library/bignum.c:2299
    9d64:	aa1603e2 	mov	x2, x22
/home/jeferson/optee/optee_os-rpi4/lib/libmbedtls/mbedtls/library/bignum.c:2298
    9d68:	790002c0 	strh	w0, [x22]
/home/jeferson/optee/optee_os-rpi4/lib/libmbedtls/mbedtls/library/bignum.c:2299
    9d6c:	aa1403e1 	mov	x1, x20
    9d70:	aa1603e0 	mov	x0, x22
    9d74:	97fffa4f 	bl	86b0 <mbedtls_mpi_add_mpi>
    9d78:	2a0003f3 	mov	w19, w0
/home/jeferson/optee/optee_os-rpi4/lib/libmbedtls/mbedtls/library/bignum.c:2306 (discriminator 3)
    9d7c:	f94043e0 	ldr	x0, [sp, #128]
    9d80:	97fff69b 	bl	77ec <mbedtls_mpi_free>
/home/jeferson/optee/optee_os-rpi4/lib/libmbedtls/mbedtls/library/bignum.c:2305 (discriminator 3)
    9d84:	f94043e0 	ldr	x0, [sp, #128]
    9d88:	f9405fe1 	ldr	x1, [sp, #184]
    9d8c:	91006000 	add	x0, x0, #0x18
    9d90:	f90043e0 	str	x0, [sp, #128]
    9d94:	eb01001f 	cmp	x0, x1
    9d98:	54ffff21 	b.ne	9d7c <mbedtls_mpi_exp_mod+0x638>  // b.any
/home/jeferson/optee/optee_os-rpi4/lib/libmbedtls/mbedtls/library/bignum.c:2307
    9d9c:	f94053e0 	ldr	x0, [sp, #160]
    9da0:	aa1503e1 	mov	x1, x21
    9da4:	f940ec00 	ldr	x0, [x0, #472]
    9da8:	f9400000 	ldr	x0, [x0]
    9dac:	94000b32 	bl	ca74 <mempool_free>
/home/jeferson/optee/optee_os-rpi4/lib/libmbedtls/mbedtls/library/bignum.c:2309
    9db0:	aa1703e0 	mov	x0, x23
    9db4:	97fff68e 	bl	77ec <mbedtls_mpi_free>
    9db8:	f94047e0 	ldr	x0, [sp, #136]
    9dbc:	97fff68c 	bl	77ec <mbedtls_mpi_free>
/home/jeferson/optee/optee_os-rpi4/lib/libmbedtls/mbedtls/library/bignum.c:2310
    9dc0:	f9404be0 	ldr	x0, [sp, #144]
    9dc4:	97fff68a 	bl	77ec <mbedtls_mpi_free>
/home/jeferson/optee/optee_os-rpi4/lib/libmbedtls/mbedtls/library/bignum.c:2312
    9dc8:	f9403be0 	ldr	x0, [sp, #112]
    9dcc:	b4000060 	cbz	x0, 9dd8 <mbedtls_mpi_exp_mod+0x694>
/home/jeferson/optee/optee_os-rpi4/lib/libmbedtls/mbedtls/library/bignum.c:2312 (discriminator 1)
    9dd0:	f9400800 	ldr	x0, [x0, #16]
    9dd4:	b5ffce40 	cbnz	x0, 979c <mbedtls_mpi_exp_mod+0x58>
/home/jeferson/optee/optee_os-rpi4/lib/libmbedtls/mbedtls/library/bignum.c:2313
    9dd8:	aa1803e0 	mov	x0, x24
    9ddc:	97fff684 	bl	77ec <mbedtls_mpi_free>
    9de0:	17fffe6f 	b	979c <mbedtls_mpi_exp_mod+0x58>
/home/jeferson/optee/optee_os-rpi4/lib/libmbedtls/mbedtls/library/bignum.c:2081
    9de4:	d2800015 	mov	x21, #0x0                   	// #0
    9de8:	17ffffed 	b	9d9c <mbedtls_mpi_exp_mod+0x658>
/home/jeferson/optee/optee_os-rpi4/lib/libmbedtls/mbedtls/library/bignum.c:2157
    9dec:	128001f3 	mov	w19, #0xfffffff0            	// #-16
    9df0:	17ffffeb 	b	9d9c <mbedtls_mpi_exp_mod+0x658>
/home/jeferson/optee/optee_os-rpi4/lib/libmbedtls/mbedtls/library/bignum.c:2316
    9df4:	2a1303e0 	mov	w0, w19
    9df8:	a94153f3 	ldp	x19, x20, [sp, #16]
    9dfc:	a9425bf5 	ldp	x21, x22, [sp, #32]
    9e00:	a94363f7 	ldp	x23, x24, [sp, #48]
    9e04:	a9446bf9 	ldp	x25, x26, [sp, #64]
    9e08:	a94573fb 	ldp	x27, x28, [sp, #80]
    9e0c:	a8d47bfd 	ldp	x29, x30, [sp], #320
    9e10:	d65f03c0 	ret

0000000000009e14 <mbedtls_mpi_gcd>:
mbedtls_mpi_gcd():
/home/jeferson/optee/optee_os-rpi4/lib/libmbedtls/mbedtls/library/bignum.c:2322
    9e14:	a9b77bfd 	stp	x29, x30, [sp, #-144]!
    9e18:	910003fd 	mov	x29, sp
    9e1c:	a90363f7 	stp	x23, x24, [sp, #48]
    9e20:	aa0003f7 	mov	x23, x0
    9e24:	90000040 	adrp	x0, 11000 <_DYNAMIC>
    9e28:	a90153f3 	stp	x19, x20, [sp, #16]
/home/jeferson/optee/optee_os-rpi4/lib/libmbedtls/mbedtls/library/bignum.c:2331
    9e2c:	9101c3f4 	add	x20, sp, #0x70
/home/jeferson/optee/optee_os-rpi4/lib/libmbedtls/mbedtls/library/bignum.c:2322
    9e30:	f9409800 	ldr	x0, [x0, #304]
    9e34:	a9025bf5 	stp	x21, x22, [sp, #32]
/home/jeferson/optee/optee_os-rpi4/lib/libmbedtls/mbedtls/library/bignum.c:2331
    9e38:	910163f5 	add	x21, sp, #0x58
/home/jeferson/optee/optee_os-rpi4/lib/libmbedtls/mbedtls/library/bignum.c:2322
    9e3c:	f90023f9 	str	x25, [sp, #64]
    9e40:	aa0103f9 	mov	x25, x1
    9e44:	aa0203f6 	mov	x22, x2
    9e48:	f9400001 	ldr	x1, [x0]
    9e4c:	f90047e1 	str	x1, [sp, #136]
    9e50:	d2800001 	mov	x1, #0x0                   	// #0
/home/jeferson/optee/optee_os-rpi4/lib/libmbedtls/mbedtls/library/bignum.c:2331
    9e54:	aa1503e0 	mov	x0, x21
    9e58:	97fff65b 	bl	77c4 <mbedtls_mpi_init_mempool>
    9e5c:	aa1403e0 	mov	x0, x20
    9e60:	97fff659 	bl	77c4 <mbedtls_mpi_init_mempool>
/home/jeferson/optee/optee_os-rpi4/lib/libmbedtls/mbedtls/library/bignum.c:2333
    9e64:	aa1903e1 	mov	x1, x25
    9e68:	aa1503e0 	mov	x0, x21
    9e6c:	97fff716 	bl	7ac4 <mbedtls_mpi_copy>
    9e70:	2a0003f3 	mov	w19, w0
    9e74:	35000840 	cbnz	w0, 9f7c <mbedtls_mpi_gcd+0x168>
/home/jeferson/optee/optee_os-rpi4/lib/libmbedtls/mbedtls/library/bignum.c:2334 (discriminator 2)
    9e78:	aa1603e1 	mov	x1, x22
    9e7c:	aa1403e0 	mov	x0, x20
    9e80:	97fff711 	bl	7ac4 <mbedtls_mpi_copy>
    9e84:	2a0003f3 	mov	w19, w0
    9e88:	350007a0 	cbnz	w0, 9f7c <mbedtls_mpi_gcd+0x168>
/home/jeferson/optee/optee_os-rpi4/lib/libmbedtls/mbedtls/library/bignum.c:2336 (discriminator 2)
    9e8c:	aa1503e0 	mov	x0, x21
    9e90:	97fff7ab 	bl	7d3c <mbedtls_mpi_lsb>
    9e94:	aa0003f8 	mov	x24, x0
/home/jeferson/optee/optee_os-rpi4/lib/libmbedtls/mbedtls/library/bignum.c:2337 (discriminator 2)
    9e98:	aa1403e0 	mov	x0, x20
    9e9c:	97fff7a8 	bl	7d3c <mbedtls_mpi_lsb>
    9ea0:	aa0003f6 	mov	x22, x0
/home/jeferson/optee/optee_os-rpi4/lib/libmbedtls/mbedtls/library/bignum.c:2343 (discriminator 2)
    9ea4:	b5000140 	cbnz	x0, 9ecc <mbedtls_mpi_gcd+0xb8>
/home/jeferson/optee/optee_os-rpi4/lib/libmbedtls/mbedtls/library/bignum.c:2343 (discriminator 1)
    9ea8:	aa1403e0 	mov	x0, x20
    9eac:	d2800001 	mov	x1, #0x0                   	// #0
    9eb0:	97fff775 	bl	7c84 <mbedtls_mpi_get_bit>
    9eb4:	350000c0 	cbnz	w0, 9ecc <mbedtls_mpi_gcd+0xb8>
/home/jeferson/optee/optee_os-rpi4/lib/libmbedtls/mbedtls/library/bignum.c:2345
    9eb8:	aa1903e1 	mov	x1, x25
/home/jeferson/optee/optee_os-rpi4/lib/libmbedtls/mbedtls/library/bignum.c:2423 (discriminator 2)
    9ebc:	aa1703e0 	mov	x0, x23
    9ec0:	97fff701 	bl	7ac4 <mbedtls_mpi_copy>
    9ec4:	2a0003f3 	mov	w19, w0
    9ec8:	1400002d 	b	9f7c <mbedtls_mpi_gcd+0x168>
/home/jeferson/optee/optee_os-rpi4/lib/libmbedtls/mbedtls/library/bignum.c:2352
    9ecc:	52800020 	mov	w0, #0x1                   	// #1
    9ed0:	7900b3e0 	strh	w0, [sp, #88]
    9ed4:	7900e3e0 	strh	w0, [sp, #112]
/home/jeferson/optee/optee_os-rpi4/lib/libmbedtls/mbedtls/library/bignum.c:2387 (discriminator 2)
    9ed8:	aa1503e0 	mov	x0, x21
    9edc:	52800001 	mov	w1, #0x0                   	// #0
    9ee0:	97fff937 	bl	83bc <mbedtls_mpi_cmp_int>
    9ee4:	35000120 	cbnz	w0, 9f08 <mbedtls_mpi_gcd+0xf4>
/home/jeferson/optee/optee_os-rpi4/lib/libmbedtls/mbedtls/library/bignum.c:2422
    9ee8:	eb16031f 	cmp	x24, x22
    9eec:	aa1403e0 	mov	x0, x20
    9ef0:	9a969301 	csel	x1, x24, x22, ls  // ls = plast
    9ef4:	97fff863 	bl	8080 <mbedtls_mpi_shift_l>
    9ef8:	2a0003f3 	mov	w19, w0
    9efc:	35000400 	cbnz	w0, 9f7c <mbedtls_mpi_gcd+0x168>
/home/jeferson/optee/optee_os-rpi4/lib/libmbedtls/mbedtls/library/bignum.c:2423 (discriminator 2)
    9f00:	aa1403e1 	mov	x1, x20
    9f04:	17ffffee 	b	9ebc <mbedtls_mpi_gcd+0xa8>
/home/jeferson/optee/optee_os-rpi4/lib/libmbedtls/mbedtls/library/bignum.c:2390
    9f08:	aa1503e0 	mov	x0, x21
    9f0c:	97fff78c 	bl	7d3c <mbedtls_mpi_lsb>
    9f10:	aa0003e1 	mov	x1, x0
    9f14:	aa1503e0 	mov	x0, x21
    9f18:	97fff89e 	bl	8190 <mbedtls_mpi_shift_r>
    9f1c:	2a0003f3 	mov	w19, w0
    9f20:	350002e0 	cbnz	w0, 9f7c <mbedtls_mpi_gcd+0x168>
/home/jeferson/optee/optee_os-rpi4/lib/libmbedtls/mbedtls/library/bignum.c:2391 (discriminator 2)
    9f24:	aa1403e0 	mov	x0, x20
    9f28:	97fff785 	bl	7d3c <mbedtls_mpi_lsb>
    9f2c:	aa0003e1 	mov	x1, x0
    9f30:	aa1403e0 	mov	x0, x20
    9f34:	97fff897 	bl	8190 <mbedtls_mpi_shift_r>
    9f38:	2a0003f3 	mov	w19, w0
    9f3c:	35000200 	cbnz	w0, 9f7c <mbedtls_mpi_gcd+0x168>
/home/jeferson/optee/optee_os-rpi4/lib/libmbedtls/mbedtls/library/bignum.c:2400 (discriminator 2)
    9f40:	aa1403e1 	mov	x1, x20
    9f44:	aa1503e0 	mov	x0, x21
    9f48:	97fff8e9 	bl	82ec <mbedtls_mpi_cmp_mpi>
    9f4c:	37f80300 	tbnz	w0, #31, 9fac <mbedtls_mpi_gcd+0x198>
/home/jeferson/optee/optee_os-rpi4/lib/libmbedtls/mbedtls/library/bignum.c:2402
    9f50:	aa1403e2 	mov	x2, x20
    9f54:	aa1503e1 	mov	x1, x21
    9f58:	aa1503e0 	mov	x0, x21
    9f5c:	97fff97e 	bl	8554 <mbedtls_mpi_sub_abs>
    9f60:	2a0003f3 	mov	w19, w0
    9f64:	350000c0 	cbnz	w0, 9f7c <mbedtls_mpi_gcd+0x168>
/home/jeferson/optee/optee_os-rpi4/lib/libmbedtls/mbedtls/library/bignum.c:2403 (discriminator 2)
    9f68:	aa1503e0 	mov	x0, x21
    9f6c:	d2800021 	mov	x1, #0x1                   	// #1
/home/jeferson/optee/optee_os-rpi4/lib/libmbedtls/mbedtls/library/bignum.c:2408 (discriminator 2)
    9f70:	97fff888 	bl	8190 <mbedtls_mpi_shift_r>
    9f74:	2a0003f3 	mov	w19, w0
    9f78:	34fffb00 	cbz	w0, 9ed8 <mbedtls_mpi_gcd+0xc4>
/home/jeferson/optee/optee_os-rpi4/lib/libmbedtls/mbedtls/library/bignum.c:2427 (discriminator 3)
    9f7c:	aa1503e0 	mov	x0, x21
    9f80:	97fff61b 	bl	77ec <mbedtls_mpi_free>
    9f84:	aa1403e0 	mov	x0, x20
    9f88:	97fff619 	bl	77ec <mbedtls_mpi_free>
/home/jeferson/optee/optee_os-rpi4/lib/libmbedtls/mbedtls/library/bignum.c:2430 (discriminator 3)
    9f8c:	90000040 	adrp	x0, 11000 <_DYNAMIC>
    9f90:	f9409800 	ldr	x0, [x0, #304]
    9f94:	f94047e2 	ldr	x2, [sp, #136]
    9f98:	f9400001 	ldr	x1, [x0]
    9f9c:	eb010042 	subs	x2, x2, x1
    9fa0:	d2800001 	mov	x1, #0x0                   	// #0
    9fa4:	54000160 	b.eq	9fd0 <mbedtls_mpi_gcd+0x1bc>  // b.none
/home/jeferson/optee/optee_os-rpi4/lib/libmbedtls/mbedtls/library/bignum.c:2430
    9fa8:	97ffd905 	bl	3bc <__stack_chk_fail>
/home/jeferson/optee/optee_os-rpi4/lib/libmbedtls/mbedtls/library/bignum.c:2407
    9fac:	aa1503e2 	mov	x2, x21
    9fb0:	aa1403e1 	mov	x1, x20
    9fb4:	aa1403e0 	mov	x0, x20
    9fb8:	97fff967 	bl	8554 <mbedtls_mpi_sub_abs>
    9fbc:	2a0003f3 	mov	w19, w0
    9fc0:	35fffde0 	cbnz	w0, 9f7c <mbedtls_mpi_gcd+0x168>
/home/jeferson/optee/optee_os-rpi4/lib/libmbedtls/mbedtls/library/bignum.c:2408 (discriminator 2)
    9fc4:	aa1403e0 	mov	x0, x20
    9fc8:	d2800021 	mov	x1, #0x1                   	// #1
    9fcc:	17ffffe9 	b	9f70 <mbedtls_mpi_gcd+0x15c>
/home/jeferson/optee/optee_os-rpi4/lib/libmbedtls/mbedtls/library/bignum.c:2430
    9fd0:	2a1303e0 	mov	w0, w19
    9fd4:	a94153f3 	ldp	x19, x20, [sp, #16]
    9fd8:	a9425bf5 	ldp	x21, x22, [sp, #32]
    9fdc:	a94363f7 	ldp	x23, x24, [sp, #48]
    9fe0:	f94023f9 	ldr	x25, [sp, #64]
    9fe4:	a8c97bfd 	ldp	x29, x30, [sp], #144
    9fe8:	d65f03c0 	ret

0000000000009fec <mbedtls_mpi_fill_random>:
mbedtls_mpi_fill_random():
/home/jeferson/optee/optee_os-rpi4/lib/libmbedtls/mbedtls/library/bignum.c:2469
    9fec:	a9bd7bfd 	stp	x29, x30, [sp, #-48]!
/home/jeferson/optee/optee_os-rpi4/lib/libmbedtls/mbedtls/library/bignum.c:2471
    9ff0:	f240043f 	tst	x1, #0x3
/home/jeferson/optee/optee_os-rpi4/lib/libmbedtls/mbedtls/library/bignum.c:2469
    9ff4:	910003fd 	mov	x29, sp
    9ff8:	a90153f3 	stp	x19, x20, [sp, #16]
    9ffc:	aa0103f3 	mov	x19, x1
/home/jeferson/optee/optee_os-rpi4/lib/libmbedtls/mbedtls/library/bignum.c:2471
    a000:	d342fc21 	lsr	x1, x1, #2
/home/jeferson/optee/optee_os-rpi4/lib/libmbedtls/mbedtls/library/bignum.c:2469
    a004:	aa0003f4 	mov	x20, x0
/home/jeferson/optee/optee_os-rpi4/lib/libmbedtls/mbedtls/library/bignum.c:2477
    a008:	9a810421 	cinc	x1, x1, ne  // ne = any
/home/jeferson/optee/optee_os-rpi4/lib/libmbedtls/mbedtls/library/bignum.c:2469
    a00c:	a9025bf5 	stp	x21, x22, [sp, #32]
    a010:	aa0203f5 	mov	x21, x2
    a014:	aa0303f6 	mov	x22, x3
/home/jeferson/optee/optee_os-rpi4/lib/libmbedtls/mbedtls/library/bignum.c:2477
    a018:	97fff64a 	bl	7940 <mbedtls_mpi_resize_clear>
    a01c:	35000140 	cbnz	w0, a044 <mbedtls_mpi_fill_random+0x58>
/home/jeferson/optee/optee_os-rpi4/lib/libmbedtls/mbedtls/library/bignum.c:2478
    a020:	b4000133 	cbz	x19, a044 <mbedtls_mpi_fill_random+0x58>
/home/jeferson/optee/optee_os-rpi4/lib/libmbedtls/mbedtls/library/bignum.c:2481
    a024:	aa1603e3 	mov	x3, x22
    a028:	aa1503e2 	mov	x2, x21
    a02c:	aa1303e1 	mov	x1, x19
    a030:	aa1403e0 	mov	x0, x20
/home/jeferson/optee/optee_os-rpi4/lib/libmbedtls/mbedtls/library/bignum.c:2485
    a034:	a94153f3 	ldp	x19, x20, [sp, #16]
    a038:	a9425bf5 	ldp	x21, x22, [sp, #32]
    a03c:	a8c37bfd 	ldp	x29, x30, [sp], #48
/home/jeferson/optee/optee_os-rpi4/lib/libmbedtls/mbedtls/library/bignum.c:2481
    a040:	17fff5ad 	b	76f4 <mpi_fill_random_internal>
/home/jeferson/optee/optee_os-rpi4/lib/libmbedtls/mbedtls/library/bignum.c:2485
    a044:	a94153f3 	ldp	x19, x20, [sp, #16]
    a048:	a9425bf5 	ldp	x21, x22, [sp, #32]
    a04c:	a8c37bfd 	ldp	x29, x30, [sp], #48
    a050:	d65f03c0 	ret

000000000000a054 <mpi_miller_rabin>:
mpi_miller_rabin():
/home/jeferson/optee/optee_os-rpi4/lib/libmbedtls/mbedtls/library/bignum.c:2728
    a054:	a9b07bfd 	stp	x29, x30, [sp, #-256]!
    a058:	910003fd 	mov	x29, sp
    a05c:	a9025bf5 	stp	x21, x22, [sp, #32]
    a060:	aa0003f6 	mov	x22, x0
    a064:	f0000020 	adrp	x0, 11000 <_DYNAMIC>
    a068:	a90153f3 	stp	x19, x20, [sp, #16]
/home/jeferson/optee/optee_os-rpi4/lib/libmbedtls/mbedtls/library/bignum.c:2736
    a06c:	910203f5 	add	x21, sp, #0x80
/home/jeferson/optee/optee_os-rpi4/lib/libmbedtls/mbedtls/library/bignum.c:2737
    a070:	910323f4 	add	x20, sp, #0xc8
/home/jeferson/optee/optee_os-rpi4/lib/libmbedtls/mbedtls/library/bignum.c:2728
    a074:	f9409800 	ldr	x0, [x0, #304]
    a078:	a90363f7 	stp	x23, x24, [sp, #48]
/home/jeferson/optee/optee_os-rpi4/lib/libmbedtls/mbedtls/library/bignum.c:2736
    a07c:	910263f7 	add	x23, sp, #0x98
/home/jeferson/optee/optee_os-rpi4/lib/libmbedtls/mbedtls/library/bignum.c:2728
    a080:	a9046bf9 	stp	x25, x26, [sp, #64]
/home/jeferson/optee/optee_os-rpi4/lib/libmbedtls/mbedtls/library/bignum.c:2737
    a084:	9102c3f8 	add	x24, sp, #0xb0
/home/jeferson/optee/optee_os-rpi4/lib/libmbedtls/mbedtls/library/bignum.c:2738
    a088:	910383fa 	add	x26, sp, #0xe0
/home/jeferson/optee/optee_os-rpi4/lib/libmbedtls/mbedtls/library/bignum.c:2728
    a08c:	a90573fb 	stp	x27, x28, [sp, #80]
    a090:	a9060be1 	stp	x1, x2, [sp, #96]
    a094:	f9003be3 	str	x3, [sp, #112]
    a098:	f9400001 	ldr	x1, [x0]
    a09c:	f9007fe1 	str	x1, [sp, #248]
    a0a0:	d2800001 	mov	x1, #0x0                   	// #0
/home/jeferson/optee/optee_os-rpi4/lib/libmbedtls/mbedtls/library/bignum.c:2736
    a0a4:	aa1503e0 	mov	x0, x21
    a0a8:	97fff5c7 	bl	77c4 <mbedtls_mpi_init_mempool>
    a0ac:	aa1703e0 	mov	x0, x23
    a0b0:	97fff5c5 	bl	77c4 <mbedtls_mpi_init_mempool>
/home/jeferson/optee/optee_os-rpi4/lib/libmbedtls/mbedtls/library/bignum.c:2737
    a0b4:	aa1803e0 	mov	x0, x24
    a0b8:	97fff5c3 	bl	77c4 <mbedtls_mpi_init_mempool>
    a0bc:	aa1403e0 	mov	x0, x20
    a0c0:	97fff5c1 	bl	77c4 <mbedtls_mpi_init_mempool>
/home/jeferson/optee/optee_os-rpi4/lib/libmbedtls/mbedtls/library/bignum.c:2738
    a0c4:	aa1a03e0 	mov	x0, x26
    a0c8:	97fff5bf 	bl	77c4 <mbedtls_mpi_init_mempool>
/home/jeferson/optee/optee_os-rpi4/lib/libmbedtls/mbedtls/library/bignum.c:2744
    a0cc:	aa1603e1 	mov	x1, x22
    a0d0:	aa1503e0 	mov	x0, x21
    a0d4:	52800022 	mov	w2, #0x1                   	// #1
    a0d8:	97fff9d9 	bl	883c <mbedtls_mpi_sub_int>
    a0dc:	2a0003f3 	mov	w19, w0
    a0e0:	35000600 	cbnz	w0, a1a0 <mpi_miller_rabin+0x14c>
/home/jeferson/optee/optee_os-rpi4/lib/libmbedtls/mbedtls/library/bignum.c:2745 (discriminator 2)
    a0e4:	aa1503e0 	mov	x0, x21
    a0e8:	97fff715 	bl	7d3c <mbedtls_mpi_lsb>
/home/jeferson/optee/optee_os-rpi4/lib/libmbedtls/mbedtls/library/bignum.c:2746 (discriminator 2)
    a0ec:	aa1503e1 	mov	x1, x21
/home/jeferson/optee/optee_os-rpi4/lib/libmbedtls/mbedtls/library/bignum.c:2745 (discriminator 2)
    a0f0:	aa0003f9 	mov	x25, x0
/home/jeferson/optee/optee_os-rpi4/lib/libmbedtls/mbedtls/library/bignum.c:2746 (discriminator 2)
    a0f4:	aa1703e0 	mov	x0, x23
    a0f8:	97fff673 	bl	7ac4 <mbedtls_mpi_copy>
    a0fc:	2a0003f3 	mov	w19, w0
    a100:	35000500 	cbnz	w0, a1a0 <mpi_miller_rabin+0x14c>
/home/jeferson/optee/optee_os-rpi4/lib/libmbedtls/mbedtls/library/bignum.c:2747 (discriminator 2)
    a104:	aa1903e1 	mov	x1, x25
    a108:	aa1703e0 	mov	x0, x23
    a10c:	97fff821 	bl	8190 <mbedtls_mpi_shift_r>
    a110:	2a0003f3 	mov	w19, w0
    a114:	35000460 	cbnz	w0, a1a0 <mpi_miller_rabin+0x14c>
/home/jeferson/optee/optee_os-rpi4/lib/libmbedtls/mbedtls/library/bignum.c:2749
    a118:	d280001b 	mov	x27, #0x0                   	// #0
/home/jeferson/optee/optee_os-rpi4/lib/libmbedtls/mbedtls/library/bignum.c:2749 (discriminator 1)
    a11c:	f94033e0 	ldr	x0, [sp, #96]
    a120:	eb00037f 	cmp	x27, x0
    a124:	540003e0 	b.eq	a1a0 <mpi_miller_rabin+0x14c>  // b.none
    a128:	528025dc 	mov	w28, #0x12e                 	// #302
/home/jeferson/optee/optee_os-rpi4/lib/libmbedtls/mbedtls/library/bignum.c:2756
    a12c:	a9468fe2 	ldp	x2, x3, [sp, #104]
    a130:	aa1403e0 	mov	x0, x20
    a134:	f94006c1 	ldr	x1, [x22, #8]
    a138:	d37ef421 	lsl	x1, x1, #2
    a13c:	97ffffac 	bl	9fec <mbedtls_mpi_fill_random>
    a140:	35000c80 	cbnz	w0, a2d0 <mpi_miller_rabin+0x27c>
/home/jeferson/optee/optee_os-rpi4/lib/libmbedtls/mbedtls/library/bignum.c:2758 (discriminator 2)
    a144:	aa1403e0 	mov	x0, x20
    a148:	97fff712 	bl	7d90 <mbedtls_mpi_bitlen>
    a14c:	aa0003e1 	mov	x1, x0
/home/jeferson/optee/optee_os-rpi4/lib/libmbedtls/mbedtls/library/bignum.c:2759 (discriminator 2)
    a150:	aa1503e0 	mov	x0, x21
/home/jeferson/optee/optee_os-rpi4/lib/libmbedtls/mbedtls/library/bignum.c:2758 (discriminator 2)
    a154:	f9003fe1 	str	x1, [sp, #120]
/home/jeferson/optee/optee_os-rpi4/lib/libmbedtls/mbedtls/library/bignum.c:2759 (discriminator 2)
    a158:	97fff70e 	bl	7d90 <mbedtls_mpi_bitlen>
/home/jeferson/optee/optee_os-rpi4/lib/libmbedtls/mbedtls/library/bignum.c:2760 (discriminator 2)
    a15c:	f9403fe1 	ldr	x1, [sp, #120]
    a160:	eb00003f 	cmp	x1, x0
    a164:	54000189 	b.ls	a194 <mpi_miller_rabin+0x140>  // b.plast
/home/jeferson/optee/optee_os-rpi4/lib/libmbedtls/mbedtls/library/bignum.c:2761
    a168:	a94d0fe1 	ldp	x1, x3, [sp, #208]
    a16c:	d37ef422 	lsl	x2, x1, #2
    a170:	d1000421 	sub	x1, x1, #0x1
    a174:	d1001042 	sub	x2, x2, #0x4
    a178:	4b011400 	sub	w0, w0, w1, lsl #5
    a17c:	12800001 	mov	w1, #0xffffffff            	// #-1
    a180:	51000400 	sub	w0, w0, #0x1
    a184:	1ac02020 	lsl	w0, w1, w0
    a188:	b8626861 	ldr	w1, [x3, x2]
    a18c:	0a200020 	bic	w0, w1, w0
    a190:	b8226860 	str	w0, [x3, x2]
/home/jeferson/optee/optee_os-rpi4/lib/libmbedtls/mbedtls/library/bignum.c:2764
    a194:	7100079c 	subs	w28, w28, #0x1
    a198:	54000281 	b.ne	a1e8 <mpi_miller_rabin+0x194>  // b.any
/home/jeferson/optee/optee_os-rpi4/lib/libmbedtls/mbedtls/library/bignum.c:2765
    a19c:	128001b3 	mov	w19, #0xfffffff2            	// #-14
/home/jeferson/optee/optee_os-rpi4/lib/libmbedtls/mbedtls/library/bignum.c:2808
    a1a0:	aa1503e0 	mov	x0, x21
    a1a4:	97fff592 	bl	77ec <mbedtls_mpi_free>
    a1a8:	aa1703e0 	mov	x0, x23
    a1ac:	97fff590 	bl	77ec <mbedtls_mpi_free>
/home/jeferson/optee/optee_os-rpi4/lib/libmbedtls/mbedtls/library/bignum.c:2809
    a1b0:	aa1803e0 	mov	x0, x24
    a1b4:	97fff58e 	bl	77ec <mbedtls_mpi_free>
    a1b8:	aa1403e0 	mov	x0, x20
    a1bc:	97fff58c 	bl	77ec <mbedtls_mpi_free>
/home/jeferson/optee/optee_os-rpi4/lib/libmbedtls/mbedtls/library/bignum.c:2810
    a1c0:	aa1a03e0 	mov	x0, x26
    a1c4:	97fff58a 	bl	77ec <mbedtls_mpi_free>
/home/jeferson/optee/optee_os-rpi4/lib/libmbedtls/mbedtls/library/bignum.c:2813
    a1c8:	f0000020 	adrp	x0, 11000 <_DYNAMIC>
    a1cc:	f9409800 	ldr	x0, [x0, #304]
    a1d0:	f9407fe2 	ldr	x2, [sp, #248]
    a1d4:	f9400001 	ldr	x1, [x0]
    a1d8:	eb010042 	subs	x2, x2, x1
    a1dc:	d2800001 	mov	x1, #0x0                   	// #0
    a1e0:	540007c0 	b.eq	a2d8 <mpi_miller_rabin+0x284>  // b.none
    a1e4:	97ffd876 	bl	3bc <__stack_chk_fail>
/home/jeferson/optee/optee_os-rpi4/lib/libmbedtls/mbedtls/library/bignum.c:2769
    a1e8:	aa1503e1 	mov	x1, x21
    a1ec:	aa1403e0 	mov	x0, x20
    a1f0:	97fff83f 	bl	82ec <mbedtls_mpi_cmp_mpi>
    a1f4:	36fff9c0 	tbz	w0, #31, a12c <mpi_miller_rabin+0xd8>
/home/jeferson/optee/optee_os-rpi4/lib/libmbedtls/mbedtls/library/bignum.c:2770 (discriminator 1)
    a1f8:	aa1403e0 	mov	x0, x20
    a1fc:	52800021 	mov	w1, #0x1                   	// #1
    a200:	97fff86f 	bl	83bc <mbedtls_mpi_cmp_int>
/home/jeferson/optee/optee_os-rpi4/lib/libmbedtls/mbedtls/library/bignum.c:2769 (discriminator 1)
    a204:	7100001f 	cmp	w0, #0x0
    a208:	54fff92d 	b.le	a12c <mpi_miller_rabin+0xd8>
/home/jeferson/optee/optee_os-rpi4/lib/libmbedtls/mbedtls/library/bignum.c:2775
    a20c:	aa1a03e4 	mov	x4, x26
    a210:	aa1603e3 	mov	x3, x22
    a214:	aa1703e2 	mov	x2, x23
    a218:	aa1403e1 	mov	x1, x20
    a21c:	aa1403e0 	mov	x0, x20
    a220:	97fffd49 	bl	9744 <mbedtls_mpi_exp_mod>
    a224:	35000560 	cbnz	w0, a2d0 <mpi_miller_rabin+0x27c>
/home/jeferson/optee/optee_os-rpi4/lib/libmbedtls/mbedtls/library/bignum.c:2777 (discriminator 2)
    a228:	aa1503e1 	mov	x1, x21
    a22c:	aa1403e0 	mov	x0, x20
    a230:	97fff82f 	bl	82ec <mbedtls_mpi_cmp_mpi>
    a234:	35000060 	cbnz	w0, a240 <mpi_miller_rabin+0x1ec>
/home/jeferson/optee/optee_os-rpi4/lib/libmbedtls/mbedtls/library/bignum.c:2749
    a238:	9100077b 	add	x27, x27, #0x1
    a23c:	17ffffb8 	b	a11c <mpi_miller_rabin+0xc8>
/home/jeferson/optee/optee_os-rpi4/lib/libmbedtls/mbedtls/library/bignum.c:2778 (discriminator 2)
    a240:	aa1403e0 	mov	x0, x20
    a244:	52800021 	mov	w1, #0x1                   	// #1
    a248:	97fff85d 	bl	83bc <mbedtls_mpi_cmp_int>
/home/jeferson/optee/optee_os-rpi4/lib/libmbedtls/mbedtls/library/bignum.c:2777 (discriminator 2)
    a24c:	34ffff60 	cbz	w0, a238 <mpi_miller_rabin+0x1e4>
/home/jeferson/optee/optee_os-rpi4/lib/libmbedtls/mbedtls/library/bignum.c:2781
    a250:	d280003c 	mov	x28, #0x1                   	// #1
/home/jeferson/optee/optee_os-rpi4/lib/libmbedtls/mbedtls/library/bignum.c:2782
    a254:	eb19039f 	cmp	x28, x25
    a258:	54000262 	b.cs	a2a4 <mpi_miller_rabin+0x250>  // b.hs, b.nlast
/home/jeferson/optee/optee_os-rpi4/lib/libmbedtls/mbedtls/library/bignum.c:2782 (discriminator 1)
    a25c:	aa1503e1 	mov	x1, x21
    a260:	aa1403e0 	mov	x0, x20
    a264:	97fff822 	bl	82ec <mbedtls_mpi_cmp_mpi>
    a268:	340001e0 	cbz	w0, a2a4 <mpi_miller_rabin+0x250>
/home/jeferson/optee/optee_os-rpi4/lib/libmbedtls/mbedtls/library/bignum.c:2787
    a26c:	aa1403e2 	mov	x2, x20
    a270:	aa1403e1 	mov	x1, x20
    a274:	aa1803e0 	mov	x0, x24
    a278:	97fff98f 	bl	88b4 <mbedtls_mpi_mul_mpi>
    a27c:	350002a0 	cbnz	w0, a2d0 <mpi_miller_rabin+0x27c>
/home/jeferson/optee/optee_os-rpi4/lib/libmbedtls/mbedtls/library/bignum.c:2788 (discriminator 2)
    a280:	aa1603e2 	mov	x2, x22
    a284:	aa1803e1 	mov	x1, x24
    a288:	aa1403e0 	mov	x0, x20
    a28c:	97fffc08 	bl	92ac <mbedtls_mpi_mod_mpi>
    a290:	35000200 	cbnz	w0, a2d0 <mpi_miller_rabin+0x27c>
/home/jeferson/optee/optee_os-rpi4/lib/libmbedtls/mbedtls/library/bignum.c:2790 (discriminator 2)
    a294:	aa1403e0 	mov	x0, x20
    a298:	52800021 	mov	w1, #0x1                   	// #1
    a29c:	97fff848 	bl	83bc <mbedtls_mpi_cmp_int>
    a2a0:	35000140 	cbnz	w0, a2c8 <mpi_miller_rabin+0x274>
/home/jeferson/optee/optee_os-rpi4/lib/libmbedtls/mbedtls/library/bignum.c:2799
    a2a4:	aa1503e1 	mov	x1, x21
    a2a8:	aa1403e0 	mov	x0, x20
    a2ac:	97fff810 	bl	82ec <mbedtls_mpi_cmp_mpi>
    a2b0:	35fff760 	cbnz	w0, a19c <mpi_miller_rabin+0x148>
/home/jeferson/optee/optee_os-rpi4/lib/libmbedtls/mbedtls/library/bignum.c:2800 (discriminator 1)
    a2b4:	aa1403e0 	mov	x0, x20
    a2b8:	52800021 	mov	w1, #0x1                   	// #1
    a2bc:	97fff840 	bl	83bc <mbedtls_mpi_cmp_int>
/home/jeferson/optee/optee_os-rpi4/lib/libmbedtls/mbedtls/library/bignum.c:2799 (discriminator 1)
    a2c0:	35fffbc0 	cbnz	w0, a238 <mpi_miller_rabin+0x1e4>
    a2c4:	17ffffb6 	b	a19c <mpi_miller_rabin+0x148>
/home/jeferson/optee/optee_os-rpi4/lib/libmbedtls/mbedtls/library/bignum.c:2793
    a2c8:	9100079c 	add	x28, x28, #0x1
    a2cc:	17ffffe2 	b	a254 <mpi_miller_rabin+0x200>
    a2d0:	2a0003f3 	mov	w19, w0
    a2d4:	17ffffb3 	b	a1a0 <mpi_miller_rabin+0x14c>
/home/jeferson/optee/optee_os-rpi4/lib/libmbedtls/mbedtls/library/bignum.c:2813
    a2d8:	2a1303e0 	mov	w0, w19
    a2dc:	a94153f3 	ldp	x19, x20, [sp, #16]
    a2e0:	a9425bf5 	ldp	x21, x22, [sp, #32]
    a2e4:	a94363f7 	ldp	x23, x24, [sp, #48]
    a2e8:	a9446bf9 	ldp	x25, x26, [sp, #64]
    a2ec:	a94573fb 	ldp	x27, x28, [sp, #80]
    a2f0:	a8d07bfd 	ldp	x29, x30, [sp], #256
    a2f4:	d65f03c0 	ret

000000000000a2f8 <mbedtls_mpi_random>:
mbedtls_mpi_random():
/home/jeferson/optee/optee_os-rpi4/lib/libmbedtls/mbedtls/library/bignum.c:2492
    a2f8:	a9b67bfd 	stp	x29, x30, [sp, #-160]!
    a2fc:	910003fd 	mov	x29, sp
    a300:	a90153f3 	stp	x19, x20, [sp, #16]
    a304:	aa0003f3 	mov	x19, x0
    a308:	f0000020 	adrp	x0, 11000 <_DYNAMIC>
    a30c:	a9025bf5 	stp	x21, x22, [sp, #32]
    a310:	aa0203f4 	mov	x20, x2
    a314:	f9409800 	ldr	x0, [x0, #304]
    a318:	a90363f7 	stp	x23, x24, [sp, #48]
    a31c:	aa0303f8 	mov	x24, x3
    a320:	a9046bf9 	stp	x25, x26, [sp, #64]
    a324:	2a0103fa 	mov	w26, w1
    a328:	aa0403f9 	mov	x25, x4
    a32c:	a90573fb 	stp	x27, x28, [sp, #80]
    a330:	f9400001 	ldr	x1, [x0]
    a334:	f9004fe1 	str	x1, [sp, #152]
    a338:	d2800001 	mov	x1, #0x0                   	// #0
/home/jeferson/optee/optee_os-rpi4/lib/libmbedtls/mbedtls/library/bignum.c:2495
    a33c:	52800020 	mov	w0, #0x1                   	// #1
    a340:	290f7fe0 	stp	w0, wzr, [sp, #120]
/home/jeferson/optee/optee_os-rpi4/lib/libmbedtls/mbedtls/library/bignum.c:2496
    a344:	aa0203e0 	mov	x0, x2
    a348:	97fff692 	bl	7d90 <mbedtls_mpi_bitlen>
/home/jeferson/optee/optee_os-rpi4/lib/libmbedtls/mbedtls/library/bignum.c:2500
    a34c:	36f8015a 	tbz	w26, #31, a374 <mbedtls_mpi_random+0x7c>
/home/jeferson/optee/optee_os-rpi4/lib/libmbedtls/mbedtls/library/bignum.c:2501
    a350:	12800062 	mov	w2, #0xfffffffc            	// #-4
/home/jeferson/optee/optee_os-rpi4/lib/libmbedtls/mbedtls/library/bignum.c:2560
    a354:	f0000020 	adrp	x0, 11000 <_DYNAMIC>
    a358:	f9409800 	ldr	x0, [x0, #304]
    a35c:	f9404fe3 	ldr	x3, [sp, #152]
    a360:	f9400001 	ldr	x1, [x0]
    a364:	eb010063 	subs	x3, x3, x1
    a368:	d2800001 	mov	x1, #0x0                   	// #0
    a36c:	54000920 	b.eq	a490 <mbedtls_mpi_random+0x198>  // b.none
    a370:	97ffd813 	bl	3bc <__stack_chk_fail>
    a374:	aa0003fb 	mov	x27, x0
    a378:	91001c15 	add	x21, x0, #0x7
/home/jeferson/optee/optee_os-rpi4/lib/libmbedtls/mbedtls/library/bignum.c:2502
    a37c:	2a1a03e1 	mov	w1, w26
    a380:	aa1403e0 	mov	x0, x20
    a384:	97fff80e 	bl	83bc <mbedtls_mpi_cmp_int>
    a388:	7100001f 	cmp	w0, #0x0
    a38c:	54fffe2d 	b.le	a350 <mbedtls_mpi_random+0x58>
/home/jeferson/optee/optee_os-rpi4/lib/libmbedtls/mbedtls/library/bignum.c:2522
    a390:	f1009ebf 	cmp	x21, #0x27
    a394:	52801f40 	mov	w0, #0xfa                  	// #250
/home/jeferson/optee/optee_os-rpi4/lib/libmbedtls/mbedtls/library/bignum.c:2524
    a398:	910203f6 	add	x22, sp, #0x80
/home/jeferson/optee/optee_os-rpi4/lib/libmbedtls/mbedtls/library/bignum.c:2522
    a39c:	528003d7 	mov	w23, #0x1e                  	// #30
    a3a0:	1a8082f7 	csel	w23, w23, w0, hi  // hi = pmore
/home/jeferson/optee/optee_os-rpi4/lib/libmbedtls/mbedtls/library/bignum.c:2524
    a3a4:	aa1603e0 	mov	x0, x22
    a3a8:	97fff503 	bl	77b4 <mbedtls_mpi_init>
/home/jeferson/optee/optee_os-rpi4/lib/libmbedtls/mbedtls/library/bignum.c:2529
    a3ac:	f9400681 	ldr	x1, [x20, #8]
    a3b0:	aa1303e0 	mov	x0, x19
    a3b4:	97fff563 	bl	7940 <mbedtls_mpi_resize_clear>
    a3b8:	2a0003e2 	mov	w2, w0
    a3bc:	350005c0 	cbnz	w0, a474 <mbedtls_mpi_random+0x17c>
/home/jeferson/optee/optee_os-rpi4/lib/libmbedtls/mbedtls/library/bignum.c:2530 (discriminator 2)
    a3c0:	f9400681 	ldr	x1, [x20, #8]
    a3c4:	aa1603e0 	mov	x0, x22
    a3c8:	97fff524 	bl	7858 <mbedtls_mpi_grow>
    a3cc:	2a0003e2 	mov	w2, w0
    a3d0:	35000520 	cbnz	w0, a474 <mbedtls_mpi_random+0x17c>
/home/jeferson/optee/optee_os-rpi4/lib/libmbedtls/mbedtls/library/bignum.c:2531 (discriminator 2)
    a3d4:	2a1a03e1 	mov	w1, w26
    a3d8:	aa1603e0 	mov	x0, x22
    a3dc:	97fff610 	bl	7c1c <mbedtls_mpi_lset>
    a3e0:	2a0003e2 	mov	w2, w0
    a3e4:	35000480 	cbnz	w0, a474 <mbedtls_mpi_random+0x17c>
/home/jeferson/optee/optee_os-rpi4/lib/libmbedtls/mbedtls/library/bignum.c:2497
    a3e8:	d343feba 	lsr	x26, x21, #3
/home/jeferson/optee/optee_os-rpi4/lib/libmbedtls/mbedtls/library/bignum.c:2544
    a3ec:	927df2b5 	and	x21, x21, #0xfffffffffffffff8
    a3f0:	cb1b02b5 	sub	x21, x21, x27
/home/jeferson/optee/optee_os-rpi4/lib/libmbedtls/mbedtls/library/bignum.c:2553
    a3f4:	9101f3fc 	add	x28, sp, #0x7c
/home/jeferson/optee/optee_os-rpi4/lib/libmbedtls/mbedtls/library/bignum.c:2552
    a3f8:	9101e3fb 	add	x27, sp, #0x78
/home/jeferson/optee/optee_os-rpi4/lib/libmbedtls/mbedtls/library/bignum.c:2543 (discriminator 2)
    a3fc:	aa1803e2 	mov	x2, x24
    a400:	aa1903e3 	mov	x3, x25
    a404:	aa1a03e1 	mov	x1, x26
    a408:	aa1303e0 	mov	x0, x19
    a40c:	97fff4ba 	bl	76f4 <mpi_fill_random_internal>
    a410:	2a0003e2 	mov	w2, w0
    a414:	35000300 	cbnz	w0, a474 <mbedtls_mpi_random+0x17c>
/home/jeferson/optee/optee_os-rpi4/lib/libmbedtls/mbedtls/library/bignum.c:2544 (discriminator 2)
    a418:	aa1503e1 	mov	x1, x21
    a41c:	aa1303e0 	mov	x0, x19
    a420:	97fff75c 	bl	8190 <mbedtls_mpi_shift_r>
    a424:	2a0003e2 	mov	w2, w0
    a428:	35000260 	cbnz	w0, a474 <mbedtls_mpi_random+0x17c>
/home/jeferson/optee/optee_os-rpi4/lib/libmbedtls/mbedtls/library/bignum.c:2546 (discriminator 2)
    a42c:	710006f7 	subs	w23, w23, #0x1
    a430:	540002c0 	b.eq	a488 <mbedtls_mpi_random+0x190>  // b.none
/home/jeferson/optee/optee_os-rpi4/lib/libmbedtls/mbedtls/library/bignum.c:2552
    a434:	aa1b03e2 	mov	x2, x27
    a438:	aa1603e1 	mov	x1, x22
    a43c:	aa1303e0 	mov	x0, x19
    a440:	9400045c 	bl	b5b0 <mbedtls_mpi_lt_mpi_ct>
    a444:	2a0003e2 	mov	w2, w0
    a448:	35000160 	cbnz	w0, a474 <mbedtls_mpi_random+0x17c>
/home/jeferson/optee/optee_os-rpi4/lib/libmbedtls/mbedtls/library/bignum.c:2553 (discriminator 2)
    a44c:	aa1c03e2 	mov	x2, x28
    a450:	aa1403e1 	mov	x1, x20
    a454:	aa1303e0 	mov	x0, x19
    a458:	94000456 	bl	b5b0 <mbedtls_mpi_lt_mpi_ct>
    a45c:	2a0003e2 	mov	w2, w0
    a460:	350000a0 	cbnz	w0, a474 <mbedtls_mpi_random+0x17c>
/home/jeferson/optee/optee_os-rpi4/lib/libmbedtls/mbedtls/library/bignum.c:2555 (discriminator 2)
    a464:	b9407be0 	ldr	w0, [sp, #120]
    a468:	35fffca0 	cbnz	w0, a3fc <mbedtls_mpi_random+0x104>
/home/jeferson/optee/optee_os-rpi4/lib/libmbedtls/mbedtls/library/bignum.c:2555 (discriminator 1)
    a46c:	b9407fe0 	ldr	w0, [sp, #124]
    a470:	34fffc60 	cbz	w0, a3fc <mbedtls_mpi_random+0x104>
/home/jeferson/optee/optee_os-rpi4/lib/libmbedtls/mbedtls/library/bignum.c:2558
    a474:	aa1603e0 	mov	x0, x22
    a478:	b9006fe2 	str	w2, [sp, #108]
    a47c:	97fff4dc 	bl	77ec <mbedtls_mpi_free>
    a480:	b9406fe2 	ldr	w2, [sp, #108]
/home/jeferson/optee/optee_os-rpi4/lib/libmbedtls/mbedtls/library/bignum.c:2559
    a484:	17ffffb4 	b	a354 <mbedtls_mpi_random+0x5c>
/home/jeferson/optee/optee_os-rpi4/lib/libmbedtls/mbedtls/library/bignum.c:2548
    a488:	128001a2 	mov	w2, #0xfffffff2            	// #-14
    a48c:	17fffffa 	b	a474 <mbedtls_mpi_random+0x17c>
/home/jeferson/optee/optee_os-rpi4/lib/libmbedtls/mbedtls/library/bignum.c:2560
    a490:	2a0203e0 	mov	w0, w2
    a494:	a94153f3 	ldp	x19, x20, [sp, #16]
    a498:	a9425bf5 	ldp	x21, x22, [sp, #32]
    a49c:	a94363f7 	ldp	x23, x24, [sp, #48]
    a4a0:	a9446bf9 	ldp	x25, x26, [sp, #64]
    a4a4:	a94573fb 	ldp	x27, x28, [sp, #80]
    a4a8:	a8ca7bfd 	ldp	x29, x30, [sp], #160
    a4ac:	d65f03c0 	ret

000000000000a4b0 <mbedtls_mpi_inv_mod>:
mbedtls_mpi_inv_mod():
/home/jeferson/optee/optee_os-rpi4/lib/libmbedtls/mbedtls/library/bignum.c:2566
    a4b0:	a9ab7bfd 	stp	x29, x30, [sp, #-336]!
    a4b4:	910003fd 	mov	x29, sp
    a4b8:	a90603e1 	stp	x1, x0, [sp, #96]
    a4bc:	f0000020 	adrp	x0, 11000 <_DYNAMIC>
    a4c0:	f9409800 	ldr	x0, [x0, #304]
    a4c4:	a90153f3 	stp	x19, x20, [sp, #16]
    a4c8:	aa0203f4 	mov	x20, x2
    a4cc:	a9025bf5 	stp	x21, x22, [sp, #32]
    a4d0:	a90363f7 	stp	x23, x24, [sp, #48]
    a4d4:	a9046bf9 	stp	x25, x26, [sp, #64]
    a4d8:	a90573fb 	stp	x27, x28, [sp, #80]
    a4dc:	f9400001 	ldr	x1, [x0]
    a4e0:	f900a7e1 	str	x1, [sp, #328]
    a4e4:	d2800001 	mov	x1, #0x0                   	// #0
/home/jeferson/optee/optee_os-rpi4/lib/libmbedtls/mbedtls/library/bignum.c:2573
    a4e8:	aa0203e0 	mov	x0, x2
    a4ec:	52800021 	mov	w1, #0x1                   	// #1
    a4f0:	97fff7b3 	bl	83bc <mbedtls_mpi_cmp_int>
    a4f4:	7100001f 	cmp	w0, #0x0
    a4f8:	54001f4d 	b.le	a8e0 <mbedtls_mpi_inv_mod+0x430>
/home/jeferson/optee/optee_os-rpi4/lib/libmbedtls/mbedtls/library/bignum.c:2576
    a4fc:	910223fa 	add	x26, sp, #0x88
    a500:	910283f8 	add	x24, sp, #0xa0
    a504:	aa1a03e0 	mov	x0, x26
    a508:	97fff4af 	bl	77c4 <mbedtls_mpi_init_mempool>
    a50c:	aa1803e0 	mov	x0, x24
/home/jeferson/optee/optee_os-rpi4/lib/libmbedtls/mbedtls/library/bignum.c:2577
    a510:	9102e3f7 	add	x23, sp, #0xb8
/home/jeferson/optee/optee_os-rpi4/lib/libmbedtls/mbedtls/library/bignum.c:2576
    a514:	97fff4ac 	bl	77c4 <mbedtls_mpi_init_mempool>
/home/jeferson/optee/optee_os-rpi4/lib/libmbedtls/mbedtls/library/bignum.c:2577
    a518:	910343f6 	add	x22, sp, #0xd0
    a51c:	aa1703e0 	mov	x0, x23
    a520:	97fff4a9 	bl	77c4 <mbedtls_mpi_init_mempool>
    a524:	aa1603e0 	mov	x0, x22
/home/jeferson/optee/optee_os-rpi4/lib/libmbedtls/mbedtls/library/bignum.c:2578
    a528:	9101c3fc 	add	x28, sp, #0x70
/home/jeferson/optee/optee_os-rpi4/lib/libmbedtls/mbedtls/library/bignum.c:2577
    a52c:	97fff4a6 	bl	77c4 <mbedtls_mpi_init_mempool>
/home/jeferson/optee/optee_os-rpi4/lib/libmbedtls/mbedtls/library/bignum.c:2578
    a530:	9103a3fb 	add	x27, sp, #0xe8
    a534:	aa1c03e0 	mov	x0, x28
    a538:	97fff4a3 	bl	77c4 <mbedtls_mpi_init_mempool>
    a53c:	aa1b03e0 	mov	x0, x27
/home/jeferson/optee/optee_os-rpi4/lib/libmbedtls/mbedtls/library/bignum.c:2579
    a540:	910403f9 	add	x25, sp, #0x100
/home/jeferson/optee/optee_os-rpi4/lib/libmbedtls/mbedtls/library/bignum.c:2578
    a544:	97fff4a0 	bl	77c4 <mbedtls_mpi_init_mempool>
/home/jeferson/optee/optee_os-rpi4/lib/libmbedtls/mbedtls/library/bignum.c:2579
    a548:	910463f3 	add	x19, sp, #0x118
    a54c:	aa1903e0 	mov	x0, x25
    a550:	97fff49d 	bl	77c4 <mbedtls_mpi_init_mempool>
    a554:	aa1303e0 	mov	x0, x19
/home/jeferson/optee/optee_os-rpi4/lib/libmbedtls/mbedtls/library/bignum.c:2580
    a558:	9104c3f5 	add	x21, sp, #0x130
/home/jeferson/optee/optee_os-rpi4/lib/libmbedtls/mbedtls/library/bignum.c:2579
    a55c:	97fff49a 	bl	77c4 <mbedtls_mpi_init_mempool>
/home/jeferson/optee/optee_os-rpi4/lib/libmbedtls/mbedtls/library/bignum.c:2580
    a560:	aa1503e0 	mov	x0, x21
    a564:	97fff498 	bl	77c4 <mbedtls_mpi_init_mempool>
/home/jeferson/optee/optee_os-rpi4/lib/libmbedtls/mbedtls/library/bignum.c:2582
    a568:	f94033e1 	ldr	x1, [sp, #96]
    a56c:	aa1403e2 	mov	x2, x20
    a570:	aa1c03e0 	mov	x0, x28
    a574:	97fffe28 	bl	9e14 <mbedtls_mpi_gcd>
    a578:	2a0003e1 	mov	w1, w0
    a57c:	35000d20 	cbnz	w0, a720 <mbedtls_mpi_inv_mod+0x270>
/home/jeferson/optee/optee_os-rpi4/lib/libmbedtls/mbedtls/library/bignum.c:2584 (discriminator 2)
    a580:	aa1c03e0 	mov	x0, x28
    a584:	52800021 	mov	w1, #0x1                   	// #1
    a588:	97fff78d 	bl	83bc <mbedtls_mpi_cmp_int>
    a58c:	35001a60 	cbnz	w0, a8d8 <mbedtls_mpi_inv_mod+0x428>
/home/jeferson/optee/optee_os-rpi4/lib/libmbedtls/mbedtls/library/bignum.c:2590
    a590:	f94033e1 	ldr	x1, [sp, #96]
    a594:	aa1403e2 	mov	x2, x20
    a598:	aa1a03e0 	mov	x0, x26
    a59c:	97fffb44 	bl	92ac <mbedtls_mpi_mod_mpi>
    a5a0:	2a0003e1 	mov	w1, w0
    a5a4:	35000be0 	cbnz	w0, a720 <mbedtls_mpi_inv_mod+0x270>
/home/jeferson/optee/optee_os-rpi4/lib/libmbedtls/mbedtls/library/bignum.c:2591 (discriminator 2)
    a5a8:	aa1a03e1 	mov	x1, x26
    a5ac:	aa1803e0 	mov	x0, x24
    a5b0:	97fff545 	bl	7ac4 <mbedtls_mpi_copy>
    a5b4:	2a0003e1 	mov	w1, w0
    a5b8:	35000b40 	cbnz	w0, a720 <mbedtls_mpi_inv_mod+0x270>
/home/jeferson/optee/optee_os-rpi4/lib/libmbedtls/mbedtls/library/bignum.c:2592 (discriminator 2)
    a5bc:	aa1403e1 	mov	x1, x20
    a5c0:	aa1b03e0 	mov	x0, x27
    a5c4:	97fff540 	bl	7ac4 <mbedtls_mpi_copy>
    a5c8:	2a0003e1 	mov	w1, w0
    a5cc:	35000aa0 	cbnz	w0, a720 <mbedtls_mpi_inv_mod+0x270>
/home/jeferson/optee/optee_os-rpi4/lib/libmbedtls/mbedtls/library/bignum.c:2593 (discriminator 2)
    a5d0:	aa1403e1 	mov	x1, x20
    a5d4:	aa1903e0 	mov	x0, x25
    a5d8:	97fff53b 	bl	7ac4 <mbedtls_mpi_copy>
    a5dc:	2a0003e1 	mov	w1, w0
    a5e0:	35000a00 	cbnz	w0, a720 <mbedtls_mpi_inv_mod+0x270>
/home/jeferson/optee/optee_os-rpi4/lib/libmbedtls/mbedtls/library/bignum.c:2595 (discriminator 2)
    a5e4:	52800021 	mov	w1, #0x1                   	// #1
    a5e8:	aa1703e0 	mov	x0, x23
    a5ec:	97fff58c 	bl	7c1c <mbedtls_mpi_lset>
    a5f0:	2a0003e1 	mov	w1, w0
    a5f4:	35000960 	cbnz	w0, a720 <mbedtls_mpi_inv_mod+0x270>
/home/jeferson/optee/optee_os-rpi4/lib/libmbedtls/mbedtls/library/bignum.c:2596 (discriminator 2)
    a5f8:	aa1603e0 	mov	x0, x22
    a5fc:	97fff588 	bl	7c1c <mbedtls_mpi_lset>
    a600:	2a0003e1 	mov	w1, w0
    a604:	350008e0 	cbnz	w0, a720 <mbedtls_mpi_inv_mod+0x270>
/home/jeferson/optee/optee_os-rpi4/lib/libmbedtls/mbedtls/library/bignum.c:2597 (discriminator 2)
    a608:	aa1303e0 	mov	x0, x19
    a60c:	97fff584 	bl	7c1c <mbedtls_mpi_lset>
    a610:	2a0003e1 	mov	w1, w0
    a614:	35000860 	cbnz	w0, a720 <mbedtls_mpi_inv_mod+0x270>
/home/jeferson/optee/optee_os-rpi4/lib/libmbedtls/mbedtls/library/bignum.c:2598 (discriminator 2)
    a618:	aa1503e0 	mov	x0, x21
    a61c:	52800021 	mov	w1, #0x1                   	// #1
    a620:	97fff57f 	bl	7c1c <mbedtls_mpi_lset>
/home/jeferson/optee/optee_os-rpi4/lib/libmbedtls/mbedtls/library/bignum.c:2613 (discriminator 2)
    a624:	2a0003e1 	mov	w1, w0
    a628:	350007c0 	cbnz	w0, a720 <mbedtls_mpi_inv_mod+0x270>
/home/jeferson/optee/optee_os-rpi4/lib/libmbedtls/mbedtls/library/bignum.c:2602 (discriminator 2)
    a62c:	f9405be0 	ldr	x0, [sp, #176]
    a630:	b9400000 	ldr	w0, [x0]
    a634:	36000560 	tbz	w0, #0, a6e0 <mbedtls_mpi_inv_mod+0x230>
/home/jeferson/optee/optee_os-rpi4/lib/libmbedtls/mbedtls/library/bignum.c:2616 (discriminator 2)
    a638:	f9408be0 	ldr	x0, [sp, #272]
    a63c:	b9400000 	ldr	w0, [x0]
    a640:	36000ca0 	tbz	w0, #0, a7d4 <mbedtls_mpi_inv_mod+0x324>
/home/jeferson/optee/optee_os-rpi4/lib/libmbedtls/mbedtls/library/bignum.c:2630
    a644:	aa1903e1 	mov	x1, x25
    a648:	aa1803e0 	mov	x0, x24
    a64c:	97fff728 	bl	82ec <mbedtls_mpi_cmp_mpi>
    a650:	37f81080 	tbnz	w0, #31, a860 <mbedtls_mpi_inv_mod+0x3b0>
/home/jeferson/optee/optee_os-rpi4/lib/libmbedtls/mbedtls/library/bignum.c:2632
    a654:	aa1803e1 	mov	x1, x24
    a658:	aa1903e2 	mov	x2, x25
    a65c:	aa1803e0 	mov	x0, x24
    a660:	97fff836 	bl	8738 <mbedtls_mpi_sub_mpi>
    a664:	2a0003e1 	mov	w1, w0
    a668:	350005c0 	cbnz	w0, a720 <mbedtls_mpi_inv_mod+0x270>
/home/jeferson/optee/optee_os-rpi4/lib/libmbedtls/mbedtls/library/bignum.c:2633 (discriminator 2)
    a66c:	aa1703e1 	mov	x1, x23
    a670:	aa1303e2 	mov	x2, x19
    a674:	aa1703e0 	mov	x0, x23
    a678:	97fff830 	bl	8738 <mbedtls_mpi_sub_mpi>
    a67c:	2a0003e1 	mov	w1, w0
    a680:	35000500 	cbnz	w0, a720 <mbedtls_mpi_inv_mod+0x270>
/home/jeferson/optee/optee_os-rpi4/lib/libmbedtls/mbedtls/library/bignum.c:2634 (discriminator 2)
    a684:	aa1503e2 	mov	x2, x21
    a688:	aa1603e1 	mov	x1, x22
    a68c:	aa1603e0 	mov	x0, x22
    a690:	97fff82a 	bl	8738 <mbedtls_mpi_sub_mpi>
    a694:	2a0003e1 	mov	w1, w0
    a698:	35000440 	cbnz	w0, a720 <mbedtls_mpi_inv_mod+0x270>
/home/jeferson/optee/optee_os-rpi4/lib/libmbedtls/mbedtls/library/bignum.c:2643
    a69c:	aa1803e0 	mov	x0, x24
    a6a0:	52800001 	mov	w1, #0x0                   	// #0
    a6a4:	97fff746 	bl	83bc <mbedtls_mpi_cmp_int>
    a6a8:	35fffc20 	cbnz	w0, a62c <mbedtls_mpi_inv_mod+0x17c>
/home/jeferson/optee/optee_os-rpi4/lib/libmbedtls/mbedtls/library/bignum.c:2645 (discriminator 2)
    a6ac:	aa1303e0 	mov	x0, x19
    a6b0:	52800001 	mov	w1, #0x0                   	// #0
    a6b4:	97fff742 	bl	83bc <mbedtls_mpi_cmp_int>
    a6b8:	37f80f40 	tbnz	w0, #31, a8a0 <mbedtls_mpi_inv_mod+0x3f0>
/home/jeferson/optee/optee_os-rpi4/lib/libmbedtls/mbedtls/library/bignum.c:2648 (discriminator 2)
    a6bc:	aa1403e1 	mov	x1, x20
    a6c0:	aa1303e0 	mov	x0, x19
    a6c4:	97fff70a 	bl	82ec <mbedtls_mpi_cmp_mpi>
    a6c8:	36f80fa0 	tbz	w0, #31, a8bc <mbedtls_mpi_inv_mod+0x40c>
/home/jeferson/optee/optee_os-rpi4/lib/libmbedtls/mbedtls/library/bignum.c:2651
    a6cc:	f94037e0 	ldr	x0, [sp, #104]
    a6d0:	aa1303e1 	mov	x1, x19
    a6d4:	97fff4fc 	bl	7ac4 <mbedtls_mpi_copy>
    a6d8:	2a0003e1 	mov	w1, w0
    a6dc:	14000011 	b	a720 <mbedtls_mpi_inv_mod+0x270>
/home/jeferson/optee/optee_os-rpi4/lib/libmbedtls/mbedtls/library/bignum.c:2604
    a6e0:	d2800021 	mov	x1, #0x1                   	// #1
    a6e4:	aa1803e0 	mov	x0, x24
    a6e8:	97fff6aa 	bl	8190 <mbedtls_mpi_shift_r>
    a6ec:	2a0003e1 	mov	w1, w0
    a6f0:	35000180 	cbnz	w0, a720 <mbedtls_mpi_inv_mod+0x270>
/home/jeferson/optee/optee_os-rpi4/lib/libmbedtls/mbedtls/library/bignum.c:2606 (discriminator 2)
    a6f4:	f94067e0 	ldr	x0, [sp, #200]
    a6f8:	b9400000 	ldr	w0, [x0]
    a6fc:	370004a0 	tbnz	w0, #0, a790 <mbedtls_mpi_inv_mod+0x2e0>
/home/jeferson/optee/optee_os-rpi4/lib/libmbedtls/mbedtls/library/bignum.c:2606 (discriminator 1)
    a700:	f94073e0 	ldr	x0, [sp, #224]
    a704:	b9400000 	ldr	w0, [x0]
    a708:	37000440 	tbnz	w0, #0, a790 <mbedtls_mpi_inv_mod+0x2e0>
/home/jeferson/optee/optee_os-rpi4/lib/libmbedtls/mbedtls/library/bignum.c:2612
    a70c:	d2800021 	mov	x1, #0x1                   	// #1
    a710:	aa1703e0 	mov	x0, x23
    a714:	97fff69f 	bl	8190 <mbedtls_mpi_shift_r>
    a718:	2a0003e1 	mov	w1, w0
    a71c:	34000540 	cbz	w0, a7c4 <mbedtls_mpi_inv_mod+0x314>
/home/jeferson/optee/optee_os-rpi4/lib/libmbedtls/mbedtls/library/bignum.c:2655 (discriminator 3)
    a720:	aa1a03e0 	mov	x0, x26
    a724:	b90063e1 	str	w1, [sp, #96]
    a728:	97fff431 	bl	77ec <mbedtls_mpi_free>
    a72c:	aa1803e0 	mov	x0, x24
    a730:	97fff42f 	bl	77ec <mbedtls_mpi_free>
    a734:	aa1703e0 	mov	x0, x23
    a738:	97fff42d 	bl	77ec <mbedtls_mpi_free>
    a73c:	aa1603e0 	mov	x0, x22
    a740:	97fff42b 	bl	77ec <mbedtls_mpi_free>
/home/jeferson/optee/optee_os-rpi4/lib/libmbedtls/mbedtls/library/bignum.c:2656 (discriminator 3)
    a744:	aa1c03e0 	mov	x0, x28
    a748:	97fff429 	bl	77ec <mbedtls_mpi_free>
    a74c:	aa1b03e0 	mov	x0, x27
    a750:	97fff427 	bl	77ec <mbedtls_mpi_free>
    a754:	aa1903e0 	mov	x0, x25
    a758:	97fff425 	bl	77ec <mbedtls_mpi_free>
/home/jeferson/optee/optee_os-rpi4/lib/libmbedtls/mbedtls/library/bignum.c:2657 (discriminator 3)
    a75c:	aa1303e0 	mov	x0, x19
    a760:	97fff423 	bl	77ec <mbedtls_mpi_free>
    a764:	aa1503e0 	mov	x0, x21
    a768:	97fff421 	bl	77ec <mbedtls_mpi_free>
/home/jeferson/optee/optee_os-rpi4/lib/libmbedtls/mbedtls/library/bignum.c:2659 (discriminator 3)
    a76c:	b94063e1 	ldr	w1, [sp, #96]
/home/jeferson/optee/optee_os-rpi4/lib/libmbedtls/mbedtls/library/bignum.c:2660
    a770:	f0000020 	adrp	x0, 11000 <_DYNAMIC>
    a774:	f9409800 	ldr	x0, [x0, #304]
    a778:	f940a7e3 	ldr	x3, [sp, #328]
    a77c:	f9400002 	ldr	x2, [x0]
    a780:	eb020063 	subs	x3, x3, x2
    a784:	d2800002 	mov	x2, #0x0                   	// #0
    a788:	54000b00 	b.eq	a8e8 <mbedtls_mpi_inv_mod+0x438>  // b.none
    a78c:	97ffd70c 	bl	3bc <__stack_chk_fail>
/home/jeferson/optee/optee_os-rpi4/lib/libmbedtls/mbedtls/library/bignum.c:2608
    a790:	aa1703e1 	mov	x1, x23
    a794:	aa1b03e2 	mov	x2, x27
    a798:	aa1703e0 	mov	x0, x23
    a79c:	97fff7c5 	bl	86b0 <mbedtls_mpi_add_mpi>
    a7a0:	2a0003e1 	mov	w1, w0
    a7a4:	35fffbe0 	cbnz	w0, a720 <mbedtls_mpi_inv_mod+0x270>
/home/jeferson/optee/optee_os-rpi4/lib/libmbedtls/mbedtls/library/bignum.c:2609 (discriminator 2)
    a7a8:	aa1603e1 	mov	x1, x22
    a7ac:	aa1a03e2 	mov	x2, x26
    a7b0:	aa1603e0 	mov	x0, x22
    a7b4:	97fff7e1 	bl	8738 <mbedtls_mpi_sub_mpi>
    a7b8:	2a0003e1 	mov	w1, w0
    a7bc:	34fffa80 	cbz	w0, a70c <mbedtls_mpi_inv_mod+0x25c>
    a7c0:	17ffffd8 	b	a720 <mbedtls_mpi_inv_mod+0x270>
/home/jeferson/optee/optee_os-rpi4/lib/libmbedtls/mbedtls/library/bignum.c:2613 (discriminator 2)
    a7c4:	aa1603e0 	mov	x0, x22
    a7c8:	d2800021 	mov	x1, #0x1                   	// #1
    a7cc:	97fff671 	bl	8190 <mbedtls_mpi_shift_r>
    a7d0:	17ffff95 	b	a624 <mbedtls_mpi_inv_mod+0x174>
/home/jeferson/optee/optee_os-rpi4/lib/libmbedtls/mbedtls/library/bignum.c:2618
    a7d4:	d2800021 	mov	x1, #0x1                   	// #1
    a7d8:	aa1903e0 	mov	x0, x25
    a7dc:	97fff66d 	bl	8190 <mbedtls_mpi_shift_r>
    a7e0:	2a0003e1 	mov	w1, w0
    a7e4:	35fff9e0 	cbnz	w0, a720 <mbedtls_mpi_inv_mod+0x270>
/home/jeferson/optee/optee_os-rpi4/lib/libmbedtls/mbedtls/library/bignum.c:2620 (discriminator 2)
    a7e8:	f94097e0 	ldr	x0, [sp, #296]
    a7ec:	b9400000 	ldr	w0, [x0]
    a7f0:	370001e0 	tbnz	w0, #0, a82c <mbedtls_mpi_inv_mod+0x37c>
/home/jeferson/optee/optee_os-rpi4/lib/libmbedtls/mbedtls/library/bignum.c:2620 (discriminator 1)
    a7f4:	f940a3e0 	ldr	x0, [sp, #320]
    a7f8:	b9400000 	ldr	w0, [x0]
    a7fc:	37000180 	tbnz	w0, #0, a82c <mbedtls_mpi_inv_mod+0x37c>
/home/jeferson/optee/optee_os-rpi4/lib/libmbedtls/mbedtls/library/bignum.c:2626
    a800:	d2800021 	mov	x1, #0x1                   	// #1
    a804:	aa1303e0 	mov	x0, x19
    a808:	97fff662 	bl	8190 <mbedtls_mpi_shift_r>
    a80c:	2a0003e1 	mov	w1, w0
    a810:	35fff880 	cbnz	w0, a720 <mbedtls_mpi_inv_mod+0x270>
/home/jeferson/optee/optee_os-rpi4/lib/libmbedtls/mbedtls/library/bignum.c:2627 (discriminator 2)
    a814:	d2800021 	mov	x1, #0x1                   	// #1
    a818:	aa1503e0 	mov	x0, x21
    a81c:	97fff65d 	bl	8190 <mbedtls_mpi_shift_r>
    a820:	2a0003e1 	mov	w1, w0
    a824:	34fff0a0 	cbz	w0, a638 <mbedtls_mpi_inv_mod+0x188>
    a828:	17ffffbe 	b	a720 <mbedtls_mpi_inv_mod+0x270>
/home/jeferson/optee/optee_os-rpi4/lib/libmbedtls/mbedtls/library/bignum.c:2622
    a82c:	aa1303e1 	mov	x1, x19
    a830:	aa1b03e2 	mov	x2, x27
    a834:	aa1303e0 	mov	x0, x19
    a838:	97fff79e 	bl	86b0 <mbedtls_mpi_add_mpi>
    a83c:	2a0003e1 	mov	w1, w0
    a840:	35fff700 	cbnz	w0, a720 <mbedtls_mpi_inv_mod+0x270>
/home/jeferson/optee/optee_os-rpi4/lib/libmbedtls/mbedtls/library/bignum.c:2623 (discriminator 2)
    a844:	aa1503e1 	mov	x1, x21
    a848:	aa1a03e2 	mov	x2, x26
    a84c:	aa1503e0 	mov	x0, x21
    a850:	97fff7ba 	bl	8738 <mbedtls_mpi_sub_mpi>
    a854:	2a0003e1 	mov	w1, w0
    a858:	34fffd40 	cbz	w0, a800 <mbedtls_mpi_inv_mod+0x350>
    a85c:	17ffffb1 	b	a720 <mbedtls_mpi_inv_mod+0x270>
/home/jeferson/optee/optee_os-rpi4/lib/libmbedtls/mbedtls/library/bignum.c:2638
    a860:	aa1903e1 	mov	x1, x25
    a864:	aa1803e2 	mov	x2, x24
    a868:	aa1903e0 	mov	x0, x25
    a86c:	97fff7b3 	bl	8738 <mbedtls_mpi_sub_mpi>
    a870:	2a0003e1 	mov	w1, w0
    a874:	35fff560 	cbnz	w0, a720 <mbedtls_mpi_inv_mod+0x270>
/home/jeferson/optee/optee_os-rpi4/lib/libmbedtls/mbedtls/library/bignum.c:2639 (discriminator 2)
    a878:	aa1303e1 	mov	x1, x19
    a87c:	aa1703e2 	mov	x2, x23
    a880:	aa1303e0 	mov	x0, x19
    a884:	97fff7ad 	bl	8738 <mbedtls_mpi_sub_mpi>
    a888:	2a0003e1 	mov	w1, w0
    a88c:	35fff4a0 	cbnz	w0, a720 <mbedtls_mpi_inv_mod+0x270>
/home/jeferson/optee/optee_os-rpi4/lib/libmbedtls/mbedtls/library/bignum.c:2640 (discriminator 2)
    a890:	aa1603e2 	mov	x2, x22
    a894:	aa1503e1 	mov	x1, x21
    a898:	aa1503e0 	mov	x0, x21
    a89c:	17ffff7d 	b	a690 <mbedtls_mpi_inv_mod+0x1e0>
/home/jeferson/optee/optee_os-rpi4/lib/libmbedtls/mbedtls/library/bignum.c:2646
    a8a0:	aa1303e1 	mov	x1, x19
    a8a4:	aa1403e2 	mov	x2, x20
    a8a8:	aa1303e0 	mov	x0, x19
    a8ac:	97fff781 	bl	86b0 <mbedtls_mpi_add_mpi>
    a8b0:	2a0003e1 	mov	w1, w0
    a8b4:	34ffefc0 	cbz	w0, a6ac <mbedtls_mpi_inv_mod+0x1fc>
    a8b8:	17ffff9a 	b	a720 <mbedtls_mpi_inv_mod+0x270>
/home/jeferson/optee/optee_os-rpi4/lib/libmbedtls/mbedtls/library/bignum.c:2649
    a8bc:	aa1303e1 	mov	x1, x19
    a8c0:	aa1403e2 	mov	x2, x20
    a8c4:	aa1303e0 	mov	x0, x19
    a8c8:	97fff79c 	bl	8738 <mbedtls_mpi_sub_mpi>
    a8cc:	2a0003e1 	mov	w1, w0
    a8d0:	34ffef60 	cbz	w0, a6bc <mbedtls_mpi_inv_mod+0x20c>
    a8d4:	17ffff93 	b	a720 <mbedtls_mpi_inv_mod+0x270>
/home/jeferson/optee/optee_os-rpi4/lib/libmbedtls/mbedtls/library/bignum.c:2586
    a8d8:	128001a1 	mov	w1, #0xfffffff2            	// #-14
    a8dc:	17ffff91 	b	a720 <mbedtls_mpi_inv_mod+0x270>
/home/jeferson/optee/optee_os-rpi4/lib/libmbedtls/mbedtls/library/bignum.c:2574
    a8e0:	12800061 	mov	w1, #0xfffffffc            	// #-4
    a8e4:	17ffffa3 	b	a770 <mbedtls_mpi_inv_mod+0x2c0>
/home/jeferson/optee/optee_os-rpi4/lib/libmbedtls/mbedtls/library/bignum.c:2660
    a8e8:	2a0103e0 	mov	w0, w1
    a8ec:	a94153f3 	ldp	x19, x20, [sp, #16]
    a8f0:	a9425bf5 	ldp	x21, x22, [sp, #32]
    a8f4:	a94363f7 	ldp	x23, x24, [sp, #48]
    a8f8:	a9446bf9 	ldp	x25, x26, [sp, #64]
    a8fc:	a94573fb 	ldp	x27, x28, [sp, #80]
    a900:	a8d57bfd 	ldp	x29, x30, [sp], #336
    a904:	d65f03c0 	ret

000000000000a908 <mbedtls_mpi_is_prime_ext>:
mbedtls_mpi_is_prime_ext():
/home/jeferson/optee/optee_os-rpi4/lib/libmbedtls/mbedtls/library/bignum.c:2821
    a908:	a9bb7bfd 	stp	x29, x30, [sp, #-80]!
    a90c:	f0000024 	adrp	x4, 11000 <_DYNAMIC>
    a910:	910003fd 	mov	x29, sp
    a914:	f9409884 	ldr	x4, [x4, #304]
    a918:	a90153f3 	stp	x19, x20, [sp, #16]
    a91c:	2a0103f4 	mov	w20, w1
    a920:	a9025bf5 	stp	x21, x22, [sp, #32]
/home/jeferson/optee/optee_os-rpi4/lib/libmbedtls/mbedtls/library/bignum.c:2831
    a924:	9100c3f3 	add	x19, sp, #0x30
/home/jeferson/optee/optee_os-rpi4/lib/libmbedtls/mbedtls/library/bignum.c:2821
    a928:	aa0203f5 	mov	x21, x2
    a92c:	f9400081 	ldr	x1, [x4]
    a930:	f90027e1 	str	x1, [sp, #72]
    a934:	d2800001 	mov	x1, #0x0                   	// #0
    a938:	aa0303f6 	mov	x22, x3
/home/jeferson/optee/optee_os-rpi4/lib/libmbedtls/mbedtls/library/bignum.c:2827
    a93c:	52800021 	mov	w1, #0x1                   	// #1
    a940:	790063e1 	strh	w1, [sp, #48]
/home/jeferson/optee/optee_os-rpi4/lib/libmbedtls/mbedtls/library/bignum.c:2829
    a944:	a9408001 	ldp	x1, x0, [x0, #8]
    a948:	a90383e1 	stp	x1, x0, [sp, #56]
/home/jeferson/optee/optee_os-rpi4/lib/libmbedtls/mbedtls/library/bignum.c:2831
    a94c:	aa1303e0 	mov	x0, x19
    a950:	52800001 	mov	w1, #0x0                   	// #0
    a954:	97fff69a 	bl	83bc <mbedtls_mpi_cmp_int>
    a958:	35000140 	cbnz	w0, a980 <mbedtls_mpi_is_prime_ext+0x78>
/home/jeferson/optee/optee_os-rpi4/lib/libmbedtls/mbedtls/library/bignum.c:2833
    a95c:	128001a0 	mov	w0, #0xfffffff2            	// #-14
/home/jeferson/optee/optee_os-rpi4/lib/libmbedtls/mbedtls/library/bignum.c:2847
    a960:	f0000024 	adrp	x4, 11000 <_DYNAMIC>
    a964:	f9409884 	ldr	x4, [x4, #304]
    a968:	f94027e1 	ldr	x1, [sp, #72]
    a96c:	f9400082 	ldr	x2, [x4]
    a970:	eb020021 	subs	x1, x1, x2
    a974:	d2800002 	mov	x2, #0x0                   	// #0
    a978:	540002e0 	b.eq	a9d4 <mbedtls_mpi_is_prime_ext+0xcc>  // b.none
    a97c:	97ffd690 	bl	3bc <__stack_chk_fail>
/home/jeferson/optee/optee_os-rpi4/lib/libmbedtls/mbedtls/library/bignum.c:2832 (discriminator 1)
    a980:	aa1303e0 	mov	x0, x19
    a984:	52800021 	mov	w1, #0x1                   	// #1
    a988:	97fff68d 	bl	83bc <mbedtls_mpi_cmp_int>
/home/jeferson/optee/optee_os-rpi4/lib/libmbedtls/mbedtls/library/bignum.c:2831 (discriminator 1)
    a98c:	34fffe80 	cbz	w0, a95c <mbedtls_mpi_is_prime_ext+0x54>
/home/jeferson/optee/optee_os-rpi4/lib/libmbedtls/mbedtls/library/bignum.c:2835
    a990:	aa1303e0 	mov	x0, x19
    a994:	52800041 	mov	w1, #0x2                   	// #2
    a998:	97fff689 	bl	83bc <mbedtls_mpi_cmp_int>
    a99c:	340000c0 	cbz	w0, a9b4 <mbedtls_mpi_is_prime_ext+0xac>
/home/jeferson/optee/optee_os-rpi4/lib/libmbedtls/mbedtls/library/bignum.c:2838
    a9a0:	aa1303e0 	mov	x0, x19
    a9a4:	97fffb33 	bl	9670 <mpi_check_small_factors>
    a9a8:	340000a0 	cbz	w0, a9bc <mbedtls_mpi_is_prime_ext+0xb4>
/home/jeferson/optee/optee_os-rpi4/lib/libmbedtls/mbedtls/library/bignum.c:2840
    a9ac:	7100041f 	cmp	w0, #0x1
    a9b0:	54fffd81 	b.ne	a960 <mbedtls_mpi_is_prime_ext+0x58>  // b.any
/home/jeferson/optee/optee_os-rpi4/lib/libmbedtls/mbedtls/library/bignum.c:2841
    a9b4:	52800000 	mov	w0, #0x0                   	// #0
    a9b8:	17ffffea 	b	a960 <mbedtls_mpi_is_prime_ext+0x58>
/home/jeferson/optee/optee_os-rpi4/lib/libmbedtls/mbedtls/library/bignum.c:2846
    a9bc:	aa1603e3 	mov	x3, x22
    a9c0:	aa1503e2 	mov	x2, x21
    a9c4:	93407e81 	sxtw	x1, w20
    a9c8:	aa1303e0 	mov	x0, x19
    a9cc:	97fffda2 	bl	a054 <mpi_miller_rabin>
    a9d0:	17ffffe4 	b	a960 <mbedtls_mpi_is_prime_ext+0x58>
/home/jeferson/optee/optee_os-rpi4/lib/libmbedtls/mbedtls/library/bignum.c:2847
    a9d4:	a94153f3 	ldp	x19, x20, [sp, #16]
    a9d8:	a9425bf5 	ldp	x21, x22, [sp, #32]
    a9dc:	a8c57bfd 	ldp	x29, x30, [sp], #80
    a9e0:	d65f03c0 	ret

000000000000a9e4 <mbedtls_mpi_is_prime>:
mbedtls_mpi_is_prime():
/home/jeferson/optee/optee_os-rpi4/lib/libmbedtls/mbedtls/library/bignum.c:2865
    a9e4:	aa0203e3 	mov	x3, x2
    a9e8:	aa0103e2 	mov	x2, x1
    a9ec:	52800501 	mov	w1, #0x28                  	// #40
    a9f0:	17ffffc6 	b	a908 <mbedtls_mpi_is_prime_ext>

000000000000a9f4 <mbedtls_mpi_gen_prime>:
mbedtls_mpi_gen_prime():
/home/jeferson/optee/optee_os-rpi4/lib/libmbedtls/mbedtls/library/bignum.c:2879
    a9f4:	a9b67bfd 	stp	x29, x30, [sp, #-160]!
    a9f8:	910003fd 	mov	x29, sp
    a9fc:	a90153f3 	stp	x19, x20, [sp, #16]
    aa00:	aa0003f3 	mov	x19, x0
    aa04:	f0000020 	adrp	x0, 11000 <_DYNAMIC>
    aa08:	a9025bf5 	stp	x21, x22, [sp, #32]
    aa0c:	f9409800 	ldr	x0, [x0, #304]
    aa10:	a90363f7 	stp	x23, x24, [sp, #48]
    aa14:	a9046bf9 	stp	x25, x26, [sp, #64]
    aa18:	a90573fb 	stp	x27, x28, [sp, #80]
    aa1c:	aa0103fc 	mov	x28, x1
    aa20:	f9400001 	ldr	x1, [x0]
    aa24:	f9004fe1 	str	x1, [sp, #152]
    aa28:	d2800001 	mov	x1, #0x0                   	// #0
/home/jeferson/optee/optee_os-rpi4/lib/libmbedtls/mbedtls/library/bignum.c:2896
    aa2c:	d283ffa0 	mov	x0, #0x1ffd                	// #8189
    aa30:	d1000f81 	sub	x1, x28, #0x3
    aa34:	eb00003f 	cmp	x1, x0
    aa38:	54001708 	b.hi	ad18 <mbedtls_mpi_gen_prime+0x324>  // b.pmore
/home/jeferson/optee/optee_os-rpi4/lib/libmbedtls/mbedtls/library/bignum.c:2899
    aa3c:	910203f4 	add	x20, sp, #0x80
    aa40:	2a0203f8 	mov	w24, w2
    aa44:	aa1403e0 	mov	x0, x20
    aa48:	aa0303f6 	mov	x22, x3
    aa4c:	aa0403f7 	mov	x23, x4
    aa50:	97fff35d 	bl	77c4 <mbedtls_mpi_init_mempool>
/home/jeferson/optee/optee_os-rpi4/lib/libmbedtls/mbedtls/library/bignum.c:2901
    aa54:	f240139f 	tst	x28, #0x1f
    aa58:	d345ff95 	lsr	x21, x28, #5
    aa5c:	9a9506a0 	cinc	x0, x21, ne  // ne = any
/home/jeferson/optee/optee_os-rpi4/lib/libmbedtls/mbedtls/library/bignum.c:2903
    aa60:	37080d58 	tbnz	w24, #1, ac08 <mbedtls_mpi_gen_prime+0x214>
/home/jeferson/optee/optee_os-rpi4/lib/libmbedtls/mbedtls/library/bignum.c:2908
    aa64:	f1144f9f 	cmp	x28, #0x513
    aa68:	54000f48 	b.hi	ac50 <mbedtls_mpi_gen_prime+0x25c>  // b.pmore
/home/jeferson/optee/optee_os-rpi4/lib/libmbedtls/mbedtls/library/bignum.c:2908 (discriminator 1)
    aa6c:	f10d479f 	cmp	x28, #0x351
    aa70:	54000f48 	b.hi	ac58 <mbedtls_mpi_gen_prime+0x264>  // b.pmore
/home/jeferson/optee/optee_os-rpi4/lib/libmbedtls/mbedtls/library/bignum.c:2909
    aa74:	f10a279f 	cmp	x28, #0x289
    aa78:	54000f88 	b.hi	ac68 <mbedtls_mpi_gen_prime+0x274>  // b.pmore
/home/jeferson/optee/optee_os-rpi4/lib/libmbedtls/mbedtls/library/bignum.c:2909 (discriminator 1)
    aa7c:	f105779f 	cmp	x28, #0x15d
    aa80:	54001048 	b.hi	ac88 <mbedtls_mpi_gen_prime+0x294>  // b.pmore
/home/jeferson/optee/optee_os-rpi4/lib/libmbedtls/mbedtls/library/bignum.c:2910
    aa84:	f103e79f 	cmp	x28, #0xf9
    aa88:	54000ec8 	b.hi	ac60 <mbedtls_mpi_gen_prime+0x26c>  // b.pmore
/home/jeferson/optee/optee_os-rpi4/lib/libmbedtls/mbedtls/library/bignum.c:2910 (discriminator 1)
    aa8c:	f102579f 	cmp	x28, #0x95
    aa90:	52800255 	mov	w21, #0x12                  	// #18
    aa94:	52800361 	mov	w1, #0x1b                  	// #27
/home/jeferson/optee/optee_os-rpi4/lib/libmbedtls/mbedtls/library/bignum.c:2921 (discriminator 1)
    aa98:	1a8182ba 	csel	w26, w21, w1, hi  // hi = pmore
/home/jeferson/optee/optee_os-rpi4/lib/libmbedtls/mbedtls/library/bignum.c:2930
    aa9c:	d37be815 	lsl	x21, x0, #5
/home/jeferson/optee/optee_os-rpi4/lib/libmbedtls/mbedtls/library/bignum.c:2926
    aaa0:	d37ef419 	lsl	x25, x0, #2
/home/jeferson/optee/optee_os-rpi4/lib/libmbedtls/mbedtls/library/bignum.c:2931
    aaa4:	cb1c02bb 	sub	x27, x21, x28
/home/jeferson/optee/optee_os-rpi4/lib/libmbedtls/mbedtls/library/bignum.c:2934
    aaa8:	12000318 	and	w24, w24, #0x1
/home/jeferson/optee/optee_os-rpi4/lib/libmbedtls/mbedtls/library/bignum.c:2928
    aaac:	d1001321 	sub	x1, x25, #0x4
    aab0:	f90037e1 	str	x1, [sp, #104]
/home/jeferson/optee/optee_os-rpi4/lib/libmbedtls/mbedtls/library/bignum.c:2926
    aab4:	aa1603e2 	mov	x2, x22
    aab8:	aa1703e3 	mov	x3, x23
    aabc:	aa1903e1 	mov	x1, x25
    aac0:	aa1303e0 	mov	x0, x19
    aac4:	97fffd4a 	bl	9fec <mbedtls_mpi_fill_random>
    aac8:	2a0003e2 	mov	w2, w0
    aacc:	35000f40 	cbnz	w0, acb4 <mbedtls_mpi_gen_prime+0x2c0>
/home/jeferson/optee/optee_os-rpi4/lib/libmbedtls/mbedtls/library/bignum.c:2928 (discriminator 2)
    aad0:	f9400a60 	ldr	x0, [x19, #16]
    aad4:	f94037e1 	ldr	x1, [sp, #104]
    aad8:	b8616800 	ldr	w0, [x0, x1]
    aadc:	529e6661 	mov	w1, #0xf333                	// #62259
    aae0:	72b6a081 	movk	w1, #0xb504, lsl #16
    aae4:	6b01001f 	cmp	w0, w1
    aae8:	54fffe69 	b.ls	aab4 <mbedtls_mpi_gen_prime+0xc0>  // b.plast
/home/jeferson/optee/optee_os-rpi4/lib/libmbedtls/mbedtls/library/bignum.c:2931
    aaec:	eb15039f 	cmp	x28, x21
    aaf0:	54000d83 	b.cc	aca0 <mbedtls_mpi_gen_prime+0x2ac>  // b.lo, b.ul, b.last
/home/jeferson/optee/optee_os-rpi4/lib/libmbedtls/mbedtls/library/bignum.c:2932
    aaf4:	f9400a61 	ldr	x1, [x19, #16]
    aaf8:	b9400020 	ldr	w0, [x1]
    aafc:	32000002 	orr	w2, w0, #0x1
    ab00:	b9000022 	str	w2, [x1]
/home/jeferson/optee/optee_os-rpi4/lib/libmbedtls/mbedtls/library/bignum.c:2934
    ab04:	34000f18 	cbz	w24, ace4 <mbedtls_mpi_gen_prime+0x2f0>
/home/jeferson/optee/optee_os-rpi4/lib/libmbedtls/mbedtls/library/bignum.c:2949
    ab08:	32000400 	orr	w0, w0, #0x3
    ab0c:	b9000020 	str	w0, [x1]
/home/jeferson/optee/optee_os-rpi4/lib/libmbedtls/mbedtls/library/bignum.c:2951
    ab10:	52800062 	mov	w2, #0x3                   	// #3
    ab14:	aa1303e1 	mov	x1, x19
    ab18:	9101f3e0 	add	x0, sp, #0x7c
    ab1c:	97fffa11 	bl	9360 <mbedtls_mpi_mod_int>
    ab20:	2a0003e2 	mov	w2, w0
    ab24:	35000c80 	cbnz	w0, acb4 <mbedtls_mpi_gen_prime+0x2c0>
/home/jeferson/optee/optee_os-rpi4/lib/libmbedtls/mbedtls/library/bignum.c:2952 (discriminator 2)
    ab28:	b9407fe0 	ldr	w0, [sp, #124]
    ab2c:	35000ee0 	cbnz	w0, ad08 <mbedtls_mpi_gen_prime+0x314>
/home/jeferson/optee/optee_os-rpi4/lib/libmbedtls/mbedtls/library/bignum.c:2953
    ab30:	52800102 	mov	w2, #0x8                   	// #8
    ab34:	aa1303e1 	mov	x1, x19
    ab38:	aa1303e0 	mov	x0, x19
    ab3c:	97fff722 	bl	87c4 <mbedtls_mpi_add_int>
    ab40:	2a0003e2 	mov	w2, w0
    ab44:	35000b80 	cbnz	w0, acb4 <mbedtls_mpi_gen_prime+0x2c0>
/home/jeferson/optee/optee_os-rpi4/lib/libmbedtls/mbedtls/library/bignum.c:2958
    ab48:	aa1303e1 	mov	x1, x19
    ab4c:	aa1403e0 	mov	x0, x20
    ab50:	97fff3dd 	bl	7ac4 <mbedtls_mpi_copy>
    ab54:	2a0003e2 	mov	w2, w0
    ab58:	35000ae0 	cbnz	w0, acb4 <mbedtls_mpi_gen_prime+0x2c0>
/home/jeferson/optee/optee_os-rpi4/lib/libmbedtls/mbedtls/library/bignum.c:2959 (discriminator 2)
    ab5c:	aa1403e0 	mov	x0, x20
    ab60:	d2800021 	mov	x1, #0x1                   	// #1
    ab64:	97fff58b 	bl	8190 <mbedtls_mpi_shift_r>
    ab68:	2a0003e2 	mov	w2, w0
    ab6c:	35000a40 	cbnz	w0, acb4 <mbedtls_mpi_gen_prime+0x2c0>
/home/jeferson/optee/optee_os-rpi4/lib/libmbedtls/mbedtls/library/bignum.c:2969
    ab70:	93407f55 	sxtw	x21, w26
/home/jeferson/optee/optee_os-rpi4/lib/libmbedtls/mbedtls/library/bignum.c:2967 (discriminator 2)
    ab74:	aa1303e0 	mov	x0, x19
    ab78:	97fffabe 	bl	9670 <mpi_check_small_factors>
    ab7c:	2a0003e2 	mov	w2, w0
    ab80:	35000260 	cbnz	w0, abcc <mbedtls_mpi_gen_prime+0x1d8>
/home/jeferson/optee/optee_os-rpi4/lib/libmbedtls/mbedtls/library/bignum.c:2968 (discriminator 1)
    ab84:	aa1403e0 	mov	x0, x20
    ab88:	97fffaba 	bl	9670 <mpi_check_small_factors>
    ab8c:	2a0003e2 	mov	w2, w0
/home/jeferson/optee/optee_os-rpi4/lib/libmbedtls/mbedtls/library/bignum.c:2967 (discriminator 1)
    ab90:	350001e0 	cbnz	w0, abcc <mbedtls_mpi_gen_prime+0x1d8>
/home/jeferson/optee/optee_os-rpi4/lib/libmbedtls/mbedtls/library/bignum.c:2969
    ab94:	aa1603e2 	mov	x2, x22
    ab98:	aa1703e3 	mov	x3, x23
    ab9c:	aa1503e1 	mov	x1, x21
    aba0:	aa1303e0 	mov	x0, x19
    aba4:	97fffd2c 	bl	a054 <mpi_miller_rabin>
    aba8:	2a0003e2 	mov	w2, w0
/home/jeferson/optee/optee_os-rpi4/lib/libmbedtls/mbedtls/library/bignum.c:2968
    abac:	35000100 	cbnz	w0, abcc <mbedtls_mpi_gen_prime+0x1d8>
/home/jeferson/optee/optee_os-rpi4/lib/libmbedtls/mbedtls/library/bignum.c:2971
    abb0:	aa1603e2 	mov	x2, x22
    abb4:	aa1703e3 	mov	x3, x23
    abb8:	aa1503e1 	mov	x1, x21
    abbc:	aa1403e0 	mov	x0, x20
    abc0:	97fffd25 	bl	a054 <mpi_miller_rabin>
    abc4:	2a0003e2 	mov	w2, w0
/home/jeferson/optee/optee_os-rpi4/lib/libmbedtls/mbedtls/library/bignum.c:2970
    abc8:	34000760 	cbz	w0, acb4 <mbedtls_mpi_gen_prime+0x2c0>
/home/jeferson/optee/optee_os-rpi4/lib/libmbedtls/mbedtls/library/bignum.c:2975
    abcc:	3100385f 	cmn	w2, #0xe
    abd0:	54000721 	b.ne	acb4 <mbedtls_mpi_gen_prime+0x2c0>  // b.any
/home/jeferson/optee/optee_os-rpi4/lib/libmbedtls/mbedtls/library/bignum.c:2983
    abd4:	52800182 	mov	w2, #0xc                   	// #12
    abd8:	aa1303e1 	mov	x1, x19
    abdc:	aa1303e0 	mov	x0, x19
    abe0:	97fff6f9 	bl	87c4 <mbedtls_mpi_add_int>
    abe4:	2a0003e2 	mov	w2, w0
    abe8:	35000660 	cbnz	w0, acb4 <mbedtls_mpi_gen_prime+0x2c0>
/home/jeferson/optee/optee_os-rpi4/lib/libmbedtls/mbedtls/library/bignum.c:2984 (discriminator 2)
    abec:	528000c2 	mov	w2, #0x6                   	// #6
    abf0:	aa1403e1 	mov	x1, x20
    abf4:	aa1403e0 	mov	x0, x20
    abf8:	97fff6f3 	bl	87c4 <mbedtls_mpi_add_int>
    abfc:	2a0003e2 	mov	w2, w0
    ac00:	34fffba0 	cbz	w0, ab74 <mbedtls_mpi_gen_prime+0x180>
    ac04:	1400002c 	b	acb4 <mbedtls_mpi_gen_prime+0x2c0>
/home/jeferson/optee/optee_os-rpi4/lib/libmbedtls/mbedtls/library/bignum.c:2918
    ac08:	f116a79f 	cmp	x28, #0x5a9
    ac0c:	540002e8 	b.hi	ac68 <mbedtls_mpi_gen_prime+0x274>  // b.pmore
/home/jeferson/optee/optee_os-rpi4/lib/libmbedtls/mbedtls/library/bignum.c:2918 (discriminator 1)
    ac10:	f111f79f 	cmp	x28, #0x47d
    ac14:	540002e8 	b.hi	ac70 <mbedtls_mpi_gen_prime+0x27c>  // b.pmore
/home/jeferson/optee/optee_os-rpi4/lib/libmbedtls/mbedtls/library/bignum.c:2919
    ac18:	f10f9f9f 	cmp	x28, #0x3e7
    ac1c:	540002e8 	b.hi	ac78 <mbedtls_mpi_gen_prime+0x284>  // b.pmore
/home/jeferson/optee/optee_os-rpi4/lib/libmbedtls/mbedtls/library/bignum.c:2919 (discriminator 1)
    ac20:	f10d479f 	cmp	x28, #0x351
    ac24:	540002e8 	b.hi	ac80 <mbedtls_mpi_gen_prime+0x28c>  // b.pmore
/home/jeferson/optee/optee_os-rpi4/lib/libmbedtls/mbedtls/library/bignum.c:2920
    ac28:	f10bb79f 	cmp	x28, #0x2ed
    ac2c:	540002e8 	b.hi	ac88 <mbedtls_mpi_gen_prime+0x294>  // b.pmore
/home/jeferson/optee/optee_os-rpi4/lib/libmbedtls/mbedtls/library/bignum.c:2920 (discriminator 1)
    ac30:	f107cf9f 	cmp	x28, #0x1f3
    ac34:	540002e8 	b.hi	ac90 <mbedtls_mpi_gen_prime+0x29c>  // b.pmore
/home/jeferson/optee/optee_os-rpi4/lib/libmbedtls/mbedtls/library/bignum.c:2921
    ac38:	f103e79f 	cmp	x28, #0xf9
    ac3c:	540002e8 	b.hi	ac98 <mbedtls_mpi_gen_prime+0x2a4>  // b.pmore
/home/jeferson/optee/optee_os-rpi4/lib/libmbedtls/mbedtls/library/bignum.c:2921 (discriminator 1)
    ac40:	f102579f 	cmp	x28, #0x95
    ac44:	52800515 	mov	w21, #0x28                  	// #40
    ac48:	52800661 	mov	w1, #0x33                  	// #51
    ac4c:	17ffff93 	b	aa98 <mbedtls_mpi_gen_prime+0xa4>
/home/jeferson/optee/optee_os-rpi4/lib/libmbedtls/mbedtls/library/bignum.c:2908
    ac50:	5280005a 	mov	w26, #0x2                   	// #2
    ac54:	17ffff92 	b	aa9c <mbedtls_mpi_gen_prime+0xa8>
    ac58:	5280007a 	mov	w26, #0x3                   	// #3
    ac5c:	17ffff90 	b	aa9c <mbedtls_mpi_gen_prime+0xa8>
/home/jeferson/optee/optee_os-rpi4/lib/libmbedtls/mbedtls/library/bignum.c:2910
    ac60:	5280019a 	mov	w26, #0xc                   	// #12
    ac64:	17ffff8e 	b	aa9c <mbedtls_mpi_gen_prime+0xa8>
/home/jeferson/optee/optee_os-rpi4/lib/libmbedtls/mbedtls/library/bignum.c:2909
    ac68:	5280009a 	mov	w26, #0x4                   	// #4
    ac6c:	17ffff8c 	b	aa9c <mbedtls_mpi_gen_prime+0xa8>
/home/jeferson/optee/optee_os-rpi4/lib/libmbedtls/mbedtls/library/bignum.c:2918
    ac70:	528000ba 	mov	w26, #0x5                   	// #5
    ac74:	17ffff8a 	b	aa9c <mbedtls_mpi_gen_prime+0xa8>
/home/jeferson/optee/optee_os-rpi4/lib/libmbedtls/mbedtls/library/bignum.c:2919
    ac78:	528000da 	mov	w26, #0x6                   	// #6
    ac7c:	17ffff88 	b	aa9c <mbedtls_mpi_gen_prime+0xa8>
    ac80:	528000fa 	mov	w26, #0x7                   	// #7
    ac84:	17ffff86 	b	aa9c <mbedtls_mpi_gen_prime+0xa8>
/home/jeferson/optee/optee_os-rpi4/lib/libmbedtls/mbedtls/library/bignum.c:2909
    ac88:	5280011a 	mov	w26, #0x8                   	// #8
    ac8c:	17ffff84 	b	aa9c <mbedtls_mpi_gen_prime+0xa8>
/home/jeferson/optee/optee_os-rpi4/lib/libmbedtls/mbedtls/library/bignum.c:2920
    ac90:	528001ba 	mov	w26, #0xd                   	// #13
    ac94:	17ffff82 	b	aa9c <mbedtls_mpi_gen_prime+0xa8>
/home/jeferson/optee/optee_os-rpi4/lib/libmbedtls/mbedtls/library/bignum.c:2921
    ac98:	5280039a 	mov	w26, #0x1c                  	// #28
    ac9c:	17ffff80 	b	aa9c <mbedtls_mpi_gen_prime+0xa8>
/home/jeferson/optee/optee_os-rpi4/lib/libmbedtls/mbedtls/library/bignum.c:2931 (discriminator 1)
    aca0:	aa1b03e1 	mov	x1, x27
    aca4:	aa1303e0 	mov	x0, x19
    aca8:	97fff53a 	bl	8190 <mbedtls_mpi_shift_r>
    acac:	2a0003e2 	mov	w2, w0
    acb0:	34fff220 	cbz	w0, aaf4 <mbedtls_mpi_gen_prime+0x100>
/home/jeferson/optee/optee_os-rpi4/lib/libmbedtls/mbedtls/library/bignum.c:2991
    acb4:	aa1403e0 	mov	x0, x20
    acb8:	b9006be2 	str	w2, [sp, #104]
    acbc:	97fff2cc 	bl	77ec <mbedtls_mpi_free>
/home/jeferson/optee/optee_os-rpi4/lib/libmbedtls/mbedtls/library/bignum.c:2993
    acc0:	b9406be2 	ldr	w2, [sp, #104]
/home/jeferson/optee/optee_os-rpi4/lib/libmbedtls/mbedtls/library/bignum.c:2994
    acc4:	f0000020 	adrp	x0, 11000 <_DYNAMIC>
    acc8:	f9409800 	ldr	x0, [x0, #304]
    accc:	f9404fe3 	ldr	x3, [sp, #152]
    acd0:	f9400001 	ldr	x1, [x0]
    acd4:	eb010063 	subs	x3, x3, x1
    acd8:	d2800001 	mov	x1, #0x0                   	// #0
    acdc:	54000220 	b.eq	ad20 <mbedtls_mpi_gen_prime+0x32c>  // b.none
    ace0:	97ffd5b7 	bl	3bc <__stack_chk_fail>
/home/jeferson/optee/optee_os-rpi4/lib/libmbedtls/mbedtls/library/bignum.c:2936
    ace4:	aa1603e2 	mov	x2, x22
    ace8:	aa1703e3 	mov	x3, x23
    acec:	2a1a03e1 	mov	w1, w26
    acf0:	aa1303e0 	mov	x0, x19
    acf4:	97ffff05 	bl	a908 <mbedtls_mpi_is_prime_ext>
    acf8:	2a0003e2 	mov	w2, w0
/home/jeferson/optee/optee_os-rpi4/lib/libmbedtls/mbedtls/library/bignum.c:2938
    acfc:	3100381f 	cmn	w0, #0xe
    ad00:	54ffeda0 	b.eq	aab4 <mbedtls_mpi_gen_prime+0xc0>  // b.none
    ad04:	17ffffec 	b	acb4 <mbedtls_mpi_gen_prime+0x2c0>
/home/jeferson/optee/optee_os-rpi4/lib/libmbedtls/mbedtls/library/bignum.c:2954
    ad08:	7100041f 	cmp	w0, #0x1
    ad0c:	54fff1e1 	b.ne	ab48 <mbedtls_mpi_gen_prime+0x154>  // b.any
/home/jeferson/optee/optee_os-rpi4/lib/libmbedtls/mbedtls/library/bignum.c:2955
    ad10:	52800082 	mov	w2, #0x4                   	// #4
    ad14:	17ffff88 	b	ab34 <mbedtls_mpi_gen_prime+0x140>
/home/jeferson/optee/optee_os-rpi4/lib/libmbedtls/mbedtls/library/bignum.c:2897
    ad18:	12800062 	mov	w2, #0xfffffffc            	// #-4
    ad1c:	17ffffea 	b	acc4 <mbedtls_mpi_gen_prime+0x2d0>
/home/jeferson/optee/optee_os-rpi4/lib/libmbedtls/mbedtls/library/bignum.c:2994
    ad20:	2a0203e0 	mov	w0, w2
    ad24:	a94153f3 	ldp	x19, x20, [sp, #16]
    ad28:	a9425bf5 	ldp	x21, x22, [sp, #32]
    ad2c:	a94363f7 	ldp	x23, x24, [sp, #48]
    ad30:	a9446bf9 	ldp	x25, x26, [sp, #64]
    ad34:	a94573fb 	ldp	x27, x28, [sp, #80]
    ad38:	a8ca7bfd 	ldp	x29, x30, [sp], #160
    ad3c:	d65f03c0 	ret

000000000000ad40 <mbedtls_mpi_self_test>:
mbedtls_mpi_self_test():
/home/jeferson/optee/optee_os-rpi4/lib/libmbedtls/mbedtls/library/bignum.c:3013
    ad40:	a9ae7bfd 	stp	x29, x30, [sp, #-288]!
    ad44:	910003fd 	mov	x29, sp
    ad48:	a90153f3 	stp	x19, x20, [sp, #16]
    ad4c:	2a0003f3 	mov	w19, w0
    ad50:	f0000020 	adrp	x0, 11000 <_DYNAMIC>
    ad54:	a9025bf5 	stp	x21, x22, [sp, #32]
/home/jeferson/optee/optee_os-rpi4/lib/libmbedtls/mbedtls/library/bignum.c:3017
    ad58:	9101c3f6 	add	x22, sp, #0x70
/home/jeferson/optee/optee_os-rpi4/lib/libmbedtls/mbedtls/library/bignum.c:3018
    ad5c:	9102e3f4 	add	x20, sp, #0xb8
/home/jeferson/optee/optee_os-rpi4/lib/libmbedtls/mbedtls/library/bignum.c:3013
    ad60:	f9409800 	ldr	x0, [x0, #304]
    ad64:	a90363f7 	stp	x23, x24, [sp, #48]
/home/jeferson/optee/optee_os-rpi4/lib/libmbedtls/mbedtls/library/bignum.c:3018
    ad68:	910283f8 	add	x24, sp, #0xa0
/home/jeferson/optee/optee_os-rpi4/lib/libmbedtls/mbedtls/library/bignum.c:3013
    ad6c:	a9046bf9 	stp	x25, x26, [sp, #64]
/home/jeferson/optee/optee_os-rpi4/lib/libmbedtls/mbedtls/library/bignum.c:3019
    ad70:	910343fa 	add	x26, sp, #0xd0
    ad74:	9103a3f5 	add	x21, sp, #0xe8
/home/jeferson/optee/optee_os-rpi4/lib/libmbedtls/mbedtls/library/bignum.c:3013
    ad78:	a90573fb 	stp	x27, x28, [sp, #80]
/home/jeferson/optee/optee_os-rpi4/lib/libmbedtls/mbedtls/library/bignum.c:3017
    ad7c:	910223fc 	add	x28, sp, #0x88
/home/jeferson/optee/optee_os-rpi4/lib/libmbedtls/mbedtls/library/bignum.c:3020
    ad80:	910403fb 	add	x27, sp, #0x100
/home/jeferson/optee/optee_os-rpi4/lib/libmbedtls/mbedtls/library/bignum.c:3013
    ad84:	f9400001 	ldr	x1, [x0]
    ad88:	f9008fe1 	str	x1, [sp, #280]
    ad8c:	d2800001 	mov	x1, #0x0                   	// #0
/home/jeferson/optee/optee_os-rpi4/lib/libmbedtls/mbedtls/library/bignum.c:3017
    ad90:	aa1603e0 	mov	x0, x22
    ad94:	97fff28c 	bl	77c4 <mbedtls_mpi_init_mempool>
    ad98:	aa1c03e0 	mov	x0, x28
    ad9c:	97fff28a 	bl	77c4 <mbedtls_mpi_init_mempool>
/home/jeferson/optee/optee_os-rpi4/lib/libmbedtls/mbedtls/library/bignum.c:3018
    ada0:	aa1803e0 	mov	x0, x24
    ada4:	97fff288 	bl	77c4 <mbedtls_mpi_init_mempool>
    ada8:	aa1403e0 	mov	x0, x20
    adac:	97fff286 	bl	77c4 <mbedtls_mpi_init_mempool>
/home/jeferson/optee/optee_os-rpi4/lib/libmbedtls/mbedtls/library/bignum.c:3019
    adb0:	aa1a03e0 	mov	x0, x26
    adb4:	97fff284 	bl	77c4 <mbedtls_mpi_init_mempool>
    adb8:	aa1503e0 	mov	x0, x21
    adbc:	97fff282 	bl	77c4 <mbedtls_mpi_init_mempool>
/home/jeferson/optee/optee_os-rpi4/lib/libmbedtls/mbedtls/library/bignum.c:3020
    adc0:	aa1b03e0 	mov	x0, x27
    adc4:	97fff280 	bl	77c4 <mbedtls_mpi_init_mempool>
/home/jeferson/optee/optee_os-rpi4/lib/libmbedtls/mbedtls/library/bignum.c:3022
    adc8:	aa1603e0 	mov	x0, x22
    adcc:	b0000022 	adrp	x2, f000 <__text_end+0x2508>
    add0:	52800201 	mov	w1, #0x10                  	// #16
    add4:	913cd442 	add	x2, x2, #0xf35
    add8:	97fff74c 	bl	8b08 <mbedtls_mpi_read_string>
    addc:	2a0003f7 	mov	w23, w0
    ade0:	350004c0 	cbnz	w0, ae78 <mbedtls_mpi_self_test+0x138>
/home/jeferson/optee/optee_os-rpi4/lib/libmbedtls/mbedtls/library/bignum.c:3028 (discriminator 2)
    ade4:	aa1c03e0 	mov	x0, x28
    ade8:	b0000022 	adrp	x2, f000 <__text_end+0x2508>
    adec:	52800201 	mov	w1, #0x10                  	// #16
    adf0:	913ed842 	add	x2, x2, #0xfb6
    adf4:	97fff745 	bl	8b08 <mbedtls_mpi_read_string>
    adf8:	2a0003f7 	mov	w23, w0
    adfc:	350003e0 	cbnz	w0, ae78 <mbedtls_mpi_self_test+0x138>
/home/jeferson/optee/optee_os-rpi4/lib/libmbedtls/mbedtls/library/bignum.c:3034 (discriminator 2)
    ae00:	aa1803e0 	mov	x0, x24
    ae04:	d0000022 	adrp	x2, 10000 <__func__.0+0x113>
    ae08:	52800201 	mov	w1, #0x10                  	// #16
    ae0c:	9100dc42 	add	x2, x2, #0x37
    ae10:	97fff73e 	bl	8b08 <mbedtls_mpi_read_string>
    ae14:	2a0003f7 	mov	w23, w0
    ae18:	35000300 	cbnz	w0, ae78 <mbedtls_mpi_self_test+0x138>
/home/jeferson/optee/optee_os-rpi4/lib/libmbedtls/mbedtls/library/bignum.c:3039 (discriminator 2)
    ae1c:	aa1803e2 	mov	x2, x24
    ae20:	aa1603e1 	mov	x1, x22
    ae24:	aa1403e0 	mov	x0, x20
    ae28:	97fff6a3 	bl	88b4 <mbedtls_mpi_mul_mpi>
    ae2c:	2a0003f7 	mov	w23, w0
    ae30:	35000240 	cbnz	w0, ae78 <mbedtls_mpi_self_test+0x138>
/home/jeferson/optee/optee_os-rpi4/lib/libmbedtls/mbedtls/library/bignum.c:3041 (discriminator 2)
    ae34:	aa1503e0 	mov	x0, x21
    ae38:	d0000022 	adrp	x2, 10000 <__func__.0+0x113>
    ae3c:	52800201 	mov	w1, #0x10                  	// #16
    ae40:	91026042 	add	x2, x2, #0x98
    ae44:	97fff731 	bl	8b08 <mbedtls_mpi_read_string>
    ae48:	2a0003f7 	mov	w23, w0
    ae4c:	35000160 	cbnz	w0, ae78 <mbedtls_mpi_self_test+0x138>
/home/jeferson/optee/optee_os-rpi4/lib/libmbedtls/mbedtls/library/bignum.c:3050 (discriminator 2)
    ae50:	34000093 	cbz	w19, ae60 <mbedtls_mpi_self_test+0x120>
/home/jeferson/optee/optee_os-rpi4/lib/libmbedtls/mbedtls/library/bignum.c:3051
    ae54:	d0000020 	adrp	x0, 10000 <__func__.0+0x113>
    ae58:	9105dc00 	add	x0, x0, #0x177
    ae5c:	97ffd9cd 	bl	1590 <printf>
/home/jeferson/optee/optee_os-rpi4/lib/libmbedtls/mbedtls/library/bignum.c:3053
    ae60:	aa1503e1 	mov	x1, x21
    ae64:	aa1403e0 	mov	x0, x20
    ae68:	97fff521 	bl	82ec <mbedtls_mpi_cmp_mpi>
    ae6c:	340004e0 	cbz	w0, af08 <mbedtls_mpi_self_test+0x1c8>
/home/jeferson/optee/optee_os-rpi4/lib/libmbedtls/mbedtls/library/bignum.c:3055
    ae70:	35000453 	cbnz	w19, aef8 <mbedtls_mpi_self_test+0x1b8>
/home/jeferson/optee/optee_os-rpi4/lib/libmbedtls/mbedtls/library/bignum.c:3058
    ae74:	52800037 	mov	w23, #0x1                   	// #1
/home/jeferson/optee/optee_os-rpi4/lib/libmbedtls/mbedtls/library/bignum.c:3160
    ae78:	710002ff 	cmp	w23, #0x0
    ae7c:	7a401a64 	ccmp	w19, #0x0, #0x4, ne  // ne = any
    ae80:	540000a0 	b.eq	ae94 <mbedtls_mpi_self_test+0x154>  // b.none
/home/jeferson/optee/optee_os-rpi4/lib/libmbedtls/mbedtls/library/bignum.c:3161
    ae84:	d0000020 	adrp	x0, 10000 <__func__.0+0x113>
    ae88:	2a1703e1 	mov	w1, w23
    ae8c:	910d5000 	add	x0, x0, #0x354
    ae90:	97ffd9c0 	bl	1590 <printf>
/home/jeferson/optee/optee_os-rpi4/lib/libmbedtls/mbedtls/library/bignum.c:3163
    ae94:	aa1603e0 	mov	x0, x22
    ae98:	97fff255 	bl	77ec <mbedtls_mpi_free>
    ae9c:	aa1c03e0 	mov	x0, x28
    aea0:	97fff253 	bl	77ec <mbedtls_mpi_free>
    aea4:	aa1803e0 	mov	x0, x24
    aea8:	97fff251 	bl	77ec <mbedtls_mpi_free>
    aeac:	aa1403e0 	mov	x0, x20
    aeb0:	97fff24f 	bl	77ec <mbedtls_mpi_free>
/home/jeferson/optee/optee_os-rpi4/lib/libmbedtls/mbedtls/library/bignum.c:3164
    aeb4:	aa1a03e0 	mov	x0, x26
    aeb8:	97fff24d 	bl	77ec <mbedtls_mpi_free>
    aebc:	aa1503e0 	mov	x0, x21
    aec0:	97fff24b 	bl	77ec <mbedtls_mpi_free>
    aec4:	aa1b03e0 	mov	x0, x27
    aec8:	97fff249 	bl	77ec <mbedtls_mpi_free>
/home/jeferson/optee/optee_os-rpi4/lib/libmbedtls/mbedtls/library/bignum.c:3166
    aecc:	34000073 	cbz	w19, aed8 <mbedtls_mpi_self_test+0x198>
/home/jeferson/optee/optee_os-rpi4/lib/libmbedtls/mbedtls/library/bignum.c:3167
    aed0:	52800140 	mov	w0, #0xa                   	// #10
    aed4:	97ffd9ff 	bl	16d0 <putchar>
/home/jeferson/optee/optee_os-rpi4/lib/libmbedtls/mbedtls/library/bignum.c:3170
    aed8:	f0000020 	adrp	x0, 11000 <_DYNAMIC>
    aedc:	f9409800 	ldr	x0, [x0, #304]
    aee0:	f9408fe1 	ldr	x1, [sp, #280]
    aee4:	f9400002 	ldr	x2, [x0]
    aee8:	eb020021 	subs	x1, x1, x2
    aeec:	d2800002 	mov	x2, #0x0                   	// #0
    aef0:	54001280 	b.eq	b140 <mbedtls_mpi_self_test+0x400>  // b.none
    aef4:	97ffd532 	bl	3bc <__stack_chk_fail>
/home/jeferson/optee/optee_os-rpi4/lib/libmbedtls/mbedtls/library/bignum.c:3056
    aef8:	b0000020 	adrp	x0, f000 <__text_end+0x2508>
    aefc:	913b5800 	add	x0, x0, #0xed6
    af00:	97ffd9e4 	bl	1690 <puts>
    af04:	17ffffdc 	b	ae74 <mbedtls_mpi_self_test+0x134>
/home/jeferson/optee/optee_os-rpi4/lib/libmbedtls/mbedtls/library/bignum.c:3062
    af08:	34000093 	cbz	w19, af18 <mbedtls_mpi_self_test+0x1d8>
/home/jeferson/optee/optee_os-rpi4/lib/libmbedtls/mbedtls/library/bignum.c:3063
    af0c:	d0000020 	adrp	x0, 10000 <__func__.0+0x113>
    af10:	91064400 	add	x0, x0, #0x191
    af14:	97ffd9df 	bl	1690 <puts>
/home/jeferson/optee/optee_os-rpi4/lib/libmbedtls/mbedtls/library/bignum.c:3065
    af18:	aa1803e3 	mov	x3, x24
    af1c:	aa1603e2 	mov	x2, x22
    af20:	aa1a03e1 	mov	x1, x26
    af24:	aa1403e0 	mov	x0, x20
    af28:	97fff77b 	bl	8d14 <mbedtls_mpi_div_mpi>
    af2c:	2a0003f7 	mov	w23, w0
    af30:	35fffa40 	cbnz	w0, ae78 <mbedtls_mpi_self_test+0x138>
/home/jeferson/optee/optee_os-rpi4/lib/libmbedtls/mbedtls/library/bignum.c:3067 (discriminator 2)
    af34:	aa1503e0 	mov	x0, x21
    af38:	d0000022 	adrp	x2, 10000 <__func__.0+0x113>
    af3c:	52800201 	mov	w1, #0x10                  	// #16
    af40:	91066042 	add	x2, x2, #0x198
    af44:	97fff6f1 	bl	8b08 <mbedtls_mpi_read_string>
    af48:	2a0003f7 	mov	w23, w0
    af4c:	35fff960 	cbnz	w0, ae78 <mbedtls_mpi_self_test+0x138>
/home/jeferson/optee/optee_os-rpi4/lib/libmbedtls/mbedtls/library/bignum.c:3070 (discriminator 2)
    af50:	aa1b03e0 	mov	x0, x27
    af54:	d0000022 	adrp	x2, 10000 <__func__.0+0x113>
    af58:	52800201 	mov	w1, #0x10                  	// #16
    af5c:	9106f042 	add	x2, x2, #0x1bc
    af60:	97fff6ea 	bl	8b08 <mbedtls_mpi_read_string>
    af64:	2a0003f7 	mov	w23, w0
    af68:	35fff880 	cbnz	w0, ae78 <mbedtls_mpi_self_test+0x138>
/home/jeferson/optee/optee_os-rpi4/lib/libmbedtls/mbedtls/library/bignum.c:3075 (discriminator 2)
    af6c:	34000093 	cbz	w19, af7c <mbedtls_mpi_self_test+0x23c>
/home/jeferson/optee/optee_os-rpi4/lib/libmbedtls/mbedtls/library/bignum.c:3076
    af70:	d0000020 	adrp	x0, 10000 <__func__.0+0x113>
    af74:	91086c00 	add	x0, x0, #0x21b
    af78:	97ffd986 	bl	1590 <printf>
/home/jeferson/optee/optee_os-rpi4/lib/libmbedtls/mbedtls/library/bignum.c:3078
    af7c:	aa1503e1 	mov	x1, x21
    af80:	aa1403e0 	mov	x0, x20
    af84:	97fff4da 	bl	82ec <mbedtls_mpi_cmp_mpi>
    af88:	35fff740 	cbnz	w0, ae70 <mbedtls_mpi_self_test+0x130>
/home/jeferson/optee/optee_os-rpi4/lib/libmbedtls/mbedtls/library/bignum.c:3079 (discriminator 1)
    af8c:	aa1b03e1 	mov	x1, x27
    af90:	aa1a03e0 	mov	x0, x26
    af94:	97fff4d6 	bl	82ec <mbedtls_mpi_cmp_mpi>
/home/jeferson/optee/optee_os-rpi4/lib/libmbedtls/mbedtls/library/bignum.c:3078 (discriminator 1)
    af98:	35fff6c0 	cbnz	w0, ae70 <mbedtls_mpi_self_test+0x130>
/home/jeferson/optee/optee_os-rpi4/lib/libmbedtls/mbedtls/library/bignum.c:3088
    af9c:	34000093 	cbz	w19, afac <mbedtls_mpi_self_test+0x26c>
/home/jeferson/optee/optee_os-rpi4/lib/libmbedtls/mbedtls/library/bignum.c:3089
    afa0:	d0000020 	adrp	x0, 10000 <__func__.0+0x113>
    afa4:	91064400 	add	x0, x0, #0x191
    afa8:	97ffd9ba 	bl	1690 <puts>
/home/jeferson/optee/optee_os-rpi4/lib/libmbedtls/mbedtls/library/bignum.c:3091
    afac:	aa1803e3 	mov	x3, x24
    afb0:	aa1c03e2 	mov	x2, x28
    afb4:	aa1603e1 	mov	x1, x22
    afb8:	aa1403e0 	mov	x0, x20
    afbc:	d2800004 	mov	x4, #0x0                   	// #0
    afc0:	97fff9e1 	bl	9744 <mbedtls_mpi_exp_mod>
    afc4:	2a0003f7 	mov	w23, w0
    afc8:	35fff580 	cbnz	w0, ae78 <mbedtls_mpi_self_test+0x138>
/home/jeferson/optee/optee_os-rpi4/lib/libmbedtls/mbedtls/library/bignum.c:3093 (discriminator 2)
    afcc:	aa1503e0 	mov	x0, x21
    afd0:	d0000022 	adrp	x2, 10000 <__func__.0+0x113>
    afd4:	52800201 	mov	w1, #0x10                  	// #16
    afd8:	9108d442 	add	x2, x2, #0x235
    afdc:	97fff6cb 	bl	8b08 <mbedtls_mpi_read_string>
    afe0:	2a0003f7 	mov	w23, w0
    afe4:	35fff4a0 	cbnz	w0, ae78 <mbedtls_mpi_self_test+0x138>
/home/jeferson/optee/optee_os-rpi4/lib/libmbedtls/mbedtls/library/bignum.c:3098 (discriminator 2)
    afe8:	34000093 	cbz	w19, aff8 <mbedtls_mpi_self_test+0x2b8>
/home/jeferson/optee/optee_os-rpi4/lib/libmbedtls/mbedtls/library/bignum.c:3099
    afec:	d0000020 	adrp	x0, 10000 <__func__.0+0x113>
    aff0:	910a5000 	add	x0, x0, #0x294
    aff4:	97ffd967 	bl	1590 <printf>
/home/jeferson/optee/optee_os-rpi4/lib/libmbedtls/mbedtls/library/bignum.c:3101
    aff8:	aa1503e1 	mov	x1, x21
    affc:	aa1403e0 	mov	x0, x20
    b000:	97fff4bb 	bl	82ec <mbedtls_mpi_cmp_mpi>
    b004:	35fff360 	cbnz	w0, ae70 <mbedtls_mpi_self_test+0x130>
/home/jeferson/optee/optee_os-rpi4/lib/libmbedtls/mbedtls/library/bignum.c:3110
    b008:	34000093 	cbz	w19, b018 <mbedtls_mpi_self_test+0x2d8>
/home/jeferson/optee/optee_os-rpi4/lib/libmbedtls/mbedtls/library/bignum.c:3111
    b00c:	b0000020 	adrp	x0, 10000 <__func__.0+0x113>
    b010:	91064400 	add	x0, x0, #0x191
    b014:	97ffd99f 	bl	1690 <puts>
/home/jeferson/optee/optee_os-rpi4/lib/libmbedtls/mbedtls/library/bignum.c:3113
    b018:	aa1803e2 	mov	x2, x24
    b01c:	aa1603e1 	mov	x1, x22
    b020:	aa1403e0 	mov	x0, x20
    b024:	97fffd23 	bl	a4b0 <mbedtls_mpi_inv_mod>
    b028:	2a0003f7 	mov	w23, w0
    b02c:	35fff260 	cbnz	w0, ae78 <mbedtls_mpi_self_test+0x138>
/home/jeferson/optee/optee_os-rpi4/lib/libmbedtls/mbedtls/library/bignum.c:3115 (discriminator 2)
    b030:	aa1503e0 	mov	x0, x21
    b034:	b0000022 	adrp	x2, 10000 <__func__.0+0x113>
    b038:	52800201 	mov	w1, #0x10                  	// #16
    b03c:	910ab842 	add	x2, x2, #0x2ae
    b040:	97fff6b2 	bl	8b08 <mbedtls_mpi_read_string>
    b044:	2a0003f7 	mov	w23, w0
    b048:	35fff180 	cbnz	w0, ae78 <mbedtls_mpi_self_test+0x138>
/home/jeferson/optee/optee_os-rpi4/lib/libmbedtls/mbedtls/library/bignum.c:3120 (discriminator 2)
    b04c:	34000093 	cbz	w19, b05c <mbedtls_mpi_self_test+0x31c>
/home/jeferson/optee/optee_os-rpi4/lib/libmbedtls/mbedtls/library/bignum.c:3121
    b050:	b0000020 	adrp	x0, 10000 <__func__.0+0x113>
    b054:	910c3c00 	add	x0, x0, #0x30f
    b058:	97ffd94e 	bl	1590 <printf>
/home/jeferson/optee/optee_os-rpi4/lib/libmbedtls/mbedtls/library/bignum.c:3123
    b05c:	aa1503e1 	mov	x1, x21
    b060:	aa1403e0 	mov	x0, x20
    b064:	97fff4a2 	bl	82ec <mbedtls_mpi_cmp_mpi>
    b068:	2a0003f9 	mov	w25, w0
    b06c:	35fff020 	cbnz	w0, ae70 <mbedtls_mpi_self_test+0x130>
/home/jeferson/optee/optee_os-rpi4/lib/libmbedtls/mbedtls/library/bignum.c:3132
    b070:	340000f3 	cbz	w19, b08c <mbedtls_mpi_self_test+0x34c>
/home/jeferson/optee/optee_os-rpi4/lib/libmbedtls/mbedtls/library/bignum.c:3133
    b074:	b0000020 	adrp	x0, 10000 <__func__.0+0x113>
    b078:	91064400 	add	x0, x0, #0x191
    b07c:	97ffd985 	bl	1690 <puts>
/home/jeferson/optee/optee_os-rpi4/lib/libmbedtls/mbedtls/library/bignum.c:3136
    b080:	b0000020 	adrp	x0, 10000 <__func__.0+0x113>
    b084:	910ca400 	add	x0, x0, #0x329
    b088:	97ffd942 	bl	1590 <printf>
    b08c:	90000037 	adrp	x23, f000 <__text_end+0x2508>
    b090:	911912f7 	add	x23, x23, #0x644
    b094:	910a82e0 	add	x0, x23, #0x2a0
    b098:	f90037e0 	str	x0, [sp, #104]
/home/jeferson/optee/optee_os-rpi4/lib/libmbedtls/mbedtls/library/bignum.c:3140
    b09c:	f94037e0 	ldr	x0, [sp, #104]
    b0a0:	b9400001 	ldr	w1, [x0]
    b0a4:	aa1403e0 	mov	x0, x20
    b0a8:	97fff2dd 	bl	7c1c <mbedtls_mpi_lset>
    b0ac:	2a0003f7 	mov	w23, w0
    b0b0:	35ffee40 	cbnz	w0, ae78 <mbedtls_mpi_self_test+0x138>
/home/jeferson/optee/optee_os-rpi4/lib/libmbedtls/mbedtls/library/bignum.c:3141 (discriminator 2)
    b0b4:	f94037e0 	ldr	x0, [sp, #104]
    b0b8:	b9400401 	ldr	w1, [x0, #4]
    b0bc:	aa1a03e0 	mov	x0, x26
    b0c0:	97fff2d7 	bl	7c1c <mbedtls_mpi_lset>
    b0c4:	2a0003f7 	mov	w23, w0
    b0c8:	35ffed80 	cbnz	w0, ae78 <mbedtls_mpi_self_test+0x138>
/home/jeferson/optee/optee_os-rpi4/lib/libmbedtls/mbedtls/library/bignum.c:3143 (discriminator 2)
    b0cc:	aa1a03e2 	mov	x2, x26
    b0d0:	aa1403e1 	mov	x1, x20
    b0d4:	aa1603e0 	mov	x0, x22
    b0d8:	97fffb4f 	bl	9e14 <mbedtls_mpi_gcd>
    b0dc:	2a0003f7 	mov	w23, w0
    b0e0:	35ffecc0 	cbnz	w0, ae78 <mbedtls_mpi_self_test+0x138>
/home/jeferson/optee/optee_os-rpi4/lib/libmbedtls/mbedtls/library/bignum.c:3145 (discriminator 2)
    b0e4:	f94037e0 	ldr	x0, [sp, #104]
    b0e8:	b9400801 	ldr	w1, [x0, #8]
    b0ec:	aa1603e0 	mov	x0, x22
    b0f0:	97fff4b3 	bl	83bc <mbedtls_mpi_cmp_int>
    b0f4:	2a0003f7 	mov	w23, w0
    b0f8:	340000e0 	cbz	w0, b114 <mbedtls_mpi_self_test+0x3d4>
/home/jeferson/optee/optee_os-rpi4/lib/libmbedtls/mbedtls/library/bignum.c:3147
    b0fc:	34ffebd3 	cbz	w19, ae74 <mbedtls_mpi_self_test+0x134>
/home/jeferson/optee/optee_os-rpi4/lib/libmbedtls/mbedtls/library/bignum.c:3148
    b100:	2a1903e1 	mov	w1, w25
    b104:	b0000020 	adrp	x0, 10000 <__func__.0+0x113>
    b108:	910d1800 	add	x0, x0, #0x346
    b10c:	97ffd921 	bl	1590 <printf>
    b110:	17ffff59 	b	ae74 <mbedtls_mpi_self_test+0x134>
/home/jeferson/optee/optee_os-rpi4/lib/libmbedtls/mbedtls/library/bignum.c:3138 (discriminator 2)
    b114:	f94037e0 	ldr	x0, [sp, #104]
    b118:	11000739 	add	w25, w25, #0x1
    b11c:	91003000 	add	x0, x0, #0xc
    b120:	f90037e0 	str	x0, [sp, #104]
    b124:	71000f3f 	cmp	w25, #0x3
    b128:	54fffba1 	b.ne	b09c <mbedtls_mpi_self_test+0x35c>  // b.any
/home/jeferson/optee/optee_os-rpi4/lib/libmbedtls/mbedtls/library/bignum.c:3155
    b12c:	34ffea73 	cbz	w19, ae78 <mbedtls_mpi_self_test+0x138>
/home/jeferson/optee/optee_os-rpi4/lib/libmbedtls/mbedtls/library/bignum.c:3156
    b130:	b0000020 	adrp	x0, 10000 <__func__.0+0x113>
    b134:	91064400 	add	x0, x0, #0x191
    b138:	97ffd956 	bl	1690 <puts>
    b13c:	17ffff4f 	b	ae78 <mbedtls_mpi_self_test+0x138>
/home/jeferson/optee/optee_os-rpi4/lib/libmbedtls/mbedtls/library/bignum.c:3170
    b140:	2a1703e0 	mov	w0, w23
    b144:	a94153f3 	ldp	x19, x20, [sp, #16]
    b148:	a9425bf5 	ldp	x21, x22, [sp, #32]
    b14c:	a94363f7 	ldp	x23, x24, [sp, #48]
    b150:	a9446bf9 	ldp	x25, x26, [sp, #64]
    b154:	a94573fb 	ldp	x27, x28, [sp, #80]
    b158:	a8d27bfd 	ldp	x29, x30, [sp], #288
    b15c:	d65f03c0 	ret

000000000000b160 <mbedtls_ct_uchar_mask_of_range>:
mbedtls_ct_uchar_mask_of_range():
/home/jeferson/optee/optee_os-rpi4/lib/libmbedtls/mbedtls/library/constant_time.c:167
    b160:	12001c42 	and	w2, w2, #0xff
    b164:	12001c21 	and	w1, w1, #0xff
/home/jeferson/optee/optee_os-rpi4/lib/libmbedtls/mbedtls/library/constant_time.c:171
    b168:	4b020021 	sub	w1, w1, w2
/home/jeferson/optee/optee_os-rpi4/lib/libmbedtls/mbedtls/library/constant_time.c:169
    b16c:	4b200040 	sub	w0, w2, w0, uxtb
/home/jeferson/optee/optee_os-rpi4/lib/libmbedtls/mbedtls/library/constant_time.c:171
    b170:	53087c21 	lsr	w1, w1, #8
/home/jeferson/optee/optee_os-rpi4/lib/libmbedtls/mbedtls/library/constant_time.c:172
    b174:	2a402020 	orr	w0, w1, w0, lsr #8
/home/jeferson/optee/optee_os-rpi4/lib/libmbedtls/mbedtls/library/constant_time.c:173
    b178:	2a2003e0 	mvn	w0, w0
    b17c:	d65f03c0 	ret

000000000000b180 <mbedtls_ct_memcmp>:
mbedtls_ct_memcmp():
/home/jeferson/optee/optee_os-rpi4/lib/libmbedtls/mbedtls/library/constant_time.c:52
    b180:	d10043ff 	sub	sp, sp, #0x10
/home/jeferson/optee/optee_os-rpi4/lib/libmbedtls/mbedtls/library/constant_time.c:58
    b184:	d2800004 	mov	x4, #0x0                   	// #0
/home/jeferson/optee/optee_os-rpi4/lib/libmbedtls/mbedtls/library/constant_time.c:56
    b188:	39003fff 	strb	wzr, [sp, #15]
/home/jeferson/optee/optee_os-rpi4/lib/libmbedtls/mbedtls/library/constant_time.c:58 (discriminator 1)
    b18c:	eb02009f 	cmp	x4, x2
    b190:	540000a1 	b.ne	b1a4 <mbedtls_ct_memcmp+0x24>  // b.any
/home/jeferson/optee/optee_os-rpi4/lib/libmbedtls/mbedtls/library/constant_time.c:67
    b194:	39403fe0 	ldrb	w0, [sp, #15]
/home/jeferson/optee/optee_os-rpi4/lib/libmbedtls/mbedtls/library/constant_time.c:68
    b198:	910043ff 	add	sp, sp, #0x10
    b19c:	12001c00 	and	w0, w0, #0xff
    b1a0:	d65f03c0 	ret
/home/jeferson/optee/optee_os-rpi4/lib/libmbedtls/mbedtls/library/constant_time.c:63 (discriminator 3)
    b1a4:	38646805 	ldrb	w5, [x0, x4]
    b1a8:	38646823 	ldrb	w3, [x1, x4]
/home/jeferson/optee/optee_os-rpi4/lib/libmbedtls/mbedtls/library/constant_time.c:58 (discriminator 3)
    b1ac:	91000484 	add	x4, x4, #0x1
/home/jeferson/optee/optee_os-rpi4/lib/libmbedtls/mbedtls/library/constant_time.c:63 (discriminator 3)
    b1b0:	4a050063 	eor	w3, w3, w5
/home/jeferson/optee/optee_os-rpi4/lib/libmbedtls/mbedtls/library/constant_time.c:64 (discriminator 3)
    b1b4:	39403fe5 	ldrb	w5, [sp, #15]
    b1b8:	2a050063 	orr	w3, w3, w5
    b1bc:	12001c63 	and	w3, w3, #0xff
    b1c0:	39003fe3 	strb	w3, [sp, #15]
/home/jeferson/optee/optee_os-rpi4/lib/libmbedtls/mbedtls/library/constant_time.c:58 (discriminator 3)
    b1c4:	17fffff2 	b	b18c <mbedtls_ct_memcmp+0xc>

000000000000b1c8 <mbedtls_ct_uint_mask>:
mbedtls_ct_uint_mask():
/home/jeferson/optee/optee_os-rpi4/lib/libmbedtls/mbedtls/library/constant_time.c:78
    b1c8:	4b0003e1 	neg	w1, w0
    b1cc:	2a000020 	orr	w0, w1, w0
/home/jeferson/optee/optee_os-rpi4/lib/libmbedtls/mbedtls/library/constant_time.c:82
    b1d0:	131f7c00 	asr	w0, w0, #31
    b1d4:	d65f03c0 	ret

000000000000b1d8 <mbedtls_ct_mpi_uint_mask>:
mbedtls_ct_mpi_uint_mask():
/home/jeferson/optee/optee_os-rpi4/lib/libmbedtls/mbedtls/library/constant_time.c:82
    b1d8:	4b0003e1 	neg	w1, w0
    b1dc:	2a000020 	orr	w0, w1, w0
    b1e0:	131f7c00 	asr	w0, w0, #31
    b1e4:	d65f03c0 	ret

000000000000b1e8 <mbedtls_ct_size_bool_eq>:
mbedtls_ct_size_bool_eq():
/home/jeferson/optee/optee_os-rpi4/lib/libmbedtls/mbedtls/library/constant_time.c:181
    b1e8:	ca010001 	eor	x1, x0, x1
/home/jeferson/optee/optee_os-rpi4/lib/libmbedtls/mbedtls/library/constant_time.c:191
    b1ec:	cb0103e0 	neg	x0, x1
    b1f0:	aa010000 	orr	x0, x0, x1
/home/jeferson/optee/optee_os-rpi4/lib/libmbedtls/mbedtls/library/constant_time.c:198
    b1f4:	d37ffc00 	lsr	x0, x0, #63
/home/jeferson/optee/optee_os-rpi4/lib/libmbedtls/mbedtls/library/constant_time.c:201
    b1f8:	52000000 	eor	w0, w0, #0x1
    b1fc:	d65f03c0 	ret

000000000000b200 <mbedtls_ct_mpi_uint_lt>:
mbedtls_ct_mpi_uint_lt():
/home/jeferson/optee/optee_os-rpi4/lib/libmbedtls/mbedtls/library/constant_time.c:241
    b200:	4b010002 	sub	w2, w0, w1
/home/jeferson/optee/optee_os-rpi4/lib/libmbedtls/mbedtls/library/constant_time.c:236
    b204:	4a010000 	eor	w0, w0, w1
/home/jeferson/optee/optee_os-rpi4/lib/libmbedtls/mbedtls/library/constant_time.c:247
    b208:	4a010041 	eor	w1, w2, w1
    b20c:	0a010000 	and	w0, w0, w1
    b210:	4a020000 	eor	w0, w0, w2
/home/jeferson/optee/optee_os-rpi4/lib/libmbedtls/mbedtls/library/constant_time.c:253
    b214:	531f7c00 	lsr	w0, w0, #31
    b218:	d65f03c0 	ret

000000000000b21c <mbedtls_ct_uint_if>:
mbedtls_ct_uint_if():
/home/jeferson/optee/optee_os-rpi4/lib/libmbedtls/mbedtls/library/constant_time.c:260
    b21c:	a9be7bfd 	stp	x29, x30, [sp, #-32]!
    b220:	910003fd 	mov	x29, sp
    b224:	a90153f3 	stp	x19, x20, [sp, #16]
    b228:	2a0203f4 	mov	w20, w2
    b22c:	2a0103f3 	mov	w19, w1
/home/jeferson/optee/optee_os-rpi4/lib/libmbedtls/mbedtls/library/constant_time.c:262
    b230:	4a140273 	eor	w19, w19, w20
/home/jeferson/optee/optee_os-rpi4/lib/libmbedtls/mbedtls/library/constant_time.c:261
    b234:	97ffffe5 	bl	b1c8 <mbedtls_ct_uint_mask>
/home/jeferson/optee/optee_os-rpi4/lib/libmbedtls/mbedtls/library/constant_time.c:262
    b238:	0a000260 	and	w0, w19, w0
/home/jeferson/optee/optee_os-rpi4/lib/libmbedtls/mbedtls/library/constant_time.c:263
    b23c:	4a140000 	eor	w0, w0, w20
    b240:	a94153f3 	ldp	x19, x20, [sp, #16]
    b244:	a8c27bfd 	ldp	x29, x30, [sp], #32
    b248:	d65f03c0 	ret

000000000000b24c <mbedtls_ct_mpi_uint_cond_assign>:
mbedtls_ct_mpi_uint_cond_assign():
/home/jeferson/optee/optee_os-rpi4/lib/libmbedtls/mbedtls/library/constant_time.c:305
    b24c:	12001c63 	and	w3, w3, #0xff
/home/jeferson/optee/optee_os-rpi4/lib/libmbedtls/mbedtls/library/constant_time.c:322
    b250:	d2800004 	mov	x4, #0x0                   	// #0
/home/jeferson/optee/optee_os-rpi4/lib/libmbedtls/mbedtls/library/constant_time.c:316
    b254:	4b0303e7 	neg	w7, w3
/home/jeferson/optee/optee_os-rpi4/lib/libmbedtls/mbedtls/library/constant_time.c:323
    b258:	51000463 	sub	w3, w3, #0x1
/home/jeferson/optee/optee_os-rpi4/lib/libmbedtls/mbedtls/library/constant_time.c:322 (discriminator 1)
    b25c:	eb00009f 	cmp	x4, x0
    b260:	54000041 	b.ne	b268 <mbedtls_ct_mpi_uint_cond_assign+0x1c>  // b.any
/home/jeferson/optee/optee_os-rpi4/lib/libmbedtls/mbedtls/library/constant_time.c:324
    b264:	d65f03c0 	ret
/home/jeferson/optee/optee_os-rpi4/lib/libmbedtls/mbedtls/library/constant_time.c:323 (discriminator 3)
    b268:	b8647825 	ldr	w5, [x1, x4, lsl #2]
    b26c:	b8647846 	ldr	w6, [x2, x4, lsl #2]
    b270:	0a050065 	and	w5, w3, w5
    b274:	0a0600e6 	and	w6, w7, w6
    b278:	2a0600a5 	orr	w5, w5, w6
    b27c:	b8247825 	str	w5, [x1, x4, lsl #2]
/home/jeferson/optee/optee_os-rpi4/lib/libmbedtls/mbedtls/library/constant_time.c:322 (discriminator 3)
    b280:	91000484 	add	x4, x4, #0x1
    b284:	17fffff6 	b	b25c <mbedtls_ct_mpi_uint_cond_assign+0x10>

000000000000b288 <mbedtls_ct_base64_enc_char>:
mbedtls_ct_base64_enc_char():
/home/jeferson/optee/optee_os-rpi4/lib/libmbedtls/mbedtls/library/constant_time.c:331
    b288:	a9bf7bfd 	stp	x29, x30, [sp, #-16]!
    b28c:	12001c04 	and	w4, w0, #0xff
/home/jeferson/optee/optee_os-rpi4/lib/libmbedtls/mbedtls/library/constant_time.c:336
    b290:	2a0403e2 	mov	w2, w4
/home/jeferson/optee/optee_os-rpi4/lib/libmbedtls/mbedtls/library/constant_time.c:331
    b294:	910003fd 	mov	x29, sp
/home/jeferson/optee/optee_os-rpi4/lib/libmbedtls/mbedtls/library/constant_time.c:336
    b298:	52800321 	mov	w1, #0x19                  	// #25
    b29c:	52800000 	mov	w0, #0x0                   	// #0
    b2a0:	97ffffb0 	bl	b160 <mbedtls_ct_uchar_mask_of_range>
    b2a4:	12001c05 	and	w5, w0, #0xff
/home/jeferson/optee/optee_os-rpi4/lib/libmbedtls/mbedtls/library/constant_time.c:337
    b2a8:	2a0403e2 	mov	w2, w4
    b2ac:	52800661 	mov	w1, #0x33                  	// #51
    b2b0:	52800340 	mov	w0, #0x1a                  	// #26
    b2b4:	97ffffab 	bl	b160 <mbedtls_ct_uchar_mask_of_range>
/home/jeferson/optee/optee_os-rpi4/lib/libmbedtls/mbedtls/library/constant_time.c:336
    b2b8:	11010483 	add	w3, w4, #0x41
/home/jeferson/optee/optee_os-rpi4/lib/libmbedtls/mbedtls/library/constant_time.c:337
    b2bc:	12001c01 	and	w1, w0, #0xff
    b2c0:	11011c80 	add	w0, w4, #0x47
/home/jeferson/optee/optee_os-rpi4/lib/libmbedtls/mbedtls/library/constant_time.c:336
    b2c4:	0a050063 	and	w3, w3, w5
/home/jeferson/optee/optee_os-rpi4/lib/libmbedtls/mbedtls/library/constant_time.c:337
    b2c8:	0a010000 	and	w0, w0, w1
/home/jeferson/optee/optee_os-rpi4/lib/libmbedtls/mbedtls/library/constant_time.c:338
    b2cc:	2a0403e2 	mov	w2, w4
/home/jeferson/optee/optee_os-rpi4/lib/libmbedtls/mbedtls/library/constant_time.c:337
    b2d0:	2a000063 	orr	w3, w3, w0
/home/jeferson/optee/optee_os-rpi4/lib/libmbedtls/mbedtls/library/constant_time.c:338
    b2d4:	528007a1 	mov	w1, #0x3d                  	// #61
    b2d8:	52800680 	mov	w0, #0x34                  	// #52
    b2dc:	97ffffa1 	bl	b160 <mbedtls_ct_uchar_mask_of_range>
    b2e0:	12001c01 	and	w1, w0, #0xff
    b2e4:	51001080 	sub	w0, w4, #0x4
    b2e8:	0a010000 	and	w0, w0, w1
/home/jeferson/optee/optee_os-rpi4/lib/libmbedtls/mbedtls/library/constant_time.c:337
    b2ec:	13001c63 	sxtb	w3, w3
/home/jeferson/optee/optee_os-rpi4/lib/libmbedtls/mbedtls/library/constant_time.c:339
    b2f0:	2a0403e2 	mov	w2, w4
    b2f4:	528007c1 	mov	w1, #0x3e                  	// #62
/home/jeferson/optee/optee_os-rpi4/lib/libmbedtls/mbedtls/library/constant_time.c:338
    b2f8:	2a000063 	orr	w3, w3, w0
/home/jeferson/optee/optee_os-rpi4/lib/libmbedtls/mbedtls/library/constant_time.c:339
    b2fc:	2a0103e0 	mov	w0, w1
    b300:	97ffff98 	bl	b160 <mbedtls_ct_uchar_mask_of_range>
    b304:	12001c05 	and	w5, w0, #0xff
/home/jeferson/optee/optee_os-rpi4/lib/libmbedtls/mbedtls/library/constant_time.c:340
    b308:	528007e1 	mov	w1, #0x3f                  	// #63
    b30c:	2a0403e2 	mov	w2, w4
    b310:	2a0103e0 	mov	w0, w1
    b314:	97ffff93 	bl	b160 <mbedtls_ct_uchar_mask_of_range>
    b318:	528005e1 	mov	w1, #0x2f                  	// #47
    b31c:	0a000020 	and	w0, w1, w0
    b320:	52800561 	mov	w1, #0x2b                  	// #43
    b324:	0a0100a5 	and	w5, w5, w1
/home/jeferson/optee/optee_os-rpi4/lib/libmbedtls/mbedtls/library/constant_time.c:338
    b328:	13001c63 	sxtb	w3, w3
/home/jeferson/optee/optee_os-rpi4/lib/libmbedtls/mbedtls/library/constant_time.c:340
    b32c:	2a050000 	orr	w0, w0, w5
/home/jeferson/optee/optee_os-rpi4/lib/libmbedtls/mbedtls/library/constant_time.c:342
    b330:	2a030000 	orr	w0, w0, w3
    b334:	a8c17bfd 	ldp	x29, x30, [sp], #16
    b338:	d65f03c0 	ret

000000000000b33c <mbedtls_ct_base64_dec_value>:
mbedtls_ct_base64_dec_value():
/home/jeferson/optee/optee_os-rpi4/lib/libmbedtls/mbedtls/library/constant_time.c:345
    b33c:	a9bf7bfd 	stp	x29, x30, [sp, #-16]!
    b340:	12001c04 	and	w4, w0, #0xff
/home/jeferson/optee/optee_os-rpi4/lib/libmbedtls/mbedtls/library/constant_time.c:351
    b344:	2a0403e2 	mov	w2, w4
/home/jeferson/optee/optee_os-rpi4/lib/libmbedtls/mbedtls/library/constant_time.c:345
    b348:	910003fd 	mov	x29, sp
/home/jeferson/optee/optee_os-rpi4/lib/libmbedtls/mbedtls/library/constant_time.c:351
    b34c:	52800b41 	mov	w1, #0x5a                  	// #90
    b350:	52800820 	mov	w0, #0x41                  	// #65
    b354:	97ffff83 	bl	b160 <mbedtls_ct_uchar_mask_of_range>
    b358:	12001c05 	and	w5, w0, #0xff
/home/jeferson/optee/optee_os-rpi4/lib/libmbedtls/mbedtls/library/constant_time.c:352
    b35c:	2a0403e2 	mov	w2, w4
    b360:	52800f41 	mov	w1, #0x7a                  	// #122
    b364:	52800c20 	mov	w0, #0x61                  	// #97
    b368:	97ffff7e 	bl	b160 <mbedtls_ct_uchar_mask_of_range>
/home/jeferson/optee/optee_os-rpi4/lib/libmbedtls/mbedtls/library/constant_time.c:351
    b36c:	51010083 	sub	w3, w4, #0x40
/home/jeferson/optee/optee_os-rpi4/lib/libmbedtls/mbedtls/library/constant_time.c:352
    b370:	12001c01 	and	w1, w0, #0xff
    b374:	51011880 	sub	w0, w4, #0x46
/home/jeferson/optee/optee_os-rpi4/lib/libmbedtls/mbedtls/library/constant_time.c:351
    b378:	0a050063 	and	w3, w3, w5
/home/jeferson/optee/optee_os-rpi4/lib/libmbedtls/mbedtls/library/constant_time.c:352
    b37c:	0a010000 	and	w0, w0, w1
/home/jeferson/optee/optee_os-rpi4/lib/libmbedtls/mbedtls/library/constant_time.c:353
    b380:	2a0403e2 	mov	w2, w4
    b384:	2a000063 	orr	w3, w3, w0
    b388:	52800721 	mov	w1, #0x39                  	// #57
    b38c:	52800600 	mov	w0, #0x30                  	// #48
    b390:	97ffff74 	bl	b160 <mbedtls_ct_uchar_mask_of_range>
/home/jeferson/optee/optee_os-rpi4/lib/libmbedtls/mbedtls/library/constant_time.c:354
    b394:	2a0403e2 	mov	w2, w4
/home/jeferson/optee/optee_os-rpi4/lib/libmbedtls/mbedtls/library/constant_time.c:353
    b398:	12001c05 	and	w5, w0, #0xff
/home/jeferson/optee/optee_os-rpi4/lib/libmbedtls/mbedtls/library/constant_time.c:354
    b39c:	52800561 	mov	w1, #0x2b                  	// #43
    b3a0:	2a0103e0 	mov	w0, w1
    b3a4:	97ffff6f 	bl	b160 <mbedtls_ct_uchar_mask_of_range>
    b3a8:	12001c02 	and	w2, w0, #0xff
    b3ac:	11005081 	add	w1, w4, #0x14
/home/jeferson/optee/optee_os-rpi4/lib/libmbedtls/mbedtls/library/constant_time.c:353
    b3b0:	11001480 	add	w0, w4, #0x5
/home/jeferson/optee/optee_os-rpi4/lib/libmbedtls/mbedtls/library/constant_time.c:354
    b3b4:	0a020021 	and	w1, w1, w2
/home/jeferson/optee/optee_os-rpi4/lib/libmbedtls/mbedtls/library/constant_time.c:353
    b3b8:	0a050000 	and	w0, w0, w5
    b3bc:	2a010000 	orr	w0, w0, w1
    b3c0:	13001c63 	sxtb	w3, w3
/home/jeferson/optee/optee_os-rpi4/lib/libmbedtls/mbedtls/library/constant_time.c:354
    b3c4:	2a000063 	orr	w3, w3, w0
/home/jeferson/optee/optee_os-rpi4/lib/libmbedtls/mbedtls/library/constant_time.c:355
    b3c8:	2a0403e2 	mov	w2, w4
    b3cc:	528005e1 	mov	w1, #0x2f                  	// #47
    b3d0:	11004484 	add	w4, w4, #0x11
    b3d4:	2a0103e0 	mov	w0, w1
    b3d8:	97ffff62 	bl	b160 <mbedtls_ct_uchar_mask_of_range>
    b3dc:	12001c00 	and	w0, w0, #0xff
    b3e0:	13001c63 	sxtb	w3, w3
    b3e4:	0a000084 	and	w4, w4, w0
    b3e8:	2a040063 	orr	w3, w3, w4
/home/jeferson/optee/optee_os-rpi4/lib/libmbedtls/mbedtls/library/constant_time.c:358
    b3ec:	51000460 	sub	w0, w3, #0x1
/home/jeferson/optee/optee_os-rpi4/lib/libmbedtls/mbedtls/library/constant_time.c:359
    b3f0:	a8c17bfd 	ldp	x29, x30, [sp], #16
    b3f4:	d65f03c0 	ret

000000000000b3f8 <mbedtls_mpi_safe_cond_assign>:
mbedtls_mpi_safe_cond_assign():
/home/jeferson/optee/optee_os-rpi4/lib/libmbedtls/mbedtls/library/constant_time.c:552
    b3f8:	a9bc7bfd 	stp	x29, x30, [sp, #-64]!
    b3fc:	910003fd 	mov	x29, sp
    b400:	a90153f3 	stp	x19, x20, [sp, #16]
    b404:	aa0103f4 	mov	x20, x1
    b408:	aa0003f3 	mov	x19, x0
    b40c:	f9001bf7 	str	x23, [sp, #48]
    b410:	12001c57 	and	w23, w2, #0xff
/home/jeferson/optee/optee_os-rpi4/lib/libmbedtls/mbedtls/library/constant_time.c:560
    b414:	2a1703e0 	mov	w0, w23
/home/jeferson/optee/optee_os-rpi4/lib/libmbedtls/mbedtls/library/constant_time.c:552
    b418:	a9025bf5 	stp	x21, x22, [sp, #32]
/home/jeferson/optee/optee_os-rpi4/lib/libmbedtls/mbedtls/library/constant_time.c:560
    b41c:	97ffff6f 	bl	b1d8 <mbedtls_ct_mpi_uint_mask>
/home/jeferson/optee/optee_os-rpi4/lib/libmbedtls/mbedtls/library/constant_time.c:562
    b420:	f9400681 	ldr	x1, [x20, #8]
/home/jeferson/optee/optee_os-rpi4/lib/libmbedtls/mbedtls/library/constant_time.c:560
    b424:	2a0003f5 	mov	w21, w0
/home/jeferson/optee/optee_os-rpi4/lib/libmbedtls/mbedtls/library/constant_time.c:562
    b428:	aa1303e0 	mov	x0, x19
    b42c:	97fff10b 	bl	7858 <mbedtls_mpi_grow>
    b430:	2a0003f6 	mov	w22, w0
    b434:	35000260 	cbnz	w0, b480 <mbedtls_mpi_safe_cond_assign+0x88>
/home/jeferson/optee/optee_os-rpi4/lib/libmbedtls/mbedtls/library/constant_time.c:564 (discriminator 2)
    b438:	79c00260 	ldrsh	w0, [x19]
/home/jeferson/optee/optee_os-rpi4/lib/libmbedtls/mbedtls/library/constant_time.c:566 (discriminator 2)
    b43c:	2a1703e3 	mov	w3, w23
/home/jeferson/optee/optee_os-rpi4/lib/libmbedtls/mbedtls/library/constant_time.c:564 (discriminator 2)
    b440:	79c00284 	ldrsh	w4, [x20]
/home/jeferson/optee/optee_os-rpi4/lib/libmbedtls/mbedtls/library/constant_time.c:569 (discriminator 2)
    b444:	2a3503f5 	mvn	w21, w21
mbedtls_ct_cond_select_sign():
/home/jeferson/optee/optee_os-rpi4/lib/libmbedtls/mbedtls/library/constant_time.c:289 (discriminator 2)
    b448:	11000400 	add	w0, w0, #0x1
/home/jeferson/optee/optee_os-rpi4/lib/libmbedtls/mbedtls/library/constant_time.c:288 (discriminator 2)
    b44c:	11000484 	add	w4, w4, #0x1
/home/jeferson/optee/optee_os-rpi4/lib/libmbedtls/mbedtls/library/constant_time.c:298 (discriminator 2)
    b450:	4a000084 	eor	w4, w4, w0
    b454:	0a170484 	and	w4, w4, w23, lsl #1
    b458:	4a000084 	eor	w4, w4, w0
mbedtls_mpi_safe_cond_assign():
/home/jeferson/optee/optee_os-rpi4/lib/libmbedtls/mbedtls/library/constant_time.c:566 (discriminator 2)
    b45c:	a9408a80 	ldp	x0, x2, [x20, #8]
mbedtls_ct_cond_select_sign():
/home/jeferson/optee/optee_os-rpi4/lib/libmbedtls/mbedtls/library/constant_time.c:298 (discriminator 2)
    b460:	51000484 	sub	w4, w4, #0x1
mbedtls_mpi_safe_cond_assign():
/home/jeferson/optee/optee_os-rpi4/lib/libmbedtls/mbedtls/library/constant_time.c:566 (discriminator 2)
    b464:	f9400a61 	ldr	x1, [x19, #16]
/home/jeferson/optee/optee_os-rpi4/lib/libmbedtls/mbedtls/library/constant_time.c:564 (discriminator 2)
    b468:	79000264 	strh	w4, [x19]
/home/jeferson/optee/optee_os-rpi4/lib/libmbedtls/mbedtls/library/constant_time.c:566 (discriminator 2)
    b46c:	97ffff78 	bl	b24c <mbedtls_ct_mpi_uint_cond_assign>
/home/jeferson/optee/optee_os-rpi4/lib/libmbedtls/mbedtls/library/constant_time.c:568 (discriminator 2)
    b470:	f9400664 	ldr	x4, [x19, #8]
    b474:	f9400680 	ldr	x0, [x20, #8]
/home/jeferson/optee/optee_os-rpi4/lib/libmbedtls/mbedtls/library/constant_time.c:568 (discriminator 1)
    b478:	eb00009f 	cmp	x4, x0
    b47c:	540000e8 	b.hi	b498 <mbedtls_mpi_safe_cond_assign+0xa0>  // b.pmore
/home/jeferson/optee/optee_os-rpi4/lib/libmbedtls/mbedtls/library/constant_time.c:573
    b480:	2a1603e0 	mov	w0, w22
    b484:	a94153f3 	ldp	x19, x20, [sp, #16]
    b488:	a9425bf5 	ldp	x21, x22, [sp, #32]
    b48c:	f9401bf7 	ldr	x23, [sp, #48]
    b490:	a8c47bfd 	ldp	x29, x30, [sp], #64
    b494:	d65f03c0 	ret
/home/jeferson/optee/optee_os-rpi4/lib/libmbedtls/mbedtls/library/constant_time.c:569 (discriminator 3)
    b498:	f9400a63 	ldr	x3, [x19, #16]
    b49c:	d37ef402 	lsl	x2, x0, #2
/home/jeferson/optee/optee_os-rpi4/lib/libmbedtls/mbedtls/library/constant_time.c:568 (discriminator 3)
    b4a0:	91000400 	add	x0, x0, #0x1
/home/jeferson/optee/optee_os-rpi4/lib/libmbedtls/mbedtls/library/constant_time.c:569 (discriminator 3)
    b4a4:	b8626861 	ldr	w1, [x3, x2]
    b4a8:	0a150021 	and	w1, w1, w21
    b4ac:	b8226861 	str	w1, [x3, x2]
/home/jeferson/optee/optee_os-rpi4/lib/libmbedtls/mbedtls/library/constant_time.c:568 (discriminator 3)
    b4b0:	17fffff2 	b	b478 <mbedtls_mpi_safe_cond_assign+0x80>

000000000000b4b4 <mbedtls_mpi_safe_cond_swap>:
mbedtls_mpi_safe_cond_swap():
/home/jeferson/optee/optee_os-rpi4/lib/libmbedtls/mbedtls/library/constant_time.c:592
    b4b4:	eb01001f 	cmp	x0, x1
    b4b8:	54000061 	b.ne	b4c4 <mbedtls_mpi_safe_cond_swap+0x10>  // b.any
/home/jeferson/optee/optee_os-rpi4/lib/libmbedtls/mbedtls/library/constant_time.c:593
    b4bc:	52800000 	mov	w0, #0x0                   	// #0
/home/jeferson/optee/optee_os-rpi4/lib/libmbedtls/mbedtls/library/constant_time.c:615
    b4c0:	d65f03c0 	ret
/home/jeferson/optee/optee_os-rpi4/lib/libmbedtls/mbedtls/library/constant_time.c:584
    b4c4:	a9bd7bfd 	stp	x29, x30, [sp, #-48]!
    b4c8:	910003fd 	mov	x29, sp
    b4cc:	a9025bf5 	stp	x21, x22, [sp, #32]
    b4d0:	aa0103f5 	mov	x21, x1
    b4d4:	12001c56 	and	w22, w2, #0xff
    b4d8:	a90153f3 	stp	x19, x20, [sp, #16]
    b4dc:	aa0003f4 	mov	x20, x0
/home/jeferson/optee/optee_os-rpi4/lib/libmbedtls/mbedtls/library/constant_time.c:596
    b4e0:	2a1603e0 	mov	w0, w22
    b4e4:	97ffff3d 	bl	b1d8 <mbedtls_ct_mpi_uint_mask>
    b4e8:	2a0003f3 	mov	w19, w0
/home/jeferson/optee/optee_os-rpi4/lib/libmbedtls/mbedtls/library/constant_time.c:598
    b4ec:	f94006a1 	ldr	x1, [x21, #8]
    b4f0:	aa1403e0 	mov	x0, x20
    b4f4:	97fff0d9 	bl	7858 <mbedtls_mpi_grow>
    b4f8:	35000340 	cbnz	w0, b560 <mbedtls_mpi_safe_cond_swap+0xac>
/home/jeferson/optee/optee_os-rpi4/lib/libmbedtls/mbedtls/library/constant_time.c:599 (discriminator 2)
    b4fc:	f9400681 	ldr	x1, [x20, #8]
    b500:	aa1503e0 	mov	x0, x21
    b504:	97fff0d5 	bl	7858 <mbedtls_mpi_grow>
    b508:	350002c0 	cbnz	w0, b560 <mbedtls_mpi_safe_cond_swap+0xac>
/home/jeferson/optee/optee_os-rpi4/lib/libmbedtls/mbedtls/library/constant_time.c:601 (discriminator 2)
    b50c:	79c00280 	ldrsh	w0, [x20]
/home/jeferson/optee/optee_os-rpi4/lib/libmbedtls/mbedtls/library/constant_time.c:602 (discriminator 2)
    b510:	79c002a3 	ldrsh	w3, [x21]
mbedtls_ct_cond_select_sign():
/home/jeferson/optee/optee_os-rpi4/lib/libmbedtls/mbedtls/library/constant_time.c:289 (discriminator 2)
    b514:	11000400 	add	w0, w0, #0x1
/home/jeferson/optee/optee_os-rpi4/lib/libmbedtls/mbedtls/library/constant_time.c:288 (discriminator 2)
    b518:	11000463 	add	w3, w3, #0x1
/home/jeferson/optee/optee_os-rpi4/lib/libmbedtls/mbedtls/library/constant_time.c:298 (discriminator 2)
    b51c:	4a000063 	eor	w3, w3, w0
    b520:	0a160463 	and	w3, w3, w22, lsl #1
    b524:	4a000063 	eor	w3, w3, w0
    b528:	51000463 	sub	w3, w3, #0x1
mbedtls_mpi_safe_cond_swap():
/home/jeferson/optee/optee_os-rpi4/lib/libmbedtls/mbedtls/library/constant_time.c:602 (discriminator 2)
    b52c:	79000283 	strh	w3, [x20]
/home/jeferson/optee/optee_os-rpi4/lib/libmbedtls/mbedtls/library/constant_time.c:606 (discriminator 2)
    b530:	f9400686 	ldr	x6, [x20, #8]
    b534:	d2800003 	mov	x3, #0x0                   	// #0
/home/jeferson/optee/optee_os-rpi4/lib/libmbedtls/mbedtls/library/constant_time.c:603 (discriminator 2)
    b538:	79c002a1 	ldrsh	w1, [x21]
mbedtls_ct_cond_select_sign():
/home/jeferson/optee/optee_os-rpi4/lib/libmbedtls/mbedtls/library/constant_time.c:289 (discriminator 2)
    b53c:	11000421 	add	w1, w1, #0x1
/home/jeferson/optee/optee_os-rpi4/lib/libmbedtls/mbedtls/library/constant_time.c:298 (discriminator 2)
    b540:	4a000020 	eor	w0, w1, w0
    b544:	0a160416 	and	w22, w0, w22, lsl #1
    b548:	4a0102d6 	eor	w22, w22, w1
    b54c:	510006d6 	sub	w22, w22, #0x1
mbedtls_mpi_safe_cond_swap():
/home/jeferson/optee/optee_os-rpi4/lib/libmbedtls/mbedtls/library/constant_time.c:603 (discriminator 2)
    b550:	790002b6 	strh	w22, [x21]
/home/jeferson/optee/optee_os-rpi4/lib/libmbedtls/mbedtls/library/constant_time.c:606 (discriminator 1)
    b554:	eb0300df 	cmp	x6, x3
    b558:	540000c1 	b.ne	b570 <mbedtls_mpi_safe_cond_swap+0xbc>  // b.any
/home/jeferson/optee/optee_os-rpi4/lib/libmbedtls/mbedtls/library/constant_time.c:593
    b55c:	52800000 	mov	w0, #0x0                   	// #0
/home/jeferson/optee/optee_os-rpi4/lib/libmbedtls/mbedtls/library/constant_time.c:615
    b560:	a94153f3 	ldp	x19, x20, [sp, #16]
    b564:	a9425bf5 	ldp	x21, x22, [sp, #32]
    b568:	a8c37bfd 	ldp	x29, x30, [sp], #48
    b56c:	d65f03c0 	ret
/home/jeferson/optee/optee_os-rpi4/lib/libmbedtls/mbedtls/library/constant_time.c:609 (discriminator 3)
    b570:	f9400aa4 	ldr	x4, [x21, #16]
    b574:	d37ef462 	lsl	x2, x3, #2
/home/jeferson/optee/optee_os-rpi4/lib/libmbedtls/mbedtls/library/constant_time.c:608 (discriminator 3)
    b578:	f9400a85 	ldr	x5, [x20, #16]
/home/jeferson/optee/optee_os-rpi4/lib/libmbedtls/mbedtls/library/constant_time.c:606 (discriminator 3)
    b57c:	91000463 	add	x3, x3, #0x1
/home/jeferson/optee/optee_os-rpi4/lib/libmbedtls/mbedtls/library/constant_time.c:609 (discriminator 3)
    b580:	b8626881 	ldr	w1, [x4, x2]
/home/jeferson/optee/optee_os-rpi4/lib/libmbedtls/mbedtls/library/constant_time.c:608 (discriminator 3)
    b584:	b86268a0 	ldr	w0, [x5, x2]
/home/jeferson/optee/optee_os-rpi4/lib/libmbedtls/mbedtls/library/constant_time.c:609 (discriminator 3)
    b588:	4a010001 	eor	w1, w0, w1
    b58c:	0a130021 	and	w1, w1, w19
    b590:	4a000021 	eor	w1, w1, w0
    b594:	b82268a1 	str	w1, [x5, x2]
/home/jeferson/optee/optee_os-rpi4/lib/libmbedtls/mbedtls/library/constant_time.c:610 (discriminator 3)
    b598:	b8626881 	ldr	w1, [x4, x2]
    b59c:	4a000020 	eor	w0, w1, w0
    b5a0:	0a130000 	and	w0, w0, w19
    b5a4:	4a010000 	eor	w0, w0, w1
    b5a8:	b8226880 	str	w0, [x4, x2]
/home/jeferson/optee/optee_os-rpi4/lib/libmbedtls/mbedtls/library/constant_time.c:606 (discriminator 3)
    b5ac:	17ffffea 	b	b554 <mbedtls_mpi_safe_cond_swap+0xa0>

000000000000b5b0 <mbedtls_mpi_lt_mpi_ct>:
mbedtls_mpi_lt_mpi_ct():
/home/jeferson/optee/optee_os-rpi4/lib/libmbedtls/mbedtls/library/constant_time.c:623
    b5b0:	a9ba7bfd 	stp	x29, x30, [sp, #-96]!
    b5b4:	910003fd 	mov	x29, sp
    b5b8:	a90153f3 	stp	x19, x20, [sp, #16]
    b5bc:	a90363f7 	stp	x23, x24, [sp, #48]
    b5c0:	aa0003f7 	mov	x23, x0
/home/jeferson/optee/optee_os-rpi4/lib/libmbedtls/mbedtls/library/constant_time.c:632
    b5c4:	f9400413 	ldr	x19, [x0, #8]
/home/jeferson/optee/optee_os-rpi4/lib/libmbedtls/mbedtls/library/constant_time.c:623
    b5c8:	a9025bf5 	stp	x21, x22, [sp, #32]
/home/jeferson/optee/optee_os-rpi4/lib/libmbedtls/mbedtls/library/constant_time.c:632
    b5cc:	f9400420 	ldr	x0, [x1, #8]
/home/jeferson/optee/optee_os-rpi4/lib/libmbedtls/mbedtls/library/constant_time.c:623
    b5d0:	a9046bf9 	stp	x25, x26, [sp, #64]
    b5d4:	f9002bfb 	str	x27, [sp, #80]
/home/jeferson/optee/optee_os-rpi4/lib/libmbedtls/mbedtls/library/constant_time.c:632
    b5d8:	eb00027f 	cmp	x19, x0
    b5dc:	54000621 	b.ne	b6a0 <mbedtls_mpi_lt_mpi_ct+0xf0>  // b.any
/home/jeferson/optee/optee_os-rpi4/lib/libmbedtls/mbedtls/library/constant_time.c:639
    b5e0:	794002e3 	ldrh	w3, [x23]
/home/jeferson/optee/optee_os-rpi4/lib/libmbedtls/mbedtls/library/constant_time.c:666
    b5e4:	5280003a 	mov	w26, #0x1                   	// #1
/home/jeferson/optee/optee_os-rpi4/lib/libmbedtls/mbedtls/library/constant_time.c:640
    b5e8:	79400020 	ldrh	w0, [x1]
    b5ec:	aa0103f8 	mov	x24, x1
    b5f0:	aa0203f6 	mov	x22, x2
/home/jeferson/optee/optee_os-rpi4/lib/libmbedtls/mbedtls/library/constant_time.c:639
    b5f4:	d1000673 	sub	x19, x19, #0x1
    b5f8:	d3410479 	ubfx	x25, x3, #1, #1
/home/jeferson/optee/optee_os-rpi4/lib/libmbedtls/mbedtls/library/constant_time.c:647
    b5fc:	ca000063 	eor	x3, x3, x0
/home/jeferson/optee/optee_os-rpi4/lib/libmbedtls/mbedtls/library/constant_time.c:677
    b600:	4b19035b 	sub	w27, w26, w25
/home/jeferson/optee/optee_os-rpi4/lib/libmbedtls/mbedtls/library/constant_time.c:647
    b604:	d3410474 	ubfx	x20, x3, #1, #1
/home/jeferson/optee/optee_os-rpi4/lib/libmbedtls/mbedtls/library/constant_time.c:648
    b608:	0a430723 	and	w3, w25, w3, lsr #1
/home/jeferson/optee/optee_os-rpi4/lib/libmbedtls/mbedtls/library/constant_time.c:648 (discriminator 1)
    b60c:	b90002c3 	str	w3, [x22]
/home/jeferson/optee/optee_os-rpi4/lib/libmbedtls/mbedtls/library/constant_time.c:656 (discriminator 1)
    b610:	b100067f 	cmn	x19, #0x1
    b614:	54000121 	b.ne	b638 <mbedtls_mpi_lt_mpi_ct+0x88>  // b.any
/home/jeferson/optee/optee_os-rpi4/lib/libmbedtls/mbedtls/library/constant_time.c:681
    b618:	52800000 	mov	w0, #0x0                   	// #0
/home/jeferson/optee/optee_os-rpi4/lib/libmbedtls/mbedtls/library/constant_time.c:682
    b61c:	a94153f3 	ldp	x19, x20, [sp, #16]
    b620:	a9425bf5 	ldp	x21, x22, [sp, #32]
    b624:	a94363f7 	ldp	x23, x24, [sp, #48]
    b628:	a9446bf9 	ldp	x25, x26, [sp, #64]
    b62c:	f9402bfb 	ldr	x27, [sp, #80]
    b630:	a8c67bfd 	ldp	x29, x30, [sp], #96
    b634:	d65f03c0 	ret
/home/jeferson/optee/optee_os-rpi4/lib/libmbedtls/mbedtls/library/constant_time.c:665 (discriminator 3)
    b638:	f9400ae1 	ldr	x1, [x23, #16]
    b63c:	d37ef675 	lsl	x21, x19, #2
    b640:	f9400b00 	ldr	x0, [x24, #16]
    b644:	d1000673 	sub	x19, x19, #0x1
    b648:	b8756821 	ldr	w1, [x1, x21]
    b64c:	b8756800 	ldr	w0, [x0, x21]
    b650:	97fffeec 	bl	b200 <mbedtls_ct_mpi_uint_lt>
/home/jeferson/optee/optee_os-rpi4/lib/libmbedtls/mbedtls/library/constant_time.c:666 (discriminator 3)
    b654:	4b140343 	sub	w3, w26, w20
    b658:	b94002c4 	ldr	w4, [x22]
    b65c:	0a190063 	and	w3, w3, w25
/home/jeferson/optee/optee_os-rpi4/lib/libmbedtls/mbedtls/library/constant_time.c:667 (discriminator 3)
    b660:	2a000294 	orr	w20, w20, w0
/home/jeferson/optee/optee_os-rpi4/lib/libmbedtls/mbedtls/library/constant_time.c:666 (discriminator 3)
    b664:	0a000063 	and	w3, w3, w0
/home/jeferson/optee/optee_os-rpi4/lib/libmbedtls/mbedtls/library/constant_time.c:676 (discriminator 3)
    b668:	f9400b01 	ldr	x1, [x24, #16]
/home/jeferson/optee/optee_os-rpi4/lib/libmbedtls/mbedtls/library/constant_time.c:666 (discriminator 3)
    b66c:	2a030083 	orr	w3, w4, w3
/home/jeferson/optee/optee_os-rpi4/lib/libmbedtls/mbedtls/library/constant_time.c:676 (discriminator 3)
    b670:	f9400ae0 	ldr	x0, [x23, #16]
/home/jeferson/optee/optee_os-rpi4/lib/libmbedtls/mbedtls/library/constant_time.c:666 (discriminator 3)
    b674:	b90002c3 	str	w3, [x22]
/home/jeferson/optee/optee_os-rpi4/lib/libmbedtls/mbedtls/library/constant_time.c:676 (discriminator 3)
    b678:	b8756821 	ldr	w1, [x1, x21]
    b67c:	b8756800 	ldr	w0, [x0, x21]
    b680:	97fffee0 	bl	b200 <mbedtls_ct_mpi_uint_lt>
/home/jeferson/optee/optee_os-rpi4/lib/libmbedtls/mbedtls/library/constant_time.c:677 (discriminator 3)
    b684:	0a000363 	and	w3, w27, w0
    b688:	4b140341 	sub	w1, w26, w20
/home/jeferson/optee/optee_os-rpi4/lib/libmbedtls/mbedtls/library/constant_time.c:678 (discriminator 3)
    b68c:	2a000294 	orr	w20, w20, w0
/home/jeferson/optee/optee_os-rpi4/lib/libmbedtls/mbedtls/library/constant_time.c:677 (discriminator 3)
    b690:	0a010063 	and	w3, w3, w1
    b694:	b94002c1 	ldr	w1, [x22]
    b698:	2a010063 	orr	w3, w3, w1
/home/jeferson/optee/optee_os-rpi4/lib/libmbedtls/mbedtls/library/constant_time.c:656 (discriminator 3)
    b69c:	17ffffdc 	b	b60c <mbedtls_mpi_lt_mpi_ct+0x5c>
/home/jeferson/optee/optee_os-rpi4/lib/libmbedtls/mbedtls/library/constant_time.c:633
    b6a0:	12800060 	mov	w0, #0xfffffffc            	// #-4
    b6a4:	17ffffde 	b	b61c <mbedtls_mpi_lt_mpi_ct+0x6c>

000000000000b6a8 <mbedtls_ct_rsaes_pkcs1_v15_unpadding>:
mbedtls_ct_rsaes_pkcs1_v15_unpadding():
/home/jeferson/optee/optee_os-rpi4/lib/libmbedtls/mbedtls/library/constant_time.c:694
    b6a8:	a9b87bfd 	stp	x29, x30, [sp, #-128]!
    b6ac:	910003fd 	mov	x29, sp
    b6b0:	a90153f3 	stp	x19, x20, [sp, #16]
    b6b4:	aa0103f3 	mov	x19, x1
    b6b8:	a9025bf5 	stp	x21, x22, [sp, #32]
/home/jeferson/optee/optee_os-rpi4/lib/libmbedtls/mbedtls/library/constant_time.c:714
    b6bc:	d1002c55 	sub	x21, x2, #0xb
    b6c0:	eb0402bf 	cmp	x21, x4
/home/jeferson/optee/optee_os-rpi4/lib/libmbedtls/mbedtls/library/constant_time.c:694
    b6c4:	a90363f7 	stp	x23, x24, [sp, #48]
    b6c8:	aa0203f6 	mov	x22, x2
    b6cc:	aa0403f7 	mov	x23, x4
    b6d0:	a9046bf9 	stp	x25, x26, [sp, #64]
/home/jeferson/optee/optee_os-rpi4/lib/libmbedtls/mbedtls/library/constant_time.c:714
    b6d4:	9a8492b5 	csel	x21, x21, x4, ls  // ls = plast
/home/jeferson/optee/optee_os-rpi4/lib/libmbedtls/mbedtls/library/constant_time.c:694
    b6d8:	aa0303f9 	mov	x25, x3
    b6dc:	a90573fb 	stp	x27, x28, [sp, #80]
    b6e0:	f90037e5 	str	x5, [sp, #104]
/home/jeferson/optee/optee_os-rpi4/lib/libmbedtls/mbedtls/library/constant_time.c:719
    b6e4:	39400034 	ldrb	w20, [x1]
/home/jeferson/optee/optee_os-rpi4/lib/libmbedtls/mbedtls/library/constant_time.c:725
    b6e8:	39400421 	ldrb	w1, [x1, #1]
/home/jeferson/optee/optee_os-rpi4/lib/libmbedtls/mbedtls/library/constant_time.c:721
    b6ec:	7100041f 	cmp	w0, #0x1
    b6f0:	54000961 	b.ne	b81c <mbedtls_ct_rsaes_pkcs1_v15_unpadding+0x174>  // b.any
/home/jeferson/optee/optee_os-rpi4/lib/libmbedtls/mbedtls/library/constant_time.c:725
    b6f4:	521f0021 	eor	w1, w1, #0x2
/home/jeferson/optee/optee_os-rpi4/lib/libmbedtls/mbedtls/library/constant_time.c:710
    b6f8:	5280001a 	mov	w26, #0x0                   	// #0
/home/jeferson/optee/optee_os-rpi4/lib/libmbedtls/mbedtls/library/constant_time.c:725
    b6fc:	2a010294 	orr	w20, w20, w1
/home/jeferson/optee/optee_os-rpi4/lib/libmbedtls/mbedtls/library/constant_time.c:708
    b700:	d280001b 	mov	x27, #0x0                   	// #0
/home/jeferson/optee/optee_os-rpi4/lib/libmbedtls/mbedtls/library/constant_time.c:729
    b704:	d2800041 	mov	x1, #0x2                   	// #2
/home/jeferson/optee/optee_os-rpi4/lib/libmbedtls/mbedtls/library/constant_time.c:729 (discriminator 1)
    b708:	eb16003f 	cmp	x1, x22
    b70c:	540006e3 	b.cc	b7e8 <mbedtls_ct_rsaes_pkcs1_v15_unpadding+0x140>  // b.lo, b.ul, b.last
/home/jeferson/optee/optee_os-rpi4/lib/libmbedtls/mbedtls/library/constant_time.c:753
    b710:	2a1a03e0 	mov	w0, w26
    b714:	52800022 	mov	w2, #0x1                   	// #1
    b718:	52800001 	mov	w1, #0x0                   	// #0
    b71c:	97fffec0 	bl	b21c <mbedtls_ct_uint_if>
    b720:	2a000294 	orr	w20, w20, w0
mbedtls_ct_size_gt():
/home/jeferson/optee/optee_os-rpi4/lib/libmbedtls/mbedtls/library/constant_time.c:220
    b724:	d1002360 	sub	x0, x27, #0x8
mbedtls_ct_rsaes_pkcs1_v15_unpadding():
/home/jeferson/optee/optee_os-rpi4/lib/libmbedtls/mbedtls/library/constant_time.c:765
    b728:	51000ec2 	sub	w2, w22, #0x3
    b72c:	2a1503e1 	mov	w1, w21
mbedtls_ct_size_gt():
/home/jeferson/optee/optee_os-rpi4/lib/libmbedtls/mbedtls/library/constant_time.c:220
    b730:	d37ffc00 	lsr	x0, x0, #63
mbedtls_ct_rsaes_pkcs1_v15_unpadding():
/home/jeferson/optee/optee_os-rpi4/lib/libmbedtls/mbedtls/library/constant_time.c:765
    b734:	4b1b0042 	sub	w2, w2, w27
/home/jeferson/optee/optee_os-rpi4/lib/libmbedtls/mbedtls/library/constant_time.c:756
    b738:	2a000294 	orr	w20, w20, w0
/home/jeferson/optee/optee_os-rpi4/lib/libmbedtls/mbedtls/library/constant_time.c:765
    b73c:	2a1403e0 	mov	w0, w20
    b740:	97fffeb7 	bl	b21c <mbedtls_ct_uint_if>
mbedtls_ct_size_gt():
/home/jeferson/optee/optee_os-rpi4/lib/libmbedtls/mbedtls/library/constant_time.c:220
    b744:	cb2042bb 	sub	x27, x21, w0, uxtw
mbedtls_ct_rsaes_pkcs1_v15_unpadding():
/home/jeferson/optee/optee_os-rpi4/lib/libmbedtls/mbedtls/library/constant_time.c:779
    b748:	52800002 	mov	w2, #0x0                   	// #0
    b74c:	52888001 	mov	w1, #0x4400                	// #17408
/home/jeferson/optee/optee_os-rpi4/lib/libmbedtls/mbedtls/library/constant_time.c:765
    b750:	2a0003fc 	mov	w28, w0
mbedtls_ct_size_gt():
/home/jeferson/optee/optee_os-rpi4/lib/libmbedtls/mbedtls/library/constant_time.c:220
    b754:	d37fff7b 	lsr	x27, x27, #63
mbedtls_ct_rsaes_pkcs1_v15_unpadding():
/home/jeferson/optee/optee_os-rpi4/lib/libmbedtls/mbedtls/library/constant_time.c:779
    b758:	2a1b03e0 	mov	w0, w27
    b75c:	97fffeb0 	bl	b21c <mbedtls_ct_uint_if>
    b760:	2a0003e2 	mov	w2, w0
    b764:	52882001 	mov	w1, #0x4100                	// #16640
    b768:	2a1403e0 	mov	w0, w20
    b76c:	97fffeac 	bl	b21c <mbedtls_ct_uint_if>
    b770:	4b0003fa 	neg	w26, w0
/home/jeferson/optee/optee_os-rpi4/lib/libmbedtls/mbedtls/library/constant_time.c:791
    b774:	2a1b0280 	orr	w0, w20, w27
    b778:	97fffe94 	bl	b1c8 <mbedtls_ct_uint_mask>
/home/jeferson/optee/optee_os-rpi4/lib/libmbedtls/mbedtls/library/constant_time.c:793
    b77c:	2a2003e0 	mvn	w0, w0
/home/jeferson/optee/optee_os-rpi4/lib/libmbedtls/mbedtls/library/constant_time.c:792
    b780:	d2800161 	mov	x1, #0xb                   	// #11
/home/jeferson/optee/optee_os-rpi4/lib/libmbedtls/mbedtls/library/constant_time.c:792 (discriminator 1)
    b784:	eb16003f 	cmp	x1, x22
    b788:	54000803 	b.cc	b888 <mbedtls_ct_rsaes_pkcs1_v15_unpadding+0x1e0>  // b.lo, b.ul, b.last
/home/jeferson/optee/optee_os-rpi4/lib/libmbedtls/mbedtls/library/constant_time.c:809
    b78c:	cb1502d6 	sub	x22, x22, x21
/home/jeferson/optee/optee_os-rpi4/lib/libmbedtls/mbedtls/library/constant_time.c:799
    b790:	2a1c03e2 	mov	w2, w28
    b794:	2a1503e1 	mov	w1, w21
    b798:	2a1b03e0 	mov	w0, w27
/home/jeferson/optee/optee_os-rpi4/lib/libmbedtls/mbedtls/library/constant_time.c:809
    b79c:	8b160273 	add	x19, x19, x22
/home/jeferson/optee/optee_os-rpi4/lib/libmbedtls/mbedtls/library/constant_time.c:799
    b7a0:	97fffe9f 	bl	b21c <mbedtls_ct_uint_if>
    b7a4:	2a0003f4 	mov	w20, w0
mbedtls_ct_mem_move_to_left():
/home/jeferson/optee/optee_os-rpi4/lib/libmbedtls/mbedtls/library/constant_time.c:387
    b7a8:	b50007b5 	cbnz	x21, b89c <mbedtls_ct_rsaes_pkcs1_v15_unpadding+0x1f4>
mbedtls_ct_rsaes_pkcs1_v15_unpadding():
/home/jeferson/optee/optee_os-rpi4/lib/libmbedtls/mbedtls/library/constant_time.c:820
    b7ac:	b40000b7 	cbz	x23, b7c0 <mbedtls_ct_rsaes_pkcs1_v15_unpadding+0x118>
/home/jeferson/optee/optee_os-rpi4/lib/libmbedtls/mbedtls/library/constant_time.c:821
    b7b0:	aa1503e2 	mov	x2, x21
    b7b4:	aa1303e1 	mov	x1, x19
    b7b8:	aa1903e0 	mov	x0, x25
    b7bc:	97ffd219 	bl	20 <memcpy>
/home/jeferson/optee/optee_os-rpi4/lib/libmbedtls/mbedtls/library/constant_time.c:827
    b7c0:	f94037e0 	ldr	x0, [sp, #104]
/home/jeferson/optee/optee_os-rpi4/lib/libmbedtls/mbedtls/library/constant_time.c:830
    b7c4:	a9425bf5 	ldp	x21, x22, [sp, #32]
    b7c8:	a94363f7 	ldp	x23, x24, [sp, #48]
    b7cc:	a94573fb 	ldp	x27, x28, [sp, #80]
/home/jeferson/optee/optee_os-rpi4/lib/libmbedtls/mbedtls/library/constant_time.c:827
    b7d0:	f9000014 	str	x20, [x0]
/home/jeferson/optee/optee_os-rpi4/lib/libmbedtls/mbedtls/library/constant_time.c:830
    b7d4:	2a1a03e0 	mov	w0, w26
    b7d8:	a94153f3 	ldp	x19, x20, [sp, #16]
    b7dc:	a9446bf9 	ldp	x25, x26, [sp, #64]
    b7e0:	a8c87bfd 	ldp	x29, x30, [sp], #128
    b7e4:	d65f03c0 	ret
/home/jeferson/optee/optee_os-rpi4/lib/libmbedtls/mbedtls/library/constant_time.c:731 (discriminator 3)
    b7e8:	38616a60 	ldrb	w0, [x19, x1]
/home/jeferson/optee/optee_os-rpi4/lib/libmbedtls/mbedtls/library/constant_time.c:729 (discriminator 3)
    b7ec:	91000421 	add	x1, x1, #0x1
/home/jeferson/optee/optee_os-rpi4/lib/libmbedtls/mbedtls/library/constant_time.c:731 (discriminator 3)
    b7f0:	4b0003e2 	neg	w2, w0
    b7f4:	2a020000 	orr	w0, w0, w2
    b7f8:	d3471c00 	ubfx	x0, x0, #7, #1
    b7fc:	52000000 	eor	w0, w0, #0x1
    b800:	2a00035a 	orr	w26, w26, w0
/home/jeferson/optee/optee_os-rpi4/lib/libmbedtls/mbedtls/library/constant_time.c:732 (discriminator 3)
    b804:	4b1a03e0 	neg	w0, w26
    b808:	2a000340 	orr	w0, w26, w0
    b80c:	d2790000 	eor	x0, x0, #0x80
    b810:	d3471c00 	ubfx	x0, x0, #7, #1
    b814:	8b00037b 	add	x27, x27, x0
/home/jeferson/optee/optee_os-rpi4/lib/libmbedtls/mbedtls/library/constant_time.c:729 (discriminator 3)
    b818:	17ffffbc 	b	b708 <mbedtls_ct_rsaes_pkcs1_v15_unpadding+0x60>
/home/jeferson/optee/optee_os-rpi4/lib/libmbedtls/mbedtls/library/constant_time.c:739
    b81c:	52000021 	eor	w1, w1, #0x1
/home/jeferson/optee/optee_os-rpi4/lib/libmbedtls/mbedtls/library/constant_time.c:710
    b820:	5280001a 	mov	w26, #0x0                   	// #0
/home/jeferson/optee/optee_os-rpi4/lib/libmbedtls/mbedtls/library/constant_time.c:739
    b824:	2a010294 	orr	w20, w20, w1
/home/jeferson/optee/optee_os-rpi4/lib/libmbedtls/mbedtls/library/constant_time.c:708
    b828:	d280001b 	mov	x27, #0x0                   	// #0
/home/jeferson/optee/optee_os-rpi4/lib/libmbedtls/mbedtls/library/constant_time.c:744
    b82c:	d280005c 	mov	x28, #0x2                   	// #2
/home/jeferson/optee/optee_os-rpi4/lib/libmbedtls/mbedtls/library/constant_time.c:744 (discriminator 1)
    b830:	eb16039f 	cmp	x28, x22
    b834:	54fff6e2 	b.cs	b710 <mbedtls_ct_rsaes_pkcs1_v15_unpadding+0x68>  // b.hs, b.nlast
/home/jeferson/optee/optee_os-rpi4/lib/libmbedtls/mbedtls/library/constant_time.c:746 (discriminator 3)
    b838:	387c6a60 	ldrb	w0, [x19, x28]
    b83c:	52800022 	mov	w2, #0x1                   	// #1
    b840:	52800001 	mov	w1, #0x0                   	// #0
    b844:	97fffe76 	bl	b21c <mbedtls_ct_uint_if>
    b848:	2a000340 	orr	w0, w26, w0
    b84c:	12001c1a 	and	w26, w0, #0xff
/home/jeferson/optee/optee_os-rpi4/lib/libmbedtls/mbedtls/library/constant_time.c:747 (discriminator 3)
    b850:	52800022 	mov	w2, #0x1                   	// #1
    b854:	52800001 	mov	w1, #0x0                   	// #0
    b858:	2a1a03e0 	mov	w0, w26
    b85c:	97fffe70 	bl	b21c <mbedtls_ct_uint_if>
    b860:	8b20437b 	add	x27, x27, w0, uxtw
/home/jeferson/optee/optee_os-rpi4/lib/libmbedtls/mbedtls/library/constant_time.c:748 (discriminator 3)
    b864:	387c6a62 	ldrb	w2, [x19, x28]
    b868:	2a1a03e0 	mov	w0, w26
    b86c:	52800001 	mov	w1, #0x0                   	// #0
/home/jeferson/optee/optee_os-rpi4/lib/libmbedtls/mbedtls/library/constant_time.c:744 (discriminator 3)
    b870:	9100079c 	add	x28, x28, #0x1
/home/jeferson/optee/optee_os-rpi4/lib/libmbedtls/mbedtls/library/constant_time.c:748 (discriminator 3)
    b874:	2a2203e2 	mvn	w2, w2
    b878:	12001c42 	and	w2, w2, #0xff
    b87c:	97fffe68 	bl	b21c <mbedtls_ct_uint_if>
    b880:	2a000294 	orr	w20, w20, w0
/home/jeferson/optee/optee_os-rpi4/lib/libmbedtls/mbedtls/library/constant_time.c:744 (discriminator 3)
    b884:	17ffffeb 	b	b830 <mbedtls_ct_rsaes_pkcs1_v15_unpadding+0x188>
/home/jeferson/optee/optee_os-rpi4/lib/libmbedtls/mbedtls/library/constant_time.c:793 (discriminator 3)
    b888:	38616a62 	ldrb	w2, [x19, x1]
    b88c:	0a020002 	and	w2, w0, w2
    b890:	38216a62 	strb	w2, [x19, x1]
/home/jeferson/optee/optee_os-rpi4/lib/libmbedtls/mbedtls/library/constant_time.c:792 (discriminator 3)
    b894:	91000421 	add	x1, x1, #0x1
    b898:	17ffffbb 	b	b784 <mbedtls_ct_rsaes_pkcs1_v15_unpadding+0xdc>
mbedtls_ct_mem_move_to_left():
/home/jeferson/optee/optee_os-rpi4/lib/libmbedtls/mbedtls/library/constant_time.c:395
    b89c:	d10006b8 	sub	x24, x21, #0x1
/home/jeferson/optee/optee_os-rpi4/lib/libmbedtls/mbedtls/library/constant_time.c:389
    b8a0:	d280001b 	mov	x27, #0x0                   	// #0
mbedtls_ct_size_gt():
/home/jeferson/optee/optee_os-rpi4/lib/libmbedtls/mbedtls/library/constant_time.c:220
    b8a4:	cb14037c 	sub	x28, x27, x20
mbedtls_ct_mem_move_to_left():
/home/jeferson/optee/optee_os-rpi4/lib/libmbedtls/mbedtls/library/constant_time.c:395
    b8a8:	d2800016 	mov	x22, #0x0                   	// #0
mbedtls_ct_size_gt():
/home/jeferson/optee/optee_os-rpi4/lib/libmbedtls/mbedtls/library/constant_time.c:220
    b8ac:	d37fff9c 	lsr	x28, x28, #63
    b8b0:	2a1c03e4 	mov	w4, w28
mbedtls_ct_mem_move_to_left():
/home/jeferson/optee/optee_os-rpi4/lib/libmbedtls/mbedtls/library/constant_time.c:395
    b8b4:	eb1802df 	cmp	x22, x24
    b8b8:	54000183 	b.cc	b8e8 <mbedtls_ct_rsaes_pkcs1_v15_unpadding+0x240>  // b.lo, b.ul, b.last
/home/jeferson/optee/optee_os-rpi4/lib/libmbedtls/mbedtls/library/constant_time.c:401
    b8bc:	38786a61 	ldrb	w1, [x19, x24]
    b8c0:	2a1c03e0 	mov	w0, w28
    b8c4:	52800002 	mov	w2, #0x0                   	// #0
/home/jeferson/optee/optee_os-rpi4/lib/libmbedtls/mbedtls/library/constant_time.c:389
    b8c8:	9100077b 	add	x27, x27, #0x1
/home/jeferson/optee/optee_os-rpi4/lib/libmbedtls/mbedtls/library/constant_time.c:401
    b8cc:	12001c21 	and	w1, w1, #0xff
    b8d0:	97fffe53 	bl	b21c <mbedtls_ct_uint_if>
    b8d4:	12001c00 	and	w0, w0, #0xff
    b8d8:	38386a60 	strb	w0, [x19, x24]
/home/jeferson/optee/optee_os-rpi4/lib/libmbedtls/mbedtls/library/constant_time.c:389
    b8dc:	eb1b02bf 	cmp	x21, x27
    b8e0:	54fffe21 	b.ne	b8a4 <mbedtls_ct_rsaes_pkcs1_v15_unpadding+0x1fc>  // b.any
    b8e4:	17ffffb2 	b	b7ac <mbedtls_ct_rsaes_pkcs1_v15_unpadding+0x104>
/home/jeferson/optee/optee_os-rpi4/lib/libmbedtls/mbedtls/library/constant_time.c:397
    b8e8:	38766a61 	ldrb	w1, [x19, x22]
/home/jeferson/optee/optee_os-rpi4/lib/libmbedtls/mbedtls/library/constant_time.c:398
    b8ec:	8b1302c5 	add	x5, x22, x19
    b8f0:	910006d6 	add	x22, x22, #0x1
/home/jeferson/optee/optee_os-rpi4/lib/libmbedtls/mbedtls/library/constant_time.c:399
    b8f4:	2a0403e0 	mov	w0, w4
    b8f8:	12001c21 	and	w1, w1, #0xff
    b8fc:	b90077e4 	str	w4, [sp, #116]
    b900:	f9003fe5 	str	x5, [sp, #120]
/home/jeferson/optee/optee_os-rpi4/lib/libmbedtls/mbedtls/library/constant_time.c:398
    b904:	38766a62 	ldrb	w2, [x19, x22]
/home/jeferson/optee/optee_os-rpi4/lib/libmbedtls/mbedtls/library/constant_time.c:399
    b908:	12001c42 	and	w2, w2, #0xff
    b90c:	97fffe44 	bl	b21c <mbedtls_ct_uint_if>
    b910:	f9403fe5 	ldr	x5, [sp, #120]
    b914:	12001c00 	and	w0, w0, #0xff
    b918:	b94077e4 	ldr	w4, [sp, #116]
    b91c:	390000a0 	strb	w0, [x5]
    b920:	17ffffe5 	b	b8b4 <mbedtls_ct_rsaes_pkcs1_v15_unpadding+0x20c>

000000000000b924 <mbedtls_platform_zeroize>:
mbedtls_platform_zeroize():
/home/jeferson/optee/optee_os-rpi4/lib/libmbedtls/mbedtls/library/platform_util.c:68
    b924:	aa0103e2 	mov	x2, x1
/home/jeferson/optee/optee_os-rpi4/lib/libmbedtls/mbedtls/library/platform_util.c:71
    b928:	b40000c1 	cbz	x1, b940 <mbedtls_platform_zeroize+0x1c>
/home/jeferson/optee/optee_os-rpi4/lib/libmbedtls/mbedtls/library/platform_util.c:72
    b92c:	d0000021 	adrp	x1, 11000 <_DYNAMIC>
    b930:	f942a823 	ldr	x3, [x1, #1360]
    b934:	52800001 	mov	w1, #0x0                   	// #0
    b938:	aa0303f0 	mov	x16, x3
    b93c:	d61f0200 	br	x16
/home/jeferson/optee/optee_os-rpi4/lib/libmbedtls/mbedtls/library/platform_util.c:73
    b940:	d65f03c0 	ret

000000000000b944 <_assert_trap>:
_assert_trap():
/home/jeferson/optee/optee_os-rpi4/lib/libutils/isoc/include/assert.h:18
    b944:	a9bf7bfd 	stp	x29, x30, [sp, #-16]!
    b948:	910003fd 	mov	x29, sp
/home/jeferson/optee/optee_os-rpi4/lib/libutils/isoc/include/assert.h:19
    b94c:	97ffecfb 	bl	6d38 <_assert_log>
/home/jeferson/optee/optee_os-rpi4/lib/libutils/isoc/include/assert.h:20
    b950:	97ffed0b 	bl	6d7c <_assert_break>

000000000000b954 <bget_buf_size.part.0>:
bget_buf_size():
/home/jeferson/optee/optee_os-rpi4/lib/libutils/isoc/bget_malloc.c:191
    b954:	a9bf7bfd 	stp	x29, x30, [sp, #-16]!
/home/jeferson/optee/optee_os-rpi4/lib/libutils/isoc/bget_malloc.c:208
    b958:	b0000023 	adrp	x3, 10000 <__func__.0+0x113>
    b95c:	b0000021 	adrp	x1, 10000 <__func__.0+0x113>
/home/jeferson/optee/optee_os-rpi4/lib/libutils/isoc/bget_malloc.c:191
    b960:	910003fd 	mov	x29, sp
/home/jeferson/optee/optee_os-rpi4/lib/libutils/isoc/bget_malloc.c:208
    b964:	b0000020 	adrp	x0, 10000 <__func__.0+0x113>
    b968:	9118cc63 	add	x3, x3, #0x633
    b96c:	910de821 	add	x1, x1, #0x37a
    b970:	910e6800 	add	x0, x0, #0x39a
    b974:	52801a02 	mov	w2, #0xd0                  	// #208
    b978:	97fffff3 	bl	b944 <_assert_trap>

000000000000b97c <raw_malloc_return_hook.constprop.0>:
raw_malloc_return_hook():
/home/jeferson/optee/optee_os-rpi4/lib/libutils/isoc/bget_malloc.c:278
    b97c:	f9401043 	ldr	x3, [x2, #32]
    b980:	b9406c44 	ldr	w4, [x2, #108]
    b984:	eb04007f 	cmp	x3, x4
    b988:	5400004d 	b.le	b990 <raw_malloc_return_hook.constprop.0+0x14>
/home/jeferson/optee/optee_os-rpi4/lib/libutils/isoc/bget_malloc.c:279
    b98c:	b9006c43 	str	w3, [x2, #108]
/home/jeferson/optee/optee_os-rpi4/lib/libutils/isoc/bget_malloc.c:281
    b990:	b5000100 	cbnz	x0, b9b0 <raw_malloc_return_hook.constprop.0+0x34>
/home/jeferson/optee/optee_os-rpi4/lib/libutils/isoc/bget_malloc.c:282
    b994:	b9407444 	ldr	w4, [x2, #116]
    b998:	11000484 	add	w4, w4, #0x1
    b99c:	b9007444 	str	w4, [x2, #116]
/home/jeferson/optee/optee_os-rpi4/lib/libutils/isoc/bget_malloc.c:284
    b9a0:	b9407844 	ldr	w4, [x2, #120]
    b9a4:	eb01009f 	cmp	x4, x1
    b9a8:	54000042 	b.cs	b9b0 <raw_malloc_return_hook.constprop.0+0x34>  // b.hs, b.nlast
/home/jeferson/optee/optee_os-rpi4/lib/libutils/isoc/bget_malloc.c:286
    b9ac:	290f0c41 	stp	w1, w3, [x2, #120]
/home/jeferson/optee/optee_os-rpi4/lib/libutils/isoc/bget_malloc.c:292
    b9b0:	d65f03c0 	ret

000000000000b9b4 <bget>:
bget():
/home/jeferson/optee/optee_os-rpi4/lib/libutils/isoc/bget.c:612
    b9b4:	a9bf7bfd 	stp	x29, x30, [sp, #-16]!
    b9b8:	910003fd 	mov	x29, sp
/home/jeferson/optee/optee_os-rpi4/lib/libutils/isoc/bget.c:625
    b9bc:	f100005f 	cmp	x2, #0x0
    b9c0:	5400014c 	b.gt	b9e8 <bget+0x34>
/home/jeferson/optee/optee_os-rpi4/lib/libutils/isoc/bget.c:625 (discriminator 1)
    b9c4:	b0000023 	adrp	x3, 10000 <__func__.0+0x113>
    b9c8:	9118cc63 	add	x3, x3, #0x633
    b9cc:	b0000021 	adrp	x1, 10000 <__func__.0+0x113>
    b9d0:	b0000020 	adrp	x0, 10000 <__func__.0+0x113>
    b9d4:	91003863 	add	x3, x3, #0xe
    b9d8:	910e9021 	add	x1, x1, #0x3a4
    b9dc:	9118a000 	add	x0, x0, #0x628
    b9e0:	52804e22 	mov	w2, #0x271                 	// #625
/home/jeferson/optee/optee_os-rpi4/lib/libutils/isoc/bget.c:690 (discriminator 1)
    b9e4:	97ffffd8 	bl	b944 <_assert_trap>
/home/jeferson/optee/optee_os-rpi4/lib/libutils/isoc/bget.c:628 (discriminator 2)
    b9e8:	f100001f 	cmp	x0, #0x0
    b9ec:	5400024b 	b.lt	ba34 <bget+0x80>  // b.tstop
/home/jeferson/optee/optee_os-rpi4/lib/libutils/isoc/bget.c:628 (discriminator 1)
    b9f0:	54000080 	b.eq	ba00 <bget+0x4c>  // b.none
/home/jeferson/optee/optee_os-rpi4/lib/libutils/isoc/bget.c:628 (discriminator 3)
    b9f4:	cb0003e4 	neg	x4, x0
    b9f8:	ea24001f 	bics	xzr, x0, x4
    b9fc:	540001c1 	b.ne	ba34 <bget+0x80>  // b.any
/home/jeferson/optee/optee_os-rpi4/lib/libutils/isoc/bget.c:630
    ba00:	91004028 	add	x8, x1, #0x10
    ba04:	f2400c3f 	tst	x1, #0xf
    ba08:	54000161 	b.ne	ba34 <bget+0x80>  // b.any
/home/jeferson/optee/optee_os-rpi4/lib/libutils/isoc/bget.c:640
    ba0c:	d2800205 	mov	x5, #0x10                  	// #16
    ba10:	eb05005f 	cmp	x2, x5
    ba14:	9a85a042 	csel	x2, x2, x5, ge  // ge = tcont
    ba18:	b1003c44 	adds	x4, x2, #0xf
    ba1c:	540000c4 	b.mi	ba34 <bget+0x80>  // b.first
    ba20:	eb02009f 	cmp	x4, x2
    ba24:	54000083 	b.cc	ba34 <bget+0x80>  // b.lo, b.ul, b.last
/home/jeferson/optee/optee_os-rpi4/lib/libutils/isoc/bget.c:643
    ba28:	927cec84 	and	x4, x4, #0xfffffffffffffff0
/home/jeferson/optee/optee_os-rpi4/lib/libutils/isoc/bget.c:648
    ba2c:	b1004084 	adds	x4, x4, #0x10
    ba30:	54000067 	b.vc	ba3c <bget+0x88>
/home/jeferson/optee/optee_os-rpi4/lib/libutils/isoc/bget.c:629
    ba34:	d2800000 	mov	x0, #0x0                   	// #0
    ba38:	14000093 	b	bc84 <bget+0x2d0>
/home/jeferson/optee/optee_os-rpi4/lib/libutils/isoc/bget.c:650
    ba3c:	ab010084 	adds	x4, x4, x1
    ba40:	54ffffa6 	b.vs	ba34 <bget+0x80>
    ba44:	f100401f 	cmp	x0, #0x10
buf_get_pos():
/home/jeferson/optee/optee_os-rpi4/lib/libutils/isoc/bget.c:599
    ba48:	b27be7e9 	mov	x9, #0x7fffffffffffffe0    	// #9223372036854775776
    ba4c:	9a85a000 	csel	x0, x0, x5, ge  // ge = tcont
bget():
/home/jeferson/optee/optee_os-rpi4/lib/libutils/isoc/bget.c:660
    ba50:	f9400862 	ldr	x2, [x3, #16]
buf_get_pos():
/home/jeferson/optee/optee_os-rpi4/lib/libutils/isoc/bget.c:594
    ba54:	cb0003e0 	neg	x0, x0
bget():
/home/jeferson/optee/optee_os-rpi4/lib/libutils/isoc/bget.c:684
    ba58:	eb02007f 	cmp	x3, x2
    ba5c:	54fffec0 	b.eq	ba34 <bget+0x80>  // b.none
buf_get_pos():
/home/jeferson/optee/optee_os-rpi4/lib/libutils/isoc/bget.c:585
    ba60:	f9400446 	ldr	x6, [x2, #8]
    ba64:	eb06009f 	cmp	x4, x6
    ba68:	5400112c 	b.gt	bc8c <bget+0x2d8>
/home/jeferson/optee/optee_os-rpi4/lib/libutils/isoc/bget.c:592
    ba6c:	cb040045 	sub	x5, x2, x4
/home/jeferson/optee/optee_os-rpi4/lib/libutils/isoc/bget.c:595
    ba70:	8b010047 	add	x7, x2, x1
/home/jeferson/optee/optee_os-rpi4/lib/libutils/isoc/bget.c:592
    ba74:	8b0800a5 	add	x5, x5, x8
    ba78:	8b0600a5 	add	x5, x5, x6
/home/jeferson/optee/optee_os-rpi4/lib/libutils/isoc/bget.c:594
    ba7c:	8a050005 	and	x5, x0, x5
/home/jeferson/optee/optee_os-rpi4/lib/libutils/isoc/bget.c:595
    ba80:	cb0700a5 	sub	x5, x5, x7
/home/jeferson/optee/optee_os-rpi4/lib/libutils/isoc/bget.c:597
    ba84:	f10040a7 	subs	x7, x5, #0x10
    ba88:	54000080 	b.eq	ba98 <bget+0xe4>  // b.none
/home/jeferson/optee/optee_os-rpi4/lib/libutils/isoc/bget.c:599
    ba8c:	d100c0a5 	sub	x5, x5, #0x30
    ba90:	eb0900bf 	cmp	x5, x9
    ba94:	54000fc2 	b.cs	bc8c <bget+0x2d8>  // b.hs, b.nlast
bget():
/home/jeferson/optee/optee_os-rpi4/lib/libutils/isoc/bget.c:690
    ba98:	f8666841 	ldr	x1, [x2, x6]
/home/jeferson/optee/optee_os-rpi4/lib/libutils/isoc/bget.c:687
    ba9c:	8b070040 	add	x0, x2, x7
/home/jeferson/optee/optee_os-rpi4/lib/libutils/isoc/bget.c:688
    baa0:	8b060045 	add	x5, x2, x6
/home/jeferson/optee/optee_os-rpi4/lib/libutils/isoc/bget.c:690
    baa4:	eb06003f 	cmp	x1, x6
    baa8:	54000140 	b.eq	bad0 <bget+0x11c>  // b.none
/home/jeferson/optee/optee_os-rpi4/lib/libutils/isoc/bget.c:690 (discriminator 1)
    baac:	b0000023 	adrp	x3, 10000 <__func__.0+0x113>
    bab0:	9118cc63 	add	x3, x3, #0x633
    bab4:	b0000021 	adrp	x1, 10000 <__func__.0+0x113>
    bab8:	b0000020 	adrp	x0, 10000 <__func__.0+0x113>
    babc:	91003863 	add	x3, x3, #0xe
    bac0:	910e9021 	add	x1, x1, #0x3a4
    bac4:	910ef400 	add	x0, x0, #0x3bd
    bac8:	52805642 	mov	w2, #0x2b2                 	// #690
    bacc:	17ffffc6 	b	b9e4 <bget+0x30>
/home/jeferson/optee/optee_os-rpi4/lib/libutils/isoc/bget.c:698
    bad0:	f9400c41 	ldr	x1, [x2, #24]
/home/jeferson/optee/optee_os-rpi4/lib/libutils/isoc/bget.c:696
    bad4:	f826685f 	str	xzr, [x2, x6]
/home/jeferson/optee/optee_os-rpi4/lib/libutils/isoc/bget.c:698
    bad8:	f9400828 	ldr	x8, [x1, #16]
    badc:	eb02011f 	cmp	x8, x2
    bae0:	54000140 	b.eq	bb08 <bget+0x154>  // b.none
/home/jeferson/optee/optee_os-rpi4/lib/libutils/isoc/bget.c:698 (discriminator 1)
    bae4:	b0000023 	adrp	x3, 10000 <__func__.0+0x113>
    bae8:	9118cc63 	add	x3, x3, #0x633
    baec:	b0000021 	adrp	x1, 10000 <__func__.0+0x113>
    baf0:	b0000020 	adrp	x0, 10000 <__func__.0+0x113>
    baf4:	91003863 	add	x3, x3, #0xe
    baf8:	910e9021 	add	x1, x1, #0x3a4
    bafc:	910f7400 	add	x0, x0, #0x3dd
    bb00:	52805742 	mov	w2, #0x2ba                 	// #698
    bb04:	17ffffb8 	b	b9e4 <bget+0x30>
/home/jeferson/optee/optee_os-rpi4/lib/libutils/isoc/bget.c:699
    bb08:	f9400848 	ldr	x8, [x2, #16]
    bb0c:	f9400d09 	ldr	x9, [x8, #24]
    bb10:	eb02013f 	cmp	x9, x2
    bb14:	54000140 	b.eq	bb3c <bget+0x188>  // b.none
/home/jeferson/optee/optee_os-rpi4/lib/libutils/isoc/bget.c:699 (discriminator 1)
    bb18:	b0000023 	adrp	x3, 10000 <__func__.0+0x113>
    bb1c:	9118cc63 	add	x3, x3, #0x633
    bb20:	b0000021 	adrp	x1, 10000 <__func__.0+0x113>
    bb24:	b0000020 	adrp	x0, 10000 <__func__.0+0x113>
    bb28:	91003863 	add	x3, x3, #0xe
    bb2c:	910e9021 	add	x1, x1, #0x3a4
    bb30:	910fe000 	add	x0, x0, #0x3f8
    bb34:	52805762 	mov	w2, #0x2bb                 	// #699
    bb38:	17ffffab 	b	b9e4 <bget+0x30>
/home/jeferson/optee/optee_os-rpi4/lib/libutils/isoc/bget.c:701
    bb3c:	b5000227 	cbnz	x7, bb80 <bget+0x1cc>
/home/jeferson/optee/optee_os-rpi4/lib/libutils/isoc/bget.c:706
    bb40:	f9000828 	str	x8, [x1, #16]
/home/jeferson/optee/optee_os-rpi4/lib/libutils/isoc/bget.c:707
    bb44:	f9400847 	ldr	x7, [x2, #16]
    bb48:	f9000ce1 	str	x1, [x7, #24]
/home/jeferson/optee/optee_os-rpi4/lib/libutils/isoc/bget.c:710
    bb4c:	cb0603e7 	neg	x7, x6
    bb50:	f9000447 	str	x7, [x2, #8]
/home/jeferson/optee/optee_os-rpi4/lib/libutils/isoc/bget.c:721
    bb54:	f9400402 	ldr	x2, [x0, #8]
    bb58:	b7f801a2 	tbnz	x2, #63, bb8c <bget+0x1d8>
/home/jeferson/optee/optee_os-rpi4/lib/libutils/isoc/bget.c:721 (discriminator 1)
    bb5c:	b0000023 	adrp	x3, 10000 <__func__.0+0x113>
    bb60:	9118cc63 	add	x3, x3, #0x633
    bb64:	b0000021 	adrp	x1, 10000 <__func__.0+0x113>
    bb68:	b0000020 	adrp	x0, 10000 <__func__.0+0x113>
    bb6c:	91003863 	add	x3, x3, #0xe
    bb70:	910e9021 	add	x1, x1, #0x3a4
    bb74:	91104c00 	add	x0, x0, #0x413
    bb78:	52805a22 	mov	w2, #0x2d1                 	// #721
    bb7c:	17ffff9a 	b	b9e4 <bget+0x30>
/home/jeferson/optee/optee_os-rpi4/lib/libutils/isoc/bget.c:716
    bb80:	cb0600e6 	sub	x6, x7, x6
    bb84:	a9001807 	stp	x7, x6, [x0]
/home/jeferson/optee/optee_os-rpi4/lib/libutils/isoc/bget.c:718
    bb88:	17fffff2 	b	bb50 <bget+0x19c>
/home/jeferson/optee/optee_os-rpi4/lib/libutils/isoc/bget.c:727
    bb8c:	cb0203e2 	neg	x2, x2
    bb90:	cb040042 	sub	x2, x2, x4
    bb94:	f100805f 	cmp	x2, #0x20
    bb98:	54000669 	b.ls	bc64 <bget+0x2b0>  // b.plast
/home/jeferson/optee/optee_os-rpi4/lib/libutils/isoc/bget.c:733
    bb9c:	8b040001 	add	x1, x0, x4
/home/jeferson/optee/optee_os-rpi4/lib/libutils/isoc/bget.c:734
    bba0:	f9000422 	str	x2, [x1, #8]
/home/jeferson/optee/optee_os-rpi4/lib/libutils/isoc/bget.c:735
    bba4:	f824681f 	str	xzr, [x0, x4]
/home/jeferson/optee/optee_os-rpi4/lib/libutils/isoc/bget.c:736
    bba8:	f9400404 	ldr	x4, [x0, #8]
    bbac:	8b020082 	add	x2, x4, x2
    bbb0:	f9000402 	str	x2, [x0, #8]
/home/jeferson/optee/optee_os-rpi4/lib/libutils/isoc/bget.c:738
    bbb4:	f9400c62 	ldr	x2, [x3, #24]
    bbb8:	f9400844 	ldr	x4, [x2, #16]
    bbbc:	eb03009f 	cmp	x4, x3
    bbc0:	54000140 	b.eq	bbe8 <bget+0x234>  // b.none
/home/jeferson/optee/optee_os-rpi4/lib/libutils/isoc/bget.c:738 (discriminator 1)
    bbc4:	b0000023 	adrp	x3, 10000 <__func__.0+0x113>
    bbc8:	9118cc63 	add	x3, x3, #0x633
    bbcc:	b0000021 	adrp	x1, 10000 <__func__.0+0x113>
    bbd0:	b0000020 	adrp	x0, 10000 <__func__.0+0x113>
    bbd4:	91003863 	add	x3, x3, #0xe
    bbd8:	910e9021 	add	x1, x1, #0x3a4
    bbdc:	91109800 	add	x0, x0, #0x426
    bbe0:	52805c42 	mov	w2, #0x2e2                 	// #738
    bbe4:	17ffff80 	b	b9e4 <bget+0x30>
/home/jeferson/optee/optee_os-rpi4/lib/libutils/isoc/bget.c:740
    bbe8:	f9400864 	ldr	x4, [x3, #16]
    bbec:	f9400c84 	ldr	x4, [x4, #24]
    bbf0:	eb03009f 	cmp	x4, x3
    bbf4:	54000140 	b.eq	bc1c <bget+0x268>  // b.none
/home/jeferson/optee/optee_os-rpi4/lib/libutils/isoc/bget.c:740 (discriminator 1)
    bbf8:	b0000023 	adrp	x3, 10000 <__func__.0+0x113>
    bbfc:	9118cc63 	add	x3, x3, #0x633
    bc00:	b0000021 	adrp	x1, 10000 <__func__.0+0x113>
    bc04:	b0000020 	adrp	x0, 10000 <__func__.0+0x113>
    bc08:	91003863 	add	x3, x3, #0xe
    bc0c:	910e9021 	add	x1, x1, #0x3a4
    bc10:	91118400 	add	x0, x0, #0x461
    bc14:	52805c82 	mov	w2, #0x2e4                 	// #740
    bc18:	17ffff73 	b	b9e4 <bget+0x30>
/home/jeferson/optee/optee_os-rpi4/lib/libutils/isoc/bget.c:743
    bc1c:	a9010823 	stp	x3, x2, [x1, #16]
/home/jeferson/optee/optee_os-rpi4/lib/libutils/isoc/bget.c:744
    bc20:	f9000c61 	str	x1, [x3, #24]
/home/jeferson/optee/optee_os-rpi4/lib/libutils/isoc/bget.c:745
    bc24:	f9400c22 	ldr	x2, [x1, #24]
    bc28:	f9000841 	str	x1, [x2, #16]
/home/jeferson/optee/optee_os-rpi4/lib/libutils/isoc/bget.c:747
    bc2c:	f9400422 	ldr	x2, [x1, #8]
    bc30:	8b020021 	add	x1, x1, x2
    bc34:	eb0100bf 	cmp	x5, x1
    bc38:	54000140 	b.eq	bc60 <bget+0x2ac>  // b.none
/home/jeferson/optee/optee_os-rpi4/lib/libutils/isoc/bget.c:747 (discriminator 1)
    bc3c:	b0000023 	adrp	x3, 10000 <__func__.0+0x113>
    bc40:	9118cc63 	add	x3, x3, #0x633
    bc44:	b0000021 	adrp	x1, 10000 <__func__.0+0x113>
    bc48:	b0000020 	adrp	x0, 10000 <__func__.0+0x113>
    bc4c:	91003863 	add	x3, x3, #0xe
    bc50:	910e9021 	add	x1, x1, #0x3a4
    bc54:	91127000 	add	x0, x0, #0x49c
    bc58:	52805d62 	mov	w2, #0x2eb                 	// #747
    bc5c:	17ffff62 	b	b9e4 <bget+0x30>
/home/jeferson/optee/optee_os-rpi4/lib/libutils/isoc/bget.c:748
    bc60:	f90000a2 	str	x2, [x5]
/home/jeferson/optee/optee_os-rpi4/lib/libutils/isoc/bget.c:752
    bc64:	f9400402 	ldr	x2, [x0, #8]
/home/jeferson/optee/optee_os-rpi4/lib/libutils/isoc/bget.c:755
    bc68:	91004000 	add	x0, x0, #0x10
/home/jeferson/optee/optee_os-rpi4/lib/libutils/isoc/bget.c:752
    bc6c:	f9401061 	ldr	x1, [x3, #32]
    bc70:	cb020021 	sub	x1, x1, x2
    bc74:	f9001061 	str	x1, [x3, #32]
/home/jeferson/optee/optee_os-rpi4/lib/libutils/isoc/bget.c:753
    bc78:	f9401461 	ldr	x1, [x3, #40]
    bc7c:	91000421 	add	x1, x1, #0x1
    bc80:	f9001461 	str	x1, [x3, #40]
/home/jeferson/optee/optee_os-rpi4/lib/libutils/isoc/bget.c:837
    bc84:	a8c17bfd 	ldp	x29, x30, [sp], #16
    bc88:	d65f03c0 	ret
/home/jeferson/optee/optee_os-rpi4/lib/libutils/isoc/bget.c:758
    bc8c:	f9400842 	ldr	x2, [x2, #16]
    bc90:	17ffff72 	b	ba58 <bget+0xa4>

000000000000bc94 <bgetz>:
bgetz():
/home/jeferson/optee/optee_os-rpi4/lib/libutils/isoc/bget.c:848
    bc94:	a9be7bfd 	stp	x29, x30, [sp, #-32]!
    bc98:	910003fd 	mov	x29, sp
    bc9c:	f9000bf3 	str	x19, [sp, #16]
    bca0:	aa0203f3 	mov	x19, x2
/home/jeferson/optee/optee_os-rpi4/lib/libutils/isoc/bget.c:849
    bca4:	97ffff44 	bl	b9b4 <bget>
    bca8:	aa0003e3 	mov	x3, x0
/home/jeferson/optee/optee_os-rpi4/lib/libutils/isoc/bget.c:851
    bcac:	b4000300 	cbz	x0, bd0c <bgetz+0x78>
/home/jeferson/optee/optee_os-rpi4/lib/libutils/isoc/bget.c:856
    bcb0:	f85f8000 	ldur	x0, [x0, #-8]
/home/jeferson/optee/optee_os-rpi4/lib/libutils/isoc/bget.c:857
    bcb4:	b50001e0 	cbnz	x0, bcf0 <bgetz+0x5c>
/home/jeferson/optee/optee_os-rpi4/lib/libutils/isoc/bget.c:861
    bcb8:	a97e0061 	ldp	x1, x0, [x3, #-32]
    bcbc:	d1008021 	sub	x1, x1, #0x20
/home/jeferson/optee/optee_os-rpi4/lib/libutils/isoc/bget.c:863
    bcc0:	cb000021 	sub	x1, x1, x0
/home/jeferson/optee/optee_os-rpi4/lib/libutils/isoc/bget.c:865
    bcc4:	eb13003f 	cmp	x1, x19
    bcc8:	5400018a 	b.ge	bcf8 <bgetz+0x64>  // b.tcont
/home/jeferson/optee/optee_os-rpi4/lib/libutils/isoc/bget.c:865 (discriminator 1)
    bccc:	b0000023 	adrp	x3, 10000 <__func__.0+0x113>
    bcd0:	9118cc63 	add	x3, x3, #0x633
    bcd4:	b0000021 	adrp	x1, 10000 <__func__.0+0x113>
    bcd8:	b0000020 	adrp	x0, 10000 <__func__.0+0x113>
    bcdc:	91004c63 	add	x3, x3, #0x13
    bce0:	910e9021 	add	x1, x1, #0x3a4
    bce4:	91130800 	add	x0, x0, #0x4c2
    bce8:	52806c22 	mov	w2, #0x361                 	// #865
    bcec:	97ffff16 	bl	b944 <_assert_trap>
/home/jeferson/optee/optee_os-rpi4/lib/libutils/isoc/bget.c:863
    bcf0:	928001e1 	mov	x1, #0xfffffffffffffff0    	// #-16
    bcf4:	17fffff3 	b	bcc0 <bgetz+0x2c>
memset_unchecked():
/home/jeferson/optee/optee_os-rpi4/lib/libutils/isoc/bget_malloc.c:115
    bcf8:	93407c22 	sxtw	x2, w1
    bcfc:	aa0303e0 	mov	x0, x3
    bd00:	52800001 	mov	w1, #0x0                   	// #0
    bd04:	940002df 	bl	c880 <memset>
    bd08:	aa0003e3 	mov	x3, x0
bgetz():
/home/jeferson/optee/optee_os-rpi4/lib/libutils/isoc/bget.c:869
    bd0c:	aa0303e0 	mov	x0, x3
    bd10:	f9400bf3 	ldr	x19, [sp, #16]
    bd14:	a8c27bfd 	ldp	x29, x30, [sp], #32
    bd18:	d65f03c0 	ret

000000000000bd1c <brel>:
brel():
/home/jeferson/optee/optee_os-rpi4/lib/libutils/isoc/bget.c:923
    bd1c:	a9be7bfd 	stp	x29, x30, [sp, #-32]!
    bd20:	2a0203e6 	mov	w6, w2
    bd24:	aa0003e3 	mov	x3, x0
    bd28:	910003fd 	mov	x29, sp
/home/jeferson/optee/optee_os-rpi4/lib/libutils/isoc/bget.c:930
    bd2c:	f9401822 	ldr	x2, [x1, #48]
/home/jeferson/optee/optee_os-rpi4/lib/libutils/isoc/bget.c:923
    bd30:	a90153f3 	stp	x19, x20, [sp, #16]
/home/jeferson/optee/optee_os-rpi4/lib/libutils/isoc/bget.c:930
    bd34:	91000442 	add	x2, x2, #0x1
    bd38:	f9001822 	str	x2, [x1, #48]
/home/jeferson/optee/optee_os-rpi4/lib/libutils/isoc/bget.c:932
    bd3c:	b5000140 	cbnz	x0, bd64 <brel+0x48>
/home/jeferson/optee/optee_os-rpi4/lib/libutils/isoc/bget.c:932 (discriminator 1)
    bd40:	b0000023 	adrp	x3, 10000 <__func__.0+0x113>
    bd44:	9118cc63 	add	x3, x3, #0x633
    bd48:	b0000021 	adrp	x1, 10000 <__func__.0+0x113>
    bd4c:	b0000020 	adrp	x0, 10000 <__func__.0+0x113>
    bd50:	91006463 	add	x3, x3, #0x19
    bd54:	910e9021 	add	x1, x1, #0x3a4
    bd58:	91134000 	add	x0, x0, #0x4d0
    bd5c:	52807482 	mov	w2, #0x3a4                 	// #932
/home/jeferson/optee/optee_os-rpi4/lib/libutils/isoc/bget.c:965 (discriminator 1)
    bd60:	97fffef9 	bl	b944 <_assert_trap>
/home/jeferson/optee/optee_os-rpi4/lib/libutils/isoc/bget.c:962
    bd64:	f85f8004 	ldur	x4, [x0, #-8]
    bd68:	d1004000 	sub	x0, x0, #0x10
/home/jeferson/optee/optee_os-rpi4/lib/libutils/isoc/bget.c:965
    bd6c:	b7f80144 	tbnz	x4, #63, bd94 <brel+0x78>
/home/jeferson/optee/optee_os-rpi4/lib/libutils/isoc/bget.c:965 (discriminator 1)
    bd70:	b0000023 	adrp	x3, 10000 <__func__.0+0x113>
    bd74:	9118cc63 	add	x3, x3, #0x633
    bd78:	b0000021 	adrp	x1, 10000 <__func__.0+0x113>
    bd7c:	b0000020 	adrp	x0, 10000 <__func__.0+0x113>
    bd80:	91006463 	add	x3, x3, #0x19
    bd84:	910e9021 	add	x1, x1, #0x3a4
    bd88:	91137000 	add	x0, x0, #0x4dc
    bd8c:	528078a2 	mov	w2, #0x3c5                 	// #965
    bd90:	17fffff4 	b	bd60 <brel+0x44>
/home/jeferson/optee/optee_os-rpi4/lib/libutils/isoc/bget.c:970
    bd94:	cb040002 	sub	x2, x0, x4
    bd98:	f9400042 	ldr	x2, [x2]
    bd9c:	b4000142 	cbz	x2, bdc4 <brel+0xa8>
/home/jeferson/optee/optee_os-rpi4/lib/libutils/isoc/bget.c:970 (discriminator 1)
    bda0:	b0000023 	adrp	x3, 10000 <__func__.0+0x113>
    bda4:	9118cc63 	add	x3, x3, #0x633
    bda8:	b0000021 	adrp	x1, 10000 <__func__.0+0x113>
    bdac:	b0000020 	adrp	x0, 10000 <__func__.0+0x113>
    bdb0:	91006463 	add	x3, x3, #0x19
    bdb4:	910e9021 	add	x1, x1, #0x3a4
    bdb8:	9113b000 	add	x0, x0, #0x4ec
    bdbc:	52807942 	mov	w2, #0x3ca                 	// #970
    bdc0:	17ffffe8 	b	bd60 <brel+0x44>
/home/jeferson/optee/optee_os-rpi4/lib/libutils/isoc/bget.c:973
    bdc4:	f9401025 	ldr	x5, [x1, #32]
    bdc8:	8b050085 	add	x5, x4, x5
    bdcc:	f9001025 	str	x5, [x1, #32]
/home/jeferson/optee/optee_os-rpi4/lib/libutils/isoc/bget.c:974
    bdd0:	b6f80145 	tbz	x5, #63, bdf8 <brel+0xdc>
/home/jeferson/optee/optee_os-rpi4/lib/libutils/isoc/bget.c:974 (discriminator 1)
    bdd4:	b0000023 	adrp	x3, 10000 <__func__.0+0x113>
    bdd8:	9118cc63 	add	x3, x3, #0x633
    bddc:	b0000021 	adrp	x1, 10000 <__func__.0+0x113>
    bde0:	b0000020 	adrp	x0, 10000 <__func__.0+0x113>
    bde4:	91006463 	add	x3, x3, #0x19
    bde8:	910e9021 	add	x1, x1, #0x3a4
    bdec:	91146000 	add	x0, x0, #0x518
    bdf0:	528079c2 	mov	w2, #0x3ce                 	// #974
    bdf4:	17ffffdb 	b	bd60 <brel+0x44>
/home/jeferson/optee/optee_os-rpi4/lib/libutils/isoc/bget.c:979
    bdf8:	f85f0065 	ldur	x5, [x3, #-16]
    bdfc:	cb0403e2 	neg	x2, x4
    be00:	b4000425 	cbz	x5, be84 <brel+0x168>
/home/jeferson/optee/optee_os-rpi4/lib/libutils/isoc/bget.c:994
    be04:	cb050013 	sub	x19, x0, x5
    be08:	f9400661 	ldr	x1, [x19, #8]
    be0c:	eb0100bf 	cmp	x5, x1
    be10:	54000140 	b.eq	be38 <brel+0x11c>  // b.none
/home/jeferson/optee/optee_os-rpi4/lib/libutils/isoc/bget.c:994 (discriminator 1)
    be14:	b0000023 	adrp	x3, 10000 <__func__.0+0x113>
    be18:	9118cc63 	add	x3, x3, #0x633
    be1c:	b0000021 	adrp	x1, 10000 <__func__.0+0x113>
    be20:	b0000020 	adrp	x0, 10000 <__func__.0+0x113>
    be24:	91006463 	add	x3, x3, #0x19
    be28:	910e9021 	add	x1, x1, #0x3a4
    be2c:	9114bc00 	add	x0, x0, #0x52f
    be30:	52807c42 	mov	w2, #0x3e2                 	// #994
    be34:	17ffffcb 	b	bd60 <brel+0x44>
/home/jeferson/optee/optee_os-rpi4/lib/libutils/isoc/bget.c:996
    be38:	cb0400a5 	sub	x5, x5, x4
    be3c:	f9000665 	str	x5, [x19, #8]
/home/jeferson/optee/optee_os-rpi4/lib/libutils/isoc/bget.c:1019
    be40:	f9400661 	ldr	x1, [x19, #8]
    be44:	8b010274 	add	x20, x19, x1
/home/jeferson/optee/optee_os-rpi4/lib/libutils/isoc/bget.c:1020
    be48:	f9400683 	ldr	x3, [x20, #8]
    be4c:	f100007f 	cmp	x3, #0x0
    be50:	54000a2d 	b.le	bf94 <brel+0x278>
/home/jeferson/optee/optee_os-rpi4/lib/libutils/isoc/bget.c:1025
    be54:	f8636a84 	ldr	x4, [x20, x3]
    be58:	eb04007f 	cmp	x3, x4
    be5c:	540005c0 	b.eq	bf14 <brel+0x1f8>  // b.none
/home/jeferson/optee/optee_os-rpi4/lib/libutils/isoc/bget.c:1025 (discriminator 1)
    be60:	b0000023 	adrp	x3, 10000 <__func__.0+0x113>
    be64:	9118cc63 	add	x3, x3, #0x633
    be68:	b0000021 	adrp	x1, 10000 <__func__.0+0x113>
    be6c:	b0000020 	adrp	x0, 10000 <__func__.0+0x113>
    be70:	91006463 	add	x3, x3, #0x19
    be74:	910e9021 	add	x1, x1, #0x3a4
    be78:	9115a000 	add	x0, x0, #0x568
    be7c:	52808022 	mov	w2, #0x401                 	// #1025
    be80:	17ffffb8 	b	bd60 <brel+0x44>
/home/jeferson/optee/optee_os-rpi4/lib/libutils/isoc/bget.c:1002
    be84:	f9400c27 	ldr	x7, [x1, #24]
    be88:	f94008e5 	ldr	x5, [x7, #16]
    be8c:	eb0100bf 	cmp	x5, x1
    be90:	54000140 	b.eq	beb8 <brel+0x19c>  // b.none
/home/jeferson/optee/optee_os-rpi4/lib/libutils/isoc/bget.c:1002 (discriminator 1)
    be94:	b0000023 	adrp	x3, 10000 <__func__.0+0x113>
    be98:	9118cc63 	add	x3, x3, #0x633
    be9c:	b0000021 	adrp	x1, 10000 <__func__.0+0x113>
    bea0:	b0000020 	adrp	x0, 10000 <__func__.0+0x113>
    bea4:	91006463 	add	x3, x3, #0x19
    bea8:	910e9021 	add	x1, x1, #0x3a4
    beac:	91109800 	add	x0, x0, #0x426
    beb0:	52807d42 	mov	w2, #0x3ea                 	// #1002
    beb4:	17ffffab 	b	bd60 <brel+0x44>
/home/jeferson/optee/optee_os-rpi4/lib/libutils/isoc/bget.c:1003
    beb8:	f94008a1 	ldr	x1, [x5, #16]
    bebc:	f9400c21 	ldr	x1, [x1, #24]
    bec0:	eb0100bf 	cmp	x5, x1
    bec4:	54000140 	b.eq	beec <brel+0x1d0>  // b.none
/home/jeferson/optee/optee_os-rpi4/lib/libutils/isoc/bget.c:1003 (discriminator 1)
    bec8:	b0000023 	adrp	x3, 10000 <__func__.0+0x113>
    becc:	9118cc63 	add	x3, x3, #0x633
    bed0:	b0000021 	adrp	x1, 10000 <__func__.0+0x113>
    bed4:	b0000020 	adrp	x0, 10000 <__func__.0+0x113>
    bed8:	91006463 	add	x3, x3, #0x19
    bedc:	910e9021 	add	x1, x1, #0x3a4
    bee0:	91118400 	add	x0, x0, #0x461
    bee4:	52807d62 	mov	w2, #0x3eb                 	// #1003
    bee8:	17ffff9e 	b	bd60 <brel+0x44>
/home/jeferson/optee/optee_os-rpi4/lib/libutils/isoc/bget.c:1005
    beec:	a9011c05 	stp	x5, x7, [x0, #16]
/home/jeferson/optee/optee_os-rpi4/lib/libutils/isoc/bget.c:928
    bef0:	aa0003f3 	mov	x19, x0
/home/jeferson/optee/optee_os-rpi4/lib/libutils/isoc/bget.c:1006
    bef4:	f9000ca0 	str	x0, [x5, #24]
/home/jeferson/optee/optee_os-rpi4/lib/libutils/isoc/bget.c:1007
    bef8:	f9400c01 	ldr	x1, [x0, #24]
    befc:	f9000820 	str	x0, [x1, #16]
/home/jeferson/optee/optee_os-rpi4/lib/libutils/isoc/bget.c:1011
    bf00:	928003e1 	mov	x1, #0xffffffffffffffe0    	// #-32
/home/jeferson/optee/optee_os-rpi4/lib/libutils/isoc/bget.c:1008
    bf04:	f9000402 	str	x2, [x0, #8]
/home/jeferson/optee/optee_os-rpi4/lib/libutils/isoc/bget.c:1011
    bf08:	cb040022 	sub	x2, x1, x4
/home/jeferson/optee/optee_os-rpi4/lib/libutils/isoc/bget.c:1010
    bf0c:	91004060 	add	x0, x3, #0x10
    bf10:	17ffffcc 	b	be40 <brel+0x124>
/home/jeferson/optee/optee_os-rpi4/lib/libutils/isoc/bget.c:1026
    bf14:	f9400e85 	ldr	x5, [x20, #24]
    bf18:	f94008a7 	ldr	x7, [x5, #16]
    bf1c:	eb1400ff 	cmp	x7, x20
    bf20:	54000140 	b.eq	bf48 <brel+0x22c>  // b.none
/home/jeferson/optee/optee_os-rpi4/lib/libutils/isoc/bget.c:1026 (discriminator 1)
    bf24:	b0000023 	adrp	x3, 10000 <__func__.0+0x113>
    bf28:	9118cc63 	add	x3, x3, #0x633
    bf2c:	b0000021 	adrp	x1, 10000 <__func__.0+0x113>
    bf30:	b0000020 	adrp	x0, 10000 <__func__.0+0x113>
    bf34:	91006463 	add	x3, x3, #0x19
    bf38:	910e9021 	add	x1, x1, #0x3a4
    bf3c:	91168400 	add	x0, x0, #0x5a1
    bf40:	52808042 	mov	w2, #0x402                 	// #1026
    bf44:	17ffff87 	b	bd60 <brel+0x44>
/home/jeferson/optee/optee_os-rpi4/lib/libutils/isoc/bget.c:1027
    bf48:	f94008e4 	ldr	x4, [x7, #16]
    bf4c:	f9400c88 	ldr	x8, [x4, #24]
    bf50:	eb07011f 	cmp	x8, x7
    bf54:	54000140 	b.eq	bf7c <brel+0x260>  // b.none
/home/jeferson/optee/optee_os-rpi4/lib/libutils/isoc/bget.c:1027 (discriminator 1)
    bf58:	b0000023 	adrp	x3, 10000 <__func__.0+0x113>
    bf5c:	9118cc63 	add	x3, x3, #0x633
    bf60:	b0000021 	adrp	x1, 10000 <__func__.0+0x113>
    bf64:	b0000020 	adrp	x0, 10000 <__func__.0+0x113>
    bf68:	91006463 	add	x3, x3, #0x19
    bf6c:	910e9021 	add	x1, x1, #0x3a4
    bf70:	9116f800 	add	x0, x0, #0x5be
    bf74:	52808062 	mov	w2, #0x403                 	// #1027
    bf78:	17ffff7a 	b	bd60 <brel+0x44>
/home/jeferson/optee/optee_os-rpi4/lib/libutils/isoc/bget.c:1030
    bf7c:	8b030021 	add	x1, x1, x3
/home/jeferson/optee/optee_os-rpi4/lib/libutils/isoc/bget.c:1028
    bf80:	f90008a4 	str	x4, [x5, #16]
/home/jeferson/optee/optee_os-rpi4/lib/libutils/isoc/bget.c:1039
    bf84:	8b010274 	add	x20, x19, x1
/home/jeferson/optee/optee_os-rpi4/lib/libutils/isoc/bget.c:1041
    bf88:	91008042 	add	x2, x2, #0x20
/home/jeferson/optee/optee_os-rpi4/lib/libutils/isoc/bget.c:1029
    bf8c:	f9000c85 	str	x5, [x4, #24]
/home/jeferson/optee/optee_os-rpi4/lib/libutils/isoc/bget.c:1030
    bf90:	f9000661 	str	x1, [x19, #8]
/home/jeferson/optee/optee_os-rpi4/lib/libutils/isoc/bget.c:1043
    bf94:	34000066 	cbz	w6, bfa0 <brel+0x284>
memset_unchecked():
/home/jeferson/optee/optee_os-rpi4/lib/libutils/isoc/bget_malloc.c:115
    bf98:	52800aa1 	mov	w1, #0x55                  	// #85
    bf9c:	94000239 	bl	c880 <memset>
brel():
/home/jeferson/optee/optee_os-rpi4/lib/libutils/isoc/bget.c:1046
    bfa0:	f9400680 	ldr	x0, [x20, #8]
    bfa4:	b7f80140 	tbnz	x0, #63, bfcc <brel+0x2b0>
/home/jeferson/optee/optee_os-rpi4/lib/libutils/isoc/bget.c:1046 (discriminator 1)
    bfa8:	b0000023 	adrp	x3, 10000 <__func__.0+0x113>
    bfac:	9118cc63 	add	x3, x3, #0x633
    bfb0:	b0000021 	adrp	x1, 10000 <__func__.0+0x113>
    bfb4:	b0000020 	adrp	x0, 10000 <__func__.0+0x113>
    bfb8:	91006463 	add	x3, x3, #0x19
    bfbc:	910e9021 	add	x1, x1, #0x3a4
    bfc0:	91176c00 	add	x0, x0, #0x5db
    bfc4:	528082c2 	mov	w2, #0x416                 	// #1046
    bfc8:	17ffff66 	b	bd60 <brel+0x44>
/home/jeferson/optee/optee_os-rpi4/lib/libutils/isoc/bget.c:1051
    bfcc:	f9400660 	ldr	x0, [x19, #8]
    bfd0:	f9000280 	str	x0, [x20]
/home/jeferson/optee/optee_os-rpi4/lib/libutils/isoc/bget.c:1078
    bfd4:	a94153f3 	ldp	x19, x20, [sp, #16]
    bfd8:	a8c27bfd 	ldp	x29, x30, [sp], #32
    bfdc:	d65f03c0 	ret

000000000000bfe0 <bgetr>:
bgetr():
/home/jeferson/optee/optee_os-rpi4/lib/libutils/isoc/bget.c:882
    bfe0:	a9bc7bfd 	stp	x29, x30, [sp, #-64]!
    bfe4:	910003fd 	mov	x29, sp
    bfe8:	a90153f3 	stp	x19, x20, [sp, #16]
    bfec:	aa0303f4 	mov	x20, x3
/home/jeferson/optee/optee_os-rpi4/lib/libutils/isoc/bget.c:887
    bff0:	aa0403e3 	mov	x3, x4
/home/jeferson/optee/optee_os-rpi4/lib/libutils/isoc/bget.c:882
    bff4:	a9025bf5 	stp	x21, x22, [sp, #32]
    bff8:	aa0003f5 	mov	x21, x0
    bffc:	aa0103e0 	mov	x0, x1
    c000:	aa0203e1 	mov	x1, x2
/home/jeferson/optee/optee_os-rpi4/lib/libutils/isoc/bget.c:887
    c004:	aa1403e2 	mov	x2, x20
/home/jeferson/optee/optee_os-rpi4/lib/libutils/isoc/bget.c:882
    c008:	f9001bf7 	str	x23, [sp, #48]
    c00c:	aa0403f7 	mov	x23, x4
/home/jeferson/optee/optee_os-rpi4/lib/libutils/isoc/bget.c:887
    c010:	97fffe69 	bl	b9b4 <bget>
    c014:	aa0003f6 	mov	x22, x0
    c018:	b4000400 	cbz	x0, c098 <bgetr+0xb8>
/home/jeferson/optee/optee_os-rpi4/lib/libutils/isoc/bget.c:890
    c01c:	b40003f5 	cbz	x21, c098 <bgetr+0xb8>
/home/jeferson/optee/optee_os-rpi4/lib/libutils/isoc/bget.c:904
    c020:	f85f82a1 	ldur	x1, [x21, #-8]
    c024:	928001f3 	mov	x19, #0xfffffffffffffff0    	// #-16
    c028:	cb010273 	sub	x19, x19, x1
/home/jeferson/optee/optee_os-rpi4/lib/libutils/isoc/bget.c:905
    c02c:	f100027f 	cmp	x19, #0x0
    c030:	5400014c 	b.gt	c058 <bgetr+0x78>
/home/jeferson/optee/optee_os-rpi4/lib/libutils/isoc/bget.c:905 (discriminator 1)
    c034:	90000023 	adrp	x3, 10000 <__func__.0+0x113>
    c038:	9118cc63 	add	x3, x3, #0x633
    c03c:	90000021 	adrp	x1, 10000 <__func__.0+0x113>
    c040:	90000020 	adrp	x0, 10000 <__func__.0+0x113>
    c044:	91007863 	add	x3, x3, #0x1e
    c048:	910e9021 	add	x1, x1, #0x3a4
    c04c:	910e6800 	add	x0, x0, #0x39a
    c050:	52807122 	mov	w2, #0x389                 	// #905
    c054:	97fffe3c 	bl	b944 <_assert_trap>
/home/jeferson/optee/optee_os-rpi4/lib/libutils/isoc/bget.c:906
    c058:	eb13029f 	cmp	x20, x19
    c05c:	93407e81 	sxtw	x1, w20
    c060:	93407e62 	sxtw	x2, w19
memcpy_unchecked():
/home/jeferson/optee/optee_os-rpi4/lib/libutils/isoc/bget_malloc.c:121
    c064:	9a81a042 	csel	x2, x2, x1, ge  // ge = tcont
    c068:	aa1503e1 	mov	x1, x21
    c06c:	97ffcfed 	bl	20 <memcpy>
bgetr():
/home/jeferson/optee/optee_os-rpi4/lib/libutils/isoc/bget.c:910
    c070:	eb13029f 	cmp	x20, x19
    c074:	540000ad 	b.le	c088 <bgetr+0xa8>
memset_unchecked():
/home/jeferson/optee/optee_os-rpi4/lib/libutils/isoc/bget_malloc.c:115
    c078:	cb130282 	sub	x2, x20, x19
    c07c:	8b1302c0 	add	x0, x22, x19
    c080:	52800001 	mov	w1, #0x0                   	// #0
    c084:	940001ff 	bl	c880 <memset>
bgetr():
/home/jeferson/optee/optee_os-rpi4/lib/libutils/isoc/bget.c:913
    c088:	aa1703e1 	mov	x1, x23
    c08c:	aa1503e0 	mov	x0, x21
    c090:	52800002 	mov	w2, #0x0                   	// #0
    c094:	97ffff22 	bl	bd1c <brel>
/home/jeferson/optee/optee_os-rpi4/lib/libutils/isoc/bget.c:915
    c098:	aa1603e0 	mov	x0, x22
    c09c:	a94153f3 	ldp	x19, x20, [sp, #16]
    c0a0:	a9425bf5 	ldp	x21, x22, [sp, #32]
    c0a4:	f9401bf7 	ldr	x23, [sp, #48]
    c0a8:	a8c47bfd 	ldp	x29, x30, [sp], #64
    c0ac:	d65f03c0 	ret

000000000000c0b0 <bpool>:
bpool():
/home/jeferson/optee/optee_os-rpi4/lib/libutils/isoc/bget.c:1104
    c0b0:	a9bf7bfd 	stp	x29, x30, [sp, #-16]!
/home/jeferson/optee/optee_os-rpi4/lib/libutils/isoc/bget.c:1109
    c0b4:	927cec21 	and	x1, x1, #0xfffffffffffffff0
/home/jeferson/optee/optee_os-rpi4/lib/libutils/isoc/bget.c:1128
    c0b8:	f1004021 	subs	x1, x1, #0x10
/home/jeferson/optee/optee_os-rpi4/lib/libutils/isoc/bget.c:1104
    c0bc:	910003fd 	mov	x29, sp
/home/jeferson/optee/optee_os-rpi4/lib/libutils/isoc/bget.c:1128
    c0c0:	54000145 	b.pl	c0e8 <bpool+0x38>  // b.nfrst
/home/jeferson/optee/optee_os-rpi4/lib/libutils/isoc/bget.c:1128 (discriminator 1)
    c0c4:	90000023 	adrp	x3, 10000 <__func__.0+0x113>
    c0c8:	9118cc63 	add	x3, x3, #0x633
    c0cc:	90000021 	adrp	x1, 10000 <__func__.0+0x113>
    c0d0:	90000020 	adrp	x0, 10000 <__func__.0+0x113>
    c0d4:	91009063 	add	x3, x3, #0x24
    c0d8:	910e9021 	add	x1, x1, #0x3a4
    c0dc:	9117b000 	add	x0, x0, #0x5ec
    c0e0:	52808d02 	mov	w2, #0x468                 	// #1128
/home/jeferson/optee/optee_os-rpi4/lib/libutils/isoc/bget.c:1138 (discriminator 1)
    c0e4:	97fffe18 	bl	b944 <_assert_trap>
/home/jeferson/optee/optee_os-rpi4/lib/libutils/isoc/bget.c:1138
    c0e8:	f9400c44 	ldr	x4, [x2, #24]
    c0ec:	f9400883 	ldr	x3, [x4, #16]
/home/jeferson/optee/optee_os-rpi4/lib/libutils/isoc/bget.c:1134
    c0f0:	f900001f 	str	xzr, [x0]
/home/jeferson/optee/optee_os-rpi4/lib/libutils/isoc/bget.c:1138
    c0f4:	eb02007f 	cmp	x3, x2
    c0f8:	54000140 	b.eq	c120 <bpool+0x70>  // b.none
/home/jeferson/optee/optee_os-rpi4/lib/libutils/isoc/bget.c:1138 (discriminator 1)
    c0fc:	90000023 	adrp	x3, 10000 <__func__.0+0x113>
    c100:	9118cc63 	add	x3, x3, #0x633
    c104:	90000021 	adrp	x1, 10000 <__func__.0+0x113>
    c108:	90000020 	adrp	x0, 10000 <__func__.0+0x113>
    c10c:	91009063 	add	x3, x3, #0x24
    c110:	910e9021 	add	x1, x1, #0x3a4
    c114:	91109800 	add	x0, x0, #0x426
    c118:	52808e42 	mov	w2, #0x472                 	// #1138
    c11c:	17fffff2 	b	c0e4 <bpool+0x34>
/home/jeferson/optee/optee_os-rpi4/lib/libutils/isoc/bget.c:1139
    c120:	f9400862 	ldr	x2, [x3, #16]
    c124:	f9400c42 	ldr	x2, [x2, #24]
    c128:	eb02007f 	cmp	x3, x2
    c12c:	54000140 	b.eq	c154 <bpool+0xa4>  // b.none
/home/jeferson/optee/optee_os-rpi4/lib/libutils/isoc/bget.c:1139 (discriminator 1)
    c130:	90000023 	adrp	x3, 10000 <__func__.0+0x113>
    c134:	9118cc63 	add	x3, x3, #0x633
    c138:	90000021 	adrp	x1, 10000 <__func__.0+0x113>
    c13c:	90000020 	adrp	x0, 10000 <__func__.0+0x113>
    c140:	91009063 	add	x3, x3, #0x24
    c144:	910e9021 	add	x1, x1, #0x3a4
    c148:	91118400 	add	x0, x0, #0x461
    c14c:	52808e62 	mov	w2, #0x473                 	// #1139
    c150:	17ffffe5 	b	c0e4 <bpool+0x34>
/home/jeferson/optee/optee_os-rpi4/lib/libutils/isoc/bget.c:1141
    c154:	a9011003 	stp	x3, x4, [x0, #16]
/home/jeferson/optee/optee_os-rpi4/lib/libutils/isoc/bget.c:1142
    c158:	f9000c60 	str	x0, [x3, #24]
/home/jeferson/optee/optee_os-rpi4/lib/libutils/isoc/bget.c:1143
    c15c:	f9400c02 	ldr	x2, [x0, #24]
    c160:	f9000840 	str	x0, [x2, #16]
/home/jeferson/optee/optee_os-rpi4/lib/libutils/isoc/bget.c:1159
    c164:	8b010002 	add	x2, x0, x1
/home/jeferson/optee/optee_os-rpi4/lib/libutils/isoc/bget.c:1154
    c168:	f9000401 	str	x1, [x0, #8]
/home/jeferson/optee/optee_os-rpi4/lib/libutils/isoc/bget.c:1160
    c16c:	f8216801 	str	x1, [x0, x1]
/home/jeferson/optee/optee_os-rpi4/lib/libutils/isoc/bget.c:1163
    c170:	d2f00000 	mov	x0, #0x8000000000000000    	// #-9223372036854775808
    c174:	f9000440 	str	x0, [x2, #8]
/home/jeferson/optee/optee_os-rpi4/lib/libutils/isoc/bget.c:1164
    c178:	a8c17bfd 	ldp	x29, x30, [sp], #16
    c17c:	d65f03c0 	ret

000000000000c180 <bstats>:
bstats():
/home/jeferson/optee/optee_os-rpi4/lib/libutils/isoc/bget.c:1177
    c180:	f94014a7 	ldr	x7, [x5, #40]
/home/jeferson/optee/optee_os-rpi4/lib/libutils/isoc/bget.c:1175
    c184:	f94008a6 	ldr	x6, [x5, #16]
/home/jeferson/optee/optee_os-rpi4/lib/libutils/isoc/bget.c:1177
    c188:	f9000067 	str	x7, [x3]
/home/jeferson/optee/optee_os-rpi4/lib/libutils/isoc/bget.c:1178
    c18c:	f94018a3 	ldr	x3, [x5, #48]
    c190:	f9000083 	str	x3, [x4]
/home/jeferson/optee/optee_os-rpi4/lib/libutils/isoc/bget.c:1179
    c194:	f94010a3 	ldr	x3, [x5, #32]
    c198:	f9000003 	str	x3, [x0]
/home/jeferson/optee/optee_os-rpi4/lib/libutils/isoc/bget.c:1180
    c19c:	f900003f 	str	xzr, [x1]
/home/jeferson/optee/optee_os-rpi4/lib/libutils/isoc/bget.c:1181
    c1a0:	92800000 	mov	x0, #0xffffffffffffffff    	// #-1
    c1a4:	f9000040 	str	x0, [x2]
/home/jeferson/optee/optee_os-rpi4/lib/libutils/isoc/bget.c:1182
    c1a8:	eb0600bf 	cmp	x5, x6
    c1ac:	54000041 	b.ne	c1b4 <bstats+0x34>  // b.any
    c1b0:	d65f03c0 	ret
/home/jeferson/optee/optee_os-rpi4/lib/libutils/isoc/bget.c:1183
    c1b4:	f94004c3 	ldr	x3, [x6, #8]
    c1b8:	f100007f 	cmp	x3, #0x0
    c1bc:	5400018c 	b.gt	c1ec <bstats+0x6c>
/home/jeferson/optee/optee_os-rpi4/lib/libutils/isoc/bget.c:1174 (discriminator 1)
    c1c0:	a9bf7bfd 	stp	x29, x30, [sp, #-16]!
/home/jeferson/optee/optee_os-rpi4/lib/libutils/isoc/bget.c:1183 (discriminator 1)
    c1c4:	90000023 	adrp	x3, 10000 <__func__.0+0x113>
    c1c8:	9118cc63 	add	x3, x3, #0x633
/home/jeferson/optee/optee_os-rpi4/lib/libutils/isoc/bget.c:1174 (discriminator 1)
    c1cc:	910003fd 	mov	x29, sp
/home/jeferson/optee/optee_os-rpi4/lib/libutils/isoc/bget.c:1183 (discriminator 1)
    c1d0:	90000021 	adrp	x1, 10000 <__func__.0+0x113>
    c1d4:	90000020 	adrp	x0, 10000 <__func__.0+0x113>
    c1d8:	9100a863 	add	x3, x3, #0x2a
    c1dc:	910e9021 	add	x1, x1, #0x3a4
    c1e0:	91188400 	add	x0, x0, #0x621
    c1e4:	528093e2 	mov	w2, #0x49f                 	// #1183
    c1e8:	97fffdd7 	bl	b944 <_assert_trap>
/home/jeferson/optee/optee_os-rpi4/lib/libutils/isoc/bget.c:1184
    c1ec:	f9400020 	ldr	x0, [x1]
    c1f0:	8b030000 	add	x0, x0, x3
    c1f4:	f9000020 	str	x0, [x1]
/home/jeferson/optee/optee_os-rpi4/lib/libutils/isoc/bget.c:1185
    c1f8:	f9400043 	ldr	x3, [x2]
    c1fc:	f94004c0 	ldr	x0, [x6, #8]
    c200:	eb03001f 	cmp	x0, x3
    c204:	5400004d 	b.le	c20c <bstats+0x8c>
/home/jeferson/optee/optee_os-rpi4/lib/libutils/isoc/bget.c:1186
    c208:	f9000040 	str	x0, [x2]
/home/jeferson/optee/optee_os-rpi4/lib/libutils/isoc/bget.c:1188
    c20c:	f94008c6 	ldr	x6, [x6, #16]
    c210:	17ffffe6 	b	c1a8 <bstats+0x28>

000000000000c214 <malloc_reset_stats>:
gen_malloc_reset_stats():
/home/jeferson/optee/optee_os-rpi4/lib/libutils/isoc/bget_malloc.c:298
    c214:	b0000020 	adrp	x0, 11000 <_DYNAMIC>
    c218:	91156000 	add	x0, x0, #0x558
    c21c:	b9006c1f 	str	wzr, [x0, #108]
/home/jeferson/optee/optee_os-rpi4/lib/libutils/isoc/bget_malloc.c:299
    c220:	b900741f 	str	wzr, [x0, #116]
/home/jeferson/optee/optee_os-rpi4/lib/libutils/isoc/bget_malloc.c:300
    c224:	f9003c1f 	str	xzr, [x0, #120]
malloc_reset_stats():
/home/jeferson/optee/optee_os-rpi4/lib/libutils/isoc/bget_malloc.c:308
    c228:	d65f03c0 	ret

000000000000c22c <raw_memalign>:
raw_memalign():
/home/jeferson/optee/optee_os-rpi4/lib/libutils/isoc/bget_malloc.c:426
    c22c:	b40003e2 	cbz	x2, c2a8 <raw_memalign+0x7c>
/home/jeferson/optee/optee_os-rpi4/lib/libutils/isoc/bget_malloc.c:422 (discriminator 1)
    c230:	a9be7bfd 	stp	x29, x30, [sp, #-32]!
    c234:	aa0003e5 	mov	x5, x0
    c238:	910003fd 	mov	x29, sp
    c23c:	a90153f3 	stp	x19, x20, [sp, #16]
    c240:	aa0303f3 	mov	x19, x3
/home/jeferson/optee/optee_os-rpi4/lib/libutils/isoc/bget_malloc.c:426 (discriminator 1)
    c244:	cb0203e3 	neg	x3, x2
    c248:	8a020060 	and	x0, x3, x2
    c24c:	ea23005f 	bics	xzr, x2, x3
    c250:	54000241 	b.ne	c298 <raw_memalign+0x6c>  // b.any
    c254:	aa0403f4 	mov	x20, x4
/home/jeferson/optee/optee_os-rpi4/lib/libutils/isoc/bget_malloc.c:432
    c258:	ab010262 	adds	x2, x19, x1
    c25c:	540001a4 	b.mi	c290 <raw_memalign+0x64>  // b.first
    c260:	eb01005f 	cmp	x2, x1
    c264:	54000163 	b.cc	c290 <raw_memalign+0x64>  // b.lo, b.ul, b.last
/home/jeferson/optee/optee_os-rpi4/lib/libutils/isoc/bget_malloc.c:437
    c268:	f100005f 	cmp	x2, #0x0
/home/jeferson/optee/optee_os-rpi4/lib/libutils/isoc/bget_malloc.c:439
    c26c:	aa0403e3 	mov	x3, x4
    c270:	9a9f1442 	csinc	x2, x2, xzr, ne  // ne = any
    c274:	aa0503e1 	mov	x1, x5
    c278:	97fffdcf 	bl	b9b4 <bget>
/home/jeferson/optee/optee_os-rpi4/lib/libutils/isoc/bget_malloc.c:441
    c27c:	aa1403e2 	mov	x2, x20
    c280:	aa1303e1 	mov	x1, x19
/home/jeferson/optee/optee_os-rpi4/lib/libutils/isoc/bget_malloc.c:442
    c284:	a94153f3 	ldp	x19, x20, [sp, #16]
    c288:	a8c27bfd 	ldp	x29, x30, [sp], #32
/home/jeferson/optee/optee_os-rpi4/lib/libutils/isoc/bget_malloc.c:441
    c28c:	17fffdbc 	b	b97c <raw_malloc_return_hook.constprop.0>
/home/jeferson/optee/optee_os-rpi4/lib/libutils/isoc/bget_malloc.c:423
    c290:	d2800000 	mov	x0, #0x0                   	// #0
    c294:	17fffffa 	b	c27c <raw_memalign+0x50>
/home/jeferson/optee/optee_os-rpi4/lib/libutils/isoc/bget_malloc.c:442
    c298:	d2800000 	mov	x0, #0x0                   	// #0
    c29c:	a94153f3 	ldp	x19, x20, [sp, #16]
    c2a0:	a8c27bfd 	ldp	x29, x30, [sp], #32
    c2a4:	d65f03c0 	ret
    c2a8:	d2800000 	mov	x0, #0x0                   	// #0
    c2ac:	d65f03c0 	ret

000000000000c2b0 <raw_malloc>:
raw_malloc():
/home/jeferson/optee/optee_os-rpi4/lib/libutils/isoc/bget_malloc.c:451
    c2b0:	aa0303e4 	mov	x4, x3
    c2b4:	aa0203e3 	mov	x3, x2
    c2b8:	d2800202 	mov	x2, #0x10                  	// #16
    c2bc:	17ffffdc 	b	c22c <raw_memalign>

000000000000c2c0 <raw_free>:
raw_free():
/home/jeferson/optee/optee_os-rpi4/lib/libutils/isoc/bget_malloc.c:455
    c2c0:	12001c42 	and	w2, w2, #0xff
/home/jeferson/optee/optee_os-rpi4/lib/libutils/isoc/bget_malloc.c:458
    c2c4:	b4000040 	cbz	x0, c2cc <raw_free+0xc>
/home/jeferson/optee/optee_os-rpi4/lib/libutils/isoc/bget_malloc.c:459
    c2c8:	17fffe95 	b	bd1c <brel>
/home/jeferson/optee/optee_os-rpi4/lib/libutils/isoc/bget_malloc.c:460
    c2cc:	d65f03c0 	ret

000000000000c2d0 <raw_calloc>:
raw_calloc():
/home/jeferson/optee/optee_os-rpi4/lib/libutils/isoc/bget_malloc.c:464
    c2d0:	a9be7bfd 	stp	x29, x30, [sp, #-32]!
    c2d4:	910003fd 	mov	x29, sp
    c2d8:	a90153f3 	stp	x19, x20, [sp, #16]
/home/jeferson/optee/optee_os-rpi4/lib/libutils/isoc/bget_malloc.c:471
    c2dc:	9b037c54 	mul	x20, x2, x3
    c2e0:	9bc37c42 	umulh	x2, x2, x3
/home/jeferson/optee/optee_os-rpi4/lib/libutils/isoc/bget_malloc.c:464
    c2e4:	aa0403f3 	mov	x19, x4
/home/jeferson/optee/optee_os-rpi4/lib/libutils/isoc/bget_malloc.c:471
    c2e8:	f100005f 	cmp	x2, #0x0
    c2ec:	9a9f07e2 	cset	x2, ne  // ne = any
    c2f0:	b7f80254 	tbnz	x20, #63, c338 <raw_calloc+0x68>
    c2f4:	b5000222 	cbnz	x2, c338 <raw_calloc+0x68>
/home/jeferson/optee/optee_os-rpi4/lib/libutils/isoc/bget_malloc.c:473
    c2f8:	8b010282 	add	x2, x20, x1
    c2fc:	d2f00003 	mov	x3, #0x8000000000000000    	// #-9223372036854775808
    c300:	8b030043 	add	x3, x2, x3
    c304:	eb01007f 	cmp	x3, x1
    c308:	54000183 	b.cc	c338 <raw_calloc+0x68>  // b.lo, b.ul, b.last
/home/jeferson/optee/optee_os-rpi4/lib/libutils/isoc/bget_malloc.c:478
    c30c:	f100005f 	cmp	x2, #0x0
/home/jeferson/optee/optee_os-rpi4/lib/libutils/isoc/bget_malloc.c:480
    c310:	aa0003e1 	mov	x1, x0
    c314:	aa0403e3 	mov	x3, x4
    c318:	9a9f1442 	csinc	x2, x2, xzr, ne  // ne = any
    c31c:	d2800000 	mov	x0, #0x0                   	// #0
    c320:	97fffe5d 	bl	bc94 <bgetz>
/home/jeferson/optee/optee_os-rpi4/lib/libutils/isoc/bget_malloc.c:482
    c324:	aa1303e2 	mov	x2, x19
    c328:	aa1403e1 	mov	x1, x20
/home/jeferson/optee/optee_os-rpi4/lib/libutils/isoc/bget_malloc.c:483
    c32c:	a94153f3 	ldp	x19, x20, [sp, #16]
    c330:	a8c27bfd 	ldp	x29, x30, [sp], #32
/home/jeferson/optee/optee_os-rpi4/lib/libutils/isoc/bget_malloc.c:482
    c334:	17fffd92 	b	b97c <raw_malloc_return_hook.constprop.0>
/home/jeferson/optee/optee_os-rpi4/lib/libutils/isoc/bget_malloc.c:465
    c338:	d2800000 	mov	x0, #0x0                   	// #0
    c33c:	17fffffa 	b	c324 <raw_calloc+0x54>

000000000000c340 <raw_realloc>:
raw_realloc():
/home/jeferson/optee/optee_os-rpi4/lib/libutils/isoc/bget_malloc.c:487
    c340:	a9bc7bfd 	stp	x29, x30, [sp, #-64]!
    c344:	910003fd 	mov	x29, sp
    c348:	a90153f3 	stp	x19, x20, [sp, #16]
/home/jeferson/optee/optee_os-rpi4/lib/libutils/isoc/bget_malloc.c:492
    c34c:	ab010073 	adds	x19, x3, x1
/home/jeferson/optee/optee_os-rpi4/lib/libutils/isoc/bget_malloc.c:487
    c350:	a9025bf5 	stp	x21, x22, [sp, #32]
    c354:	a90363f7 	stp	x23, x24, [sp, #48]
    c358:	aa0303f7 	mov	x23, x3
    c35c:	aa0403f8 	mov	x24, x4
/home/jeferson/optee/optee_os-rpi4/lib/libutils/isoc/bget_malloc.c:492
    c360:	54000124 	b.mi	c384 <raw_realloc+0x44>  // b.first
    c364:	eb01027f 	cmp	x19, x1
    c368:	540000e3 	b.cc	c384 <raw_realloc+0x44>  // b.lo, b.ul, b.last
/home/jeferson/optee/optee_os-rpi4/lib/libutils/isoc/bget_malloc.c:494
    c36c:	8b020273 	add	x19, x19, x2
    c370:	aa0003f5 	mov	x21, x0
    c374:	d2f00000 	mov	x0, #0x8000000000000000    	// #-9223372036854775808
    c378:	8b000260 	add	x0, x19, x0
    c37c:	eb02001f 	cmp	x0, x2
    c380:	54000142 	b.cs	c3a8 <raw_realloc+0x68>  // b.hs, b.nlast
/home/jeferson/optee/optee_os-rpi4/lib/libutils/isoc/bget_malloc.c:488
    c384:	d2800014 	mov	x20, #0x0                   	// #0
/home/jeferson/optee/optee_os-rpi4/lib/libutils/isoc/bget_malloc.c:522
    c388:	aa1803e2 	mov	x2, x24
    c38c:	aa1703e1 	mov	x1, x23
    c390:	aa1403e0 	mov	x0, x20
/home/jeferson/optee/optee_os-rpi4/lib/libutils/isoc/bget_malloc.c:523
    c394:	a94153f3 	ldp	x19, x20, [sp, #16]
    c398:	a9425bf5 	ldp	x21, x22, [sp, #32]
    c39c:	a94363f7 	ldp	x23, x24, [sp, #48]
    c3a0:	a8c47bfd 	ldp	x29, x30, [sp], #64
/home/jeferson/optee/optee_os-rpi4/lib/libutils/isoc/bget_malloc.c:522
    c3a4:	17fffd76 	b	b97c <raw_malloc_return_hook.constprop.0>
/home/jeferson/optee/optee_os-rpi4/lib/libutils/isoc/bget_malloc.c:501
    c3a8:	f100027f 	cmp	x19, #0x0
/home/jeferson/optee/optee_os-rpi4/lib/libutils/isoc/bget_malloc.c:503
    c3ac:	aa0403e3 	mov	x3, x4
/home/jeferson/optee/optee_os-rpi4/lib/libutils/isoc/bget_malloc.c:501
    c3b0:	9a9f1673 	csinc	x19, x19, xzr, ne  // ne = any
/home/jeferson/optee/optee_os-rpi4/lib/libutils/isoc/bget_malloc.c:503
    c3b4:	d2800001 	mov	x1, #0x0                   	// #0
    c3b8:	aa1303e2 	mov	x2, x19
    c3bc:	d2800000 	mov	x0, #0x0                   	// #0
    c3c0:	97fffd7d 	bl	b9b4 <bget>
/home/jeferson/optee/optee_os-rpi4/lib/libutils/isoc/bget_malloc.c:505
    c3c4:	f100001f 	cmp	x0, #0x0
/home/jeferson/optee/optee_os-rpi4/lib/libutils/isoc/bget_malloc.c:503
    c3c8:	aa0003f4 	mov	x20, x0
/home/jeferson/optee/optee_os-rpi4/lib/libutils/isoc/bget_malloc.c:505
    c3cc:	fa401aa4 	ccmp	x21, #0x0, #0x4, ne  // ne = any
    c3d0:	54fffdc0 	b.eq	c388 <raw_realloc+0x48>  // b.none
bget_buf_size():
/home/jeferson/optee/optee_os-rpi4/lib/libutils/isoc/bget_malloc.c:207
    c3d4:	f85f82a1 	ldur	x1, [x21, #-8]
    c3d8:	928001f6 	mov	x22, #0xfffffffffffffff0    	// #-16
    c3dc:	cb0102d6 	sub	x22, x22, x1
/home/jeferson/optee/optee_os-rpi4/lib/libutils/isoc/bget_malloc.c:208
    c3e0:	f10002df 	cmp	x22, #0x0
    c3e4:	5400004c 	b.gt	c3ec <raw_realloc+0xac>
    c3e8:	97fffd5b 	bl	b954 <bget_buf_size.part.0>
raw_realloc():
/home/jeferson/optee/optee_os-rpi4/lib/libutils/isoc/bget_malloc.c:509
    c3ec:	eb16027f 	cmp	x19, x22
    c3f0:	540001ad 	b.le	c424 <raw_realloc+0xe4>
/home/jeferson/optee/optee_os-rpi4/lib/libutils/isoc/bget_malloc.c:510
    c3f4:	aa1603e2 	mov	x2, x22
    c3f8:	aa1503e1 	mov	x1, x21
    c3fc:	97ffcf09 	bl	20 <memcpy>
/home/jeferson/optee/optee_os-rpi4/lib/libutils/isoc/bget_malloc.c:513
    c400:	cb160262 	sub	x2, x19, x22
    c404:	8b160280 	add	x0, x20, x22
    c408:	52800001 	mov	w1, #0x0                   	// #0
    c40c:	9400011d 	bl	c880 <memset>
/home/jeferson/optee/optee_os-rpi4/lib/libutils/isoc/bget_malloc.c:519
    c410:	aa1803e1 	mov	x1, x24
    c414:	aa1503e0 	mov	x0, x21
    c418:	52800002 	mov	w2, #0x0                   	// #0
    c41c:	97fffe40 	bl	bd1c <brel>
    c420:	17ffffda 	b	c388 <raw_realloc+0x48>
/home/jeferson/optee/optee_os-rpi4/lib/libutils/isoc/bget_malloc.c:516
    c424:	aa1303e2 	mov	x2, x19
    c428:	aa1503e1 	mov	x1, x21
    c42c:	97ffcefd 	bl	20 <memcpy>
    c430:	17fffff8 	b	c410 <raw_realloc+0xd0>

000000000000c434 <malloc>:
malloc():
/home/jeferson/optee/optee_os-rpi4/lib/libutils/isoc/bget_malloc.c:790
    c434:	aa0003e2 	mov	x2, x0
    c438:	b0000023 	adrp	x3, 11000 <_DYNAMIC>
    c43c:	d2800001 	mov	x1, #0x0                   	// #0
    c440:	91156063 	add	x3, x3, #0x558
    c444:	d2800000 	mov	x0, #0x0                   	// #0
    c448:	17ffff9a 	b	c2b0 <raw_malloc>

000000000000c44c <calloc>:
calloc():
/home/jeferson/optee/optee_os-rpi4/lib/libutils/isoc/bget_malloc.c:808
    c44c:	aa0103e3 	mov	x3, x1
    c450:	aa0003e2 	mov	x2, x0
    c454:	b0000024 	adrp	x4, 11000 <_DYNAMIC>
    c458:	d2800001 	mov	x1, #0x0                   	// #0
    c45c:	91156084 	add	x4, x4, #0x558
    c460:	d2800000 	mov	x0, #0x0                   	// #0
    c464:	17ffff9b 	b	c2d0 <raw_calloc>

000000000000c468 <realloc>:
realloc_unlocked():
/home/jeferson/optee/optee_os-rpi4/lib/libutils/isoc/bget_malloc.c:816
    c468:	aa0103e3 	mov	x3, x1
    c46c:	b0000024 	adrp	x4, 11000 <_DYNAMIC>
    c470:	d2800002 	mov	x2, #0x0                   	// #0
    c474:	91156084 	add	x4, x4, #0x558
    c478:	d2800001 	mov	x1, #0x0                   	// #0
    c47c:	17ffffb1 	b	c340 <raw_realloc>

000000000000c480 <memalign>:
memalign():
/home/jeferson/optee/optee_os-rpi4/lib/libutils/isoc/bget_malloc.c:834
    c480:	aa0103e3 	mov	x3, x1
    c484:	aa0003e2 	mov	x2, x0
    c488:	b0000024 	adrp	x4, 11000 <_DYNAMIC>
    c48c:	d2800001 	mov	x1, #0x0                   	// #0
    c490:	91156084 	add	x4, x4, #0x558
    c494:	d2800000 	mov	x0, #0x0                   	// #0
    c498:	17ffff65 	b	c22c <raw_memalign>

000000000000c49c <aligned_alloc>:
aligned_alloc():
/home/jeferson/optee/optee_os-rpi4/lib/libutils/isoc/bget_malloc.c:842
    c49c:	9ac00822 	udiv	x2, x1, x0
    c4a0:	9b008442 	msub	x2, x2, x0, x1
    c4a4:	b5000042 	cbnz	x2, c4ac <aligned_alloc+0x10>
/home/jeferson/optee/optee_os-rpi4/lib/libutils/isoc/bget_malloc.c:845
    c4a8:	17fffff6 	b	c480 <memalign>
/home/jeferson/optee/optee_os-rpi4/lib/libutils/isoc/bget_malloc.c:846
    c4ac:	d2800000 	mov	x0, #0x0                   	// #0
    c4b0:	d65f03c0 	ret

000000000000c4b4 <free>:
free_helper():
/home/jeferson/optee/optee_os-rpi4/lib/libutils/isoc/bget_malloc.c:799
    c4b4:	52800002 	mov	w2, #0x0                   	// #0
    c4b8:	b0000021 	adrp	x1, 11000 <_DYNAMIC>
    c4bc:	91156021 	add	x1, x1, #0x558
    c4c0:	17ffff80 	b	c2c0 <raw_free>

000000000000c4c4 <free_wipe>:
    c4c4:	52800022 	mov	w2, #0x1                   	// #1
    c4c8:	b0000021 	adrp	x1, 11000 <_DYNAMIC>
    c4cc:	91156021 	add	x1, x1, #0x558
    c4d0:	17ffff7c 	b	c2c0 <raw_free>

000000000000c4d4 <raw_malloc_get_ctx_size>:
raw_malloc_get_ctx_size():
/home/jeferson/optee/optee_os-rpi4/lib/libutils/isoc/bget_malloc.c:901
    c4d4:	d2801000 	mov	x0, #0x80                  	// #128
    c4d8:	d65f03c0 	ret

000000000000c4dc <raw_malloc_init_ctx>:
raw_malloc_init_ctx():
/home/jeferson/optee/optee_os-rpi4/lib/libutils/isoc/bget_malloc.c:905
    c4dc:	4f000400 	movi	v0.4s, #0x0
    c4e0:	ad000000 	stp	q0, q0, [x0]
/home/jeferson/optee/optee_os-rpi4/lib/libutils/isoc/bget_malloc.c:907
    c4e4:	a9010000 	stp	x0, x0, [x0, #16]
/home/jeferson/optee/optee_os-rpi4/lib/libutils/isoc/bget_malloc.c:905
    c4e8:	ad010000 	stp	q0, q0, [x0, #32]
    c4ec:	ad020000 	stp	q0, q0, [x0, #64]
    c4f0:	ad030000 	stp	q0, q0, [x0, #96]
/home/jeferson/optee/optee_os-rpi4/lib/libutils/isoc/bget_malloc.c:908
    c4f4:	d65f03c0 	ret

000000000000c4f8 <raw_malloc_add_pool>:
raw_malloc_add_pool():
/home/jeferson/optee/optee_os-rpi4/lib/libutils/isoc/bget_malloc.c:911
    c4f8:	a9bd7bfd 	stp	x29, x30, [sp, #-48]!
    c4fc:	910003fd 	mov	x29, sp
    c500:	a90153f3 	stp	x19, x20, [sp, #16]
/home/jeferson/optee/optee_os-rpi4/lib/libutils/isoc/bget_malloc.c:914
    c504:	8b020034 	add	x20, x1, x2
/home/jeferson/optee/optee_os-rpi4/lib/libutils/isoc/bget_malloc.c:918
    c508:	91003c21 	add	x1, x1, #0xf
/home/jeferson/optee/optee_os-rpi4/lib/libutils/isoc/bget_malloc.c:919
    c50c:	927cee94 	and	x20, x20, #0xfffffffffffffff0
/home/jeferson/optee/optee_os-rpi4/lib/libutils/isoc/bget_malloc.c:911
    c510:	a9025bf5 	stp	x21, x22, [sp, #32]
/home/jeferson/optee/optee_os-rpi4/lib/libutils/isoc/bget_malloc.c:918
    c514:	927cec35 	and	x21, x1, #0xfffffffffffffff0
/home/jeferson/optee/optee_os-rpi4/lib/libutils/isoc/bget_malloc.c:921
    c518:	eb1402bf 	cmp	x21, x20
    c51c:	54000508 	b.hi	c5bc <raw_malloc_add_pool+0xc4>  // b.pmore
/home/jeferson/optee/optee_os-rpi4/lib/libutils/isoc/bget_malloc.c:921 (discriminator 1)
    c520:	cb150294 	sub	x20, x20, x21
    c524:	f100be9f 	cmp	x20, #0x2f
    c528:	540004a9 	b.ls	c5bc <raw_malloc_add_pool+0xc4>  // b.plast
    c52c:	aa0003f3 	mov	x19, x0
/home/jeferson/optee/optee_os-rpi4/lib/libutils/isoc/bget_malloc.c:927
    c530:	f9402000 	ldr	x0, [x0, #64]
    c534:	b5000060 	cbnz	x0, c540 <raw_malloc_add_pool+0x48>
/home/jeferson/optee/optee_os-rpi4/lib/libutils/isoc/bget_malloc.c:927 (discriminator 1)
    c538:	f10ffe9f 	cmp	x20, #0x3ff
    c53c:	54000409 	b.ls	c5bc <raw_malloc_add_pool+0xc4>  // b.plast
/home/jeferson/optee/optee_os-rpi4/lib/libutils/isoc/bget_malloc.c:933
    c540:	aa1303e2 	mov	x2, x19
    c544:	aa1403e1 	mov	x1, x20
    c548:	aa1503e0 	mov	x0, x21
    c54c:	97fffed9 	bl	c0b0 <bpool>
/home/jeferson/optee/optee_os-rpi4/lib/libutils/isoc/bget_malloc.c:934
    c550:	a943da60 	ldp	x0, x22, [x19, #56]
realloc_unlocked():
/home/jeferson/optee/optee_os-rpi4/lib/libutils/isoc/bget_malloc.c:816
    c554:	aa1303e4 	mov	x4, x19
    c558:	d2800002 	mov	x2, #0x0                   	// #0
    c55c:	d2800001 	mov	x1, #0x0                   	// #0
raw_malloc_add_pool():
/home/jeferson/optee/optee_os-rpi4/lib/libutils/isoc/bget_malloc.c:934
    c560:	910006d6 	add	x22, x22, #0x1
realloc_unlocked():
/home/jeferson/optee/optee_os-rpi4/lib/libutils/isoc/bget_malloc.c:816
    c564:	d37ceec3 	lsl	x3, x22, #4
    c568:	97ffff76 	bl	c340 <raw_realloc>
raw_malloc_add_pool():
/home/jeferson/optee/optee_os-rpi4/lib/libutils/isoc/bget_malloc.c:936
    c56c:	b5000140 	cbnz	x0, c594 <raw_malloc_add_pool+0x9c>
/home/jeferson/optee/optee_os-rpi4/lib/libutils/isoc/bget_malloc.c:936 (discriminator 1)
    c570:	90000023 	adrp	x3, 10000 <__func__.0+0x113>
    c574:	9118cc63 	add	x3, x3, #0x633
    c578:	90000021 	adrp	x1, 10000 <__func__.0+0x113>
    c57c:	90000020 	adrp	x0, 10000 <__func__.0+0x113>
    c580:	9100c463 	add	x3, x3, #0x31
    c584:	910de821 	add	x1, x1, #0x37a
    c588:	9118c400 	add	x0, x0, #0x631
    c58c:	52807502 	mov	w2, #0x3a8                 	// #936
    c590:	97fffced 	bl	b944 <_assert_trap>
/home/jeferson/optee/optee_os-rpi4/lib/libutils/isoc/bget_malloc.c:938
    c594:	f9402261 	ldr	x1, [x19, #64]
/home/jeferson/optee/optee_os-rpi4/lib/libutils/isoc/bget_malloc.c:937
    c598:	f9001e60 	str	x0, [x19, #56]
/home/jeferson/optee/optee_os-rpi4/lib/libutils/isoc/bget_malloc.c:938
    c59c:	d37cec22 	lsl	x2, x1, #4
    c5a0:	8b011001 	add	x1, x0, x1, lsl #4
    c5a4:	f8226815 	str	x21, [x0, x2]
/home/jeferson/optee/optee_os-rpi4/lib/libutils/isoc/bget_malloc.c:941
    c5a8:	b9407260 	ldr	w0, [x19, #112]
/home/jeferson/optee/optee_os-rpi4/lib/libutils/isoc/bget_malloc.c:939
    c5ac:	f9000434 	str	x20, [x1, #8]
/home/jeferson/optee/optee_os-rpi4/lib/libutils/isoc/bget_malloc.c:941
    c5b0:	0b140000 	add	w0, w0, w20
/home/jeferson/optee/optee_os-rpi4/lib/libutils/isoc/bget_malloc.c:943
    c5b4:	f9002276 	str	x22, [x19, #64]
/home/jeferson/optee/optee_os-rpi4/lib/libutils/isoc/bget_malloc.c:941
    c5b8:	b9007260 	str	w0, [x19, #112]
/home/jeferson/optee/optee_os-rpi4/lib/libutils/isoc/bget_malloc.c:944
    c5bc:	a94153f3 	ldp	x19, x20, [sp, #16]
    c5c0:	a9425bf5 	ldp	x21, x22, [sp, #32]
    c5c4:	a8c37bfd 	ldp	x29, x30, [sp], #48
    c5c8:	d65f03c0 	ret

000000000000c5cc <raw_malloc_buffer_overlaps_heap>:
raw_malloc_buffer_overlaps_heap():
/home/jeferson/optee/optee_os-rpi4/lib/libutils/isoc/bget_malloc.c:950
    c5cc:	ab020022 	adds	x2, x1, x2
/home/jeferson/optee/optee_os-rpi4/lib/libutils/isoc/bget_malloc.c:948
    c5d0:	aa0003e6 	mov	x6, x0
/home/jeferson/optee/optee_os-rpi4/lib/libutils/isoc/bget_malloc.c:955
    c5d4:	f9402008 	ldr	x8, [x0, #64]
    c5d8:	9a9f37e9 	cset	x9, cs  // cs = hs, nlast
    c5dc:	d2800005 	mov	x5, #0x0                   	// #0
/home/jeferson/optee/optee_os-rpi4/lib/libutils/isoc/bget_malloc.c:955 (discriminator 1)
    c5e0:	eb05011f 	cmp	x8, x5
    c5e4:	54000061 	b.ne	c5f0 <raw_malloc_buffer_overlaps_heap+0x24>  // b.any
/home/jeferson/optee/optee_os-rpi4/lib/libutils/isoc/bget_malloc.c:967
    c5e8:	52800000 	mov	w0, #0x0                   	// #0
/home/jeferson/optee/optee_os-rpi4/lib/libutils/isoc/bget_malloc.c:968
    c5ec:	d65f03c0 	ret
/home/jeferson/optee/optee_os-rpi4/lib/libutils/isoc/bget_malloc.c:956
    c5f0:	f9401cc3 	ldr	x3, [x6, #56]
    c5f4:	d37ceca0 	lsl	x0, x5, #4
    c5f8:	8b051064 	add	x4, x3, x5, lsl #4
    c5fc:	f8606867 	ldr	x7, [x3, x0]
/home/jeferson/optee/optee_os-rpi4/lib/libutils/isoc/bget_malloc.c:957
    c600:	f9400483 	ldr	x3, [x4, #8]
/home/jeferson/optee/optee_os-rpi4/lib/libutils/isoc/bget_malloc.c:959
    c604:	ab070064 	adds	x4, x3, x7
    c608:	1a9f37e3 	cset	w3, cs  // cs = hs, nlast
    c60c:	2a090060 	orr	w0, w3, w9
    c610:	35fffee0 	cbnz	w0, c5ec <raw_malloc_buffer_overlaps_heap+0x20>
/home/jeferson/optee/optee_os-rpi4/lib/libutils/isoc/bget_malloc.c:962
    c614:	eb07003f 	cmp	x1, x7
    c618:	1a9f37e3 	cset	w3, cs  // cs = hs, nlast
    c61c:	eb04003f 	cmp	x1, x4
    c620:	1a9f27e0 	cset	w0, cc  // cc = lo, ul, last
    c624:	6a000060 	ands	w0, w3, w0
    c628:	54fffe21 	b.ne	c5ec <raw_malloc_buffer_overlaps_heap+0x20>  // b.any
/home/jeferson/optee/optee_os-rpi4/lib/libutils/isoc/bget_malloc.c:963 (discriminator 1)
    c62c:	eb07005f 	cmp	x2, x7
    c630:	1a9f37e3 	cset	w3, cs  // cs = hs, nlast
    c634:	eb04005f 	cmp	x2, x4
    c638:	1a9f27e0 	cset	w0, cc  // cc = lo, ul, last
/home/jeferson/optee/optee_os-rpi4/lib/libutils/isoc/bget_malloc.c:962 (discriminator 1)
    c63c:	6a000060 	ands	w0, w3, w0
    c640:	54fffd61 	b.ne	c5ec <raw_malloc_buffer_overlaps_heap+0x20>  // b.any
/home/jeferson/optee/optee_os-rpi4/lib/libutils/isoc/bget_malloc.c:955 (discriminator 2)
    c644:	910004a5 	add	x5, x5, #0x1
    c648:	17ffffe6 	b	c5e0 <raw_malloc_buffer_overlaps_heap+0x14>

000000000000c64c <raw_malloc_buffer_is_within_alloced>:
raw_malloc_buffer_is_within_alloced():
/home/jeferson/optee/optee_os-rpi4/lib/libutils/isoc/bget_malloc.c:981
    c64c:	ab020022 	adds	x2, x1, x2
    c650:	54000a22 	b.cs	c794 <raw_malloc_buffer_is_within_alloced+0x148>  // b.hs, b.nlast
bpool_foreach_iterator_init():
/home/jeferson/optee/optee_os-rpi4/lib/libutils/isoc/bget_malloc.c:361
    c654:	f9401c08 	ldr	x8, [x0, #56]
    c658:	aa0003e7 	mov	x7, x0
raw_malloc_buffer_is_within_alloced():
/home/jeferson/optee/optee_os-rpi4/lib/libutils/isoc/bget_malloc.c:973
    c65c:	d2800006 	mov	x6, #0x0                   	// #0
bpool_foreach_pool():
/home/jeferson/optee/optee_os-rpi4/lib/libutils/isoc/bget_malloc.c:370
    c660:	d2f0000a 	mov	x10, #0x8000000000000000    	// #-9223372036854775808
    c664:	928001eb 	mov	x11, #0xfffffffffffffff0    	// #-16
bpool_foreach_iterator_init():
/home/jeferson/optee/optee_os-rpi4/lib/libutils/isoc/bget_malloc.c:361
    c668:	f9400104 	ldr	x4, [x8]
raw_malloc_buffer_is_within_alloced():
/home/jeferson/optee/optee_os-rpi4/lib/libutils/isoc/bget_malloc.c:973
    c66c:	aa0403e5 	mov	x5, x4
bpool_foreach_pool():
/home/jeferson/optee/optee_os-rpi4/lib/libutils/isoc/bget_malloc.c:368
    c670:	f9400483 	ldr	x3, [x4, #8]
/home/jeferson/optee/optee_os-rpi4/lib/libutils/isoc/bget_malloc.c:370
    c674:	eb0a007f 	cmp	x3, x10
    c678:	54000860 	b.eq	c784 <raw_malloc_buffer_is_within_alloced+0x138>  // b.none
raw_malloc_buffer_is_within_alloced():
/home/jeferson/optee/optee_os-rpi4/lib/libutils/isoc/bget_malloc.c:972
    c67c:	a9bf7bfd 	stp	x29, x30, [sp, #-16]!
    c680:	910003fd 	mov	x29, sp
    c684:	1400000d 	b	c6b8 <raw_malloc_buffer_is_within_alloced+0x6c>
bpool_foreach_pool():
/home/jeferson/optee/optee_os-rpi4/lib/libutils/isoc/bget_malloc.c:387
    c688:	910040a5 	add	x5, x5, #0x10
raw_malloc_buffer_is_within_alloced():
/home/jeferson/optee/optee_os-rpi4/lib/libutils/isoc/bget_malloc.c:990
    c68c:	8b0300a3 	add	x3, x5, x3
/home/jeferson/optee/optee_os-rpi4/lib/libutils/isoc/bget_malloc.c:991
    c690:	eb03005f 	cmp	x2, x3
    c694:	1a9f87e3 	cset	w3, ls  // ls = plast
    c698:	eb05003f 	cmp	x1, x5
    c69c:	1a9f37e0 	cset	w0, cs  // cs = hs, nlast
    c6a0:	6a000060 	ands	w0, w3, w0
    c6a4:	54000661 	b.ne	c770 <raw_malloc_buffer_is_within_alloced+0x124>  // b.any
bpool_foreach_pool():
/home/jeferson/optee/optee_os-rpi4/lib/libutils/isoc/bget_malloc.c:368
    c6a8:	f9400483 	ldr	x3, [x4, #8]
raw_malloc_buffer_is_within_alloced():
/home/jeferson/optee/optee_os-rpi4/lib/libutils/isoc/bget_malloc.c:973
    c6ac:	aa0403e5 	mov	x5, x4
bpool_foreach_pool():
/home/jeferson/optee/optee_os-rpi4/lib/libutils/isoc/bget_malloc.c:370
    c6b0:	eb0a007f 	cmp	x3, x10
    c6b4:	54000540 	b.eq	c75c <raw_malloc_buffer_is_within_alloced+0x110>  // b.none
/home/jeferson/optee/optee_os-rpi4/lib/libutils/isoc/bget_malloc.c:373
    c6b8:	b6f80123 	tbz	x3, #63, c6dc <raw_malloc_buffer_is_within_alloced+0x90>
/home/jeferson/optee/optee_os-rpi4/lib/libutils/isoc/bget_malloc.c:375
    c6bc:	cb0303e9 	neg	x9, x3
/home/jeferson/optee/optee_os-rpi4/lib/libutils/isoc/bget_malloc.c:377
    c6c0:	52800000 	mov	w0, #0x0                   	// #0
/home/jeferson/optee/optee_os-rpi4/lib/libutils/isoc/bget_malloc.c:390
    c6c4:	8b090084 	add	x4, x4, x9
bpool_foreach():
/home/jeferson/optee/optee_os-rpi4/lib/libutils/isoc/bget_malloc.c:402
    c6c8:	35ffff00 	cbnz	w0, c6a8 <raw_malloc_buffer_is_within_alloced+0x5c>
bget_buf_size():
/home/jeferson/optee/optee_os-rpi4/lib/libutils/isoc/bget_malloc.c:207
    c6cc:	cb030163 	sub	x3, x11, x3
/home/jeferson/optee/optee_os-rpi4/lib/libutils/isoc/bget_malloc.c:208
    c6d0:	f100007f 	cmp	x3, #0x0
    c6d4:	54fffdac 	b.gt	c688 <raw_malloc_buffer_is_within_alloced+0x3c>
    c6d8:	97fffc9f 	bl	b954 <bget_buf_size.part.0>
bpool_foreach_pool():
/home/jeferson/optee/optee_os-rpi4/lib/libutils/isoc/bget_malloc.c:383
    c6dc:	f9400c80 	ldr	x0, [x4, #24]
    c6e0:	f9400800 	ldr	x0, [x0, #16]
    c6e4:	eb04001f 	cmp	x0, x4
    c6e8:	54000140 	b.eq	c710 <raw_malloc_buffer_is_within_alloced+0xc4>  // b.none
    c6ec:	90000023 	adrp	x3, 10000 <__func__.0+0x113>
    c6f0:	9118cc63 	add	x3, x3, #0x633
    c6f4:	90000021 	adrp	x1, 10000 <__func__.0+0x113>
    c6f8:	90000020 	adrp	x0, 10000 <__func__.0+0x113>
    c6fc:	91011463 	add	x3, x3, #0x45
    c700:	910de821 	add	x1, x1, #0x37a
    c704:	910f7400 	add	x0, x0, #0x3dd
    c708:	52802fe2 	mov	w2, #0x17f                 	// #383
    c70c:	97fffc8e 	bl	b944 <_assert_trap>
/home/jeferson/optee/optee_os-rpi4/lib/libutils/isoc/bget_malloc.c:384
    c710:	f9400880 	ldr	x0, [x4, #16]
    c714:	f9400c00 	ldr	x0, [x0, #24]
    c718:	eb04001f 	cmp	x0, x4
    c71c:	54000140 	b.eq	c744 <raw_malloc_buffer_is_within_alloced+0xf8>  // b.none
    c720:	90000023 	adrp	x3, 10000 <__func__.0+0x113>
    c724:	9118cc63 	add	x3, x3, #0x633
    c728:	90000021 	adrp	x1, 10000 <__func__.0+0x113>
    c72c:	90000020 	adrp	x0, 10000 <__func__.0+0x113>
    c730:	91011463 	add	x3, x3, #0x45
    c734:	910de821 	add	x1, x1, #0x37a
    c738:	910fe000 	add	x0, x0, #0x3f8
    c73c:	52803002 	mov	w2, #0x180                 	// #384
    c740:	97fffc81 	bl	b944 <_assert_trap>
    c744:	aa0303e9 	mov	x9, x3
/home/jeferson/optee/optee_os-rpi4/lib/libutils/isoc/bget_malloc.c:380
    c748:	52800020 	mov	w0, #0x1                   	// #1
    c74c:	17ffffde 	b	c6c4 <raw_malloc_buffer_is_within_alloced+0x78>
bpool_foreach():
/home/jeferson/optee/optee_os-rpi4/lib/libutils/isoc/bget_malloc.c:411
    c750:	d37cecc0 	lsl	x0, x6, #4
    c754:	f8606904 	ldr	x4, [x8, x0]
    c758:	17ffffd4 	b	c6a8 <raw_malloc_buffer_is_within_alloced+0x5c>
/home/jeferson/optee/optee_os-rpi4/lib/libutils/isoc/bget_malloc.c:407
    c75c:	f94020e0 	ldr	x0, [x7, #64]
    c760:	910004c6 	add	x6, x6, #0x1
    c764:	eb0000df 	cmp	x6, x0
    c768:	54ffff43 	b.cc	c750 <raw_malloc_buffer_is_within_alloced+0x104>  // b.lo, b.ul, b.last
raw_malloc_buffer_is_within_alloced():
/home/jeferson/optee/optee_os-rpi4/lib/libutils/isoc/bget_malloc.c:982
    c76c:	52800000 	mov	w0, #0x0                   	// #0
/home/jeferson/optee/optee_os-rpi4/lib/libutils/isoc/bget_malloc.c:996
    c770:	a8c17bfd 	ldp	x29, x30, [sp], #16
    c774:	d65f03c0 	ret
bpool_foreach():
/home/jeferson/optee/optee_os-rpi4/lib/libutils/isoc/bget_malloc.c:411
    c778:	d37cecc0 	lsl	x0, x6, #4
    c77c:	f8606904 	ldr	x4, [x8, x0]
    c780:	17ffffbb 	b	c66c <raw_malloc_buffer_is_within_alloced+0x20>
/home/jeferson/optee/optee_os-rpi4/lib/libutils/isoc/bget_malloc.c:407
    c784:	f94020e0 	ldr	x0, [x7, #64]
    c788:	910004c6 	add	x6, x6, #0x1
    c78c:	eb0000df 	cmp	x6, x0
    c790:	54ffff43 	b.cc	c778 <raw_malloc_buffer_is_within_alloced+0x12c>  // b.lo, b.ul, b.last
raw_malloc_buffer_is_within_alloced():
/home/jeferson/optee/optee_os-rpi4/lib/libutils/isoc/bget_malloc.c:982
    c794:	52800000 	mov	w0, #0x0                   	// #0
/home/jeferson/optee/optee_os-rpi4/lib/libutils/isoc/bget_malloc.c:996
    c798:	d65f03c0 	ret

000000000000c79c <raw_malloc_get_stats>:
raw_malloc_get_stats():
/home/jeferson/optee/optee_os-rpi4/lib/libutils/isoc/bget_malloc.c:1000
    c79c:	a9be7bfd 	stp	x29, x30, [sp, #-32]!
    c7a0:	aa0103e3 	mov	x3, x1
memcpy_unchecked():
/home/jeferson/optee/optee_os-rpi4/lib/libutils/isoc/bget_malloc.c:121
    c7a4:	d2800702 	mov	x2, #0x38                  	// #56
raw_malloc_get_stats():
/home/jeferson/optee/optee_os-rpi4/lib/libutils/isoc/bget_malloc.c:1000
    c7a8:	910003fd 	mov	x29, sp
    c7ac:	f9000bf3 	str	x19, [sp, #16]
    c7b0:	aa0003f3 	mov	x19, x0
memcpy_unchecked():
/home/jeferson/optee/optee_os-rpi4/lib/libutils/isoc/bget_malloc.c:121
    c7b4:	91012001 	add	x1, x0, #0x48
    c7b8:	aa0303e0 	mov	x0, x3
    c7bc:	97ffce19 	bl	20 <memcpy>
    c7c0:	aa0003e3 	mov	x3, x0
raw_malloc_get_stats():
/home/jeferson/optee/optee_os-rpi4/lib/libutils/isoc/bget_malloc.c:1002
    c7c4:	f9401260 	ldr	x0, [x19, #32]
/home/jeferson/optee/optee_os-rpi4/lib/libutils/isoc/bget_malloc.c:1003
    c7c8:	f9400bf3 	ldr	x19, [sp, #16]
/home/jeferson/optee/optee_os-rpi4/lib/libutils/isoc/bget_malloc.c:1002
    c7cc:	b9002060 	str	w0, [x3, #32]
/home/jeferson/optee/optee_os-rpi4/lib/libutils/isoc/bget_malloc.c:1003
    c7d0:	a8c27bfd 	ldp	x29, x30, [sp], #32
    c7d4:	d65f03c0 	ret

000000000000c7d8 <malloc_get_stats>:
gen_malloc_get_stats():
/home/jeferson/optee/optee_os-rpi4/lib/libutils/isoc/bget_malloc.c:315
    c7d8:	aa0003e1 	mov	x1, x0
    c7dc:	b0000020 	adrp	x0, 11000 <_DYNAMIC>
    c7e0:	91156000 	add	x0, x0, #0x558
    c7e4:	17ffffee 	b	c79c <raw_malloc_get_stats>

000000000000c7e8 <malloc_add_pool>:
gen_malloc_add_pool():
/home/jeferson/optee/optee_os-rpi4/lib/libutils/isoc/bget_malloc.c:871
    c7e8:	aa0103e2 	mov	x2, x1
    c7ec:	aa0003e1 	mov	x1, x0
    c7f0:	b0000020 	adrp	x0, 11000 <_DYNAMIC>
    c7f4:	91156000 	add	x0, x0, #0x558
    c7f8:	17ffff40 	b	c4f8 <raw_malloc_add_pool>

000000000000c7fc <malloc_buffer_is_within_alloced>:
gen_malloc_buffer_is_within_alloced():
/home/jeferson/optee/optee_os-rpi4/lib/libutils/isoc/bget_malloc.c:881
    c7fc:	aa0103e2 	mov	x2, x1
    c800:	aa0003e1 	mov	x1, x0
    c804:	b0000020 	adrp	x0, 11000 <_DYNAMIC>
    c808:	91156000 	add	x0, x0, #0x558
    c80c:	17ffff90 	b	c64c <raw_malloc_buffer_is_within_alloced>

000000000000c810 <malloc_buffer_overlaps_heap>:
gen_malloc_buffer_overlaps_heap():
/home/jeferson/optee/optee_os-rpi4/lib/libutils/isoc/bget_malloc.c:893
    c810:	aa0103e2 	mov	x2, x1
    c814:	aa0003e1 	mov	x1, x0
    c818:	b0000020 	adrp	x0, 11000 <_DYNAMIC>
    c81c:	91156000 	add	x0, x0, #0x558
    c820:	17ffff6b 	b	c5cc <raw_malloc_buffer_overlaps_heap>

000000000000c824 <memmove>:
memmove():
/home/jeferson/optee/optee_os-rpi4/lib/libutils/isoc/newlib/memmove.c:96
    c824:	eb01001f 	cmp	x0, x1
    c828:	54000289 	b.ls	c878 <memmove+0x54>  // b.plast
/home/jeferson/optee/optee_os-rpi4/lib/libutils/isoc/newlib/memmove.c:96 (discriminator 1)
    c82c:	8b020023 	add	x3, x1, x2
    c830:	eb00007f 	cmp	x3, x0
    c834:	54000229 	b.ls	c878 <memmove+0x54>  // b.plast
/home/jeferson/optee/optee_os-rpi4/lib/libutils/isoc/newlib/memmove.c:99
    c838:	8b020004 	add	x4, x0, x2
/home/jeferson/optee/optee_os-rpi4/lib/libutils/isoc/newlib/memmove.c:100
    c83c:	aa2203e2 	mvn	x2, x2
    c840:	d2800001 	mov	x1, #0x0                   	// #0
    c844:	d1000421 	sub	x1, x1, #0x1
    c848:	eb01005f 	cmp	x2, x1
    c84c:	54000041 	b.ne	c854 <memmove+0x30>  // b.any
/home/jeferson/optee/optee_os-rpi4/lib/libutils/isoc/newlib/memmove.c:157
    c850:	d65f03c0 	ret
/home/jeferson/optee/optee_os-rpi4/lib/libutils/isoc/newlib/memmove.c:101
    c854:	38616865 	ldrb	w5, [x3, x1]
    c858:	38216885 	strb	w5, [x4, x1]
    c85c:	17fffffa 	b	c844 <memmove+0x20>
/home/jeferson/optee/optee_os-rpi4/lib/libutils/isoc/newlib/memmove.c:104
    c860:	38636824 	ldrb	w4, [x1, x3]
    c864:	38236804 	strb	w4, [x0, x3]
    c868:	91000463 	add	x3, x3, #0x1
/home/jeferson/optee/optee_os-rpi4/lib/libutils/isoc/newlib/memmove.c:103
    c86c:	eb03005f 	cmp	x2, x3
    c870:	54ffff81 	b.ne	c860 <memmove+0x3c>  // b.any
    c874:	17fffff7 	b	c850 <memmove+0x2c>
    c878:	d2800003 	mov	x3, #0x0                   	// #0
    c87c:	17fffffc 	b	c86c <memmove+0x48>

000000000000c880 <memset>:
memset():
/home/jeferson/optee/optee_os-rpi4/lib/libutils/isoc/newlib/memset.c:125
    c880:	d2800003 	mov	x3, #0x0                   	// #0
    c884:	eb03005f 	cmp	x2, x3
    c888:	54000041 	b.ne	c890 <memset+0x10>  // b.any
/home/jeferson/optee/optee_os-rpi4/lib/libutils/isoc/newlib/memset.c:129
    c88c:	d65f03c0 	ret
/home/jeferson/optee/optee_os-rpi4/lib/libutils/isoc/newlib/memset.c:126
    c890:	38236801 	strb	w1, [x0, x3]
    c894:	91000463 	add	x3, x3, #0x1
    c898:	17fffffb 	b	c884 <memset+0x4>

000000000000c89c <strcmp>:
strcmp():
/home/jeferson/optee/optee_os-rpi4/lib/libutils/isoc/newlib/strcmp.c:99
    c89c:	d2800002 	mov	x2, #0x0                   	// #0
    c8a0:	38626803 	ldrb	w3, [x0, x2]
    c8a4:	38626824 	ldrb	w4, [x1, x2]
    c8a8:	34000083 	cbz	w3, c8b8 <strcmp+0x1c>
/home/jeferson/optee/optee_os-rpi4/lib/libutils/isoc/newlib/strcmp.c:99 (discriminator 1)
    c8ac:	91000442 	add	x2, x2, #0x1
    c8b0:	6b04007f 	cmp	w3, w4
    c8b4:	54ffff60 	b.eq	c8a0 <strcmp+0x4>  // b.none
/home/jeferson/optee/optee_os-rpi4/lib/libutils/isoc/newlib/strcmp.c:142
    c8b8:	4b040060 	sub	w0, w3, w4
    c8bc:	d65f03c0 	ret

000000000000c8c0 <strlcpy>:
strlcpy():
/home/jeferson/optee/optee_os-rpi4/lib/libutils/ext/strlcpy.c:49
    c8c0:	aa0103e3 	mov	x3, x1
/home/jeferson/optee/optee_os-rpi4/lib/libutils/ext/strlcpy.c:53
    c8c4:	b4000142 	cbz	x2, c8ec <strlcpy+0x2c>
/home/jeferson/optee/optee_os-rpi4/lib/libutils/ext/strlcpy.c:53 (discriminator 1)
    c8c8:	f1000442 	subs	x2, x2, #0x1
    c8cc:	540000e0 	b.eq	c8e8 <strlcpy+0x28>  // b.none
/home/jeferson/optee/optee_os-rpi4/lib/libutils/ext/strlcpy.c:55
    c8d0:	38401464 	ldrb	w4, [x3], #1
    c8d4:	38001404 	strb	w4, [x0], #1
    c8d8:	35ffff84 	cbnz	w4, c8c8 <strlcpy+0x8>
/home/jeferson/optee/optee_os-rpi4/lib/libutils/ext/strlcpy.c:68
    c8dc:	cb010060 	sub	x0, x3, x1
    c8e0:	d1000400 	sub	x0, x0, #0x1
/home/jeferson/optee/optee_os-rpi4/lib/libutils/ext/strlcpy.c:69
    c8e4:	d65f03c0 	ret
/home/jeferson/optee/optee_os-rpi4/lib/libutils/ext/strlcpy.c:63
    c8e8:	3900001f 	strb	wzr, [x0]
/home/jeferson/optee/optee_os-rpi4/lib/libutils/ext/strlcpy.c:64 (discriminator 1)
    c8ec:	38401460 	ldrb	w0, [x3], #1
    c8f0:	35ffffe0 	cbnz	w0, c8ec <strlcpy+0x2c>
    c8f4:	17fffffa 	b	c8dc <strlcpy+0x1c>

000000000000c8f8 <mempool_alloc_pool>:
mempool_alloc_pool():
/home/jeferson/optee/optee_os-rpi4/lib/libutils/ext/mempool.c:120
    c8f8:	a9bd7bfd 	stp	x29, x30, [sp, #-48]!
    c8fc:	910003fd 	mov	x29, sp
    c900:	f90013f5 	str	x21, [sp, #32]
    c904:	aa0003f5 	mov	x21, x0
/home/jeferson/optee/optee_os-rpi4/lib/libutils/ext/mempool.c:121
    c908:	d2800020 	mov	x0, #0x1                   	// #1
/home/jeferson/optee/optee_os-rpi4/lib/libutils/ext/mempool.c:120
    c90c:	a90153f3 	stp	x19, x20, [sp, #16]
    c910:	aa0103f3 	mov	x19, x1
/home/jeferson/optee/optee_os-rpi4/lib/libutils/ext/mempool.c:121
    c914:	d2800301 	mov	x1, #0x18                  	// #24
    c918:	97fffecd 	bl	c44c <calloc>
/home/jeferson/optee/optee_os-rpi4/lib/libutils/ext/mempool.c:124
    c91c:	f2400abf 	tst	x21, #0x7
    c920:	54000140 	b.eq	c948 <mempool_alloc_pool+0x50>  // b.none
_assert_trap():
/home/jeferson/optee/optee_os-rpi4/lib/libutils/isoc/include/assert.h:19
    c924:	90000023 	adrp	x3, 10000 <__func__.0+0x113>
    c928:	90000021 	adrp	x1, 10000 <__func__.0+0x113>
    c92c:	90000020 	adrp	x0, 10000 <__func__.0+0x113>
    c930:	911c5063 	add	x3, x3, #0x714
    c934:	911a2c21 	add	x1, x1, #0x68b
    c938:	911a9800 	add	x0, x0, #0x6a6
    c93c:	52800f82 	mov	w2, #0x7c                  	// #124
    c940:	97ffe8fe 	bl	6d38 <_assert_log>
/home/jeferson/optee/optee_os-rpi4/lib/libutils/isoc/include/assert.h:20
    c944:	97ffe90e 	bl	6d7c <_assert_break>
    c948:	aa0003f4 	mov	x20, x0
mempool_alloc_pool():
/home/jeferson/optee/optee_os-rpi4/lib/libutils/ext/mempool.c:126
    c94c:	b4000300 	cbz	x0, c9ac <mempool_alloc_pool+0xb4>
/home/jeferson/optee/optee_os-rpi4/lib/libutils/ext/mempool.c:128
    c950:	a9005413 	stp	x19, x21, [x0]
init_mpool():
/home/jeferson/optee/optee_os-rpi4/lib/libutils/ext/mempool.c:74
    c954:	97fffee0 	bl	c4d4 <raw_malloc_get_ctx_size>
/home/jeferson/optee/optee_os-rpi4/lib/libutils/ext/mempool.c:75
    c958:	f9400681 	ldr	x1, [x20, #8]
    c95c:	8b010273 	add	x19, x19, x1
    c960:	cb000273 	sub	x19, x19, x0
    c964:	927cee73 	and	x19, x19, #0xfffffffffffffff0
/home/jeferson/optee/optee_os-rpi4/lib/libutils/ext/mempool.c:84
    c968:	eb13003f 	cmp	x1, x19
    c96c:	54000143 	b.cc	c994 <mempool_alloc_pool+0x9c>  // b.lo, b.ul, b.last
_assert_trap():
/home/jeferson/optee/optee_os-rpi4/lib/libutils/isoc/include/assert.h:19
    c970:	90000023 	adrp	x3, 10000 <__func__.0+0x113>
    c974:	911c5063 	add	x3, x3, #0x714
    c978:	90000021 	adrp	x1, 10000 <__func__.0+0x113>
    c97c:	90000020 	adrp	x0, 10000 <__func__.0+0x113>
    c980:	91004c63 	add	x3, x3, #0x13
    c984:	911a2c21 	add	x1, x1, #0x68b
    c988:	911b3400 	add	x0, x0, #0x6cd
    c98c:	52800a82 	mov	w2, #0x54                  	// #84
    c990:	17ffffec 	b	c940 <mempool_alloc_pool+0x48>
init_mpool():
/home/jeferson/optee/optee_os-rpi4/lib/libutils/ext/mempool.c:85
    c994:	f9000a93 	str	x19, [x20, #16]
/home/jeferson/optee/optee_os-rpi4/lib/libutils/ext/mempool.c:86
    c998:	aa1303e0 	mov	x0, x19
    c99c:	97fffed0 	bl	c4dc <raw_malloc_init_ctx>
/home/jeferson/optee/optee_os-rpi4/lib/libutils/ext/mempool.c:87
    c9a0:	a9408281 	ldp	x1, x0, [x20, #8]
    c9a4:	cb010262 	sub	x2, x19, x1
    c9a8:	97fffed4 	bl	c4f8 <raw_malloc_add_pool>
mempool_alloc_pool():
/home/jeferson/optee/optee_os-rpi4/lib/libutils/ext/mempool.c:138
    c9ac:	aa1403e0 	mov	x0, x20
    c9b0:	a94153f3 	ldp	x19, x20, [sp, #16]
    c9b4:	f94013f5 	ldr	x21, [sp, #32]
    c9b8:	a8c37bfd 	ldp	x29, x30, [sp], #48
    c9bc:	d65f03c0 	ret

000000000000c9c0 <mempool_alloc>:
mempool_alloc():
/home/jeferson/optee/optee_os-rpi4/lib/libutils/ext/mempool.c:141
    c9c0:	a9be7bfd 	stp	x29, x30, [sp, #-32]!
/home/jeferson/optee/optee_os-rpi4/lib/libutils/ext/mempool.c:146
    c9c4:	aa0103e2 	mov	x2, x1
/home/jeferson/optee/optee_os-rpi4/lib/libutils/ext/mempool.c:141
    c9c8:	910003fd 	mov	x29, sp
/home/jeferson/optee/optee_os-rpi4/lib/libutils/ext/mempool.c:146
    c9cc:	f9400803 	ldr	x3, [x0, #16]
    c9d0:	d2800000 	mov	x0, #0x0                   	// #0
/home/jeferson/optee/optee_os-rpi4/lib/libutils/ext/mempool.c:141
    c9d4:	a90153f3 	stp	x19, x20, [sp, #16]
    c9d8:	aa0103f4 	mov	x20, x1
/home/jeferson/optee/optee_os-rpi4/lib/libutils/ext/mempool.c:146
    c9dc:	d2800001 	mov	x1, #0x0                   	// #0
    c9e0:	97fffe34 	bl	c2b0 <raw_malloc>
    c9e4:	aa0003f3 	mov	x19, x0
/home/jeferson/optee/optee_os-rpi4/lib/libutils/ext/mempool.c:147
    c9e8:	b5000160 	cbnz	x0, ca14 <mempool_alloc+0x54>
/home/jeferson/optee/optee_os-rpi4/lib/libutils/ext/mempool.c:161
    c9ec:	90000020 	adrp	x0, 10000 <__func__.0+0x113>
    c9f0:	911c5000 	add	x0, x0, #0x714
    c9f4:	90000024 	adrp	x4, 10000 <__func__.0+0x113>
    c9f8:	aa1403e5 	mov	x5, x20
    c9fc:	911b7084 	add	x4, x4, #0x6dc
    ca00:	91007800 	add	x0, x0, #0x1e
    ca04:	52800023 	mov	w3, #0x1                   	// #1
    ca08:	52800022 	mov	w2, #0x1                   	// #1
    ca0c:	52801421 	mov	w1, #0xa1                  	// #161
    ca10:	97ffd288 	bl	1430 <trace_printf>
/home/jeferson/optee/optee_os-rpi4/lib/libutils/ext/mempool.c:164
    ca14:	aa1303e0 	mov	x0, x19
    ca18:	a94153f3 	ldp	x19, x20, [sp, #16]
    ca1c:	a8c27bfd 	ldp	x29, x30, [sp], #32
    ca20:	d65f03c0 	ret

000000000000ca24 <mempool_calloc>:
mempool_calloc():
/home/jeferson/optee/optee_os-rpi4/lib/libutils/ext/mempool.c:167
    ca24:	a9be7bfd 	stp	x29, x30, [sp, #-32]!
/home/jeferson/optee/optee_os-rpi4/lib/libutils/ext/mempool.c:171
    ca28:	9bc27c23 	umulh	x3, x1, x2
/home/jeferson/optee/optee_os-rpi4/lib/libutils/ext/mempool.c:167
    ca2c:	910003fd 	mov	x29, sp
    ca30:	a90153f3 	stp	x19, x20, [sp, #16]
/home/jeferson/optee/optee_os-rpi4/lib/libutils/ext/mempool.c:171
    ca34:	9b027c34 	mul	x20, x1, x2
    ca38:	b5000123 	cbnz	x3, ca5c <mempool_calloc+0x38>
/home/jeferson/optee/optee_os-rpi4/lib/libutils/ext/mempool.c:174
    ca3c:	aa1403e1 	mov	x1, x20
    ca40:	97ffffe0 	bl	c9c0 <mempool_alloc>
    ca44:	aa0003f3 	mov	x19, x0
/home/jeferson/optee/optee_os-rpi4/lib/libutils/ext/mempool.c:175
    ca48:	b50000e0 	cbnz	x0, ca64 <mempool_calloc+0x40>
/home/jeferson/optee/optee_os-rpi4/lib/libutils/ext/mempool.c:179
    ca4c:	aa1303e0 	mov	x0, x19
    ca50:	a94153f3 	ldp	x19, x20, [sp, #16]
    ca54:	a8c27bfd 	ldp	x29, x30, [sp], #32
    ca58:	d65f03c0 	ret
/home/jeferson/optee/optee_os-rpi4/lib/libutils/ext/mempool.c:172
    ca5c:	d2800013 	mov	x19, #0x0                   	// #0
    ca60:	17fffffb 	b	ca4c <mempool_calloc+0x28>
/home/jeferson/optee/optee_os-rpi4/lib/libutils/ext/mempool.c:176
    ca64:	aa1403e2 	mov	x2, x20
    ca68:	52800001 	mov	w1, #0x0                   	// #0
    ca6c:	97ffff85 	bl	c880 <memset>
    ca70:	17fffff7 	b	ca4c <mempool_calloc+0x28>

000000000000ca74 <mempool_free>:
mempool_free():
/home/jeferson/optee/optee_os-rpi4/lib/libutils/ext/mempool.c:182
    ca74:	aa0003e3 	mov	x3, x0
    ca78:	aa0103e0 	mov	x0, x1
/home/jeferson/optee/optee_os-rpi4/lib/libutils/ext/mempool.c:183
    ca7c:	52800002 	mov	w2, #0x0                   	// #0
    ca80:	f9400861 	ldr	x1, [x3, #16]
    ca84:	17fffe0f 	b	c2c0 <raw_free>

000000000000ca88 <consttime_memcmp>:
consttime_memcmp():
/home/jeferson/optee/optee_os-rpi4/lib/libutils/ext/consttime_memcmp.c:36
    ca88:	d10043ff 	sub	sp, sp, #0x10
/home/jeferson/optee/optee_os-rpi4/lib/libutils/ext/consttime_memcmp.c:41
    ca8c:	52802003 	mov	w3, #0x100                 	// #256
/home/jeferson/optee/optee_os-rpi4/lib/libutils/ext/consttime_memcmp.c:43
    ca90:	d2800005 	mov	x5, #0x0                   	// #0
/home/jeferson/optee/optee_os-rpi4/lib/libutils/ext/consttime_memcmp.c:39
    ca94:	52800006 	mov	w6, #0x0                   	// #0
/home/jeferson/optee/optee_os-rpi4/lib/libutils/ext/consttime_memcmp.c:41
    ca98:	b9000fe3 	str	w3, [sp, #12]
/home/jeferson/optee/optee_os-rpi4/lib/libutils/ext/consttime_memcmp.c:40
    ca9c:	52800003 	mov	w3, #0x0                   	// #0
/home/jeferson/optee/optee_os-rpi4/lib/libutils/ext/consttime_memcmp.c:43 (discriminator 1)
    caa0:	eb0200bf 	cmp	x5, x2
    caa4:	540000a1 	b.ne	cab8 <consttime_memcmp+0x30>  // b.any
/home/jeferson/optee/optee_os-rpi4/lib/libutils/ext/consttime_memcmp.c:50
    caa8:	53087c63 	lsr	w3, w3, #8
/home/jeferson/optee/optee_os-rpi4/lib/libutils/ext/consttime_memcmp.c:51
    caac:	4b462060 	sub	w0, w3, w6, lsr #8
    cab0:	910043ff 	add	sp, sp, #0x10
    cab4:	d65f03c0 	ret
/home/jeferson/optee/optee_os-rpi4/lib/libutils/ext/consttime_memcmp.c:45 (discriminator 2)
    cab8:	38656808 	ldrb	w8, [x0, x5]
    cabc:	38656824 	ldrb	w4, [x1, x5]
    cac0:	910004a5 	add	x5, x5, #0x1
/home/jeferson/optee/optee_os-rpi4/lib/libutils/ext/consttime_memcmp.c:44 (discriminator 2)
    cac4:	b9400fe9 	ldr	w9, [sp, #12]
/home/jeferson/optee/optee_os-rpi4/lib/libutils/ext/consttime_memcmp.c:45 (discriminator 2)
    cac8:	4b040107 	sub	w7, w8, w4
/home/jeferson/optee/optee_os-rpi4/lib/libutils/ext/consttime_memcmp.c:47 (discriminator 2)
    cacc:	4b080084 	sub	w4, w4, w8
/home/jeferson/optee/optee_os-rpi4/lib/libutils/ext/consttime_memcmp.c:44 (discriminator 2)
    cad0:	0a0900e7 	and	w7, w7, w9
    cad4:	2a0700c6 	orr	w6, w6, w7
/home/jeferson/optee/optee_os-rpi4/lib/libutils/ext/consttime_memcmp.c:46 (discriminator 2)
    cad8:	b9400fe7 	ldr	w7, [sp, #12]
    cadc:	0a070084 	and	w4, w4, w7
/home/jeferson/optee/optee_os-rpi4/lib/libutils/ext/consttime_memcmp.c:48 (discriminator 2)
    cae0:	b9400fe7 	ldr	w7, [sp, #12]
/home/jeferson/optee/optee_os-rpi4/lib/libutils/ext/consttime_memcmp.c:46 (discriminator 2)
    cae4:	2a040063 	orr	w3, w3, w4
/home/jeferson/optee/optee_os-rpi4/lib/libutils/ext/consttime_memcmp.c:48 (discriminator 2)
    cae8:	2a0300c4 	orr	w4, w6, w3
    caec:	0a2400e4 	bic	w4, w7, w4
    caf0:	b9000fe4 	str	w4, [sp, #12]
/home/jeferson/optee/optee_os-rpi4/lib/libutils/ext/consttime_memcmp.c:43 (discriminator 2)
    caf4:	17ffffeb 	b	caa0 <consttime_memcmp+0x18>
