
2a287631-de1b-4fdd-a55c-b9312e40769a.elf:     file format elf64-littleaarch64
2a287631-de1b-4fdd-a55c-b9312e40769a.elf
architecture: aarch64, flags 0x00000150:
HAS_SYMS, DYNAMIC, D_PAGED
start address 0x000000000000025c

Program Header:
    LOAD off    0x0000000000001000 vaddr 0x0000000000000000 paddr 0x0000000000000000 align 2**12
         filesz 0x0000000000010b48 memsz 0x0000000000010b48 flags r-x
    LOAD off    0x0000000000012000 vaddr 0x0000000000011000 paddr 0x0000000000011000 align 2**12
         filesz 0x00000000000005dc memsz 0x000000000000be88 flags rw-
 DYNAMIC off    0x0000000000012000 vaddr 0x0000000000011000 paddr 0x0000000000011000 align 2**3
         filesz 0x0000000000000110 memsz 0x0000000000000110 flags rw-
   STACK off    0x0000000000000000 vaddr 0x0000000000000000 paddr 0x0000000000000000 align 2**4
         filesz 0x0000000000000000 memsz 0x0000000000000000 flags rw-

Dynamic Section:
  HASH                 0x0000000000010830
  GNU_HASH             0x0000000000010740
  STRTAB               0x0000000000010800
  SYMTAB               0x0000000000010770
  STRSZ                0x000000000000002e
  SYMENT               0x0000000000000018
  DEBUG                0x0000000000000000
  RELA                 0x0000000000010860
  RELASZ               0x00000000000004f8
  RELAENT              0x0000000000000018
  FLAGS_1              0x0000000008000000
  RELACOUNT            0x000000000000001f
private flags = 0x0:

Sections:
Idx Name          Size      VMA               LMA               File off  Algn
  0 .ta_head      00000020  0000000000000000  0000000000000000  00001000  2**3
                  CONTENTS, ALLOC, LOAD, READONLY, DATA
  1 .text         0000cad8  0000000000000020  0000000000000020  00001020  2**4
                  CONTENTS, ALLOC, LOAD, READONLY, CODE
  2 .eh_frame     00002984  000000000000caf8  000000000000caf8  0000daf8  2**3
                  CONTENTS, ALLOC, LOAD, READONLY, DATA
  3 .rodata       000012c0  000000000000f480  000000000000f480  00010480  2**3
                  CONTENTS, ALLOC, LOAD, READONLY, DATA
  4 .gnu.hash     00000030  0000000000010740  0000000000010740  00011740  2**3
                  CONTENTS, ALLOC, LOAD, READONLY, DATA
  5 .dynsym       00000090  0000000000010770  0000000000010770  00011770  2**3
                  CONTENTS, ALLOC, LOAD, READONLY, DATA
  6 .dynstr       0000002e  0000000000010800  0000000000010800  00011800  2**0
                  CONTENTS, ALLOC, LOAD, READONLY, DATA
  7 .hash         0000002c  0000000000010830  0000000000010830  00011830  2**3
                  CONTENTS, ALLOC, LOAD, READONLY, DATA
  8 .rela.dyn     000002e8  0000000000010860  0000000000010860  00011860  2**3
                  CONTENTS, ALLOC, LOAD, READONLY, DATA
  9 .dynamic      00000110  0000000000011000  0000000000011000  00012000  2**3
                  CONTENTS, ALLOC, LOAD, DATA
 10 .got          000000d0  0000000000011110  0000000000011110  00012110  2**3
                  CONTENTS, ALLOC, LOAD, DATA
 11 .rela.got     00000210  00000000000111e0  00000000000111e0  000121e0  2**3
                  CONTENTS, ALLOC, LOAD, READONLY, DATA
 12 .data         000001ec  00000000000113f0  00000000000113f0  000123f0  2**3
                  CONTENTS, ALLOC, LOAD, DATA
 13 .bss          0000b8a8  00000000000115e0  00000000000115e0  000125dc  2**3
                  ALLOC
 14 .debug_info   000199a5  0000000000000000  0000000000000000  000125dc  2**0
                  CONTENTS, READONLY, DEBUGGING, OCTETS
 15 .debug_abbrev 00004493  0000000000000000  0000000000000000  0002bf81  2**0
                  CONTENTS, READONLY, DEBUGGING, OCTETS
 16 .debug_loclists 0000ed55  0000000000000000  0000000000000000  00030414  2**0
                  CONTENTS, READONLY, DEBUGGING, OCTETS
 17 .debug_aranges 00000980  0000000000000000  0000000000000000  0003f170  2**4
                  CONTENTS, READONLY, DEBUGGING, OCTETS
 18 .debug_macro  00019c70  0000000000000000  0000000000000000  0003faf0  2**0
                  CONTENTS, READONLY, DEBUGGING, OCTETS
 19 .debug_line   0000bc54  0000000000000000  0000000000000000  00059760  2**0
                  CONTENTS, READONLY, DEBUGGING, OCTETS
 20 .debug_str    0001b256  0000000000000000  0000000000000000  000653b4  2**0
                  CONTENTS, READONLY, DEBUGGING, OCTETS
 21 .debug_line_str 00000acc  0000000000000000  0000000000000000  0008060a  2**0
                  CONTENTS, READONLY, DEBUGGING, OCTETS
 22 .comment      00000055  0000000000000000  0000000000000000  000810d6  2**0
                  CONTENTS, READONLY
 23 .debug_rnglists 00000838  0000000000000000  0000000000000000  0008112b  2**0
                  CONTENTS, READONLY, DEBUGGING, OCTETS
SYMBOL TABLE:
0000000000000000 l    d  .ta_head	0000000000000000 .ta_head
0000000000000020 l    d  .text	0000000000000000 .text
000000000000caf8 l    d  .eh_frame	0000000000000000 .eh_frame
000000000000f480 l    d  .rodata	0000000000000000 .rodata
0000000000010740 l    d  .gnu.hash	0000000000000000 .gnu.hash
0000000000010770 l    d  .dynsym	0000000000000000 .dynsym
0000000000010800 l    d  .dynstr	0000000000000000 .dynstr
0000000000010830 l    d  .hash	0000000000000000 .hash
0000000000010860 l    d  .rela.dyn	0000000000000000 .rela.dyn
0000000000011000 l    d  .dynamic	0000000000000000 .dynamic
0000000000011110 l    d  .got	0000000000000000 .got
00000000000111e0 l    d  .rela.got	0000000000000000 .rela.got
00000000000113f0 l    d  .data	0000000000000000 .data
00000000000115e0 l    d  .bss	0000000000000000 .bss
0000000000000000 l    d  .debug_info	0000000000000000 .debug_info
0000000000000000 l    d  .debug_abbrev	0000000000000000 .debug_abbrev
0000000000000000 l    d  .debug_loclists	0000000000000000 .debug_loclists
0000000000000000 l    d  .debug_aranges	0000000000000000 .debug_aranges
0000000000000000 l    d  .debug_macro	0000000000000000 .debug_macro
0000000000000000 l    d  .debug_line	0000000000000000 .debug_line
0000000000000000 l    d  .debug_str	0000000000000000 .debug_str
0000000000000000 l    d  .debug_line_str	0000000000000000 .debug_line_str
0000000000000000 l    d  .comment	0000000000000000 .comment
0000000000000000 l    d  .debug_rnglists	0000000000000000 .debug_rnglists
0000000000000000 l    df *ABS*	0000000000000000 user_ta_header.c
000000000000f488 l     O .rodata	0000000000000001 __compound_literal.6
000000000000f48c l     O .rodata	0000000000000004 __compound_literal.5
000000000000f490 l     O .rodata	0000000000000004 __compound_literal.4
000000000000f494 l     O .rodata	0000000000000004 __compound_literal.3
000000000000f498 l     O .rodata	0000000000000001 __compound_literal.2
000000000000f499 l     O .rodata	0000000000000001 __compound_literal.1
000000000000f49a l     O .rodata	0000000000000001 __compound_literal.0
0000000000000000 l    df *ABS*	0000000000000000 memcpy.c
0000000000000000 l    df *ABS*	0000000000000000 plugin_ta.c
000000000000f4e8 l     O .rodata	0000000000000013 __func__.0
0000000000014e80 l     O .bss	0000000000000004 inc_var.1
0000000000000000 l    df *ABS*	0000000000000000 snprintf.c
0000000000000000 l    df *ABS*	0000000000000000 stack_check.c
0000000000000000 l    df *ABS*	0000000000000000 snprintk.c
00000000000005d8 l     F .text	0000000000000bc4 kprintf.constprop.0
000000000000f586 l     O .rodata	0000000000000011 hexdigits
000000000000f597 l     O .rodata	0000000000000011 HEXDIGITS
0000000000000000 l    df *ABS*	0000000000000000 trace.c
000000000000fad6 l     O .rodata	0000000000000005 lvl_strs.0
0000000000000000 l    df *ABS*	0000000000000000 memchr.c
0000000000000000 l    df *ABS*	0000000000000000 strlen.c
0000000000000000 l    df *ABS*	0000000000000000 trace_ext.c
0000000000000000 l    df *ABS*	0000000000000000 tee_system_pta.c
0000000000001740 l     F .text	0000000000000084 invoke_system_pta
000000000000f5a8 l     O .rodata	0000000000000010 uuid.2
000000000000f5b8 l     O .rodata	000000000000000a __func__.1
000000000000f5c2 l     O .rodata	0000000000000017 __func__.0
00000000000115e0 l     O .bss	0000000000000008 sess.3
0000000000000000 l    df *ABS*	0000000000000000 utee_syscalls_a64.o
0000000000000000 l    df *ABS*	0000000000000000 user_ta_entry.c
0000000000001ca8 l     F .text	00000000000000b0 _get_fn_array
0000000000001d58 l     F .text	0000000000000090 _fini_iterate_phdr_cb
0000000000001de8 l     F .text	0000000000000028 ta_header_get_session
0000000000001e10 l     F .text	0000000000000070 to_utee_params
0000000000001e80 l     F .text	000000000000005c from_utee_params
0000000000001edc l     F .text	0000000000000094 _init_iterate_phdr_cb
00000000000020cc l     F .text	0000000000000094 ta_header_remove_session
000000000000fb7f l     O .rodata	0000000000000016 __func__.0
00000000000115e8 l     O .bss	0000000000000008 _num_mod_init
00000000000115f0 l     O .bss	0000000000000001 init_done
00000000000114d0 l     O .data	0000000000000010 ta_sessions
00000000000114e0 l     O .data	0000000000000010 __phdr_info_head
0000000000000000 l    df *ABS*	0000000000000000 user_ta_entry_compat.c
00000000000023e8 l     F .text	0000000000000064 to_gp11_param
000000000000244c l     F .text	0000000000000064 from_gp11_param
0000000000000000 l    df *ABS*	0000000000000000 abort.c
0000000000000000 l    df *ABS*	0000000000000000 tee_api.c
000000000000261c l     F .text	000000000000006c copy_param
0000000000002688 l     F .text	0000000000000070 copy_gp11_param
00000000000026f8 l     F .text	0000000000000098 check_mem_access_rights_params
0000000000002790 l     F .text	0000000000000044 buf_overlaps_no_share_heap
00000000000027d4 l     F .text	00000000000000a8 check_invoke_param
000000000000287c l     F .text	00000000000000a4 update_out_param
0000000000002920 l     F .text	00000000000000a8 update_out_gp11_param
0000000000002b98 l     F .text	000000000000019c map_tmp_param
0000000000011658 l     O .bss	0000000000000008 tee_api_instance_data
000000000000f4c0 l     O .rodata	000000000000000b __func__.0
0000000000000000 l    df *ABS*	0000000000000000 tee_api_arith_mpi.c
00000000000036dc l     F .text	0000000000000030 api_panic
000000000000370c l     F .text	0000000000000030 mpi_panic
000000000000373c l     F .text	0000000000000098 get_mpi
00000000000037d4 l     F .text	0000000000000064 copy_mpi_to_bigint
0000000000003838 l     F .text	000000000000014c bigint_binary
0000000000003984 l     F .text	0000000000000020 mpi_is_odd
00000000000039a4 l     F .text	0000000000000028 rng_read
00000000000039cc l     F .text	0000000000000574 mpi_egcd
0000000000011668 l     O .bss	0000000000003800 data.18
000000000000447c l     F .text	00000000000001d0 bigint_binary_mod
000000000000fc76 l     O .rodata	0000000000000008 __func__.15
000000000000fc7e l     O .rodata	000000000000000e __func__.11
000000000000fc8c l     O .rodata	0000000000000009 __func__.2
000000000000fc95 l     O .rodata	0000000000000012 __func__.17
000000000000fca7 l     O .rodata	000000000000000f __func__.16
000000000000fcb6 l     O .rodata	000000000000001f __func__.14
000000000000fcd5 l     O .rodata	0000000000000019 __func__.13
000000000000fcee l     O .rodata	0000000000000012 __func__.7
000000000000fd00 l     O .rodata	0000000000000015 __func__.12
000000000000fd15 l     O .rodata	000000000000000e __func__.10
000000000000fd23 l     O .rodata	000000000000000e __func__.9
000000000000fd31 l     O .rodata	000000000000000e __func__.8
000000000000fd3f l     O .rodata	0000000000000011 __func__.6
000000000000fd50 l     O .rodata	0000000000000018 __func__.5
000000000000fd68 l     O .rodata	0000000000000011 __func__.4
000000000000fd79 l     O .rodata	000000000000001d __func__.3
000000000000fd96 l     O .rodata	0000000000000019 __func__.1
000000000000fdaf l     O .rodata	0000000000000015 __func__.0
0000000000000000 l    df *ABS*	0000000000000000 tee_api_panic.c
000000000000582c l     F .text	000000000000001c check_access
0000000000005850 l     F .text	0000000000000010 check_res.constprop.0
00000000000059e0 l     F .text	0000000000000024 __utee_check_attr_in_annotation.localalias
0000000000000000 l    df *ABS*	0000000000000000 tee_api_property.c
0000000000005a28 l     F .text	000000000000006c propset_get
0000000000005a94 l     F .text	000000000000002c is_propset_pseudo_handle
0000000000005ac0 l     F .text	0000000000000140 propget_get_ext_prop
0000000000005c00 l     F .text	00000000000001f8 propget_get_property
000000000000f5ec l     O .rodata	0000000000000004 __compound_literal.3
000000000000f5f0 l     O .rodata	0000000000000004 __compound_literal.2
000000000000f5f4 l     O .rodata	0000000000000004 __compound_literal.1
000000000000f5f8 l     O .rodata	0000000000000004 __compound_literal.0
0000000000000000 l    df *ABS*	0000000000000000 tcb.c
000000000000fedd l     O .rodata	0000000000000010 __func__.1
000000000000feed l     O .rodata	0000000000000010 __func__.0
0000000000014e68 l     O .bss	0000000000000008 _tls_size
0000000000014e70 l     O .bss	0000000000000008 _tcb
0000000000000000 l    df *ABS*	0000000000000000 assert.c
0000000000000000 l    df *ABS*	0000000000000000 base64.c
000000000000f600 l     O .rodata	0000000000000041 base64_table
0000000000000000 l    df *ABS*	0000000000000000 bignum.c
0000000000006fe0 l     F .text	0000000000000064 mpi_get_digit
0000000000007044 l     F .text	000000000000040c mpi_mul_hlp
0000000000007450 l     F .text	0000000000000148 mpi_montmul
0000000000007598 l     F .text	0000000000000078 mpi_montred
0000000000007610 l     F .text	0000000000000038 mpi_montg_init.isra.0
0000000000007648 l     F .text	00000000000000ac mpi_bigendian_to_host.part.0
00000000000076f4 l     F .text	00000000000000c0 mpi_fill_random_internal
0000000000007940 l     F .text	000000000000006c mbedtls_mpi_resize_clear
0000000000009670 l     F .text	00000000000000c4 mpi_check_small_factors
000000000000a054 l     F .text	00000000000002a4 mpi_miller_rabin
000000000000f644 l     O .rodata	00000000000002a0 small_prime
000000000000f8e4 l     O .rodata	0000000000000024 gcd_pairs
0000000000000000 l    df *ABS*	0000000000000000 constant_time.c
000000000000b160 l     F .text	0000000000000020 mbedtls_ct_uchar_mask_of_range
0000000000000000 l    df *ABS*	0000000000000000 platform_util.c
0000000000011550 l     O .data	0000000000000008 memset_func
0000000000000000 l    df *ABS*	0000000000000000 bget_malloc.c
000000000000b944 l     F .text	0000000000000010 _assert_trap
000000000000b954 l     F .text	0000000000000028 bget_buf_size.part.0
000000000000b97c l     F .text	0000000000000038 raw_malloc_return_hook.constprop.0
0000000000010633 l     O .rodata	000000000000000e __func__.2
0000000000010641 l     O .rodata	0000000000000005 __func__.8
0000000000010646 l     O .rodata	0000000000000006 __func__.7
000000000001064c l     O .rodata	0000000000000005 __func__.5
0000000000010651 l     O .rodata	0000000000000006 __func__.6
0000000000010657 l     O .rodata	0000000000000006 __func__.4
000000000001065d l     O .rodata	0000000000000007 __func__.3
0000000000010664 l     O .rodata	0000000000000014 __func__.1
0000000000010678 l     O .rodata	0000000000000013 __func__.0
0000000000011558 l     O .data	0000000000000080 malloc_ctx
0000000000000000 l    df *ABS*	0000000000000000 memmove.c
0000000000000000 l    df *ABS*	0000000000000000 memset.c
0000000000000000 l    df *ABS*	0000000000000000 strcmp.c
0000000000000000 l    df *ABS*	0000000000000000 strlcpy.c
0000000000000000 l    df *ABS*	0000000000000000 mempool.c
0000000000010714 l     O .rodata	0000000000000013 __func__.2
0000000000010727 l     O .rodata	000000000000000b __func__.1
0000000000010732 l     O .rodata	000000000000000e __func__.0
0000000000000000 l    df *ABS*	0000000000000000 consttime_memcmp.c
0000000000000000 l    df *ABS*	0000000000000000 
0000000000011000 l     O *ABS*	0000000000000000 _DYNAMIC
0000000000011128 l     O *ABS*	0000000000000000 _GLOBAL_OFFSET_TABLE_
00000000000016d0 g     F .text	0000000000000070 putchar
00000000000040c0 g     F .text	0000000000000008 __GP11_TEE_BigIntConvertFromOctetString
0000000000005608 g     F .text	0000000000000004 TEE_BigIntConvertToFMM
0000000000004e78 g     F .text	000000000000000c TEE_BigIntSquareMod
000000000000464c g     F .text	00000000000001a0 TEE_BigIntShiftRight
000000000000c4f8 g     F .text	00000000000000d4 raw_malloc_add_pool
0000000000001914 g     F .text	00000000000000e8 tee_invoke_supp_plugin
0000000000007858 g     F .text	00000000000000e8 mbedtls_mpi_grow
0000000000006750 g     F .text	0000000000000130 __GP11_TEE_GetPropertyName
00000000000035e4 g     F .text	00000000000000d8 TEE_Realloc
0000000000005a08 g     F .text	0000000000000020 __utee_check_inout_annotation
000000000000c2c0 g     F .text	0000000000000010 raw_free
0000000000001590 g     F .text	0000000000000100 printf
00000000000049f0 g     F .text	000000000000002c TEE_BigIntAbs
0000000000001a14 g     F .text	000000000000000c _utee_log
0000000000002fd0 g     F .text	0000000000000184 TEE_InvokeTACommand
0000000000005860 g     F .text	000000000000004c __utee_check_outbuf_annotation
00000000000077c4 g     F .text	0000000000000028 mbedtls_mpi_init_mempool
0000000000001b94 g     F .text	000000000000000c _utee_cryp_random_number_generate
0000000000007fbc g     F .text	00000000000000c4 mbedtls_mpi_write_binary
00000000000004b0 g     F .text	0000000000000058 vsnprintk
000000000000883c g     F .text	0000000000000078 mbedtls_mpi_sub_int
000000000000c824 g     F .text	000000000000005c memmove
0000000000000290 g     F .text	00000000000000d4 snprintf
00000000000043fc g     F .text	0000000000000080 TEE_BigIntCmpS32
00000000000032f0 g     F .text	0000000000000008 __GP11_TEE_MemMove
00000000000114c8 g     O .data	0000000000000008 __stack_chk_guard
000000000000b6a8 g     F .text	000000000000027c mbedtls_ct_rsaes_pkcs1_v15_unpadding
00000000000079ac g     F .text	0000000000000118 mbedtls_mpi_shrink
0000000000003308 g     F .text	0000000000000008 __GP11_TEE_MemFill
0000000000004a1c g     F .text	000000000000000c TEE_BigIntAdd
0000000000001b34 g     F .text	000000000000000c _utee_cryp_obj_restrict_usage
000000000000f4a8 g     O .rodata	0000000000000008 ta_heap_size
0000000000001bdc g     F .text	000000000000000c _utee_asymm_operate
0000000000006d90 g     F .text	0000000000000018 _base64_enc_len
0000000000008b08 g     F .text	000000000000020c mbedtls_mpi_read_string
0000000000004a34 g     F .text	00000000000000e4 TEE_BigIntNeg
0000000000001c30 g     F .text	000000000000000c _utee_storage_free_enum
0000000000000020 g       .text	0000000000000000 __text_start
000000000000690c g     F .text	00000000000000e0 TEE_GetNextProperty
0000000000008190 g     F .text	00000000000000c0 mbedtls_mpi_shift_r
000000000000c810 g     F .text	0000000000000014 malloc_buffer_overlaps_heap
0000000000001ae0 g     F .text	000000000000000c _utee_hash_init
0000000000004e60 g     F .text	000000000000000c TEE_BigIntSubMod
000000000000a9f4 g     F .text	000000000000034c mbedtls_mpi_gen_prime
000000000000647c g     F .text	000000000000009c TEE_GetPropertyAsBinaryBlock
0000000000007c84 g     F .text	000000000000002c mbedtls_mpi_get_bit
000000000000f4a0 g     O .rodata	0000000000000008 __ta_no_share_heap_size
0000000000007e80 g     F .text	0000000000000084 mbedtls_mpi_read_binary
0000000000001430 g     F .text	00000000000000e4 trace_printf
000000000000973c g     F .text	0000000000000004 mbedtls_mpi_montmul
0000000000001c9c g     F .text	000000000000000c _utee_cache_operation
0000000000000020 g     F .text	00000000000000ec memcpy
000000000000560c g     F .text	00000000000000d4 TEE_BigIntConvertFromFMM
0000000000005848 g     F .text	0000000000000008 TEE_Panic
0000000000001690 g     F .text	0000000000000040 puts
00000000000056e0 g     F .text	000000000000014c TEE_BigIntComputeFMM
000000000000c7d8 g     F .text	0000000000000010 malloc_get_stats
0000000000003430 g     F .text	0000000000000028 TEE_GetREETime
000000000000c79c g     F .text	000000000000003c raw_malloc_get_stats
00000000000113f0 g     O .data	00000000000000d8 ta_props
000000000000357c g     F .text	0000000000000008 __GP11_TEE_Malloc
0000000000002e88 g     F .text	0000000000000148 __GP11_TEE_OpenTASession
00000000000058f8 g     F .text	0000000000000030 __utee_check_instring_annotation
000000000000c434 g     F .text	0000000000000018 malloc
000000000000673c g     F .text	0000000000000004 TEE_FreePropertyEnumerator
000000000000b1d8 g     F .text	0000000000000010 mbedtls_ct_mpi_uint_mask
0000000000000364 g     F .text	0000000000000058 vsnprintf
00000000000115d8 g     O .data	0000000000000004 trace_level
0000000000004364 g     F .text	0000000000000098 TEE_BigIntCmp
000000000000f480 g     O .rodata	0000000000000008 ta_num_props
000000000000bfe0 g     F .text	00000000000000d0 bgetr
0000000000001bf4 g     F .text	000000000000000c _utee_storage_obj_open
00000000000032fc g     F .text	0000000000000008 __GP11_TEE_MemCompare
000000000000ca74 g     F .text	0000000000000014 mempool_free
0000000000001aec g     F .text	000000000000000c _utee_hash_update
00000000000040c8 g     F .text	00000000000000c8 TEE_BigIntConvertToOctetString
0000000000007d90 g     F .text	000000000000005c mbedtls_mpi_bitlen
00000000000047f4 g     F .text	0000000000000084 TEE_BigIntGetBit
000000000000f4b0 g     O .rodata	0000000000000003 trace_ext_prefix
0000000000001c54 g     F .text	000000000000000c _utee_storage_next_enum
000000000000c2b0 g     F .text	0000000000000010 raw_malloc
000000000000bc94 g     F .text	0000000000000088 bgetz
000000000000b1e8 g     F .text	0000000000000018 mbedtls_ct_size_bool_eq
00000000000032e0 g     F .text	000000000000000c TEE_GetInstanceData
0000000000003338 g     F .text	000000000000003c TEE_Wait
00000000000088b4 g     F .text	00000000000001ac mbedtls_mpi_mul_mpi
00000000000047ec g     F .text	0000000000000008 __GP11_TEE_BigIntShiftRight
00000000000036cc g     F .text	0000000000000008 TEE_CacheFlush
0000000000001214 g     F .text	000000000000021c trace_vprintf
0000000000000114 g     F .text	0000000000000004 TA_DestroyEntryPoint
00000000000077b4 g     F .text	0000000000000010 mbedtls_mpi_init
0000000000001c0c g     F .text	000000000000000c _utee_storage_obj_del
0000000000007d3c g     F .text	0000000000000054 mbedtls_mpi_lsb
0000000000006d38 g     F .text	0000000000000044 _assert_log
0000000000001ac8 g     F .text	000000000000000c _utee_cryp_state_copy
00000000000055e8 g     F .text	0000000000000008 TEE_BigIntFMMContextSizeInU32
0000000000001858 g     F .text	00000000000000bc tee_unmap
000000000000b21c g     F .text	0000000000000030 mbedtls_ct_uint_if
0000000000003f40 g     F .text	0000000000000050 _TEE_MathAPI_Init
00000000000069ec g     F .text	0000000000000240 __utee_tcb_init
00000000000086b0 g     F .text	0000000000000088 mbedtls_mpi_add_mpi
00000000000025fc g     F .text	0000000000000020 abort
000000000000a2f8 g     F .text	00000000000001b8 mbedtls_mpi_random
00000000000003bc g     F .text	0000000000000030 __stack_chk_fail
00000000000059c0 g     F .text	0000000000000020 __utee_check_out_annotation
0000000000014e84 g     O .bss	0000000000008000 ta_heap
0000000000004e84 g     F .text	0000000000000150 TEE_BigIntInvMod
0000000000001f70 g     F .text	000000000000014c __utee_call_elf_init_fn
0000000000000128 g     F .text	0000000000000004 TA_CloseSessionEntryPoint
000000000000012c g     F .text	0000000000000130 __GP11_TA_InvokeCommandEntryPoint
0000000000001a50 g     F .text	000000000000000c _utee_close_ta_session
00000000000055b0 g     F .text	0000000000000008 __GP11_TEE_BigIntInitFMMContext
0000000000008738 g     F .text	000000000000008c mbedtls_mpi_sub_mpi
000000000000ca88 g     F .text	0000000000000070 consttime_memcmp
0000000000001a08 g     F .text	000000000000000c _utee_return
0000000000001a20 g     F .text	000000000000000c __utee_panic
000000000000b180 g     F .text	0000000000000048 mbedtls_ct_memcmp
0000000000006c2c g     F .text	000000000000001c __tls_get_addr
0000000000000284 g     F .text	000000000000000c TA_InvokeCommandEntryPoint
00000000000020bc g     F .text	0000000000000010 __utee_call_elf_fini_fn
000000000000c4c4 g     F .text	0000000000000010 free_wipe
000000000000c9c0 g     F .text	0000000000000064 mempool_alloc
00000000000019fc g     F .text	000000000000000c _utee_panic
000000000000c4dc g     F .text	000000000000001c raw_malloc_init_ctx
000000000000ca24 g     F .text	0000000000000050 mempool_calloc
0000000000001c90 g     F .text	000000000000000c _utee_cryp_obj_generate_key
0000000000001c78 g     F .text	000000000000000c _utee_storage_obj_trunc
00000000000114f0 g     O .data	0000000000000060 tee_props
0000000000001a80 g     F .text	000000000000000c _utee_unmask_cancellation
00000000000066e8 g     F .text	000000000000000c TEE_ResetPropertyEnumerator
000000000000c44c g     F .text	000000000000001c calloc
0000000000003458 g     F .text	0000000000000124 TEE_Malloc
0000000000002b10 g     F .text	0000000000000088 TEE_CheckMemoryAccessRights
0000000000006518 g     F .text	00000000000000e8 TEE_GetPropertyAsUUID
0000000000001a2c g     F .text	000000000000000c _utee_get_property
00000000000048f0 g     F .text	00000000000000b0 TEE_BigIntSetBit
0000000000007c1c g     F .text	0000000000000068 mbedtls_mpi_lset
0000000000000278 g     F .text	000000000000000c TA_OpenSessionEntryPoint
0000000000000118 g     F .text	0000000000000010 __GP11_TA_OpenSessionEntryPoint
0000000000006c48 g     F .text	00000000000000f0 dl_iterate_phdr
000000000001ce88 g       .bss	0000000000000000 __ftrace_buf_end
0000000000011650 g     O .bss	0000000000000004 ta_param_types
0000000000009234 g     F .text	0000000000000078 mbedtls_mpi_div_int
000000000000a908 g     F .text	00000000000000dc mbedtls_mpi_is_prime_ext
0000000000005518 g     F .text	0000000000000088 TEE_BigIntIsProbablePrime
0000000000008a60 g     F .text	00000000000000a8 mbedtls_mpi_mul_int
0000000000009744 g     F .text	00000000000006d0 mbedtls_mpi_exp_mod
000000000000b3f8 g     F .text	00000000000000bc mbedtls_mpi_safe_cond_assign
0000000000005df8 g     F .text	0000000000000258 TEE_GetPropertyAsString
000000000000b5b0 g     F .text	00000000000000f8 mbedtls_mpi_lt_mpi_ct
0000000000003f90 g     F .text	0000000000000060 TEE_BigIntInit
0000000000004190 g     F .text	0000000000000064 __GP11_TEE_BigIntConvertToOctetString
00000000000049a0 g     F .text	0000000000000050 TEE_BigIntAssign
0000000000005928 g     F .text	000000000000004c __utee_check_outstring_annotation
00000000000032ec g     F .text	0000000000000004 TEE_MemMove
000000000000b924 g     F .text	0000000000000020 mbedtls_platform_zeroize
0000000000003ff8 g     F .text	00000000000000c8 TEE_BigIntConvertFromOctetString
0000000000001bd0 g     F .text	000000000000000c _utee_authenc_dec_final
0000000000008250 g     F .text	000000000000009c mbedtls_mpi_cmp_abs
0000000000001c60 g     F .text	000000000000000c _utee_storage_obj_read
0000000000001518 g     F .text	000000000000002c memchr
0000000000002a50 g     F .text	0000000000000060 TEE_UnmaskCancellation
000000000000ad40 g     F .text	0000000000000420 mbedtls_mpi_self_test
00000000000058ac g     F .text	000000000000004c __utee_check_gp11_outbuf_annotation
0000000000001c84 g     F .text	000000000000000c _utee_storage_obj_seek
0000000000001a74 g     F .text	000000000000000c _utee_check_access_rights
0000000000003154 g     F .text	0000000000000178 __GP11_TEE_InvokeTACommand
00000000000083bc g     F .text	0000000000000078 mbedtls_mpi_cmp_int
0000000000006ebc g     F .text	0000000000000124 _base64_dec
0000000000001c3c g     F .text	000000000000000c _utee_storage_reset_enum
000000000000b33c g     F .text	00000000000000bc mbedtls_ct_base64_dec_value
00000000000059e0 g     F .text	0000000000000024 __utee_check_attr_in_annotation
0000000000001bb8 g     F .text	000000000000000c _utee_authenc_update_payload
0000000000004de8 g     F .text	000000000000006c TEE_BigIntMod
0000000000009360 g     F .text	000000000000009c mbedtls_mpi_mod_int
0000000000007e08 g     F .text	0000000000000078 mbedtls_mpi_read_binary_le
0000000000004c34 g     F .text	00000000000001b4 TEE_BigIntDiv
0000000000001b4c g     F .text	000000000000000c _utee_cryp_obj_alloc
000000000001ce88 g       .bss	0000000000000000 __ftrace_buf_start
000000000000c8c0 g     F .text	0000000000000038 strlcpy
000000000000b288 g     F .text	00000000000000b4 mbedtls_ct_base64_enc_char
0000000000007ac4 g     F .text	00000000000000cc mbedtls_mpi_copy
000000000000c214 g     F .text	0000000000000018 malloc_reset_stats
0000000000006600 g     F .text	00000000000000e8 TEE_GetPropertyAsIdentity
000000000000119c g     F .text	000000000000004c __vsprintf
00000000000062ac g     F .text	00000000000000e8 TEE_GetPropertyAsU64
0000000000001ab0 g     F .text	000000000000000c _utee_set_ta_time
0000000000001a5c g     F .text	000000000000000c _utee_invoke_ta_command
000000000000c468 g     F .text	0000000000000018 realloc
0000000000007b90 g     F .text	000000000000008c mbedtls_mpi_swap
000000000000c8f8 g     F .text	00000000000000c8 mempool_alloc_pool
0000000000004b18 g     F .text	0000000000000114 TEE_BigIntMul
000000000000c4d4 g     F .text	0000000000000008 raw_malloc_get_ctx_size
0000000000008080 g     F .text	0000000000000110 mbedtls_mpi_shift_l
00000000000082ec g     F .text	00000000000000d0 mbedtls_mpi_cmp_mpi
0000000000003304 g     F .text	0000000000000004 TEE_MemFill
000000000000c7e8 g     F .text	0000000000000014 malloc_add_pool
0000000000001204 g     F .text	0000000000000010 trace_get_level
0000000000008434 g     F .text	0000000000000120 mbedtls_mpi_add_abs
00000000000055c0 g     F .text	0000000000000010 TEE_BigIntFMMSizeInU32
00000000000060ec g     F .text	00000000000000d8 TEE_GetPropertyAsBool
000000000000c340 g     F .text	00000000000000f4 raw_realloc
00000000000055a0 g     F .text	0000000000000004 TEE_BigIntInitFMM
0000000000001b04 g     F .text	000000000000000c _utee_cipher_init
0000000000002160 g     F .text	0000000000000288 __utee_entry
00000000000061c4 g     F .text	00000000000000e8 TEE_GetPropertyAsU32
000000000000caf8 g       .text	0000000000000000 __text_end
0000000000004fd4 g     F .text	0000000000000108 TEE_BigIntRelativePrime
00000000000092ac g     F .text	00000000000000b4 mbedtls_mpi_mod_mpi
0000000000001b28 g     F .text	000000000000000c _utee_cryp_obj_get_info
000000000000c0b0 g     F .text	00000000000000d0 bpool
00000000000066f4 g     F .text	0000000000000048 TEE_AllocatePropertyEnumerator
0000000000001abc g     F .text	000000000000000c _utee_cryp_state_alloc
00000000000029f0 g     F .text	0000000000000060 TEE_GetCancellationFlag
0000000000009e14 g     F .text	00000000000001d8 mbedtls_mpi_gcd
00000000000033ec g     F .text	0000000000000044 TEE_SetTAPersistentTime
0000000000007f04 g     F .text	00000000000000b8 mbedtls_mpi_write_binary_le
000000000000c880 g     F .text	000000000000001c memset
000000000000c22c g     F .text	0000000000000084 raw_memalign
0000000000003374 g     F .text	0000000000000078 TEE_GetTAPersistentTime
0000000000001514 g     F .text	0000000000000004 dhex_dump
0000000000002ab0 g     F .text	0000000000000060 TEE_MaskCancellation
0000000000001b40 g     F .text	000000000000000c _utee_cryp_obj_get_attr
0000000000001b1c g     F .text	000000000000000c _utee_cipher_final
00000000000011e8 g     F .text	000000000000001c trace_set_level
000000000000b200 g     F .text	000000000000001c mbedtls_ct_mpi_uint_lt
0000000000001ad4 g     F .text	000000000000000c _utee_cryp_state_free
000000000000c89c g     F .text	0000000000000024 strcmp
0000000000001a44 g     F .text	000000000000000c _utee_open_ta_session
00000000000042a8 g     F .text	00000000000000bc TEE_BigIntConvertToS32
0000000000004a28 g     F .text	000000000000000c TEE_BigIntSub
0000000000000270 g     F .text	0000000000000008 tahead_get_trace_level
0000000000001c48 g     F .text	000000000000000c _utee_storage_start_enum
00000000000017c4 g     F .text	0000000000000094 tee_map_zi
0000000000009740 g     F .text	0000000000000004 mbedtls_mpi_montred
000000000000c480 g     F .text	000000000000001c memalign
000000000000b1c8 g     F .text	0000000000000010 mbedtls_ct_uint_mask
0000000000003ff0 g     F .text	0000000000000008 __GP11_TEE_BigIntInit
00000000000041f4 g     F .text	00000000000000b4 TEE_BigIntConvertFromS32
00000000000087c4 g     F .text	0000000000000078 mbedtls_mpi_add_int
0000000000001bc4 g     F .text	000000000000000c _utee_authenc_enc_final
000000000000c7fc g     F .text	0000000000000014 malloc_buffer_is_within_alloced
0000000000001b58 g     F .text	000000000000000c _utee_cryp_obj_close
00000000000055ac g     F .text	0000000000000004 TEE_BigIntInitFMMContext
0000000000001a8c g     F .text	000000000000000c _utee_mask_cancellation
0000000000011608 g     O .bss	0000000000000008 __ta_no_share_malloc_ctx
0000000000001c18 g     F .text	000000000000000c _utee_storage_obj_rename
00000000000032cc g     F .text	0000000000000008 __GP11_TEE_CheckMemoryAccessRights
0000000000004c2c g     F .text	0000000000000008 TEE_BigIntSquare
0000000000001c6c g     F .text	000000000000000c _utee_storage_obj_write
000000000000010c g     F .text	0000000000000008 TA_CreateEntryPoint
000000000000025c g     F .text	0000000000000014 __ta_entry
0000000000014e84 g     O .bss	0000000000000000 __ta_no_share_heap
0000000000001bac g     F .text	000000000000000c _utee_authenc_update_aad
0000000000009734 g     F .text	0000000000000008 mbedtls_mpi_montg_init
0000000000000508 g     F .text	00000000000000d0 snprintk
0000000000004878 g     F .text	0000000000000078 TEE_BigIntGetBitCount
0000000000001b7c g     F .text	000000000000000c _utee_cryp_obj_copy
0000000000004e6c g     F .text	000000000000000c TEE_BigIntMulMod
000000000000a4b0 g     F .text	0000000000000458 mbedtls_mpi_inv_mod
0000000000005a04 g     F .text	0000000000000004 __utee_check_gp11_attr_in_annotation
0000000000011610 g     O .bss	0000000000000040 ta_params
0000000000008d14 g     F .text	0000000000000520 mbedtls_mpi_div_mpi
0000000000005974 g     F .text	000000000000004c __utee_check_gp11_outstring_annotation
0000000000007dec g     F .text	000000000000001c mbedtls_mpi_size
000000000000b9b4 g     F .text	00000000000002e0 bget
00000000000055f0 g     F .text	0000000000000018 __GP11_TEE_BigIntFMMContextSizeInU32
0000000000006740 g     F .text	0000000000000010 TEE_StartPropertyEnumerator
0000000000001a98 g     F .text	000000000000000c _utee_wait
0000000000007cb0 g     F .text	000000000000008c mbedtls_mpi_set_bit
0000000000003584 g     F .text	0000000000000060 TEE_Free
000000000000a9e4 g     F .text	0000000000000010 mbedtls_mpi_is_prime
00000000000036d4 g     F .text	0000000000000008 TEE_CacheInvalidate
0000000000006d7c g     F .text	0000000000000014 _assert_break
0000000000004e54 g     F .text	000000000000000c TEE_BigIntAddMod
000000000000b24c g     F .text	000000000000003c mbedtls_ct_mpi_uint_cond_assign
00000000000055a4 g     F .text	0000000000000008 __GP11_TEE_BigIntInitFMM
0000000000001aa4 g     F .text	000000000000000c _utee_get_time
0000000000006880 g     F .text	000000000000008c TEE_GetPropertyName
00000000000036bc g     F .text	0000000000000008 __GP11_TEE_Realloc
0000000000001b70 g     F .text	000000000000000c _utee_cryp_obj_populate
00000000000032f8 g     F .text	0000000000000004 TEE_MemCompare
0000000000001b10 g     F .text	000000000000000c _utee_cipher_update
00000000000003ec g     F .text	00000000000000c4 __vsnprintf
00000000000115f8 g     O .bss	0000000000000010 __elf_phdr_info
0000000000002d34 g     F .text	0000000000000154 TEE_OpenTASession
0000000000001560 g     F .text	0000000000000028 trace_ext_puts
0000000000006050 g     F .text	000000000000009c __GP11_TEE_GetPropertyAsString
000000000000c64c g     F .text	0000000000000150 raw_malloc_buffer_is_within_alloced
0000000000001588 g     F .text	0000000000000008 trace_ext_get_thread_id
000000000000c5cc g     F .text	0000000000000080 raw_malloc_buffer_overlaps_heap
0000000000001b88 g     F .text	000000000000000c _utee_cryp_derive_key
00000000000077ec g     F .text	000000000000006c mbedtls_mpi_free
0000000000001b64 g     F .text	000000000000000c _utee_cryp_obj_reset
00000000000036c4 g     F .text	0000000000000008 TEE_CacheClean
0000000000001a38 g     F .text	000000000000000c _utee_get_property_name_to_index
000000000000c2d0 g     F .text	0000000000000070 raw_calloc
0000000000006da8 g     F .text	0000000000000114 _base64_enc
000000000000b4b4 g     F .text	00000000000000fc mbedtls_mpi_safe_cond_swap
0000000000001ba0 g     F .text	000000000000000c _utee_authenc_init
0000000000001544 g     F .text	000000000000001c strlen
00000000000052b0 g     F .text	0000000000000268 TEE_BigIntComputeExtendedGcd
0000000000001c24 g     F .text	000000000000000c _utee_storage_alloc_enum
00000000000050dc g     F .text	00000000000001d4 TEE_BigIntExpMod
0000000000003310 g     F .text	0000000000000028 TEE_GetSystemTime
0000000000001be8 g     F .text	000000000000000c _utee_asymm_verify
0000000000000000 g     O .ta_head	0000000000000020 ta_head
000000000000bd1c g     F .text	00000000000002c4 brel
000000000000254c g     F .text	00000000000000b0 __ta_invoke_cmd
0000000000006394 g     F .text	00000000000000e8 __GP11_TEE_GetPropertyAsBinaryBlock
0000000000008554 g     F .text	000000000000015c mbedtls_mpi_sub_abs
0000000000009fec g     F .text	0000000000000068 mbedtls_mpi_fill_random
00000000000024b0 g     F .text	000000000000009c __ta_open_sess
00000000000032d4 g     F .text	000000000000000c TEE_SetInstanceData
0000000000001a68 g     F .text	000000000000000c _utee_get_cancellation_flag
00000000000093fc g     F .text	0000000000000274 mbedtls_mpi_write_string
000000000000c49c g     F .text	0000000000000018 aligned_alloc
00000000000055b8 g     F .text	0000000000000008 TEE_BigIntInitFMMContext1
00000000000029c8 g     F .text	0000000000000028 TEE_CloseTASession
0000000000001c00 g     F .text	000000000000000c _utee_storage_obj_create
00000000000055d0 g     F .text	0000000000000018 __GP11_TEE_BigIntFMMSizeInU32
000000000000c4b4 g     F .text	0000000000000010 free
000000000000c180 g     F .text	0000000000000094 bstats
0000000000014e78 g     O .bss	0000000000000008 mbedtls_mpi_mempool
0000000000001af8 g     F .text	000000000000000c _utee_hash_final



Disassembly of section .text:

0000000000000020 <memcpy>:
memcpy():
/home/jeferson/optee/optee_os-rpi4/lib/libutils/isoc/newlib/memcpy.c:106
      20:	f1007c5f 	cmp	x2, #0x1f
      24:	54000629 	b.ls	e8 <memcpy+0xc8>  // b.plast
/home/jeferson/optee/optee_os-rpi4/lib/libutils/isoc/newlib/memcpy.c:106 (discriminator 1)
      28:	aa010005 	orr	x5, x0, x1
      2c:	f24008a5 	ands	x5, x5, #0x7
      30:	54000641 	b.ne	f8 <memcpy+0xd8>  // b.any
      34:	d1008048 	sub	x8, x2, #0x20
/home/jeferson/optee/optee_os-rpi4/lib/libutils/isoc/newlib/memcpy.c:108
      38:	aa0103e3 	mov	x3, x1
      3c:	927be908 	and	x8, x8, #0xffffffffffffffe0
/home/jeferson/optee/optee_os-rpi4/lib/libutils/isoc/newlib/memcpy.c:107
      40:	aa0003e4 	mov	x4, x0
      44:	91008108 	add	x8, x8, #0x20
      48:	8b080007 	add	x7, x0, x8
      4c:	d503201f 	nop
/home/jeferson/optee/optee_os-rpi4/lib/libutils/isoc/newlib/memcpy.c:112
      50:	f9400066 	ldr	x6, [x3]
      54:	f9000086 	str	x6, [x4]
/home/jeferson/optee/optee_os-rpi4/lib/libutils/isoc/newlib/memcpy.c:113
      58:	91008063 	add	x3, x3, #0x20
      5c:	91008084 	add	x4, x4, #0x20
      60:	f85e8066 	ldur	x6, [x3, #-24]
      64:	f81e8086 	stur	x6, [x4, #-24]
/home/jeferson/optee/optee_os-rpi4/lib/libutils/isoc/newlib/memcpy.c:114
      68:	f85f0066 	ldur	x6, [x3, #-16]
      6c:	f81f0086 	stur	x6, [x4, #-16]
/home/jeferson/optee/optee_os-rpi4/lib/libutils/isoc/newlib/memcpy.c:115
      70:	f85f8066 	ldur	x6, [x3, #-8]
      74:	f81f8086 	stur	x6, [x4, #-8]
/home/jeferson/optee/optee_os-rpi4/lib/libutils/isoc/newlib/memcpy.c:111
      78:	eb0400ff 	cmp	x7, x4
      7c:	54fffea1 	b.ne	50 <memcpy+0x30>  // b.any
/home/jeferson/optee/optee_os-rpi4/lib/libutils/isoc/newlib/memcpy.c:115
      80:	8b080021 	add	x1, x1, x8
/home/jeferson/optee/optee_os-rpi4/lib/libutils/isoc/newlib/memcpy.c:116
      84:	92401043 	and	x3, x2, #0x1f
/home/jeferson/optee/optee_os-rpi4/lib/libutils/isoc/newlib/memcpy.c:120
      88:	f27d045f 	tst	x2, #0x18
      8c:	540003c0 	b.eq	104 <memcpy+0xe4>  // b.none
/home/jeferson/optee/optee_os-rpi4/lib/libutils/isoc/newlib/memcpy.c:121
      90:	f8656826 	ldr	x6, [x1, x5]
      94:	f8256886 	str	x6, [x4, x5]
/home/jeferson/optee/optee_os-rpi4/lib/libutils/isoc/newlib/memcpy.c:120
      98:	910020a5 	add	x5, x5, #0x8
      9c:	cb050066 	sub	x6, x3, x5
      a0:	f1001cdf 	cmp	x6, #0x7
      a4:	54ffff68 	b.hi	90 <memcpy+0x70>  // b.pmore
      a8:	d1002063 	sub	x3, x3, #0x8
/home/jeferson/optee/optee_os-rpi4/lib/libutils/isoc/newlib/memcpy.c:122
      ac:	92400842 	and	x2, x2, #0x7
      b0:	927df063 	and	x3, x3, #0xfffffffffffffff8
/home/jeferson/optee/optee_os-rpi4/lib/libutils/isoc/newlib/memcpy.c:130
      b4:	d1000446 	sub	x6, x2, #0x1
      b8:	91002063 	add	x3, x3, #0x8
/home/jeferson/optee/optee_os-rpi4/lib/libutils/isoc/newlib/memcpy.c:121
      bc:	8b030084 	add	x4, x4, x3
      c0:	8b030021 	add	x1, x1, x3
/home/jeferson/optee/optee_os-rpi4/lib/libutils/isoc/newlib/memcpy.c:130
      c4:	b4000102 	cbz	x2, e4 <memcpy+0xc4>
/home/jeferson/optee/optee_os-rpi4/lib/libutils/isoc/newlib/memcpy.c:99
      c8:	d2800002 	mov	x2, #0x0                   	// #0
      cc:	d503201f 	nop
/home/jeferson/optee/optee_os-rpi4/lib/libutils/isoc/newlib/memcpy.c:131
      d0:	38626825 	ldrb	w5, [x1, x2]
/home/jeferson/optee/optee_os-rpi4/lib/libutils/isoc/newlib/memcpy.c:130
      d4:	eb0200df 	cmp	x6, x2
/home/jeferson/optee/optee_os-rpi4/lib/libutils/isoc/newlib/memcpy.c:131
      d8:	38226885 	strb	w5, [x4, x2]
/home/jeferson/optee/optee_os-rpi4/lib/libutils/isoc/newlib/memcpy.c:130
      dc:	91000442 	add	x2, x2, #0x1
      e0:	54ffff81 	b.ne	d0 <memcpy+0xb0>  // b.any
/home/jeferson/optee/optee_os-rpi4/lib/libutils/isoc/newlib/memcpy.c:135
      e4:	d65f03c0 	ret
/home/jeferson/optee/optee_os-rpi4/lib/libutils/isoc/newlib/memcpy.c:99
      e8:	aa0003e4 	mov	x4, x0
/home/jeferson/optee/optee_os-rpi4/lib/libutils/isoc/newlib/memcpy.c:130
      ec:	d1000446 	sub	x6, x2, #0x1
      f0:	b5fffec2 	cbnz	x2, c8 <memcpy+0xa8>
/home/jeferson/optee/optee_os-rpi4/lib/libutils/isoc/newlib/memcpy.c:135
      f4:	d65f03c0 	ret
/home/jeferson/optee/optee_os-rpi4/lib/libutils/isoc/newlib/memcpy.c:130
      f8:	d1000446 	sub	x6, x2, #0x1
/home/jeferson/optee/optee_os-rpi4/lib/libutils/isoc/newlib/memcpy.c:99
      fc:	aa0003e4 	mov	x4, x0
     100:	17fffff2 	b	c8 <memcpy+0xa8>
/home/jeferson/optee/optee_os-rpi4/lib/libutils/isoc/newlib/memcpy.c:120
     104:	aa0303e2 	mov	x2, x3
     108:	17fffff9 	b	ec <memcpy+0xcc>

000000000000010c <TA_CreateEntryPoint>:
TA_CreateEntryPoint():
/home/jeferson/optee/optee_examples/plugins/ta/plugin_ta.c:19
     10c:	52800000 	mov	w0, #0x0                   	// #0
     110:	d65f03c0 	ret

0000000000000114 <TA_DestroyEntryPoint>:
TA_DestroyEntryPoint():
/home/jeferson/optee/optee_examples/plugins/ta/plugin_ta.c:23
     114:	d65f03c0 	ret

0000000000000118 <__GP11_TA_OpenSessionEntryPoint>:
__GP11_TA_OpenSessionEntryPoint():
/home/jeferson/optee/optee_examples/plugins/ta/plugin_ta.c:34
     118:	7100001f 	cmp	w0, #0x0
/home/jeferson/optee/optee_examples/plugins/ta/plugin_ta.c:37
     11c:	129fff21 	mov	w1, #0xffff0006            	// #-65530
     120:	1a810000 	csel	w0, w0, w1, eq  // eq = none
     124:	d65f03c0 	ret

0000000000000128 <TA_CloseSessionEntryPoint>:
TA_CloseSessionEntryPoint():
/home/jeferson/optee/optee_examples/plugins/ta/plugin_ta.c:41
     128:	d65f03c0 	ret

000000000000012c <__GP11_TA_InvokeCommandEntryPoint>:
__GP11_TA_InvokeCommandEntryPoint():
/home/jeferson/optee/optee_examples/plugins/ta/plugin_ta.c:69
     12c:	b0000080 	adrp	x0, 11000 <_DYNAMIC>
     130:	a9b77bfd 	stp	x29, x30, [sp, #-144]!
     134:	910003fd 	mov	x29, sp
     138:	f9409800 	ldr	x0, [x0, #304]
     13c:	a90153f3 	stp	x19, x20, [sp, #16]
     140:	a9025bf5 	stp	x21, x22, [sp, #32]
     144:	f9400003 	ldr	x3, [x0]
     148:	f90047e3 	str	x3, [sp, #136]
     14c:	d2800003 	mov	x3, #0x0                   	// #0
/home/jeferson/optee/optee_examples/plugins/ta/plugin_ta.c:74
     150:	35000742 	cbnz	w2, 238 <__GP11_TA_InvokeCommandEntryPoint+0x10c>
/home/jeferson/optee/optee_examples/plugins/ta/plugin_ta.c:77
     154:	35000761 	cbnz	w1, 240 <__GP11_TA_InvokeCommandEntryPoint+0x114>
syslog_plugin_ping():
/home/jeferson/optee/optee_examples/plugins/ta/plugin_ta.c:49
     158:	9100e3f5 	add	x21, sp, #0x38
     15c:	f0000074 	adrp	x20, f000 <__text_end+0x2508>
     160:	91136294 	add	x20, x20, #0x4d8
     164:	d2800202 	mov	x2, #0x10                  	// #16
/home/jeferson/optee/optee_examples/plugins/ta/plugin_ta.c:48
     168:	a904ffff 	stp	xzr, xzr, [sp, #72]
/home/jeferson/optee/optee_examples/plugins/ta/plugin_ta.c:49
     16c:	aa1403e1 	mov	x1, x20
     170:	aa1503e0 	mov	x0, x21
/home/jeferson/optee/optee_examples/plugins/ta/plugin_ta.c:51
     174:	910123f3 	add	x19, sp, #0x48
/home/jeferson/optee/optee_examples/plugins/ta/plugin_ta.c:56
     178:	91004294 	add	x20, x20, #0x10
/home/jeferson/optee/optee_examples/plugins/ta/plugin_ta.c:48
     17c:	a905ffff 	stp	xzr, xzr, [sp, #88]
     180:	a906ffff 	stp	xzr, xzr, [sp, #104]
     184:	a907ffff 	stp	xzr, xzr, [sp, #120]
/home/jeferson/optee/optee_examples/plugins/ta/plugin_ta.c:49
     188:	97ffffa6 	bl	20 <memcpy>
/home/jeferson/optee/optee_examples/plugins/ta/plugin_ta.c:51
     18c:	900000a0 	adrp	x0, 14000 <data.18+0x2998>
     190:	f0000062 	adrp	x2, f000 <__text_end+0x2508>
     194:	91242042 	add	x2, x2, #0x908
     198:	b94e8003 	ldr	w3, [x0, #3712]
     19c:	11000461 	add	w1, w3, #0x1
     1a0:	b90e8001 	str	w1, [x0, #3712]
     1a4:	d2800801 	mov	x1, #0x40                  	// #64
     1a8:	aa1303e0 	mov	x0, x19
     1ac:	94000039 	bl	290 <snprintf>
/home/jeferson/optee/optee_examples/plugins/ta/plugin_ta.c:56
     1b0:	aa1303e5 	mov	x5, x19
/home/jeferson/optee/optee_examples/plugins/ta/plugin_ta.c:51
     1b4:	2a0003f6 	mov	w22, w0
/home/jeferson/optee/optee_examples/plugins/ta/plugin_ta.c:56
     1b8:	52800023 	mov	w3, #0x1                   	// #1
     1bc:	52800042 	mov	w2, #0x2                   	// #2
     1c0:	52800701 	mov	w1, #0x38                  	// #56
     1c4:	aa1403e0 	mov	x0, x20
     1c8:	f0000064 	adrp	x4, f000 <__text_end+0x2508>
     1cc:	91249084 	add	x4, x4, #0x924
     1d0:	94000498 	bl	1430 <trace_printf>
/home/jeferson/optee/optee_examples/plugins/ta/plugin_ta.c:58
     1d4:	aa1303e3 	mov	x3, x19
     1d8:	d2800005 	mov	x5, #0x0                   	// #0
     1dc:	93407ec4 	sxtw	x4, w22
     1e0:	528000c2 	mov	w2, #0x6                   	// #6
     1e4:	52800001 	mov	w1, #0x0                   	// #0
     1e8:	aa1503e0 	mov	x0, x21
     1ec:	940005ca 	bl	1914 <tee_invoke_supp_plugin>
     1f0:	2a0003f3 	mov	w19, w0
/home/jeferson/optee/optee_examples/plugins/ta/plugin_ta.c:60
     1f4:	34000120 	cbz	w0, 218 <__GP11_TA_InvokeCommandEntryPoint+0xec>
/home/jeferson/optee/optee_examples/plugins/ta/plugin_ta.c:61
     1f8:	2a0003e5 	mov	w5, w0
     1fc:	f0000064 	adrp	x4, f000 <__text_end+0x2508>
     200:	91250c84 	add	x4, x4, #0x943
     204:	52800023 	mov	w3, #0x1                   	// #1
     208:	52800022 	mov	w2, #0x1                   	// #1
     20c:	528007a1 	mov	w1, #0x3d                  	// #61
     210:	aa1403e0 	mov	x0, x20
     214:	94000487 	bl	1430 <trace_printf>
__GP11_TA_InvokeCommandEntryPoint():
/home/jeferson/optee/optee_examples/plugins/ta/plugin_ta.c:83
     218:	b0000080 	adrp	x0, 11000 <_DYNAMIC>
     21c:	f9409800 	ldr	x0, [x0, #304]
     220:	f94047e2 	ldr	x2, [sp, #136]
     224:	f9400001 	ldr	x1, [x0]
     228:	eb010042 	subs	x2, x2, x1
     22c:	d2800001 	mov	x1, #0x0                   	// #0
     230:	540000c0 	b.eq	248 <__GP11_TA_InvokeCommandEntryPoint+0x11c>  // b.none
     234:	94000062 	bl	3bc <__stack_chk_fail>
/home/jeferson/optee/optee_examples/plugins/ta/plugin_ta.c:75
     238:	129fff33 	mov	w19, #0xffff0006            	// #-65530
     23c:	17fffff7 	b	218 <__GP11_TA_InvokeCommandEntryPoint+0xec>
/home/jeferson/optee/optee_examples/plugins/ta/plugin_ta.c:81
     240:	129ffeb3 	mov	w19, #0xffff000a            	// #-65526
     244:	17fffff5 	b	218 <__GP11_TA_InvokeCommandEntryPoint+0xec>
/home/jeferson/optee/optee_examples/plugins/ta/plugin_ta.c:83
     248:	2a1303e0 	mov	w0, w19
     24c:	a94153f3 	ldp	x19, x20, [sp, #16]
     250:	a9425bf5 	ldp	x21, x22, [sp, #32]
     254:	a8c97bfd 	ldp	x29, x30, [sp], #144
     258:	d65f03c0 	ret

000000000000025c <__ta_entry>:
__ta_entry():
/home/jeferson/optee/optee_os-rpi4/out/arm-plat-rpi4/export-ta_arm64/src/user_ta_header.c:51
     25c:	a9bf7bfd 	stp	x29, x30, [sp, #-16]!
     260:	910003fd 	mov	x29, sp
/home/jeferson/optee/optee_os-rpi4/out/arm-plat-rpi4/export-ta_arm64/src/user_ta_header.c:70
     264:	940007bf 	bl	2160 <__utee_entry>
/home/jeferson/optee/optee_os-rpi4/out/arm-plat-rpi4/export-ta_arm64/src/user_ta_header.c:81
     268:	2a0003e0 	mov	w0, w0
     26c:	940005e7 	bl	1a08 <_utee_return>

0000000000000270 <tahead_get_trace_level>:
tahead_get_trace_level():
/home/jeferson/optee/optee_os-rpi4/out/arm-plat-rpi4/export-ta_arm64/src/user_ta_header.c:193
     270:	52800080 	mov	w0, #0x4                   	// #4
     274:	d65f03c0 	ret

0000000000000278 <TA_OpenSessionEntryPoint>:
TA_OpenSessionEntryPoint():
/home/jeferson/optee/optee_os-rpi4/out/arm-plat-rpi4/export-ta_arm64/src/user_ta_header.c:203
     278:	b0000083 	adrp	x3, 11000 <_DYNAMIC>
     27c:	f940cc63 	ldr	x3, [x3, #408]
     280:	1400088c 	b	24b0 <__ta_open_sess>

0000000000000284 <TA_InvokeCommandEntryPoint>:
TA_InvokeCommandEntryPoint():
/home/jeferson/optee/optee_os-rpi4/out/arm-plat-rpi4/export-ta_arm64/src/user_ta_header.c:211
     284:	b0000084 	adrp	x4, 11000 <_DYNAMIC>
     288:	f940c084 	ldr	x4, [x4, #384]
     28c:	140008b0 	b	254c <__ta_invoke_cmd>

0000000000000290 <snprintf>:
snprintf():
/home/jeferson/optee/optee_os-rpi4/lib/libutils/isoc/snprintf.c:10
     290:	a9ad7bfd 	stp	x29, x30, [sp, #-304]!
     294:	910003fd 	mov	x29, sp
     298:	a90153f3 	stp	x19, x20, [sp, #16]
     29c:	b0000093 	adrp	x19, 11000 <_DYNAMIC>
     2a0:	aa0003f4 	mov	x20, x0
     2a4:	f9409a60 	ldr	x0, [x19, #304]
     2a8:	a9025bf5 	stp	x21, x22, [sp, #32]
     2ac:	aa0103f5 	mov	x21, x1
     2b0:	3d8023e0 	str	q0, [sp, #128]
     2b4:	aa0203f6 	mov	x22, x2
/home/jeferson/optee/optee_os-rpi4/lib/libutils/isoc/snprintf.c:15
     2b8:	d2800402 	mov	x2, #0x20                  	// #32
/home/jeferson/optee/optee_os-rpi4/lib/libutils/isoc/snprintf.c:10
     2bc:	3d8027e1 	str	q1, [sp, #144]
     2c0:	3d802be2 	str	q2, [sp, #160]
     2c4:	3d802fe3 	str	q3, [sp, #176]
     2c8:	3d8033e4 	str	q4, [sp, #192]
     2cc:	3d8037e5 	str	q5, [sp, #208]
     2d0:	3d803be6 	str	q6, [sp, #224]
     2d4:	3d803fe7 	str	q7, [sp, #240]
     2d8:	a91093e3 	stp	x3, x4, [sp, #264]
/home/jeferson/optee/optee_os-rpi4/lib/libutils/isoc/snprintf.c:15
     2dc:	9100c3e3 	add	x3, sp, #0x30
/home/jeferson/optee/optee_os-rpi4/lib/libutils/isoc/snprintf.c:10
     2e0:	a9119be5 	stp	x5, x6, [sp, #280]
     2e4:	f90097e7 	str	x7, [sp, #296]
     2e8:	f9400001 	ldr	x1, [x0]
     2ec:	f9003fe1 	str	x1, [sp, #120]
     2f0:	d2800001 	mov	x1, #0x0                   	// #0
/home/jeferson/optee/optee_os-rpi4/lib/libutils/isoc/snprintf.c:14
     2f4:	9104c3e0 	add	x0, sp, #0x130
     2f8:	a90583e0 	stp	x0, x0, [sp, #88]
     2fc:	910403e0 	add	x0, sp, #0x100
/home/jeferson/optee/optee_os-rpi4/lib/libutils/isoc/snprintf.c:15
     300:	910163e1 	add	x1, sp, #0x58
/home/jeferson/optee/optee_os-rpi4/lib/libutils/isoc/snprintf.c:14
     304:	f90037e0 	str	x0, [sp, #104]
     308:	128004e0 	mov	w0, #0xffffffd8            	// #-40
     30c:	b90073e0 	str	w0, [sp, #112]
     310:	12800fe0 	mov	w0, #0xffffff80            	// #-128
     314:	b90077e0 	str	w0, [sp, #116]
/home/jeferson/optee/optee_os-rpi4/lib/libutils/isoc/snprintf.c:15
     318:	aa0303e0 	mov	x0, x3
     31c:	97ffff41 	bl	20 <memcpy>
     320:	aa0003e3 	mov	x3, x0
     324:	aa1603e2 	mov	x2, x22
     328:	aa1503e1 	mov	x1, x21
     32c:	aa1403e0 	mov	x0, x20
     330:	52800004 	mov	w4, #0x0                   	// #0
     334:	9400002e 	bl	3ec <__vsnprintf>
/home/jeferson/optee/optee_os-rpi4/lib/libutils/isoc/snprintf.c:19
     338:	f9409a73 	ldr	x19, [x19, #304]
     33c:	f9403fe1 	ldr	x1, [sp, #120]
     340:	f9400262 	ldr	x2, [x19]
     344:	eb020021 	subs	x1, x1, x2
     348:	d2800002 	mov	x2, #0x0                   	// #0
     34c:	54000040 	b.eq	354 <snprintf+0xc4>  // b.none
     350:	9400001b 	bl	3bc <__stack_chk_fail>
     354:	a94153f3 	ldp	x19, x20, [sp, #16]
     358:	a9425bf5 	ldp	x21, x22, [sp, #32]
     35c:	a8d37bfd 	ldp	x29, x30, [sp], #304
     360:	d65f03c0 	ret

0000000000000364 <vsnprintf>:
vsnprintf():
/home/jeferson/optee/optee_os-rpi4/lib/libutils/isoc/snprintf.c:22
     364:	a9bb7bfd 	stp	x29, x30, [sp, #-80]!
/home/jeferson/optee/optee_os-rpi4/lib/libutils/isoc/snprintf.c:23
     368:	9100c3e4 	add	x4, sp, #0x30
/home/jeferson/optee/optee_os-rpi4/lib/libutils/isoc/snprintf.c:22
     36c:	910003fd 	mov	x29, sp
     370:	a90153f3 	stp	x19, x20, [sp, #16]
     374:	aa0003f3 	mov	x19, x0
     378:	aa0103f4 	mov	x20, x1
/home/jeferson/optee/optee_os-rpi4/lib/libutils/isoc/snprintf.c:23
     37c:	aa0403e0 	mov	x0, x4
/home/jeferson/optee/optee_os-rpi4/lib/libutils/isoc/snprintf.c:22
     380:	aa0303e1 	mov	x1, x3
     384:	f90013f5 	str	x21, [sp, #32]
     388:	aa0203f5 	mov	x21, x2
/home/jeferson/optee/optee_os-rpi4/lib/libutils/isoc/snprintf.c:23
     38c:	d2800402 	mov	x2, #0x20                  	// #32
     390:	97ffff24 	bl	20 <memcpy>
     394:	aa1503e2 	mov	x2, x21
     398:	aa0003e3 	mov	x3, x0
     39c:	aa1403e1 	mov	x1, x20
     3a0:	aa1303e0 	mov	x0, x19
     3a4:	52800004 	mov	w4, #0x0                   	// #0
     3a8:	94000011 	bl	3ec <__vsnprintf>
/home/jeferson/optee/optee_os-rpi4/lib/libutils/isoc/snprintf.c:24
     3ac:	a94153f3 	ldp	x19, x20, [sp, #16]
     3b0:	f94013f5 	ldr	x21, [sp, #32]
     3b4:	a8c57bfd 	ldp	x29, x30, [sp], #80
     3b8:	d65f03c0 	ret

00000000000003bc <__stack_chk_fail>:
__stack_chk_fail():
/home/jeferson/optee/optee_os-rpi4/lib/libutils/isoc/stack_check.c:24
     3bc:	a9bf7bfd 	stp	x29, x30, [sp, #-16]!
/home/jeferson/optee/optee_os-rpi4/lib/libutils/isoc/stack_check.c:25
     3c0:	f0000064 	adrp	x4, f000 <__text_end+0x2508>
     3c4:	52800023 	mov	w3, #0x1                   	// #1
/home/jeferson/optee/optee_os-rpi4/lib/libutils/isoc/stack_check.c:24
     3c8:	910003fd 	mov	x29, sp
/home/jeferson/optee/optee_os-rpi4/lib/libutils/isoc/stack_check.c:25
     3cc:	9129b084 	add	x4, x4, #0xa6c
     3d0:	52800022 	mov	w2, #0x1                   	// #1
     3d4:	52800001 	mov	w1, #0x0                   	// #0
     3d8:	d2800000 	mov	x0, #0x0                   	// #0
     3dc:	94000415 	bl	1430 <trace_printf>
/home/jeferson/optee/optee_os-rpi4/lib/libutils/isoc/stack_check.c:27 (discriminator 1)
     3e0:	1299fe00 	mov	w0, #0xffff300f            	// #-53233
     3e4:	94000586 	bl	19fc <_utee_panic>
/home/jeferson/optee/optee_os-rpi4/lib/libutils/isoc/stack_check.c:26 (discriminator 1)
     3e8:	17fffffe 	b	3e0 <__stack_chk_fail+0x24>

00000000000003ec <__vsnprintf>:
__vsnprintf():
/home/jeferson/optee/optee_os-rpi4/lib/libutils/ext/snprintk.c:138
     3ec:	a9b97bfd 	stp	x29, x30, [sp, #-112]!
     3f0:	b0000085 	adrp	x5, 11000 <_DYNAMIC>
     3f4:	910003fd 	mov	x29, sp
     3f8:	f94098a5 	ldr	x5, [x5, #304]
     3fc:	a90153f3 	stp	x19, x20, [sp, #16]
     400:	aa0103f4 	mov	x20, x1
     404:	a9025bf5 	stp	x21, x22, [sp, #32]
     408:	aa0003f3 	mov	x19, x0
/home/jeferson/optee/optee_os-rpi4/lib/libutils/ext/snprintk.c:142
     40c:	8b140016 	add	x22, x0, x20
/home/jeferson/optee/optee_os-rpi4/lib/libutils/ext/snprintk.c:138
     410:	f9001bf7 	str	x23, [sp, #48]
     414:	aa0303e1 	mov	x1, x3
     418:	aa0203f5 	mov	x21, x2
     41c:	12001c97 	and	w23, w4, #0xff
     420:	f94000a0 	ldr	x0, [x5]
     424:	f90037e0 	str	x0, [sp, #104]
     428:	d2800000 	mov	x0, #0x0                   	// #0
/home/jeferson/optee/optee_os-rpi4/lib/libutils/ext/snprintk.c:143
     42c:	910103e5 	add	x5, sp, #0x40
     430:	aa0503e0 	mov	x0, x5
     434:	d2800402 	mov	x2, #0x20                  	// #32
/home/jeferson/optee/optee_os-rpi4/lib/libutils/ext/snprintk.c:142
     438:	f90033f6 	str	x22, [sp, #96]
/home/jeferson/optee/optee_os-rpi4/lib/libutils/ext/snprintk.c:143
     43c:	97fffef9 	bl	20 <memcpy>
     440:	aa0003e3 	mov	x3, x0
     444:	2a1703e4 	mov	w4, w23
     448:	aa1303e2 	mov	x2, x19
     44c:	910183e1 	add	x1, sp, #0x60
     450:	aa1503e0 	mov	x0, x21
     454:	94000061 	bl	5d8 <kprintf.constprop.0>
/home/jeferson/optee/optee_os-rpi4/lib/libutils/ext/snprintk.c:144
     458:	f100027f 	cmp	x19, #0x0
     45c:	fa401a84 	ccmp	x20, #0x0, #0x4, ne  // ne = any
     460:	540000a0 	b.eq	474 <__vsnprintf+0x88>  // b.none
/home/jeferson/optee/optee_os-rpi4/lib/libutils/ext/snprintk.c:146
     464:	93407c01 	sxtw	x1, w0
     468:	eb20c29f 	cmp	x20, w0, sxtw
     46c:	54000148 	b.hi	494 <__vsnprintf+0xa8>  // b.pmore
/home/jeferson/optee/optee_os-rpi4/lib/libutils/ext/snprintk.c:147
     470:	381ff2df 	sturb	wzr, [x22, #-1]
/home/jeferson/optee/optee_os-rpi4/lib/libutils/ext/snprintk.c:152
     474:	b0000085 	adrp	x5, 11000 <_DYNAMIC>
     478:	f94098a5 	ldr	x5, [x5, #304]
     47c:	f94037e1 	ldr	x1, [sp, #104]
     480:	f94000a2 	ldr	x2, [x5]
     484:	eb020021 	subs	x1, x1, x2
     488:	d2800002 	mov	x2, #0x0                   	// #0
     48c:	54000080 	b.eq	49c <__vsnprintf+0xb0>  // b.none
     490:	97ffffcb 	bl	3bc <__stack_chk_fail>
/home/jeferson/optee/optee_os-rpi4/lib/libutils/ext/snprintk.c:149
     494:	38216a7f 	strb	wzr, [x19, x1]
/home/jeferson/optee/optee_os-rpi4/lib/libutils/ext/snprintk.c:151
     498:	17fffff7 	b	474 <__vsnprintf+0x88>
/home/jeferson/optee/optee_os-rpi4/lib/libutils/ext/snprintk.c:152
     49c:	a94153f3 	ldp	x19, x20, [sp, #16]
     4a0:	a9425bf5 	ldp	x21, x22, [sp, #32]
     4a4:	f9401bf7 	ldr	x23, [sp, #48]
     4a8:	a8c77bfd 	ldp	x29, x30, [sp], #112
     4ac:	d65f03c0 	ret

00000000000004b0 <vsnprintk>:
vsnprintk():
/home/jeferson/optee/optee_os-rpi4/lib/libutils/ext/snprintk.c:130
     4b0:	a9bb7bfd 	stp	x29, x30, [sp, #-80]!
/home/jeferson/optee/optee_os-rpi4/lib/libutils/ext/snprintk.c:131
     4b4:	9100c3e4 	add	x4, sp, #0x30
/home/jeferson/optee/optee_os-rpi4/lib/libutils/ext/snprintk.c:130
     4b8:	910003fd 	mov	x29, sp
     4bc:	a90153f3 	stp	x19, x20, [sp, #16]
     4c0:	aa0003f3 	mov	x19, x0
     4c4:	aa0103f4 	mov	x20, x1
/home/jeferson/optee/optee_os-rpi4/lib/libutils/ext/snprintk.c:131
     4c8:	aa0403e0 	mov	x0, x4
/home/jeferson/optee/optee_os-rpi4/lib/libutils/ext/snprintk.c:130
     4cc:	aa0303e1 	mov	x1, x3
     4d0:	f90013f5 	str	x21, [sp, #32]
     4d4:	aa0203f5 	mov	x21, x2
/home/jeferson/optee/optee_os-rpi4/lib/libutils/ext/snprintk.c:131
     4d8:	d2800402 	mov	x2, #0x20                  	// #32
     4dc:	97fffed1 	bl	20 <memcpy>
     4e0:	aa1503e2 	mov	x2, x21
     4e4:	aa0003e3 	mov	x3, x0
     4e8:	aa1403e1 	mov	x1, x20
     4ec:	aa1303e0 	mov	x0, x19
     4f0:	52800024 	mov	w4, #0x1                   	// #1
     4f4:	97ffffbe 	bl	3ec <__vsnprintf>
/home/jeferson/optee/optee_os-rpi4/lib/libutils/ext/snprintk.c:132
     4f8:	a94153f3 	ldp	x19, x20, [sp, #16]
     4fc:	f94013f5 	ldr	x21, [sp, #32]
     500:	a8c57bfd 	ldp	x29, x30, [sp], #80
     504:	d65f03c0 	ret

0000000000000508 <snprintk>:
snprintk():
/home/jeferson/optee/optee_os-rpi4/lib/libutils/ext/snprintk.c:113
     508:	a9ad7bfd 	stp	x29, x30, [sp, #-304]!
     50c:	910003fd 	mov	x29, sp
     510:	a90153f3 	stp	x19, x20, [sp, #16]
     514:	b0000093 	adrp	x19, 11000 <_DYNAMIC>
     518:	aa0003f4 	mov	x20, x0
     51c:	f9409a60 	ldr	x0, [x19, #304]
     520:	a9025bf5 	stp	x21, x22, [sp, #32]
     524:	aa0103f5 	mov	x21, x1
     528:	3d8023e0 	str	q0, [sp, #128]
     52c:	aa0203f6 	mov	x22, x2
/home/jeferson/optee/optee_os-rpi4/lib/libutils/ext/snprintk.c:118
     530:	d2800402 	mov	x2, #0x20                  	// #32
/home/jeferson/optee/optee_os-rpi4/lib/libutils/ext/snprintk.c:113
     534:	3d8027e1 	str	q1, [sp, #144]
     538:	3d802be2 	str	q2, [sp, #160]
     53c:	3d802fe3 	str	q3, [sp, #176]
     540:	3d8033e4 	str	q4, [sp, #192]
     544:	3d8037e5 	str	q5, [sp, #208]
     548:	3d803be6 	str	q6, [sp, #224]
     54c:	3d803fe7 	str	q7, [sp, #240]
     550:	a91093e3 	stp	x3, x4, [sp, #264]
/home/jeferson/optee/optee_os-rpi4/lib/libutils/ext/snprintk.c:118
     554:	9100c3e3 	add	x3, sp, #0x30
/home/jeferson/optee/optee_os-rpi4/lib/libutils/ext/snprintk.c:113
     558:	a9119be5 	stp	x5, x6, [sp, #280]
     55c:	f90097e7 	str	x7, [sp, #296]
     560:	f9400001 	ldr	x1, [x0]
     564:	f9003fe1 	str	x1, [sp, #120]
     568:	d2800001 	mov	x1, #0x0                   	// #0
/home/jeferson/optee/optee_os-rpi4/lib/libutils/ext/snprintk.c:117
     56c:	9104c3e0 	add	x0, sp, #0x130
     570:	a90583e0 	stp	x0, x0, [sp, #88]
     574:	910403e0 	add	x0, sp, #0x100
/home/jeferson/optee/optee_os-rpi4/lib/libutils/ext/snprintk.c:118
     578:	910163e1 	add	x1, sp, #0x58
/home/jeferson/optee/optee_os-rpi4/lib/libutils/ext/snprintk.c:117
     57c:	f90037e0 	str	x0, [sp, #104]
     580:	128004e0 	mov	w0, #0xffffffd8            	// #-40
     584:	b90073e0 	str	w0, [sp, #112]
     588:	12800fe0 	mov	w0, #0xffffff80            	// #-128
     58c:	b90077e0 	str	w0, [sp, #116]
/home/jeferson/optee/optee_os-rpi4/lib/libutils/ext/snprintk.c:118
     590:	aa0303e0 	mov	x0, x3
     594:	97fffea3 	bl	20 <memcpy>
     598:	aa0003e3 	mov	x3, x0
     59c:	aa1603e2 	mov	x2, x22
     5a0:	aa1503e1 	mov	x1, x21
     5a4:	aa1403e0 	mov	x0, x20
     5a8:	97ffffc2 	bl	4b0 <vsnprintk>
/home/jeferson/optee/optee_os-rpi4/lib/libutils/ext/snprintk.c:122
     5ac:	f9409a73 	ldr	x19, [x19, #304]
     5b0:	f9403fe1 	ldr	x1, [sp, #120]
     5b4:	f9400262 	ldr	x2, [x19]
     5b8:	eb020021 	subs	x1, x1, x2
     5bc:	d2800002 	mov	x2, #0x0                   	// #0
     5c0:	54000040 	b.eq	5c8 <snprintk+0xc0>  // b.none
     5c4:	97ffff7e 	bl	3bc <__stack_chk_fail>
     5c8:	a94153f3 	ldp	x19, x20, [sp, #16]
     5cc:	a9425bf5 	ldp	x21, x22, [sp, #32]
     5d0:	a8d37bfd 	ldp	x29, x30, [sp], #304
     5d4:	d65f03c0 	ret

00000000000005d8 <kprintf.constprop.0>:
kprintf():
/home/jeferson/optee/optee_os-rpi4/lib/libutils/ext/snprintk.c:242
     5d8:	d103c3ff 	sub	sp, sp, #0xf0
     5dc:	aa0103e9 	mov	x9, x1
     5e0:	a9037bfd 	stp	x29, x30, [sp, #48]
     5e4:	9100c3fd 	add	x29, sp, #0x30
     5e8:	a90873fb 	stp	x27, x28, [sp, #128]
     5ec:	aa0003fc 	mov	x28, x0
     5f0:	12001c80 	and	w0, w4, #0xff
     5f4:	b900abe0 	str	w0, [sp, #168]
     5f8:	b0000080 	adrp	x0, 11000 <_DYNAMIC>
     5fc:	a90453f3 	stp	x19, x20, [sp, #64]
     600:	b9401874 	ldr	w20, [x3, #24]
     604:	f9409800 	ldr	x0, [x0, #304]
     608:	a9055bf5 	stp	x21, x22, [sp, #80]
     60c:	aa0203f6 	mov	x22, x2
     610:	a90663f7 	stp	x23, x24, [sp, #96]
     614:	a9076bf9 	stp	x25, x26, [sp, #112]
     618:	f9400001 	ldr	x1, [x0]
     61c:	f90077e1 	str	x1, [sp, #232]
     620:	d2800001 	mov	x1, #0x0                   	// #0
     624:	a9406c73 	ldp	x19, x27, [x3]
/home/jeferson/optee/optee_os-rpi4/lib/libutils/ext/snprintk.c:264
     628:	b4000489 	cbz	x9, 6b8 <kprintf.constprop.0+0xe0>
/home/jeferson/optee/optee_os-rpi4/lib/libutils/ext/snprintk.c:265
     62c:	f9400139 	ldr	x25, [x9]
/home/jeferson/optee/optee_os-rpi4/lib/libutils/ext/snprintk.c:297
     630:	f0000078 	adrp	x24, f000 <__text_end+0x2508>
/home/jeferson/optee/optee_os-rpi4/lib/libutils/ext/snprintk.c:275
     634:	d2800017 	mov	x23, #0x0                   	// #0
/home/jeferson/optee/optee_os-rpi4/lib/libutils/ext/snprintk.c:297
     638:	9113f300 	add	x0, x24, #0x4fc
/home/jeferson/optee/optee_os-rpi4/lib/libutils/ext/snprintk.c:273
     63c:	5280001a 	mov	w26, #0x0                   	// #0
/home/jeferson/optee/optee_os-rpi4/lib/libutils/ext/snprintk.c:297
     640:	f9004fe0 	str	x0, [sp, #152]
/home/jeferson/optee/optee_os-rpi4/lib/libutils/ext/snprintk.c:281
     644:	39400380 	ldrb	w0, [x28]
     648:	7100941f 	cmp	w0, #0x25
     64c:	7a401804 	ccmp	w0, #0x0, #0x4, ne  // ne = any
     650:	54000381 	b.ne	6c0 <kprintf.constprop.0+0xe8>  // b.any
/home/jeferson/optee/optee_os-rpi4/lib/libutils/ext/snprintk.c:285
     654:	340051a0 	cbz	w0, 1088 <kprintf.constprop.0+0xab0>
/home/jeferson/optee/optee_os-rpi4/lib/libutils/ext/snprintk.c:293
     658:	12800005 	mov	w5, #0xffffffff            	// #-1
/home/jeferson/optee/optee_os-rpi4/lib/libutils/ext/snprintk.c:297
     65c:	f0000062 	adrp	x2, f000 <__text_end+0x2508>
/home/jeferson/optee/optee_os-rpi4/lib/libutils/ext/snprintk.c:288
     660:	9100079c 	add	x28, x28, #0x1
     664:	2a1403e4 	mov	w4, w20
     668:	aa1303e3 	mov	x3, x19
/home/jeferson/optee/optee_os-rpi4/lib/libutils/ext/snprintk.c:297
     66c:	91146042 	add	x2, x2, #0x518
/home/jeferson/optee/optee_os-rpi4/lib/libutils/ext/snprintk.c:330
     670:	2a0503e7 	mov	w7, w5
/home/jeferson/optee/optee_os-rpi4/lib/libutils/ext/snprintk.c:294
     674:	52800001 	mov	w1, #0x0                   	// #0
/home/jeferson/optee/optee_os-rpi4/lib/libutils/ext/snprintk.c:292
     678:	5280000b 	mov	w11, #0x0                   	// #0
/home/jeferson/optee/optee_os-rpi4/lib/libutils/ext/snprintk.c:290
     67c:	52800015 	mov	w21, #0x0                   	// #0
/home/jeferson/optee/optee_os-rpi4/lib/libutils/ext/snprintk.c:305
     680:	5280040d 	mov	w13, #0x20                  	// #32
/home/jeferson/optee/optee_os-rpi4/lib/libutils/ext/snprintk.c:296
     684:	38401798 	ldrb	w24, [x28], #1
/home/jeferson/optee/optee_os-rpi4/lib/libutils/ext/snprintk.c:297
     688:	7100e71f 	cmp	w24, #0x39
     68c:	5400036c 	b.gt	6f8 <kprintf.constprop.0+0x120>
     690:	71007f1f 	cmp	w24, #0x1f
     694:	54004f8d 	b.le	1084 <kprintf.constprop.0+0xaac>
     698:	51008300 	sub	w0, w24, #0x20
     69c:	7100641f 	cmp	w0, #0x19
     6a0:	54000328 	b.hi	704 <kprintf.constprop.0+0x12c>  // b.pmore
     6a4:	f9404fe6 	ldr	x6, [sp, #152]
     6a8:	386048c0 	ldrb	w0, [x6, w0, uxtw]
     6ac:	10000066 	adr	x6, 6b8 <kprintf.constprop.0+0xe0>
     6b0:	8b2088c0 	add	x0, x6, w0, sxtb #2
     6b4:	d61f0000 	br	x0
/home/jeferson/optee/optee_os-rpi4/lib/libutils/ext/snprintk.c:267
     6b8:	d2800019 	mov	x25, #0x0                   	// #0
     6bc:	17ffffdd 	b	630 <kprintf.constprop.0+0x58>
/home/jeferson/optee/optee_os-rpi4/lib/libutils/ext/snprintk.c:282
     6c0:	1100075a 	add	w26, w26, #0x1
/home/jeferson/optee/optee_os-rpi4/lib/libutils/ext/snprintk.c:283
     6c4:	b40000b6 	cbz	x22, 6d8 <kprintf.constprop.0+0x100>
     6c8:	f100013f 	cmp	x9, #0x0
     6cc:	fa5912c0 	ccmp	x22, x25, #0x0, ne  // ne = any
     6d0:	54000042 	b.cs	6d8 <kprintf.constprop.0+0x100>  // b.hs, b.nlast
     6d4:	380016c0 	strb	w0, [x22], #1
/home/jeferson/optee/optee_os-rpi4/lib/libutils/ext/snprintk.c:281
     6d8:	9100079c 	add	x28, x28, #0x1
     6dc:	17ffffda 	b	644 <kprintf.constprop.0+0x6c>
/home/jeferson/optee/optee_os-rpi4/lib/libutils/ext/snprintk.c:297
     6e0:	52800561 	mov	w1, #0x2b                  	// #43
     6e4:	17ffffe8 	b	684 <kprintf.constprop.0+0xac>
     6e8:	78605840 	ldrh	w0, [x2, w0, uxtw #1]
     6ec:	10000066 	adr	x6, 6f8 <kprintf.constprop.0+0x120>
     6f0:	8b20a8c0 	add	x0, x6, w0, sxth #2
     6f4:	d61f0000 	br	x0
     6f8:	51011300 	sub	w0, w24, #0x44
     6fc:	7100d81f 	cmp	w0, #0x36
     700:	54ffff49 	b.ls	6e8 <kprintf.constprop.0+0x110>  // b.plast
/home/jeferson/optee/optee_os-rpi4/lib/libutils/ext/snprintk.c:554
     704:	2a0403f4 	mov	w20, w4
     708:	aa0303f3 	mov	x19, x3
/home/jeferson/optee/optee_os-rpi4/lib/libutils/ext/snprintk.c:551
     70c:	390303f8 	strb	w24, [sp, #192]
/home/jeferson/optee/optee_os-rpi4/lib/libutils/ext/snprintk.c:554
     710:	1400005a 	b	878 <kprintf.constprop.0+0x2a0>
/home/jeferson/optee/optee_os-rpi4/lib/libutils/ext/snprintk.c:305
     714:	7100003f 	cmp	w1, #0x0
     718:	1a8d1021 	csel	w1, w1, w13, ne  // ne = any
     71c:	17ffffda 	b	684 <kprintf.constprop.0+0xac>
/home/jeferson/optee/optee_os-rpi4/lib/libutils/ext/snprintk.c:308
     720:	320002b5 	orr	w21, w21, #0x1
/home/jeferson/optee/optee_os-rpi4/lib/libutils/ext/snprintk.c:309
     724:	17ffffd8 	b	684 <kprintf.constprop.0+0xac>
/home/jeferson/optee/optee_os-rpi4/lib/libutils/ext/snprintk.c:317
     728:	37f80124 	tbnz	w4, #31, 74c <kprintf.constprop.0+0x174>
     72c:	91002c66 	add	x6, x3, #0xb
     730:	aa0303e0 	mov	x0, x3
     734:	927df0c3 	and	x3, x6, #0xfffffffffffffff8
     738:	b940000b 	ldr	w11, [x0]
     73c:	36fffa4b 	tbz	w11, #31, 684 <kprintf.constprop.0+0xac>
/home/jeferson/optee/optee_os-rpi4/lib/libutils/ext/snprintk.c:319
     740:	4b0b03eb 	neg	w11, w11
/home/jeferson/optee/optee_os-rpi4/lib/libutils/ext/snprintk.c:322
     744:	321e02b5 	orr	w21, w21, #0x4
/home/jeferson/optee/optee_os-rpi4/lib/libutils/ext/snprintk.c:323
     748:	17ffffcf 	b	684 <kprintf.constprop.0+0xac>
/home/jeferson/optee/optee_os-rpi4/lib/libutils/ext/snprintk.c:317
     74c:	11002086 	add	w6, w4, #0x8
     750:	710000df 	cmp	w6, #0x0
     754:	540000cd 	b.le	76c <kprintf.constprop.0+0x194>
     758:	91002c68 	add	x8, x3, #0xb
     75c:	aa0303e0 	mov	x0, x3
     760:	2a0603e4 	mov	w4, w6
     764:	927df103 	and	x3, x8, #0xfffffffffffffff8
     768:	17fffff4 	b	738 <kprintf.constprop.0+0x160>
     76c:	8b24c360 	add	x0, x27, w4, sxtw
     770:	2a0603e4 	mov	w4, w6
     774:	17fffff1 	b	738 <kprintf.constprop.0+0x160>
/home/jeferson/optee/optee_os-rpi4/lib/libutils/ext/snprintk.c:328
     778:	38401798 	ldrb	w24, [x28], #1
     77c:	7100ab1f 	cmp	w24, #0x2a
     780:	54000361 	b.ne	7ec <kprintf.constprop.0+0x214>  // b.any
/home/jeferson/optee/optee_os-rpi4/lib/libutils/ext/snprintk.c:329
     784:	37f80144 	tbnz	w4, #31, 7ac <kprintf.constprop.0+0x1d4>
     788:	91002c60 	add	x0, x3, #0xb
     78c:	2a0403e6 	mov	w6, w4
     790:	927df000 	and	x0, x0, #0xfffffffffffffff8
/home/jeferson/optee/optee_os-rpi4/lib/libutils/ext/snprintk.c:330
     794:	b9400065 	ldr	w5, [x3]
/home/jeferson/optee/optee_os-rpi4/lib/libutils/ext/snprintk.c:331
     798:	2a0603e4 	mov	w4, w6
     79c:	aa0003e3 	mov	x3, x0
/home/jeferson/optee/optee_os-rpi4/lib/libutils/ext/snprintk.c:330
     7a0:	710000bf 	cmp	w5, #0x0
     7a4:	1a87a0a5 	csel	w5, w5, w7, ge  // ge = tcont
/home/jeferson/optee/optee_os-rpi4/lib/libutils/ext/snprintk.c:331
     7a8:	17ffffb7 	b	684 <kprintf.constprop.0+0xac>
/home/jeferson/optee/optee_os-rpi4/lib/libutils/ext/snprintk.c:329
     7ac:	11002086 	add	w6, w4, #0x8
     7b0:	710000df 	cmp	w6, #0x0
     7b4:	5400008d 	b.le	7c4 <kprintf.constprop.0+0x1ec>
     7b8:	91002c60 	add	x0, x3, #0xb
     7bc:	927df000 	and	x0, x0, #0xfffffffffffffff8
     7c0:	17fffff5 	b	794 <kprintf.constprop.0+0x1bc>
     7c4:	aa0303e0 	mov	x0, x3
     7c8:	8b24c363 	add	x3, x27, w4, sxtw
     7cc:	17fffff2 	b	794 <kprintf.constprop.0+0x1bc>
/home/jeferson/optee/optee_os-rpi4/lib/libutils/ext/snprintk.c:335
     7d0:	52800146 	mov	w6, #0xa                   	// #10
/home/jeferson/optee/optee_os-rpi4/lib/libutils/ext/snprintk.c:336
     7d4:	38401798 	ldrb	w24, [x28], #1
/home/jeferson/optee/optee_os-rpi4/lib/libutils/ext/snprintk.c:335
     7d8:	1b0600a5 	madd	w5, w5, w6, w0
/home/jeferson/optee/optee_os-rpi4/lib/libutils/ext/snprintk.c:334
     7dc:	5100c300 	sub	w0, w24, #0x30
     7e0:	7100241f 	cmp	w0, #0x9
     7e4:	54ffff69 	b.ls	7d0 <kprintf.constprop.0+0x1f8>  // b.plast
     7e8:	17ffffa8 	b	688 <kprintf.constprop.0+0xb0>
/home/jeferson/optee/optee_os-rpi4/lib/libutils/ext/snprintk.c:333
     7ec:	52800005 	mov	w5, #0x0                   	// #0
     7f0:	17fffffb 	b	7dc <kprintf.constprop.0+0x204>
/home/jeferson/optee/optee_os-rpi4/lib/libutils/ext/snprintk.c:346
     7f4:	321602b5 	orr	w21, w21, #0x400
/home/jeferson/optee/optee_os-rpi4/lib/libutils/ext/snprintk.c:347
     7f8:	17ffffa3 	b	684 <kprintf.constprop.0+0xac>
/home/jeferson/optee/optee_os-rpi4/lib/libutils/ext/snprintk.c:297
     7fc:	5280000b 	mov	w11, #0x0                   	// #0
/home/jeferson/optee/optee_os-rpi4/lib/libutils/ext/snprintk.c:352
     800:	5100c308 	sub	w8, w24, #0x30
     804:	52800140 	mov	w0, #0xa                   	// #10
/home/jeferson/optee/optee_os-rpi4/lib/libutils/ext/snprintk.c:353
     808:	38401798 	ldrb	w24, [x28], #1
/home/jeferson/optee/optee_os-rpi4/lib/libutils/ext/snprintk.c:352
     80c:	1b00216b 	madd	w11, w11, w0, w8
/home/jeferson/optee/optee_os-rpi4/lib/libutils/ext/snprintk.c:354
     810:	5100c300 	sub	w0, w24, #0x30
     814:	7100241f 	cmp	w0, #0x9
     818:	54ffff49 	b.ls	800 <kprintf.constprop.0+0x228>  // b.plast
     81c:	17ffff9b 	b	688 <kprintf.constprop.0+0xb0>
/home/jeferson/optee/optee_os-rpi4/lib/libutils/ext/snprintk.c:358
     820:	321a02b5 	orr	w21, w21, #0x40
/home/jeferson/optee/optee_os-rpi4/lib/libutils/ext/snprintk.c:359
     824:	17ffff98 	b	684 <kprintf.constprop.0+0xac>
/home/jeferson/optee/optee_os-rpi4/lib/libutils/ext/snprintk.c:361
     828:	321902b5 	orr	w21, w21, #0x80
/home/jeferson/optee/optee_os-rpi4/lib/libutils/ext/snprintk.c:362
     82c:	17ffff96 	b	684 <kprintf.constprop.0+0xac>
/home/jeferson/optee/optee_os-rpi4/lib/libutils/ext/snprintk.c:364
     830:	39400380 	ldrb	w0, [x28]
     834:	7101b01f 	cmp	w0, #0x6c
     838:	54000081 	b.ne	848 <kprintf.constprop.0+0x270>  // b.any
/home/jeferson/optee/optee_os-rpi4/lib/libutils/ext/snprintk.c:328
     83c:	9100079c 	add	x28, x28, #0x1
/home/jeferson/optee/optee_os-rpi4/lib/libutils/ext/snprintk.c:372
     840:	321b02b5 	orr	w21, w21, #0x20
/home/jeferson/optee/optee_os-rpi4/lib/libutils/ext/snprintk.c:373
     844:	17ffff90 	b	684 <kprintf.constprop.0+0xac>
/home/jeferson/optee/optee_os-rpi4/lib/libutils/ext/snprintk.c:368
     848:	321c02b5 	orr	w21, w21, #0x10
     84c:	17ffff8e 	b	684 <kprintf.constprop.0+0xac>
/home/jeferson/optee/optee_os-rpi4/lib/libutils/ext/snprintk.c:375
     850:	321802b5 	orr	w21, w21, #0x100
/home/jeferson/optee/optee_os-rpi4/lib/libutils/ext/snprintk.c:376
     854:	17ffff8c 	b	684 <kprintf.constprop.0+0xac>
/home/jeferson/optee/optee_os-rpi4/lib/libutils/ext/snprintk.c:378
     858:	321702b5 	orr	w21, w21, #0x200
/home/jeferson/optee/optee_os-rpi4/lib/libutils/ext/snprintk.c:379
     85c:	17ffff8a 	b	684 <kprintf.constprop.0+0xac>
/home/jeferson/optee/optee_os-rpi4/lib/libutils/ext/snprintk.c:381
     860:	37f80164 	tbnz	w4, #31, 88c <kprintf.constprop.0+0x2b4>
     864:	91002c73 	add	x19, x3, #0xb
     868:	2a0403f4 	mov	w20, w4
     86c:	927df273 	and	x19, x19, #0xfffffffffffffff8
     870:	b9400060 	ldr	w0, [x3]
     874:	390303e0 	strb	w0, [sp, #192]
/home/jeferson/optee/optee_os-rpi4/lib/libutils/ext/snprintk.c:550
     878:	910303ed 	add	x13, sp, #0xc0
/home/jeferson/optee/optee_os-rpi4/lib/libutils/ext/snprintk.c:552
     87c:	52800025 	mov	w5, #0x1                   	// #1
/home/jeferson/optee/optee_os-rpi4/lib/libutils/ext/snprintk.c:291
     880:	52800002 	mov	w2, #0x0                   	// #0
/home/jeferson/optee/optee_os-rpi4/lib/libutils/ext/snprintk.c:553
     884:	52800001 	mov	w1, #0x0                   	// #0
/home/jeferson/optee/optee_os-rpi4/lib/libutils/ext/snprintk.c:554
     888:	140000fa 	b	c70 <kprintf.constprop.0+0x698>
/home/jeferson/optee/optee_os-rpi4/lib/libutils/ext/snprintk.c:381
     88c:	11002094 	add	w20, w4, #0x8
     890:	7100029f 	cmp	w20, #0x0
     894:	5400008d 	b.le	8a4 <kprintf.constprop.0+0x2cc>
     898:	91002c73 	add	x19, x3, #0xb
     89c:	927df273 	and	x19, x19, #0xfffffffffffffff8
     8a0:	17fffff4 	b	870 <kprintf.constprop.0+0x298>
     8a4:	aa0303f3 	mov	x19, x3
     8a8:	8b24c363 	add	x3, x27, w4, sxtw
     8ac:	17fffff1 	b	870 <kprintf.constprop.0+0x298>
/home/jeferson/optee/optee_os-rpi4/lib/libutils/ext/snprintk.c:386
     8b0:	321c02b5 	orr	w21, w21, #0x10
/home/jeferson/optee/optee_os-rpi4/lib/libutils/ext/snprintk.c:390
     8b4:	363802f5 	tbz	w21, #7, 910 <kprintf.constprop.0+0x338>
     8b8:	37f80424 	tbnz	w4, #31, 93c <kprintf.constprop.0+0x364>
     8bc:	91003c73 	add	x19, x3, #0xf
     8c0:	2a0403f4 	mov	w20, w4
     8c4:	927df273 	and	x19, x19, #0xfffffffffffffff8
     8c8:	f9400062 	ldr	x2, [x3]
/home/jeferson/optee/optee_os-rpi4/lib/libutils/ext/snprintk.c:391
     8cc:	b6f82d22 	tbz	x2, #63, e70 <kprintf.constprop.0+0x898>
/home/jeferson/optee/optee_os-rpi4/lib/libutils/ext/snprintk.c:392
     8d0:	cb0203e2 	neg	x2, x2
/home/jeferson/optee/optee_os-rpi4/lib/libutils/ext/snprintk.c:395
     8d4:	52800020 	mov	w0, #0x1                   	// #1
/home/jeferson/optee/optee_os-rpi4/lib/libutils/ext/snprintk.c:393
     8d8:	528005a1 	mov	w1, #0x2d                  	// #45
/home/jeferson/optee/optee_os-rpi4/lib/libutils/ext/snprintk.c:494
     8dc:	310004bf 	cmn	w5, #0x1
     8e0:	54003b21 	b.ne	1044 <kprintf.constprop.0+0xa6c>  // b.any
/home/jeferson/optee/optee_os-rpi4/lib/libutils/ext/snprintk.c:509
     8e4:	7100041f 	cmp	w0, #0x1
     8e8:	54002c80 	b.eq	e78 <kprintf.constprop.0+0x8a0>  // b.none
     8ec:	7100081f 	cmp	w0, #0x2
     8f0:	54000ea1 	b.ne	ac4 <kprintf.constprop.0+0x4ec>  // b.any
/home/jeferson/optee/optee_os-rpi4/lib/libutils/ext/snprintk.c:502
     8f4:	910397ed 	add	x13, sp, #0xe5
/home/jeferson/optee/optee_os-rpi4/lib/libutils/ext/snprintk.c:531
     8f8:	92400c40 	and	x0, x2, #0xf
/home/jeferson/optee/optee_os-rpi4/lib/libutils/ext/snprintk.c:532
     8fc:	d344fc42 	lsr	x2, x2, #4
/home/jeferson/optee/optee_os-rpi4/lib/libutils/ext/snprintk.c:531
     900:	38606ae0 	ldrb	w0, [x23, x0]
     904:	381ffda0 	strb	w0, [x13, #-1]!
/home/jeferson/optee/optee_os-rpi4/lib/libutils/ext/snprintk.c:533
     908:	b5ffff82 	cbnz	x2, 8f8 <kprintf.constprop.0+0x320>
     90c:	1400007b 	b	af8 <kprintf.constprop.0+0x520>
/home/jeferson/optee/optee_os-rpi4/lib/libutils/ext/snprintk.c:390
     910:	3747fd55 	tbnz	w21, #8, 8b8 <kprintf.constprop.0+0x2e0>
     914:	374ffd35 	tbnz	w21, #9, 8b8 <kprintf.constprop.0+0x2e0>
     918:	372ffd15 	tbnz	w21, #5, 8b8 <kprintf.constprop.0+0x2e0>
     91c:	3727fcf5 	tbnz	w21, #4, 8b8 <kprintf.constprop.0+0x2e0>
     920:	36300335 	tbz	w21, #6, 984 <kprintf.constprop.0+0x3ac>
     924:	37f801e4 	tbnz	w4, #31, 960 <kprintf.constprop.0+0x388>
     928:	91002c73 	add	x19, x3, #0xb
     92c:	2a0403f4 	mov	w20, w4
     930:	927df273 	and	x19, x19, #0xfffffffffffffff8
     934:	79800062 	ldrsh	x2, [x3]
     938:	17ffffe5 	b	8cc <kprintf.constprop.0+0x2f4>
     93c:	11002094 	add	w20, w4, #0x8
     940:	7100029f 	cmp	w20, #0x0
     944:	5400008d 	b.le	954 <kprintf.constprop.0+0x37c>
     948:	91003c73 	add	x19, x3, #0xf
     94c:	927df273 	and	x19, x19, #0xfffffffffffffff8
     950:	17ffffde 	b	8c8 <kprintf.constprop.0+0x2f0>
     954:	aa0303f3 	mov	x19, x3
     958:	8b24c363 	add	x3, x27, w4, sxtw
     95c:	17ffffdb 	b	8c8 <kprintf.constprop.0+0x2f0>
     960:	11002094 	add	w20, w4, #0x8
     964:	7100029f 	cmp	w20, #0x0
     968:	5400008d 	b.le	978 <kprintf.constprop.0+0x3a0>
     96c:	91002c73 	add	x19, x3, #0xb
     970:	927df273 	and	x19, x19, #0xfffffffffffffff8
     974:	17fffff0 	b	934 <kprintf.constprop.0+0x35c>
     978:	aa0303f3 	mov	x19, x3
     97c:	8b24c363 	add	x3, x27, w4, sxtw
     980:	17ffffed 	b	934 <kprintf.constprop.0+0x35c>
     984:	37f800c4 	tbnz	w4, #31, 99c <kprintf.constprop.0+0x3c4>
     988:	91002c73 	add	x19, x3, #0xb
     98c:	2a0403f4 	mov	w20, w4
     990:	927df273 	and	x19, x19, #0xfffffffffffffff8
     994:	b9800062 	ldrsw	x2, [x3]
     998:	17ffffcd 	b	8cc <kprintf.constprop.0+0x2f4>
     99c:	11002094 	add	w20, w4, #0x8
     9a0:	7100029f 	cmp	w20, #0x0
     9a4:	5400008d 	b.le	9b4 <kprintf.constprop.0+0x3dc>
     9a8:	91002c73 	add	x19, x3, #0xb
     9ac:	927df273 	and	x19, x19, #0xfffffffffffffff8
     9b0:	17fffff9 	b	994 <kprintf.constprop.0+0x3bc>
     9b4:	aa0303f3 	mov	x19, x3
     9b8:	8b24c363 	add	x3, x27, w4, sxtw
     9bc:	17fffff6 	b	994 <kprintf.constprop.0+0x3bc>
/home/jeferson/optee/optee_os-rpi4/lib/libutils/ext/snprintk.c:398
     9c0:	36380135 	tbz	w21, #7, 9e4 <kprintf.constprop.0+0x40c>
/home/jeferson/optee/optee_os-rpi4/lib/libutils/ext/snprintk.c:407
     9c4:	37f80284 	tbnz	w4, #31, a14 <kprintf.constprop.0+0x43c>
     9c8:	91003c73 	add	x19, x3, #0xf
     9cc:	2a0403f4 	mov	w20, w4
     9d0:	927df273 	and	x19, x19, #0xfffffffffffffff8
     9d4:	f9400060 	ldr	x0, [x3]
     9d8:	93407f41 	sxtw	x1, w26
     9dc:	f9000001 	str	x1, [x0]
     9e0:	17ffff19 	b	644 <kprintf.constprop.0+0x6c>
/home/jeferson/optee/optee_os-rpi4/lib/libutils/ext/snprintk.c:400
     9e4:	3747ff15 	tbnz	w21, #8, 9c4 <kprintf.constprop.0+0x3ec>
/home/jeferson/optee/optee_os-rpi4/lib/libutils/ext/snprintk.c:402
     9e8:	374ffef5 	tbnz	w21, #9, 9c4 <kprintf.constprop.0+0x3ec>
/home/jeferson/optee/optee_os-rpi4/lib/libutils/ext/snprintk.c:404
     9ec:	372ffed5 	tbnz	w21, #5, 9c4 <kprintf.constprop.0+0x3ec>
/home/jeferson/optee/optee_os-rpi4/lib/libutils/ext/snprintk.c:406
     9f0:	3727feb5 	tbnz	w21, #4, 9c4 <kprintf.constprop.0+0x3ec>
/home/jeferson/optee/optee_os-rpi4/lib/libutils/ext/snprintk.c:408
     9f4:	36300355 	tbz	w21, #6, a5c <kprintf.constprop.0+0x484>
/home/jeferson/optee/optee_os-rpi4/lib/libutils/ext/snprintk.c:409
     9f8:	37f80204 	tbnz	w4, #31, a38 <kprintf.constprop.0+0x460>
     9fc:	91003c73 	add	x19, x3, #0xf
     a00:	2a0403f4 	mov	w20, w4
     a04:	927df273 	and	x19, x19, #0xfffffffffffffff8
     a08:	f9400060 	ldr	x0, [x3]
     a0c:	7900001a 	strh	w26, [x0]
     a10:	17ffff0d 	b	644 <kprintf.constprop.0+0x6c>
/home/jeferson/optee/optee_os-rpi4/lib/libutils/ext/snprintk.c:407
     a14:	11002094 	add	w20, w4, #0x8
     a18:	7100029f 	cmp	w20, #0x0
     a1c:	5400008d 	b.le	a2c <kprintf.constprop.0+0x454>
     a20:	91003c73 	add	x19, x3, #0xf
     a24:	927df273 	and	x19, x19, #0xfffffffffffffff8
     a28:	17ffffeb 	b	9d4 <kprintf.constprop.0+0x3fc>
     a2c:	aa0303f3 	mov	x19, x3
     a30:	8b24c363 	add	x3, x27, w4, sxtw
     a34:	17ffffe8 	b	9d4 <kprintf.constprop.0+0x3fc>
/home/jeferson/optee/optee_os-rpi4/lib/libutils/ext/snprintk.c:409
     a38:	11002094 	add	w20, w4, #0x8
     a3c:	7100029f 	cmp	w20, #0x0
     a40:	5400008d 	b.le	a50 <kprintf.constprop.0+0x478>
     a44:	91003c73 	add	x19, x3, #0xf
     a48:	927df273 	and	x19, x19, #0xfffffffffffffff8
     a4c:	17ffffef 	b	a08 <kprintf.constprop.0+0x430>
     a50:	aa0303f3 	mov	x19, x3
     a54:	8b24c363 	add	x3, x27, w4, sxtw
     a58:	17ffffec 	b	a08 <kprintf.constprop.0+0x430>
/home/jeferson/optee/optee_os-rpi4/lib/libutils/ext/snprintk.c:411
     a5c:	37f800e4 	tbnz	w4, #31, a78 <kprintf.constprop.0+0x4a0>
     a60:	91003c73 	add	x19, x3, #0xf
     a64:	2a0403f4 	mov	w20, w4
     a68:	927df273 	and	x19, x19, #0xfffffffffffffff8
     a6c:	f9400060 	ldr	x0, [x3]
     a70:	b900001a 	str	w26, [x0]
     a74:	17fffef4 	b	644 <kprintf.constprop.0+0x6c>
     a78:	11002094 	add	w20, w4, #0x8
     a7c:	7100029f 	cmp	w20, #0x0
     a80:	5400008d 	b.le	a90 <kprintf.constprop.0+0x4b8>
     a84:	91003c73 	add	x19, x3, #0xf
     a88:	927df273 	and	x19, x19, #0xfffffffffffffff8
     a8c:	17fffff8 	b	a6c <kprintf.constprop.0+0x494>
     a90:	aa0303f3 	mov	x19, x3
     a94:	8b24c363 	add	x3, x27, w4, sxtw
     a98:	17fffff5 	b	a6c <kprintf.constprop.0+0x494>
/home/jeferson/optee/optee_os-rpi4/lib/libutils/ext/snprintk.c:414
     a9c:	321c02b5 	orr	w21, w21, #0x10
/home/jeferson/optee/optee_os-rpi4/lib/libutils/ext/snprintk.c:417
     aa0:	36380355 	tbz	w21, #7, b08 <kprintf.constprop.0+0x530>
     aa4:	37f80484 	tbnz	w4, #31, b34 <kprintf.constprop.0+0x55c>
     aa8:	91003c73 	add	x19, x3, #0xf
     aac:	2a0403f4 	mov	w20, w4
     ab0:	927df273 	and	x19, x19, #0xfffffffffffffff8
     ab4:	f9400062 	ldr	x2, [x3]
/home/jeferson/optee/optee_os-rpi4/lib/libutils/ext/snprintk.c:494
     ab8:	52800001 	mov	w1, #0x0                   	// #0
     abc:	310004bf 	cmn	w5, #0x1
     ac0:	54002c01 	b.ne	1040 <kprintf.constprop.0+0xa68>  // b.any
/home/jeferson/optee/optee_os-rpi4/lib/libutils/ext/snprintk.c:502
     ac4:	910397ed 	add	x13, sp, #0xe5
/home/jeferson/optee/optee_os-rpi4/lib/libutils/ext/snprintk.c:512
     ac8:	12000840 	and	w0, w2, #0x7
     acc:	aa0d03e4 	mov	x4, x13
     ad0:	1100c000 	add	w0, w0, #0x30
     ad4:	381ffda0 	strb	w0, [x13, #-1]!
/home/jeferson/optee/optee_os-rpi4/lib/libutils/ext/snprintk.c:513
     ad8:	d343fc42 	lsr	x2, x2, #3
/home/jeferson/optee/optee_os-rpi4/lib/libutils/ext/snprintk.c:514
     adc:	b5ffff62 	cbnz	x2, ac8 <kprintf.constprop.0+0x4f0>
/home/jeferson/optee/optee_os-rpi4/lib/libutils/ext/snprintk.c:516
     ae0:	360000d5 	tbz	w21, #0, af8 <kprintf.constprop.0+0x520>
     ae4:	7100c01f 	cmp	w0, #0x30
     ae8:	54000080 	b.eq	af8 <kprintf.constprop.0+0x520>  // b.none
/home/jeferson/optee/optee_os-rpi4/lib/libutils/ext/snprintk.c:517
     aec:	52800600 	mov	w0, #0x30                  	// #48
     af0:	381ff1a0 	sturb	w0, [x13, #-1]
     af4:	d100088d 	sub	x13, x4, #0x2
/home/jeferson/optee/optee_os-rpi4/lib/libutils/ext/snprintk.c:543
     af8:	2a0503e2 	mov	w2, w5
     afc:	910397e5 	add	x5, sp, #0xe5
     b00:	4b0d00a5 	sub	w5, w5, w13
     b04:	1400005b 	b	c70 <kprintf.constprop.0+0x698>
/home/jeferson/optee/optee_os-rpi4/lib/libutils/ext/snprintk.c:417
     b08:	3747fcf5 	tbnz	w21, #8, aa4 <kprintf.constprop.0+0x4cc>
     b0c:	374ffcd5 	tbnz	w21, #9, aa4 <kprintf.constprop.0+0x4cc>
     b10:	372ffcb5 	tbnz	w21, #5, aa4 <kprintf.constprop.0+0x4cc>
     b14:	3727fc95 	tbnz	w21, #4, aa4 <kprintf.constprop.0+0x4cc>
     b18:	36300335 	tbz	w21, #6, b7c <kprintf.constprop.0+0x5a4>
     b1c:	37f801e4 	tbnz	w4, #31, b58 <kprintf.constprop.0+0x580>
     b20:	91002c73 	add	x19, x3, #0xb
     b24:	2a0403f4 	mov	w20, w4
     b28:	927df273 	and	x19, x19, #0xfffffffffffffff8
     b2c:	79400062 	ldrh	w2, [x3]
     b30:	17ffffe2 	b	ab8 <kprintf.constprop.0+0x4e0>
     b34:	11002094 	add	w20, w4, #0x8
     b38:	7100029f 	cmp	w20, #0x0
     b3c:	5400008d 	b.le	b4c <kprintf.constprop.0+0x574>
     b40:	91003c73 	add	x19, x3, #0xf
     b44:	927df273 	and	x19, x19, #0xfffffffffffffff8
     b48:	17ffffdb 	b	ab4 <kprintf.constprop.0+0x4dc>
     b4c:	aa0303f3 	mov	x19, x3
     b50:	8b24c363 	add	x3, x27, w4, sxtw
     b54:	17ffffd8 	b	ab4 <kprintf.constprop.0+0x4dc>
     b58:	11002094 	add	w20, w4, #0x8
     b5c:	7100029f 	cmp	w20, #0x0
     b60:	5400008d 	b.le	b70 <kprintf.constprop.0+0x598>
     b64:	91002c73 	add	x19, x3, #0xb
     b68:	927df273 	and	x19, x19, #0xfffffffffffffff8
     b6c:	17fffff0 	b	b2c <kprintf.constprop.0+0x554>
     b70:	aa0303f3 	mov	x19, x3
     b74:	8b24c363 	add	x3, x27, w4, sxtw
     b78:	17ffffed 	b	b2c <kprintf.constprop.0+0x554>
     b7c:	37f800c4 	tbnz	w4, #31, b94 <kprintf.constprop.0+0x5bc>
     b80:	91002c73 	add	x19, x3, #0xb
     b84:	2a0403f4 	mov	w20, w4
     b88:	927df273 	and	x19, x19, #0xfffffffffffffff8
     b8c:	b9400062 	ldr	w2, [x3]
     b90:	17ffffca 	b	ab8 <kprintf.constprop.0+0x4e0>
     b94:	11002094 	add	w20, w4, #0x8
     b98:	7100029f 	cmp	w20, #0x0
     b9c:	5400008d 	b.le	bac <kprintf.constprop.0+0x5d4>
     ba0:	91002c73 	add	x19, x3, #0xb
     ba4:	927df273 	and	x19, x19, #0xfffffffffffffff8
     ba8:	17fffff9 	b	b8c <kprintf.constprop.0+0x5b4>
     bac:	aa0303f3 	mov	x19, x3
     bb0:	8b24c363 	add	x3, x27, w4, sxtw
     bb4:	17fffff6 	b	b8c <kprintf.constprop.0+0x5b4>
/home/jeferson/optee/optee_os-rpi4/lib/libutils/ext/snprintk.c:421
     bb8:	b940abe0 	ldr	w0, [sp, #168]
     bbc:	34000c80 	cbz	w0, d4c <kprintf.constprop.0+0x774>
     bc0:	39400380 	ldrb	w0, [x28]
     bc4:	7101541f 	cmp	w0, #0x55
     bc8:	54000c21 	b.ne	d4c <kprintf.constprop.0+0x774>  // b.any
     bcc:	39400780 	ldrb	w0, [x28, #1]
     bd0:	7101b01f 	cmp	w0, #0x6c
     bd4:	54000bc1 	b.ne	d4c <kprintf.constprop.0+0x774>  // b.any
/home/jeferson/optee/optee_os-rpi4/lib/libutils/ext/snprintk.c:426
     bd8:	91000b9c 	add	x28, x28, #0x2
/home/jeferson/optee/optee_os-rpi4/lib/libutils/ext/snprintk.c:427
     bdc:	37f80a64 	tbnz	w4, #31, d28 <kprintf.constprop.0+0x750>
     be0:	91003c73 	add	x19, x3, #0xf
     be4:	2a0403f4 	mov	w20, w4
     be8:	927df273 	and	x19, x19, #0xfffffffffffffff8
     bec:	f9400061 	ldr	x1, [x3]
uuid2str():
/home/jeferson/optee/optee_os-rpi4/lib/libutils/ext/snprintk.c:229
     bf0:	910303ed 	add	x13, sp, #0xc0
     bf4:	f0000062 	adrp	x2, f000 <__text_end+0x2508>
     bf8:	912a2c42 	add	x2, x2, #0xa8b
     bfc:	f90053ed 	str	x13, [sp, #160]
     c00:	39403c20 	ldrb	w0, [x1, #15]
     c04:	39402427 	ldrb	w7, [x1, #9]
     c08:	39402026 	ldrb	w6, [x1, #8]
     c0c:	79400c25 	ldrh	w5, [x1, #6]
     c10:	79400824 	ldrh	w4, [x1, #4]
     c14:	b9002be0 	str	w0, [sp, #40]
     c18:	b900afeb 	str	w11, [sp, #172]
     c1c:	39403820 	ldrb	w0, [x1, #14]
     c20:	b90023e0 	str	w0, [sp, #32]
     c24:	f9005be9 	str	x9, [sp, #176]
     c28:	39403420 	ldrb	w0, [x1, #13]
     c2c:	b9001be0 	str	w0, [sp, #24]
     c30:	39403020 	ldrb	w0, [x1, #12]
     c34:	b90013e0 	str	w0, [sp, #16]
     c38:	39402c20 	ldrb	w0, [x1, #11]
     c3c:	b9000be0 	str	w0, [sp, #8]
     c40:	39402820 	ldrb	w0, [x1, #10]
     c44:	b90003e0 	str	w0, [sp]
     c48:	aa0d03e0 	mov	x0, x13
     c4c:	b9400023 	ldr	w3, [x1]
     c50:	d28004a1 	mov	x1, #0x25                  	// #37
     c54:	97fffe2d 	bl	508 <snprintk>
     c58:	b940afeb 	ldr	w11, [sp, #172]
kprintf():
/home/jeferson/optee/optee_os-rpi4/lib/libutils/ext/snprintk.c:466
     c5c:	2a0003e5 	mov	w5, w0
     c60:	f94053ed 	ldr	x13, [sp, #160]
/home/jeferson/optee/optee_os-rpi4/lib/libutils/ext/snprintk.c:291
     c64:	52800002 	mov	w2, #0x0                   	// #0
     c68:	f9405be9 	ldr	x9, [sp, #176]
/home/jeferson/optee/optee_os-rpi4/lib/libutils/ext/snprintk.c:467
     c6c:	52800001 	mov	w1, #0x0                   	// #0
/home/jeferson/optee/optee_os-rpi4/lib/libutils/ext/snprintk.c:571
     c70:	6b05005f 	cmp	w2, w5
     c74:	1a85a040 	csel	w0, w2, w5, ge  // ge = tcont
/home/jeferson/optee/optee_os-rpi4/lib/libutils/ext/snprintk.c:572
     c78:	340021c1 	cbz	w1, 10b0 <kprintf.constprop.0+0xad8>
/home/jeferson/optee/optee_os-rpi4/lib/libutils/ext/snprintk.c:573
     c7c:	11000400 	add	w0, w0, #0x1
/home/jeferson/optee/optee_os-rpi4/lib/libutils/ext/snprintk.c:578
     c80:	6b0b001f 	cmp	w0, w11
     c84:	1a8ba004 	csel	w4, w0, w11, ge  // ge = tcont
     c88:	0b04035a 	add	w26, w26, w4
/home/jeferson/optee/optee_os-rpi4/lib/libutils/ext/snprintk.c:581
     c8c:	52808084 	mov	w4, #0x404                 	// #1028
     c90:	6a0402a4 	ands	w4, w21, w4
     c94:	540000a1 	b.ne	ca8 <kprintf.constprop.0+0x6d0>  // b.any
/home/jeferson/optee/optee_os-rpi4/lib/libutils/ext/snprintk.c:582
     c98:	4b000166 	sub	w6, w11, w0
/home/jeferson/optee/optee_os-rpi4/lib/libutils/ext/snprintk.c:584
     c9c:	52800407 	mov	w7, #0x20                  	// #32
/home/jeferson/optee/optee_os-rpi4/lib/libutils/ext/snprintk.c:583
     ca0:	710000df 	cmp	w6, #0x0
     ca4:	540020cc 	b.gt	10bc <kprintf.constprop.0+0xae4>
/home/jeferson/optee/optee_os-rpi4/lib/libutils/ext/snprintk.c:588
     ca8:	34002181 	cbz	w1, 10d8 <kprintf.constprop.0+0xb00>
/home/jeferson/optee/optee_os-rpi4/lib/libutils/ext/snprintk.c:589
     cac:	b40000b6 	cbz	x22, cc0 <kprintf.constprop.0+0x6e8>
     cb0:	f100013f 	cmp	x9, #0x0
     cb4:	fa561322 	ccmp	x25, x22, #0x2, ne  // ne = any
     cb8:	54000049 	b.ls	cc0 <kprintf.constprop.0+0x6e8>  // b.plast
     cbc:	380016c1 	strb	w1, [x22], #1
/home/jeferson/optee/optee_os-rpi4/lib/libutils/ext/snprintk.c:596
     cc0:	7110009f 	cmp	w4, #0x400
     cc4:	540000a1 	b.ne	cd8 <kprintf.constprop.0+0x700>  // b.any
/home/jeferson/optee/optee_os-rpi4/lib/libutils/ext/snprintk.c:597
     cc8:	4b000161 	sub	w1, w11, w0
/home/jeferson/optee/optee_os-rpi4/lib/libutils/ext/snprintk.c:599
     ccc:	52800604 	mov	w4, #0x30                  	// #48
/home/jeferson/optee/optee_os-rpi4/lib/libutils/ext/snprintk.c:598
     cd0:	7100003f 	cmp	w1, #0x0
     cd4:	5400226c 	b.gt	1120 <kprintf.constprop.0+0xb48>
/home/jeferson/optee/optee_os-rpi4/lib/libutils/ext/snprintk.c:603
     cd8:	4b050042 	sub	w2, w2, w5
/home/jeferson/optee/optee_os-rpi4/lib/libutils/ext/snprintk.c:605
     cdc:	52800601 	mov	w1, #0x30                  	// #48
/home/jeferson/optee/optee_os-rpi4/lib/libutils/ext/snprintk.c:604
     ce0:	7100005f 	cmp	w2, #0x0
     ce4:	540022cc 	b.gt	113c <kprintf.constprop.0+0xb64>
     ce8:	2a0503e5 	mov	w5, w5
     cec:	d2800001 	mov	x1, #0x0                   	// #0
/home/jeferson/optee/optee_os-rpi4/lib/libutils/ext/snprintk.c:608
     cf0:	eb05003f 	cmp	x1, x5
     cf4:	54002321 	b.ne	1158 <kprintf.constprop.0+0xb80>  // b.any
/home/jeferson/optee/optee_os-rpi4/lib/libutils/ext/snprintk.c:611
     cf8:	3617ca75 	tbz	w21, #2, 644 <kprintf.constprop.0+0x6c>
/home/jeferson/optee/optee_os-rpi4/lib/libutils/ext/snprintk.c:612
     cfc:	4b000160 	sub	w0, w11, w0
/home/jeferson/optee/optee_os-rpi4/lib/libutils/ext/snprintk.c:614
     d00:	52800401 	mov	w1, #0x20                  	// #32
/home/jeferson/optee/optee_os-rpi4/lib/libutils/ext/snprintk.c:613
     d04:	7100001f 	cmp	w0, #0x0
     d08:	54ffc9ed 	b.le	644 <kprintf.constprop.0+0x6c>
/home/jeferson/optee/optee_os-rpi4/lib/libutils/ext/snprintk.c:614
     d0c:	b40000b6 	cbz	x22, d20 <kprintf.constprop.0+0x748>
     d10:	f100013f 	cmp	x9, #0x0
     d14:	fa561322 	ccmp	x25, x22, #0x2, ne  // ne = any
     d18:	54000049 	b.ls	d20 <kprintf.constprop.0+0x748>  // b.plast
     d1c:	380016c1 	strb	w1, [x22], #1
     d20:	51000400 	sub	w0, w0, #0x1
     d24:	17fffff8 	b	d04 <kprintf.constprop.0+0x72c>
/home/jeferson/optee/optee_os-rpi4/lib/libutils/ext/snprintk.c:427
     d28:	11002094 	add	w20, w4, #0x8
     d2c:	7100029f 	cmp	w20, #0x0
     d30:	5400008d 	b.le	d40 <kprintf.constprop.0+0x768>
     d34:	91003c73 	add	x19, x3, #0xf
     d38:	927df273 	and	x19, x19, #0xfffffffffffffff8
     d3c:	17ffffac 	b	bec <kprintf.constprop.0+0x614>
     d40:	aa0303f3 	mov	x19, x3
     d44:	8b24c363 	add	x3, x27, w4, sxtw
     d48:	17ffffa9 	b	bec <kprintf.constprop.0+0x614>
/home/jeferson/optee/optee_os-rpi4/lib/libutils/ext/snprintk.c:441
     d4c:	37f801c4 	tbnz	w4, #31, d84 <kprintf.constprop.0+0x7ac>
     d50:	91003c73 	add	x19, x3, #0xf
     d54:	2a0403f4 	mov	w20, w4
     d58:	927df273 	and	x19, x19, #0xfffffffffffffff8
     d5c:	f9400062 	ldr	x2, [x3]
/home/jeferson/optee/optee_os-rpi4/lib/libutils/ext/snprintk.c:443
     d60:	f0000077 	adrp	x23, f000 <__text_end+0x2508>
/home/jeferson/optee/optee_os-rpi4/lib/libutils/ext/snprintk.c:444
     d64:	321f02b5 	orr	w21, w21, #0x2
/home/jeferson/optee/optee_os-rpi4/lib/libutils/ext/snprintk.c:443
     d68:	91161af7 	add	x23, x23, #0x586
/home/jeferson/optee/optee_os-rpi4/lib/libutils/ext/snprintk.c:445
     d6c:	52800f18 	mov	w24, #0x78                  	// #120
/home/jeferson/optee/optee_os-rpi4/lib/libutils/ext/snprintk.c:494
     d70:	52800001 	mov	w1, #0x0                   	// #0
     d74:	310004bf 	cmn	w5, #0x1
     d78:	54ffdbe0 	b.eq	8f4 <kprintf.constprop.0+0x31c>  // b.none
     d7c:	52800040 	mov	w0, #0x2                   	// #2
     d80:	140000b1 	b	1044 <kprintf.constprop.0+0xa6c>
/home/jeferson/optee/optee_os-rpi4/lib/libutils/ext/snprintk.c:441
     d84:	11002094 	add	w20, w4, #0x8
     d88:	7100029f 	cmp	w20, #0x0
     d8c:	5400008d 	b.le	d9c <kprintf.constprop.0+0x7c4>
     d90:	91003c73 	add	x19, x3, #0xf
     d94:	927df273 	and	x19, x19, #0xfffffffffffffff8
     d98:	17fffff1 	b	d5c <kprintf.constprop.0+0x784>
     d9c:	aa0303f3 	mov	x19, x3
     da0:	8b24c363 	add	x3, x27, w4, sxtw
     da4:	17ffffee 	b	d5c <kprintf.constprop.0+0x784>
/home/jeferson/optee/optee_os-rpi4/lib/libutils/ext/snprintk.c:448
     da8:	37f80364 	tbnz	w4, #31, e14 <kprintf.constprop.0+0x83c>
     dac:	91003c73 	add	x19, x3, #0xf
     db0:	2a0403f4 	mov	w20, w4
     db4:	927df273 	and	x19, x19, #0xfffffffffffffff8
     db8:	f940006d 	ldr	x13, [x3]
     dbc:	b500006d 	cbnz	x13, dc8 <kprintf.constprop.0+0x7f0>
/home/jeferson/optee/optee_os-rpi4/lib/libutils/ext/snprintk.c:450
     dc0:	f0000063 	adrp	x3, f000 <__text_end+0x2508>
     dc4:	912a106d 	add	x13, x3, #0xa84
/home/jeferson/optee/optee_os-rpi4/lib/libutils/ext/snprintk.c:451
     dc8:	310004bf 	cmn	w5, #0x1
     dcc:	54000360 	b.eq	e38 <kprintf.constprop.0+0x860>  // b.none
/home/jeferson/optee/optee_os-rpi4/lib/libutils/ext/snprintk.c:457
     dd0:	93407ca2 	sxtw	x2, w5
     dd4:	aa0d03e0 	mov	x0, x13
     dd8:	52800001 	mov	w1, #0x0                   	// #0
     ddc:	f90053ed 	str	x13, [sp, #160]
     de0:	2915afe5 	stp	w5, w11, [sp, #172]
     de4:	f9005fe9 	str	x9, [sp, #184]
     de8:	940001cc 	bl	1518 <memchr>
/home/jeferson/optee/optee_os-rpi4/lib/libutils/ext/snprintk.c:459
     dec:	2955afe5 	ldp	w5, w11, [sp, #172]
     df0:	f94053ed 	ldr	x13, [sp, #160]
     df4:	f9405fe9 	ldr	x9, [sp, #184]
     df8:	b4000080 	cbz	x0, e08 <kprintf.constprop.0+0x830>
/home/jeferson/optee/optee_os-rpi4/lib/libutils/ext/snprintk.c:460
     dfc:	cb0d0000 	sub	x0, x0, x13
     e00:	6b0000bf 	cmp	w5, w0
     e04:	1a80d0a5 	csel	w5, w5, w0, le
/home/jeferson/optee/optee_os-rpi4/lib/libutils/ext/snprintk.c:291
     e08:	52800002 	mov	w2, #0x0                   	// #0
/home/jeferson/optee/optee_os-rpi4/lib/libutils/ext/snprintk.c:467
     e0c:	52800001 	mov	w1, #0x0                   	// #0
     e10:	17ffff98 	b	c70 <kprintf.constprop.0+0x698>
/home/jeferson/optee/optee_os-rpi4/lib/libutils/ext/snprintk.c:448
     e14:	11002094 	add	w20, w4, #0x8
     e18:	7100029f 	cmp	w20, #0x0
     e1c:	5400008d 	b.le	e2c <kprintf.constprop.0+0x854>
     e20:	91003c73 	add	x19, x3, #0xf
     e24:	927df273 	and	x19, x19, #0xfffffffffffffff8
     e28:	17ffffe4 	b	db8 <kprintf.constprop.0+0x7e0>
     e2c:	aa0303f3 	mov	x19, x3
     e30:	8b24c363 	add	x3, x27, w4, sxtw
     e34:	17ffffe1 	b	db8 <kprintf.constprop.0+0x7e0>
/home/jeferson/optee/optee_os-rpi4/lib/libutils/ext/snprintk.c:466
     e38:	aa0d03e0 	mov	x0, x13
     e3c:	f90053ed 	str	x13, [sp, #160]
     e40:	b900afeb 	str	w11, [sp, #172]
     e44:	f9005be9 	str	x9, [sp, #176]
     e48:	940001bf 	bl	1544 <strlen>
     e4c:	17ffff83 	b	c58 <kprintf.constprop.0+0x680>
/home/jeferson/optee/optee_os-rpi4/lib/libutils/ext/snprintk.c:470
     e50:	321c02b5 	orr	w21, w21, #0x10
/home/jeferson/optee/optee_os-rpi4/lib/libutils/ext/snprintk.c:473
     e54:	36380235 	tbz	w21, #7, e98 <kprintf.constprop.0+0x8c0>
     e58:	37f80364 	tbnz	w4, #31, ec4 <kprintf.constprop.0+0x8ec>
     e5c:	91003c73 	add	x19, x3, #0xf
     e60:	2a0403f4 	mov	w20, w4
     e64:	927df273 	and	x19, x19, #0xfffffffffffffff8
     e68:	f9400062 	ldr	x2, [x3]
/home/jeferson/optee/optee_os-rpi4/lib/libutils/ext/snprintk.c:488
     e6c:	52800001 	mov	w1, #0x0                   	// #0
/home/jeferson/optee/optee_os-rpi4/lib/libutils/ext/snprintk.c:494
     e70:	310004bf 	cmn	w5, #0x1
     e74:	54000f61 	b.ne	1060 <kprintf.constprop.0+0xa88>  // b.any
/home/jeferson/optee/optee_os-rpi4/lib/libutils/ext/snprintk.c:502
     e78:	910397e0 	add	x0, sp, #0xe5
/home/jeferson/optee/optee_os-rpi4/lib/libutils/ext/snprintk.c:523
     e7c:	d2800144 	mov	x4, #0xa                   	// #10
     e80:	d100040d 	sub	x13, x0, #0x1
/home/jeferson/optee/optee_os-rpi4/lib/libutils/ext/snprintk.c:522
     e84:	f100245f 	cmp	x2, #0x9
     e88:	54000f08 	b.hi	1068 <kprintf.constprop.0+0xa90>  // b.pmore
/home/jeferson/optee/optee_os-rpi4/lib/libutils/ext/snprintk.c:526
     e8c:	1100c042 	add	w2, w2, #0x30
     e90:	381ff002 	sturb	w2, [x0, #-1]
/home/jeferson/optee/optee_os-rpi4/lib/libutils/ext/snprintk.c:527
     e94:	17ffff19 	b	af8 <kprintf.constprop.0+0x520>
/home/jeferson/optee/optee_os-rpi4/lib/libutils/ext/snprintk.c:473
     e98:	3747fe15 	tbnz	w21, #8, e58 <kprintf.constprop.0+0x880>
     e9c:	374ffdf5 	tbnz	w21, #9, e58 <kprintf.constprop.0+0x880>
     ea0:	372ffdd5 	tbnz	w21, #5, e58 <kprintf.constprop.0+0x880>
     ea4:	3727fdb5 	tbnz	w21, #4, e58 <kprintf.constprop.0+0x880>
     ea8:	36300335 	tbz	w21, #6, f0c <kprintf.constprop.0+0x934>
     eac:	37f801e4 	tbnz	w4, #31, ee8 <kprintf.constprop.0+0x910>
     eb0:	91002c73 	add	x19, x3, #0xb
     eb4:	2a0403f4 	mov	w20, w4
     eb8:	927df273 	and	x19, x19, #0xfffffffffffffff8
     ebc:	79400062 	ldrh	w2, [x3]
     ec0:	17ffffeb 	b	e6c <kprintf.constprop.0+0x894>
     ec4:	11002094 	add	w20, w4, #0x8
     ec8:	7100029f 	cmp	w20, #0x0
     ecc:	5400008d 	b.le	edc <kprintf.constprop.0+0x904>
     ed0:	91003c73 	add	x19, x3, #0xf
     ed4:	927df273 	and	x19, x19, #0xfffffffffffffff8
     ed8:	17ffffe4 	b	e68 <kprintf.constprop.0+0x890>
     edc:	aa0303f3 	mov	x19, x3
     ee0:	8b24c363 	add	x3, x27, w4, sxtw
     ee4:	17ffffe1 	b	e68 <kprintf.constprop.0+0x890>
     ee8:	11002094 	add	w20, w4, #0x8
     eec:	7100029f 	cmp	w20, #0x0
     ef0:	5400008d 	b.le	f00 <kprintf.constprop.0+0x928>
     ef4:	91002c73 	add	x19, x3, #0xb
     ef8:	927df273 	and	x19, x19, #0xfffffffffffffff8
     efc:	17fffff0 	b	ebc <kprintf.constprop.0+0x8e4>
     f00:	aa0303f3 	mov	x19, x3
     f04:	8b24c363 	add	x3, x27, w4, sxtw
     f08:	17ffffed 	b	ebc <kprintf.constprop.0+0x8e4>
     f0c:	37f800c4 	tbnz	w4, #31, f24 <kprintf.constprop.0+0x94c>
     f10:	91002c73 	add	x19, x3, #0xb
     f14:	2a0403f4 	mov	w20, w4
     f18:	927df273 	and	x19, x19, #0xfffffffffffffff8
     f1c:	b9400062 	ldr	w2, [x3]
     f20:	17ffffd3 	b	e6c <kprintf.constprop.0+0x894>
     f24:	11002094 	add	w20, w4, #0x8
     f28:	7100029f 	cmp	w20, #0x0
     f2c:	5400008d 	b.le	f3c <kprintf.constprop.0+0x964>
     f30:	91002c73 	add	x19, x3, #0xb
     f34:	927df273 	and	x19, x19, #0xfffffffffffffff8
     f38:	17fffff9 	b	f1c <kprintf.constprop.0+0x944>
     f3c:	aa0303f3 	mov	x19, x3
     f40:	8b24c363 	add	x3, x27, w4, sxtw
     f44:	17fffff6 	b	f1c <kprintf.constprop.0+0x944>
/home/jeferson/optee/optee_os-rpi4/lib/libutils/ext/snprintk.c:297
     f48:	f0000077 	adrp	x23, f000 <__text_end+0x2508>
     f4c:	91161af7 	add	x23, x23, #0x586
     f50:	910046f7 	add	x23, x23, #0x11
/home/jeferson/optee/optee_os-rpi4/lib/libutils/ext/snprintk.c:481
     f54:	363801f5 	tbz	w21, #7, f90 <kprintf.constprop.0+0x9b8>
     f58:	37f80324 	tbnz	w4, #31, fbc <kprintf.constprop.0+0x9e4>
     f5c:	91003c73 	add	x19, x3, #0xf
     f60:	2a0403f4 	mov	w20, w4
     f64:	927df273 	and	x19, x19, #0xfffffffffffffff8
     f68:	f9400062 	ldr	x2, [x3]
/home/jeferson/optee/optee_os-rpi4/lib/libutils/ext/snprintk.c:484
     f6c:	3607f035 	tbz	w21, #0, d70 <kprintf.constprop.0+0x798>
     f70:	b4fff002 	cbz	x2, d70 <kprintf.constprop.0+0x798>
/home/jeferson/optee/optee_os-rpi4/lib/libutils/ext/snprintk.c:485
     f74:	321f02b5 	orr	w21, w21, #0x2
/home/jeferson/optee/optee_os-rpi4/lib/libutils/ext/snprintk.c:482
     f78:	52800040 	mov	w0, #0x2                   	// #2
/home/jeferson/optee/optee_os-rpi4/lib/libutils/ext/snprintk.c:488
     f7c:	52800001 	mov	w1, #0x0                   	// #0
     f80:	17fffe57 	b	8dc <kprintf.constprop.0+0x304>
/home/jeferson/optee/optee_os-rpi4/lib/libutils/ext/snprintk.c:480
     f84:	f0000077 	adrp	x23, f000 <__text_end+0x2508>
     f88:	91161af7 	add	x23, x23, #0x586
     f8c:	17fffff2 	b	f54 <kprintf.constprop.0+0x97c>
/home/jeferson/optee/optee_os-rpi4/lib/libutils/ext/snprintk.c:481
     f90:	3747fe55 	tbnz	w21, #8, f58 <kprintf.constprop.0+0x980>
     f94:	374ffe35 	tbnz	w21, #9, f58 <kprintf.constprop.0+0x980>
     f98:	372ffe15 	tbnz	w21, #5, f58 <kprintf.constprop.0+0x980>
     f9c:	3727fdf5 	tbnz	w21, #4, f58 <kprintf.constprop.0+0x980>
     fa0:	36300335 	tbz	w21, #6, 1004 <kprintf.constprop.0+0xa2c>
     fa4:	37f801e4 	tbnz	w4, #31, fe0 <kprintf.constprop.0+0xa08>
     fa8:	91002c73 	add	x19, x3, #0xb
     fac:	2a0403f4 	mov	w20, w4
     fb0:	927df273 	and	x19, x19, #0xfffffffffffffff8
     fb4:	79400062 	ldrh	w2, [x3]
     fb8:	17ffffed 	b	f6c <kprintf.constprop.0+0x994>
     fbc:	11002094 	add	w20, w4, #0x8
     fc0:	7100029f 	cmp	w20, #0x0
     fc4:	5400008d 	b.le	fd4 <kprintf.constprop.0+0x9fc>
     fc8:	91003c73 	add	x19, x3, #0xf
     fcc:	927df273 	and	x19, x19, #0xfffffffffffffff8
     fd0:	17ffffe6 	b	f68 <kprintf.constprop.0+0x990>
     fd4:	aa0303f3 	mov	x19, x3
     fd8:	8b24c363 	add	x3, x27, w4, sxtw
     fdc:	17ffffe3 	b	f68 <kprintf.constprop.0+0x990>
     fe0:	11002094 	add	w20, w4, #0x8
     fe4:	7100029f 	cmp	w20, #0x0
     fe8:	5400008d 	b.le	ff8 <kprintf.constprop.0+0xa20>
     fec:	91002c73 	add	x19, x3, #0xb
     ff0:	927df273 	and	x19, x19, #0xfffffffffffffff8
     ff4:	17fffff0 	b	fb4 <kprintf.constprop.0+0x9dc>
     ff8:	aa0303f3 	mov	x19, x3
     ffc:	8b24c363 	add	x3, x27, w4, sxtw
    1000:	17ffffed 	b	fb4 <kprintf.constprop.0+0x9dc>
    1004:	37f800c4 	tbnz	w4, #31, 101c <kprintf.constprop.0+0xa44>
    1008:	91002c73 	add	x19, x3, #0xb
    100c:	2a0403f4 	mov	w20, w4
    1010:	927df273 	and	x19, x19, #0xfffffffffffffff8
    1014:	b9400062 	ldr	w2, [x3]
    1018:	17ffffd5 	b	f6c <kprintf.constprop.0+0x994>
    101c:	11002094 	add	w20, w4, #0x8
    1020:	7100029f 	cmp	w20, #0x0
    1024:	5400008d 	b.le	1034 <kprintf.constprop.0+0xa5c>
    1028:	91002c73 	add	x19, x3, #0xb
    102c:	927df273 	and	x19, x19, #0xfffffffffffffff8
    1030:	17fffff9 	b	1014 <kprintf.constprop.0+0xa3c>
    1034:	aa0303f3 	mov	x19, x3
    1038:	8b24c363 	add	x3, x27, w4, sxtw
    103c:	17fffff6 	b	1014 <kprintf.constprop.0+0xa3c>
/home/jeferson/optee/optee_os-rpi4/lib/libutils/ext/snprintk.c:494
    1040:	52800000 	mov	w0, #0x0                   	// #0
/home/jeferson/optee/optee_os-rpi4/lib/libutils/ext/snprintk.c:503
    1044:	f100005f 	cmp	x2, #0x0
/home/jeferson/optee/optee_os-rpi4/lib/libutils/ext/snprintk.c:495
    1048:	12157ab5 	and	w21, w21, #0xfffffbff
/home/jeferson/optee/optee_os-rpi4/lib/libutils/ext/snprintk.c:503
    104c:	7a4008a0 	ccmp	w5, #0x0, #0x0, eq  // eq = none
    1050:	54ffc4a1 	b.ne	8e4 <kprintf.constprop.0+0x30c>  // b.any
/home/jeferson/optee/optee_os-rpi4/lib/libutils/ext/snprintk.c:502
    1054:	910397ed 	add	x13, sp, #0xe5
    1058:	52800005 	mov	w5, #0x0                   	// #0
    105c:	17fffea7 	b	af8 <kprintf.constprop.0+0x520>
/home/jeferson/optee/optee_os-rpi4/lib/libutils/ext/snprintk.c:494
    1060:	52800020 	mov	w0, #0x1                   	// #1
    1064:	17fffff8 	b	1044 <kprintf.constprop.0+0xa6c>
/home/jeferson/optee/optee_os-rpi4/lib/libutils/ext/snprintk.c:523
    1068:	9ac40846 	udiv	x6, x2, x4
    106c:	9b0488c2 	msub	x2, x6, x4, x2
    1070:	1100c042 	add	w2, w2, #0x30
    1074:	381ff002 	sturb	w2, [x0, #-1]
/home/jeferson/optee/optee_os-rpi4/lib/libutils/ext/snprintk.c:524
    1078:	aa0603e2 	mov	x2, x6
    107c:	aa0d03e0 	mov	x0, x13
    1080:	17ffff80 	b	e80 <kprintf.constprop.0+0x8a8>
/home/jeferson/optee/optee_os-rpi4/lib/libutils/ext/snprintk.c:547
    1084:	35ffb418 	cbnz	w24, 704 <kprintf.constprop.0+0x12c>
/home/jeferson/optee/optee_os-rpi4/lib/libutils/ext/snprintk.c:619
    1088:	b4000049 	cbz	x9, 1090 <kprintf.constprop.0+0xab8>
/home/jeferson/optee/optee_os-rpi4/lib/libutils/ext/snprintk.c:620
    108c:	f9000136 	str	x22, [x9]
/home/jeferson/optee/optee_os-rpi4/lib/libutils/ext/snprintk.c:622
    1090:	90000080 	adrp	x0, 11000 <_DYNAMIC>
    1094:	f9409800 	ldr	x0, [x0, #304]
    1098:	f94077e2 	ldr	x2, [sp, #232]
    109c:	f9400001 	ldr	x1, [x0]
    10a0:	eb010042 	subs	x2, x2, x1
    10a4:	d2800001 	mov	x1, #0x0                   	// #0
    10a8:	54000680 	b.eq	1178 <kprintf.constprop.0+0xba0>  // b.none
    10ac:	97fffcc4 	bl	3bc <__stack_chk_fail>
/home/jeferson/optee/optee_os-rpi4/lib/libutils/ext/snprintk.c:574
    10b0:	360fde95 	tbz	w21, #1, c80 <kprintf.constprop.0+0x6a8>
/home/jeferson/optee/optee_os-rpi4/lib/libutils/ext/snprintk.c:575
    10b4:	11000800 	add	w0, w0, #0x2
    10b8:	17fffef2 	b	c80 <kprintf.constprop.0+0x6a8>
/home/jeferson/optee/optee_os-rpi4/lib/libutils/ext/snprintk.c:584
    10bc:	b40000b6 	cbz	x22, 10d0 <kprintf.constprop.0+0xaf8>
    10c0:	f100013f 	cmp	x9, #0x0
    10c4:	fa561322 	ccmp	x25, x22, #0x2, ne  // ne = any
    10c8:	54000049 	b.ls	10d0 <kprintf.constprop.0+0xaf8>  // b.plast
    10cc:	380016c7 	strb	w7, [x22], #1
    10d0:	510004c6 	sub	w6, w6, #0x1
    10d4:	17fffef3 	b	ca0 <kprintf.constprop.0+0x6c8>
/home/jeferson/optee/optee_os-rpi4/lib/libutils/ext/snprintk.c:590
    10d8:	360fdf55 	tbz	w21, #1, cc0 <kprintf.constprop.0+0x6e8>
/home/jeferson/optee/optee_os-rpi4/lib/libutils/ext/snprintk.c:591
    10dc:	b4ffdf36 	cbz	x22, cc0 <kprintf.constprop.0+0x6e8>
    10e0:	f100013f 	cmp	x9, #0x0
    10e4:	1a9f17e6 	cset	w6, eq  // eq = none
    10e8:	710000df 	cmp	w6, #0x0
    10ec:	fa560322 	ccmp	x25, x22, #0x2, eq  // eq = none
    10f0:	54ffde89 	b.ls	cc0 <kprintf.constprop.0+0x6e8>  // b.plast
    10f4:	aa1603e1 	mov	x1, x22
    10f8:	52800607 	mov	w7, #0x30                  	// #48
/home/jeferson/optee/optee_os-rpi4/lib/libutils/ext/snprintk.c:592
    10fc:	710000df 	cmp	w6, #0x0
/home/jeferson/optee/optee_os-rpi4/lib/libutils/ext/snprintk.c:591
    1100:	38001427 	strb	w7, [x1], #1
/home/jeferson/optee/optee_os-rpi4/lib/libutils/ext/snprintk.c:592
    1104:	fa410322 	ccmp	x25, x1, #0x2, eq  // eq = none
    1108:	54000089 	b.ls	1118 <kprintf.constprop.0+0xb40>  // b.plast
    110c:	91000ad6 	add	x22, x22, #0x2
    1110:	381ff2d8 	sturb	w24, [x22, #-1]
    1114:	17fffeeb 	b	cc0 <kprintf.constprop.0+0x6e8>
    1118:	aa0103f6 	mov	x22, x1
    111c:	17fffee9 	b	cc0 <kprintf.constprop.0+0x6e8>
/home/jeferson/optee/optee_os-rpi4/lib/libutils/ext/snprintk.c:599
    1120:	b40000b6 	cbz	x22, 1134 <kprintf.constprop.0+0xb5c>
    1124:	f100013f 	cmp	x9, #0x0
    1128:	fa561322 	ccmp	x25, x22, #0x2, ne  // ne = any
    112c:	54000049 	b.ls	1134 <kprintf.constprop.0+0xb5c>  // b.plast
    1130:	380016c4 	strb	w4, [x22], #1
    1134:	51000421 	sub	w1, w1, #0x1
    1138:	17fffee6 	b	cd0 <kprintf.constprop.0+0x6f8>
/home/jeferson/optee/optee_os-rpi4/lib/libutils/ext/snprintk.c:605
    113c:	b40000b6 	cbz	x22, 1150 <kprintf.constprop.0+0xb78>
    1140:	f100013f 	cmp	x9, #0x0
    1144:	fa561322 	ccmp	x25, x22, #0x2, ne  // ne = any
    1148:	54000049 	b.ls	1150 <kprintf.constprop.0+0xb78>  // b.plast
    114c:	380016c1 	strb	w1, [x22], #1
    1150:	51000442 	sub	w2, w2, #0x1
    1154:	17fffee3 	b	ce0 <kprintf.constprop.0+0x708>
/home/jeferson/optee/optee_os-rpi4/lib/libutils/ext/snprintk.c:609
    1158:	b40000d6 	cbz	x22, 1170 <kprintf.constprop.0+0xb98>
    115c:	f100013f 	cmp	x9, #0x0
    1160:	fa561322 	ccmp	x25, x22, #0x2, ne  // ne = any
    1164:	54000069 	b.ls	1170 <kprintf.constprop.0+0xb98>  // b.plast
    1168:	386169a2 	ldrb	w2, [x13, x1]
    116c:	380016c2 	strb	w2, [x22], #1
/home/jeferson/optee/optee_os-rpi4/lib/libutils/ext/snprintk.c:608
    1170:	91000421 	add	x1, x1, #0x1
    1174:	17fffedf 	b	cf0 <kprintf.constprop.0+0x718>
/home/jeferson/optee/optee_os-rpi4/lib/libutils/ext/snprintk.c:622
    1178:	2a1a03e0 	mov	w0, w26
    117c:	a9437bfd 	ldp	x29, x30, [sp, #48]
    1180:	a94453f3 	ldp	x19, x20, [sp, #64]
    1184:	a9455bf5 	ldp	x21, x22, [sp, #80]
    1188:	a94663f7 	ldp	x23, x24, [sp, #96]
    118c:	a9476bf9 	ldp	x25, x26, [sp, #112]
    1190:	a94873fb 	ldp	x27, x28, [sp, #128]
    1194:	9103c3ff 	add	sp, sp, #0xf0
    1198:	d65f03c0 	ret

000000000000119c <__vsprintf>:
__vsprintf():
/home/jeferson/optee/optee_os-rpi4/lib/libutils/ext/snprintk.c:155
    119c:	a9bc7bfd 	stp	x29, x30, [sp, #-64]!
/home/jeferson/optee/optee_os-rpi4/lib/libutils/ext/snprintk.c:156
    11a0:	910083e3 	add	x3, sp, #0x20
/home/jeferson/optee/optee_os-rpi4/lib/libutils/ext/snprintk.c:155
    11a4:	910003fd 	mov	x29, sp
    11a8:	a90153f3 	stp	x19, x20, [sp, #16]
    11ac:	aa0003f4 	mov	x20, x0
    11b0:	aa0103f3 	mov	x19, x1
/home/jeferson/optee/optee_os-rpi4/lib/libutils/ext/snprintk.c:156
    11b4:	aa0303e0 	mov	x0, x3
/home/jeferson/optee/optee_os-rpi4/lib/libutils/ext/snprintk.c:155
    11b8:	aa0203e1 	mov	x1, x2
/home/jeferson/optee/optee_os-rpi4/lib/libutils/ext/snprintk.c:156
    11bc:	d2800402 	mov	x2, #0x20                  	// #32
    11c0:	97fffb98 	bl	20 <memcpy>
    11c4:	aa1403e2 	mov	x2, x20
    11c8:	aa0003e3 	mov	x3, x0
    11cc:	52800004 	mov	w4, #0x0                   	// #0
    11d0:	aa1303e0 	mov	x0, x19
    11d4:	d2800001 	mov	x1, #0x0                   	// #0
    11d8:	97fffd00 	bl	5d8 <kprintf.constprop.0>
/home/jeferson/optee/optee_os-rpi4/lib/libutils/ext/snprintk.c:157
    11dc:	a94153f3 	ldp	x19, x20, [sp, #16]
    11e0:	a8c47bfd 	ldp	x29, x30, [sp], #64
    11e4:	d65f03c0 	ret

00000000000011e8 <trace_set_level>:
trace_set_level():
/home/jeferson/optee/optee_os-rpi4/lib/libutils/ext/trace.c:28
    11e8:	7100141f 	cmp	w0, #0x5
    11ec:	52800081 	mov	w1, #0x4                   	// #4
    11f0:	1a813000 	csel	w0, w0, w1, cc  // cc = lo, ul, last
    11f4:	90000081 	adrp	x1, 11000 <_DYNAMIC>
    11f8:	f940a821 	ldr	x1, [x1, #336]
    11fc:	b9000020 	str	w0, [x1]
/home/jeferson/optee/optee_os-rpi4/lib/libutils/ext/trace.c:29
    1200:	d65f03c0 	ret

0000000000001204 <trace_get_level>:
trace_get_level():
/home/jeferson/optee/optee_os-rpi4/lib/libutils/ext/trace.c:33
    1204:	90000080 	adrp	x0, 11000 <_DYNAMIC>
/home/jeferson/optee/optee_os-rpi4/lib/libutils/ext/trace.c:34
    1208:	f940a800 	ldr	x0, [x0, #336]
    120c:	b9400000 	ldr	w0, [x0]
    1210:	d65f03c0 	ret

0000000000001214 <trace_vprintf>:
trace_vprintf():
/home/jeferson/optee/optee_os-rpi4/lib/libutils/ext/trace.c:113
    1214:	a9a77bfd 	stp	x29, x30, [sp, #-400]!
    1218:	910003fd 	mov	x29, sp
    121c:	a9046bf9 	stp	x25, x26, [sp, #64]
    1220:	2a0103f9 	mov	w25, w1
    1224:	90000081 	adrp	x1, 11000 <_DYNAMIC>
    1228:	a9025bf5 	stp	x21, x22, [sp, #32]
    122c:	aa0003f6 	mov	x22, x0
    1230:	aa0103f5 	mov	x21, x1
    1234:	f9409820 	ldr	x0, [x1, #304]
    1238:	a90153f3 	stp	x19, x20, [sp, #16]
    123c:	2a0203f3 	mov	w19, w2
    1240:	a90363f7 	stp	x23, x24, [sp, #48]
    1244:	aa0403f7 	mov	x23, x4
    1248:	aa0503f8 	mov	x24, x5
    124c:	a90573fb 	stp	x27, x28, [sp, #80]
/home/jeferson/optee/optee_os-rpi4/lib/libutils/ext/trace.c:118
    1250:	72001c7b 	ands	w27, w3, #0xff
/home/jeferson/optee/optee_os-rpi4/lib/libutils/ext/trace.c:113
    1254:	f9400002 	ldr	x2, [x0]
    1258:	f900c7e2 	str	x2, [sp, #392]
    125c:	d2800002 	mov	x2, #0x0                   	// #0
/home/jeferson/optee/optee_os-rpi4/lib/libutils/ext/trace.c:118
    1260:	54000b20 	b.eq	13c4 <trace_vprintf+0x1b0>  // b.none
/home/jeferson/optee/optee_os-rpi4/lib/libutils/ext/trace.c:118 (discriminator 1)
    1264:	f940a820 	ldr	x0, [x1, #336]
    1268:	b9400000 	ldr	w0, [x0]
    126c:	6b13001f 	cmp	w0, w19
    1270:	540009cb 	b.lt	13a8 <trace_vprintf+0x194>  // b.tstop
trace_level_to_string():
/home/jeferson/optee/optee_os-rpi4/lib/libutils/ext/trace.c:51
    1274:	7100127f 	cmp	w19, #0x4
/home/jeferson/optee/optee_os-rpi4/lib/libutils/ext/trace.c:54
    1278:	d0000060 	adrp	x0, f000 <__text_end+0x2508>
/home/jeferson/optee/optee_os-rpi4/lib/libutils/ext/trace.c:51
    127c:	1a9f9261 	csel	w1, w19, wzr, ls  // ls = plast
/home/jeferson/optee/optee_os-rpi4/lib/libutils/ext/trace.c:54
    1280:	912b5800 	add	x0, x0, #0xad6
    1284:	3861c803 	ldrb	w3, [x0, w1, sxtw]
trace_vprintf():
/home/jeferson/optee/optee_os-rpi4/lib/libutils/ext/trace.c:122
    1288:	910223f4 	add	x20, sp, #0x88
    128c:	d0000062 	adrp	x2, f000 <__text_end+0x2508>
    1290:	aa1403e0 	mov	x0, x20
    1294:	912af042 	add	x2, x2, #0xabc
    1298:	d2802001 	mov	x1, #0x100                 	// #256
    129c:	97fffc9b 	bl	508 <snprintk>
/home/jeferson/optee/optee_os-rpi4/lib/libutils/ext/trace.c:124
    12a0:	37f80840 	tbnz	w0, #31, 13a8 <trace_vprintf+0x194>
/home/jeferson/optee/optee_os-rpi4/lib/libutils/ext/trace.c:129
    12a4:	f940b2a3 	ldr	x3, [x21, #352]
    12a8:	d280201c 	mov	x28, #0x100                 	// #256
/home/jeferson/optee/optee_os-rpi4/lib/libutils/ext/trace.c:126
    12ac:	93407c1a 	sxtw	x26, w0
/home/jeferson/optee/optee_os-rpi4/lib/libutils/ext/trace.c:129
    12b0:	cb20c381 	sub	x1, x28, w0, sxtw
    12b4:	d0000062 	adrp	x2, f000 <__text_end+0x2508>
    12b8:	8b20c280 	add	x0, x20, w0, sxtw
    12bc:	912b0042 	add	x2, x2, #0xac0
    12c0:	97fffc92 	bl	508 <snprintk>
/home/jeferson/optee/optee_os-rpi4/lib/libutils/ext/trace.c:131
    12c4:	37f80720 	tbnz	w0, #31, 13a8 <trace_vprintf+0x194>
/home/jeferson/optee/optee_os-rpi4/lib/libutils/ext/trace.c:133
    12c8:	8b20c35a 	add	x26, x26, w0, sxtw
/home/jeferson/optee/optee_os-rpi4/lib/libutils/ext/trace.c:135
    12cc:	3400093b 	cbz	w27, 13f0 <trace_vprintf+0x1dc>
/home/jeferson/optee/optee_os-rpi4/lib/libutils/ext/trace.c:135 (discriminator 1)
    12d0:	52800340 	mov	w0, #0x1a                  	// #26
    12d4:	1ad32400 	lsr	w0, w0, w19
    12d8:	360008c0 	tbz	w0, #0, 13f0 <trace_vprintf+0x1dc>
print_thread_id():
/home/jeferson/optee/optee_os-rpi4/lib/libutils/ext/trace.c:66
    12dc:	940000ab 	bl	1588 <trace_ext_get_thread_id>
trace_vprintf():
/home/jeferson/optee/optee_os-rpi4/lib/libutils/ext/trace.c:137
    12e0:	8b1a029b 	add	x27, x20, x26
    12e4:	cb1a039c 	sub	x28, x28, x26
print_thread_id():
/home/jeferson/optee/optee_os-rpi4/lib/libutils/ext/trace.c:66
    12e8:	2a0003e4 	mov	w4, w0
/home/jeferson/optee/optee_os-rpi4/lib/libutils/ext/trace.c:68
    12ec:	37f80700 	tbnz	w0, #31, 13cc <trace_vprintf+0x1b8>
/home/jeferson/optee/optee_os-rpi4/lib/libutils/ext/trace.c:69
    12f0:	d0000062 	adrp	x2, f000 <__text_end+0x2508>
    12f4:	aa1c03e1 	mov	x1, x28
    12f8:	912b1042 	add	x2, x2, #0xac4
    12fc:	aa1b03e0 	mov	x0, x27
    1300:	52800023 	mov	w3, #0x1                   	// #1
    1304:	97fffc81 	bl	508 <snprintk>
trace_vprintf():
/home/jeferson/optee/optee_os-rpi4/lib/libutils/ext/trace.c:144
    1308:	37f80500 	tbnz	w0, #31, 13a8 <trace_vprintf+0x194>
/home/jeferson/optee/optee_os-rpi4/lib/libutils/ext/trace.c:146
    130c:	8b20c353 	add	x19, x26, w0, sxtw
/home/jeferson/optee/optee_os-rpi4/lib/libutils/ext/trace.c:148
    1310:	b4000176 	cbz	x22, 133c <trace_vprintf+0x128>
/home/jeferson/optee/optee_os-rpi4/lib/libutils/ext/trace.c:149
    1314:	d0000062 	adrp	x2, f000 <__text_end+0x2508>
    1318:	d2802001 	mov	x1, #0x100                 	// #256
    131c:	2a1903e4 	mov	w4, w25
    1320:	aa1603e3 	mov	x3, x22
    1324:	912b3c42 	add	x2, x2, #0xacf
    1328:	cb130021 	sub	x1, x1, x19
    132c:	8b130280 	add	x0, x20, x19
    1330:	97fffc76 	bl	508 <snprintk>
/home/jeferson/optee/optee_os-rpi4/lib/libutils/ext/trace.c:151
    1334:	37f803a0 	tbnz	w0, #31, 13a8 <trace_vprintf+0x194>
/home/jeferson/optee/optee_os-rpi4/lib/libutils/ext/trace.c:153
    1338:	8b20c273 	add	x19, x19, w0, sxtw
/home/jeferson/optee/optee_os-rpi4/lib/libutils/ext/trace.c:163
    133c:	910183e3 	add	x3, sp, #0x60
    1340:	aa1803e1 	mov	x1, x24
    1344:	aa0303e0 	mov	x0, x3
    1348:	d2800402 	mov	x2, #0x20                  	// #32
    134c:	97fffb35 	bl	20 <memcpy>
    1350:	aa0003e3 	mov	x3, x0
    1354:	d2802001 	mov	x1, #0x100                 	// #256
    1358:	aa1703e2 	mov	x2, x23
    135c:	cb130021 	sub	x1, x1, x19
    1360:	8b130280 	add	x0, x20, x19
    1364:	97fffc53 	bl	4b0 <vsnprintk>
/home/jeferson/optee/optee_os-rpi4/lib/libutils/ext/trace.c:164
    1368:	7100001f 	cmp	w0, #0x0
    136c:	5400004d 	b.le	1374 <trace_vprintf+0x160>
/home/jeferson/optee/optee_os-rpi4/lib/libutils/ext/trace.c:165
    1370:	8b20c273 	add	x19, x19, w0, sxtw
/home/jeferson/optee/optee_os-rpi4/lib/libutils/ext/trace.c:167
    1374:	f103fa7f 	cmp	x19, #0xfe
    1378:	d2801fc0 	mov	x0, #0xfe                  	// #254
    137c:	9a809273 	csel	x19, x19, x0, ls  // ls = plast
/home/jeferson/optee/optee_os-rpi4/lib/libutils/ext/trace.c:170
    1380:	52800140 	mov	w0, #0xa                   	// #10
    1384:	38336a80 	strb	w0, [x20, x19]
/home/jeferson/optee/optee_os-rpi4/lib/libutils/ext/trace.c:171
    1388:	b4000093 	cbz	x19, 1398 <trace_vprintf+0x184>
/home/jeferson/optee/optee_os-rpi4/lib/libutils/ext/trace.c:171 (discriminator 1)
    138c:	38736a80 	ldrb	w0, [x20, x19]
    1390:	7100281f 	cmp	w0, #0xa
    1394:	540003c0 	b.eq	140c <trace_vprintf+0x1f8>  // b.none
/home/jeferson/optee/optee_os-rpi4/lib/libutils/ext/trace.c:174
    1398:	91022be0 	add	x0, sp, #0x8a
    139c:	3833681f 	strb	wzr, [x0, x19]
/home/jeferson/optee/optee_os-rpi4/lib/libutils/ext/trace.c:176
    13a0:	aa1403e0 	mov	x0, x20
    13a4:	9400006f 	bl	1560 <trace_ext_puts>
/home/jeferson/optee/optee_os-rpi4/lib/libutils/ext/trace.c:177
    13a8:	f9409ab5 	ldr	x21, [x21, #304]
    13ac:	f940c7e0 	ldr	x0, [sp, #392]
    13b0:	f94002a1 	ldr	x1, [x21]
    13b4:	eb010000 	subs	x0, x0, x1
    13b8:	d2800001 	mov	x1, #0x0                   	// #0
    13bc:	540002c0 	b.eq	1414 <trace_vprintf+0x200>  // b.none
    13c0:	97fffbff 	bl	3bc <__stack_chk_fail>
trace_level_to_string():
/home/jeferson/optee/optee_os-rpi4/lib/libutils/ext/trace.c:49
    13c4:	528009a3 	mov	w3, #0x4d                  	// #77
    13c8:	17ffffb0 	b	1288 <trace_vprintf+0x74>
print_thread_id():
/home/jeferson/optee/optee_os-rpi4/lib/libutils/ext/trace.c:71
    13cc:	aa1c03e1 	mov	x1, x28
    13d0:	aa1b03e0 	mov	x0, x27
    13d4:	f0000064 	adrp	x4, 10000 <__func__.0+0x113>
    13d8:	52800023 	mov	w3, #0x1                   	// #1
    13dc:	910de484 	add	x4, x4, #0x379
    13e0:	d0000062 	adrp	x2, f000 <__text_end+0x2508>
    13e4:	912b2842 	add	x2, x2, #0xaca
    13e8:	97fffc48 	bl	508 <snprintk>
    13ec:	17ffffc7 	b	1308 <trace_vprintf+0xf4>
trace_vprintf():
/home/jeferson/optee/optee_os-rpi4/lib/libutils/ext/trace.c:157
    13f0:	f103fb5f 	cmp	x26, #0xfe
    13f4:	54fffda8 	b.hi	13a8 <trace_vprintf+0x194>  // b.pmore
/home/jeferson/optee/optee_os-rpi4/lib/libutils/ext/trace.c:159
    13f8:	91000753 	add	x19, x26, #0x1
    13fc:	52800400 	mov	w0, #0x20                  	// #32
    1400:	383a6a80 	strb	w0, [x20, x26]
/home/jeferson/optee/optee_os-rpi4/lib/libutils/ext/trace.c:160
    1404:	38336a9f 	strb	wzr, [x20, x19]
    1408:	17ffffcd 	b	133c <trace_vprintf+0x128>
/home/jeferson/optee/optee_os-rpi4/lib/libutils/ext/trace.c:172
    140c:	d1000673 	sub	x19, x19, #0x1
    1410:	17ffffde 	b	1388 <trace_vprintf+0x174>
/home/jeferson/optee/optee_os-rpi4/lib/libutils/ext/trace.c:177
    1414:	a94153f3 	ldp	x19, x20, [sp, #16]
    1418:	a9425bf5 	ldp	x21, x22, [sp, #32]
    141c:	a94363f7 	ldp	x23, x24, [sp, #48]
    1420:	a9446bf9 	ldp	x25, x26, [sp, #64]
    1424:	a94573fb 	ldp	x27, x28, [sp, #80]
    1428:	a8d97bfd 	ldp	x29, x30, [sp], #400
    142c:	d65f03c0 	ret

0000000000001430 <trace_printf>:
trace_printf():
/home/jeferson/optee/optee_os-rpi4/lib/libutils/ext/trace.c:104
    1430:	a9ad7bfd 	stp	x29, x30, [sp, #-304]!
    1434:	910003fd 	mov	x29, sp
    1438:	a90153f3 	stp	x19, x20, [sp, #16]
    143c:	90000093 	adrp	x19, 11000 <_DYNAMIC>
    1440:	aa0003f4 	mov	x20, x0
    1444:	f9409a60 	ldr	x0, [x19, #304]
    1448:	a9025bf5 	stp	x21, x22, [sp, #32]
    144c:	2a0103f5 	mov	w21, w1
    1450:	a90363f7 	stp	x23, x24, [sp, #48]
    1454:	2a0203f6 	mov	w22, w2
    1458:	12001c78 	and	w24, w3, #0xff
    145c:	3d8027e0 	str	q0, [sp, #144]
    1460:	aa0403f7 	mov	x23, x4
/home/jeferson/optee/optee_os-rpi4/lib/libutils/ext/trace.c:108
    1464:	d2800402 	mov	x2, #0x20                  	// #32
/home/jeferson/optee/optee_os-rpi4/lib/libutils/ext/trace.c:104
    1468:	3d802be1 	str	q1, [sp, #160]
    146c:	3d802fe2 	str	q2, [sp, #176]
    1470:	3d8033e3 	str	q3, [sp, #192]
    1474:	3d8037e4 	str	q4, [sp, #208]
    1478:	3d803be5 	str	q5, [sp, #224]
    147c:	3d803fe6 	str	q6, [sp, #240]
    1480:	3d8043e7 	str	q7, [sp, #256]
    1484:	a9119be5 	stp	x5, x6, [sp, #280]
/home/jeferson/optee/optee_os-rpi4/lib/libutils/ext/trace.c:108
    1488:	910103e5 	add	x5, sp, #0x40
/home/jeferson/optee/optee_os-rpi4/lib/libutils/ext/trace.c:104
    148c:	f90097e7 	str	x7, [sp, #296]
    1490:	f9400001 	ldr	x1, [x0]
    1494:	f90047e1 	str	x1, [sp, #136]
    1498:	d2800001 	mov	x1, #0x0                   	// #0
/home/jeferson/optee/optee_os-rpi4/lib/libutils/ext/trace.c:107
    149c:	9104c3e0 	add	x0, sp, #0x130
    14a0:	a90683e0 	stp	x0, x0, [sp, #104]
    14a4:	910443e0 	add	x0, sp, #0x110
/home/jeferson/optee/optee_os-rpi4/lib/libutils/ext/trace.c:108
    14a8:	9101a3e1 	add	x1, sp, #0x68
/home/jeferson/optee/optee_os-rpi4/lib/libutils/ext/trace.c:107
    14ac:	f9003fe0 	str	x0, [sp, #120]
    14b0:	128002e0 	mov	w0, #0xffffffe8            	// #-24
    14b4:	b90083e0 	str	w0, [sp, #128]
    14b8:	12800fe0 	mov	w0, #0xffffff80            	// #-128
    14bc:	b90087e0 	str	w0, [sp, #132]
/home/jeferson/optee/optee_os-rpi4/lib/libutils/ext/trace.c:108
    14c0:	aa0503e0 	mov	x0, x5
    14c4:	97fffad7 	bl	20 <memcpy>
    14c8:	aa0003e5 	mov	x5, x0
    14cc:	2a1503e1 	mov	w1, w21
    14d0:	aa1403e0 	mov	x0, x20
    14d4:	aa1703e4 	mov	x4, x23
    14d8:	2a1803e3 	mov	w3, w24
    14dc:	2a1603e2 	mov	w2, w22
    14e0:	97ffff4d 	bl	1214 <trace_vprintf>
/home/jeferson/optee/optee_os-rpi4/lib/libutils/ext/trace.c:110
    14e4:	f9409a73 	ldr	x19, [x19, #304]
    14e8:	f94047e0 	ldr	x0, [sp, #136]
    14ec:	f9400261 	ldr	x1, [x19]
    14f0:	eb010000 	subs	x0, x0, x1
    14f4:	d2800001 	mov	x1, #0x0                   	// #0
    14f8:	54000040 	b.eq	1500 <trace_printf+0xd0>  // b.none
    14fc:	97fffbb0 	bl	3bc <__stack_chk_fail>
    1500:	a94153f3 	ldp	x19, x20, [sp, #16]
    1504:	a9425bf5 	ldp	x21, x22, [sp, #32]
    1508:	a94363f7 	ldp	x23, x24, [sp, #48]
    150c:	a8d37bfd 	ldp	x29, x30, [sp], #304
    1510:	d65f03c0 	ret

0000000000001514 <dhex_dump>:
dhex_dump():
/home/jeferson/optee/optee_os-rpi4/lib/libutils/ext/trace.c:287
    1514:	d65f03c0 	ret

0000000000001518 <memchr>:
memchr():
/home/jeferson/optee/optee_os-rpi4/lib/libutils/isoc/newlib/memchr.c:109
    1518:	12001c21 	and	w1, w1, #0xff
/home/jeferson/optee/optee_os-rpi4/lib/libutils/isoc/newlib/memchr.c:153
    151c:	8b020002 	add	x2, x0, x2
    1520:	eb02001f 	cmp	x0, x2
    1524:	54000061 	b.ne	1530 <memchr+0x18>  // b.any
/home/jeferson/optee/optee_os-rpi4/lib/libutils/isoc/newlib/memchr.c:159
    1528:	d2800000 	mov	x0, #0x0                   	// #0
/home/jeferson/optee/optee_os-rpi4/lib/libutils/isoc/newlib/memchr.c:160
    152c:	d65f03c0 	ret
/home/jeferson/optee/optee_os-rpi4/lib/libutils/isoc/newlib/memchr.c:154
    1530:	39400003 	ldrb	w3, [x0]
    1534:	6b01007f 	cmp	w3, w1
    1538:	54ffffa0 	b.eq	152c <memchr+0x14>  // b.none
/home/jeferson/optee/optee_os-rpi4/lib/libutils/isoc/newlib/memchr.c:156
    153c:	91000400 	add	x0, x0, #0x1
    1540:	17fffff8 	b	1520 <memchr+0x8>

0000000000001544 <strlen>:
strlen():
/home/jeferson/optee/optee_os-rpi4/lib/libutils/isoc/newlib/strlen.c:117
    1544:	aa0003e1 	mov	x1, x0
    1548:	39400022 	ldrb	w2, [x1]
    154c:	35000062 	cbnz	w2, 1558 <strlen+0x14>
/home/jeferson/optee/optee_os-rpi4/lib/libutils/isoc/newlib/strlen.c:120
    1550:	cb000020 	sub	x0, x1, x0
    1554:	d65f03c0 	ret
/home/jeferson/optee/optee_os-rpi4/lib/libutils/isoc/newlib/strlen.c:118
    1558:	91000421 	add	x1, x1, #0x1
    155c:	17fffffb 	b	1548 <strlen+0x4>

0000000000001560 <trace_ext_puts>:
trace_ext_puts():
/home/jeferson/optee/optee_os-rpi4/lib/libutee/trace_ext.c:22
    1560:	a9be7bfd 	stp	x29, x30, [sp, #-32]!
    1564:	910003fd 	mov	x29, sp
    1568:	f9000bf3 	str	x19, [sp, #16]
    156c:	aa0003f3 	mov	x19, x0
/home/jeferson/optee/optee_os-rpi4/lib/libutee/trace_ext.c:26
    1570:	97fffff5 	bl	1544 <strlen>
    1574:	aa0003e1 	mov	x1, x0
    1578:	aa1303e0 	mov	x0, x19
/home/jeferson/optee/optee_os-rpi4/lib/libutee/trace_ext.c:28
    157c:	f9400bf3 	ldr	x19, [sp, #16]
    1580:	a8c27bfd 	ldp	x29, x30, [sp], #32
/home/jeferson/optee/optee_os-rpi4/lib/libutee/trace_ext.c:26
    1584:	14000124 	b	1a14 <_utee_log>

0000000000001588 <trace_ext_get_thread_id>:
trace_ext_get_thread_id():
/home/jeferson/optee/optee_os-rpi4/lib/libutee/trace_ext.c:33
    1588:	12800000 	mov	w0, #0xffffffff            	// #-1
    158c:	d65f03c0 	ret

0000000000001590 <printf>:
printf():
/home/jeferson/optee/optee_os-rpi4/lib/libutee/trace_ext.c:41
    1590:	d108c3ff 	sub	sp, sp, #0x230
    1594:	a9007bfd 	stp	x29, x30, [sp]
    1598:	910003fd 	mov	x29, sp
    159c:	a90153f3 	stp	x19, x20, [sp, #16]
    15a0:	aa0003f3 	mov	x19, x0
    15a4:	910823e0 	add	x0, sp, #0x208
    15a8:	a91f8be1 	stp	x1, x2, [sp, #504]
    15ac:	90000081 	adrp	x1, 11000 <_DYNAMIC>
    15b0:	3d805fe0 	str	q0, [sp, #368]
    15b4:	3d8063e1 	str	q1, [sp, #384]
    15b8:	3d8067e2 	str	q2, [sp, #400]
    15bc:	3d806be3 	str	q3, [sp, #416]
    15c0:	3d806fe4 	str	q4, [sp, #432]
    15c4:	3d8073e5 	str	q5, [sp, #448]
    15c8:	3d8077e6 	str	q6, [sp, #464]
    15cc:	3d807be7 	str	q7, [sp, #480]
    15d0:	f9409821 	ldr	x1, [x1, #304]
    15d4:	a9001003 	stp	x3, x4, [x0]
    15d8:	a9011805 	stp	x5, x6, [x0, #16]
    15dc:	f90117e7 	str	x7, [sp, #552]
    15e0:	f9400020 	ldr	x0, [x1]
    15e4:	f900b7e0 	str	x0, [sp, #360]
    15e8:	d2800000 	mov	x0, #0x0                   	// #0
/home/jeferson/optee/optee_os-rpi4/lib/libutee/trace_ext.c:46
    15ec:	97ffff06 	bl	1204 <trace_get_level>
    15f0:	7100001f 	cmp	w0, #0x0
    15f4:	5400040d 	b.le	1674 <printf+0xe4>
/home/jeferson/optee/optee_os-rpi4/lib/libutee/trace_ext.c:49
    15f8:	9108c3e0 	add	x0, sp, #0x230
/home/jeferson/optee/optee_os-rpi4/lib/libutee/trace_ext.c:50
    15fc:	910083e3 	add	x3, sp, #0x20
/home/jeferson/optee/optee_os-rpi4/lib/libutee/trace_ext.c:49
    1600:	a90483e0 	stp	x0, x0, [sp, #72]
    1604:	9107c3e0 	add	x0, sp, #0x1f0
/home/jeferson/optee/optee_os-rpi4/lib/libutee/trace_ext.c:50
    1608:	910123e1 	add	x1, sp, #0x48
/home/jeferson/optee/optee_os-rpi4/lib/libutee/trace_ext.c:49
    160c:	f9002fe0 	str	x0, [sp, #88]
    1610:	128006e0 	mov	w0, #0xffffffc8            	// #-56
    1614:	b90063e0 	str	w0, [sp, #96]
    1618:	12800fe0 	mov	w0, #0xffffff80            	// #-128
/home/jeferson/optee/optee_os-rpi4/lib/libutee/trace_ext.c:50
    161c:	d2800402 	mov	x2, #0x20                  	// #32
    1620:	9101a3f4 	add	x20, sp, #0x68
/home/jeferson/optee/optee_os-rpi4/lib/libutee/trace_ext.c:49
    1624:	b90067e0 	str	w0, [sp, #100]
/home/jeferson/optee/optee_os-rpi4/lib/libutee/trace_ext.c:50
    1628:	aa0303e0 	mov	x0, x3
    162c:	97fffa7d 	bl	20 <memcpy>
    1630:	aa0003e3 	mov	x3, x0
    1634:	aa1303e2 	mov	x2, x19
    1638:	aa1403e0 	mov	x0, x20
    163c:	d2802001 	mov	x1, #0x100                 	// #256
    1640:	97fffb49 	bl	364 <vsnprintf>
    1644:	2a0003f3 	mov	w19, w0
/home/jeferson/optee/optee_os-rpi4/lib/libutee/trace_ext.c:53
    1648:	37f80060 	tbnz	w0, #31, 1654 <printf+0xc4>
/home/jeferson/optee/optee_os-rpi4/lib/libutee/trace_ext.c:56
    164c:	aa1403e0 	mov	x0, x20
    1650:	97ffffc4 	bl	1560 <trace_ext_puts>
/home/jeferson/optee/optee_os-rpi4/lib/libutee/trace_ext.c:59
    1654:	90000081 	adrp	x1, 11000 <_DYNAMIC>
    1658:	f9409821 	ldr	x1, [x1, #304]
    165c:	f940b7e0 	ldr	x0, [sp, #360]
    1660:	f9400022 	ldr	x2, [x1]
    1664:	eb020000 	subs	x0, x0, x2
    1668:	d2800002 	mov	x2, #0x0                   	// #0
    166c:	54000080 	b.eq	167c <printf+0xec>  // b.none
    1670:	97fffb53 	bl	3bc <__stack_chk_fail>
/home/jeferson/optee/optee_os-rpi4/lib/libutee/trace_ext.c:47
    1674:	52800013 	mov	w19, #0x0                   	// #0
    1678:	17fffff7 	b	1654 <printf+0xc4>
/home/jeferson/optee/optee_os-rpi4/lib/libutee/trace_ext.c:59
    167c:	2a1303e0 	mov	w0, w19
    1680:	a9407bfd 	ldp	x29, x30, [sp]
    1684:	a94153f3 	ldp	x19, x20, [sp, #16]
    1688:	9108c3ff 	add	sp, sp, #0x230
    168c:	d65f03c0 	ret

0000000000001690 <puts>:
puts():
/home/jeferson/optee/optee_os-rpi4/lib/libutee/trace_ext.c:62
    1690:	a9be7bfd 	stp	x29, x30, [sp, #-32]!
    1694:	910003fd 	mov	x29, sp
    1698:	f9000bf3 	str	x19, [sp, #16]
    169c:	aa0003f3 	mov	x19, x0
/home/jeferson/optee/optee_os-rpi4/lib/libutee/trace_ext.c:63
    16a0:	97fffed9 	bl	1204 <trace_get_level>
    16a4:	7100001f 	cmp	w0, #0x0
    16a8:	540000cd 	b.le	16c0 <puts+0x30>
/home/jeferson/optee/optee_os-rpi4/lib/libutee/trace_ext.c:64
    16ac:	aa1303e0 	mov	x0, x19
    16b0:	97ffffac 	bl	1560 <trace_ext_puts>
/home/jeferson/optee/optee_os-rpi4/lib/libutee/trace_ext.c:65
    16b4:	f0000060 	adrp	x0, 10000 <__func__.0+0x113>
    16b8:	910de000 	add	x0, x0, #0x378
    16bc:	97ffffa9 	bl	1560 <trace_ext_puts>
/home/jeferson/optee/optee_os-rpi4/lib/libutee/trace_ext.c:68
    16c0:	52800020 	mov	w0, #0x1                   	// #1
    16c4:	f9400bf3 	ldr	x19, [sp, #16]
    16c8:	a8c27bfd 	ldp	x29, x30, [sp], #32
    16cc:	d65f03c0 	ret

00000000000016d0 <putchar>:
putchar():
/home/jeferson/optee/optee_os-rpi4/lib/libutee/trace_ext.c:71
    16d0:	a9bd7bfd 	stp	x29, x30, [sp, #-48]!
    16d4:	90000081 	adrp	x1, 11000 <_DYNAMIC>
    16d8:	910003fd 	mov	x29, sp
    16dc:	f9409821 	ldr	x1, [x1, #304]
    16e0:	f9000bf3 	str	x19, [sp, #16]
    16e4:	2a0003f3 	mov	w19, w0
    16e8:	f9400020 	ldr	x0, [x1]
    16ec:	f90017e0 	str	x0, [sp, #40]
    16f0:	d2800000 	mov	x0, #0x0                   	// #0
/home/jeferson/optee/optee_os-rpi4/lib/libutee/trace_ext.c:72
    16f4:	390083f3 	strb	w19, [sp, #32]
    16f8:	390087ff 	strb	wzr, [sp, #33]
/home/jeferson/optee/optee_os-rpi4/lib/libutee/trace_ext.c:74
    16fc:	97fffec2 	bl	1204 <trace_get_level>
    1700:	7100001f 	cmp	w0, #0x0
    1704:	5400006d 	b.le	1710 <putchar+0x40>
/home/jeferson/optee/optee_os-rpi4/lib/libutee/trace_ext.c:75
    1708:	910083e0 	add	x0, sp, #0x20
    170c:	97ffff95 	bl	1560 <trace_ext_puts>
/home/jeferson/optee/optee_os-rpi4/lib/libutee/trace_ext.c:82
    1710:	90000081 	adrp	x1, 11000 <_DYNAMIC>
/home/jeferson/optee/optee_os-rpi4/lib/libutee/trace_ext.c:81
    1714:	12001e60 	and	w0, w19, #0xff
/home/jeferson/optee/optee_os-rpi4/lib/libutee/trace_ext.c:82
    1718:	f9409821 	ldr	x1, [x1, #304]
    171c:	f94017e3 	ldr	x3, [sp, #40]
    1720:	f9400022 	ldr	x2, [x1]
    1724:	eb020063 	subs	x3, x3, x2
    1728:	d2800002 	mov	x2, #0x0                   	// #0
    172c:	54000040 	b.eq	1734 <putchar+0x64>  // b.none
    1730:	97fffb23 	bl	3bc <__stack_chk_fail>
    1734:	f9400bf3 	ldr	x19, [sp, #16]
    1738:	a8c37bfd 	ldp	x29, x30, [sp], #48
    173c:	d65f03c0 	ret

0000000000001740 <invoke_system_pta>:
invoke_system_pta():
/home/jeferson/optee/optee_os-rpi4/lib/libutee/tee_system_pta.c:16
    1740:	a9bd7bfd 	stp	x29, x30, [sp, #-48]!
    1744:	910003fd 	mov	x29, sp
    1748:	a9025bf5 	stp	x21, x22, [sp, #32]
/home/jeferson/optee/optee_os-rpi4/lib/libutee/tee_system_pta.c:20
    174c:	90000096 	adrp	x22, 11000 <_DYNAMIC>
/home/jeferson/optee/optee_os-rpi4/lib/libutee/tee_system_pta.c:16
    1750:	aa0203f5 	mov	x21, x2
    1754:	a90153f3 	stp	x19, x20, [sp, #16]
    1758:	2a0003f3 	mov	w19, w0
    175c:	2a0103f4 	mov	w20, w1
/home/jeferson/optee/optee_os-rpi4/lib/libutee/tee_system_pta.c:20
    1760:	f942f2c0 	ldr	x0, [x22, #1504]
    1764:	b4000160 	cbz	x0, 1790 <invoke_system_pta+0x50>
/home/jeferson/optee/optee_os-rpi4/lib/libutee/tee_system_pta.c:28
    1768:	f942f2c0 	ldr	x0, [x22, #1504]
    176c:	aa1503e4 	mov	x4, x21
    1770:	2a1403e3 	mov	w3, w20
    1774:	2a1303e2 	mov	w2, w19
/home/jeferson/optee/optee_os-rpi4/lib/libutee/tee_system_pta.c:30
    1778:	a94153f3 	ldp	x19, x20, [sp, #16]
/home/jeferson/optee/optee_os-rpi4/lib/libutee/tee_system_pta.c:28
    177c:	d2800005 	mov	x5, #0x0                   	// #0
/home/jeferson/optee/optee_os-rpi4/lib/libutee/tee_system_pta.c:30
    1780:	a9425bf5 	ldp	x21, x22, [sp, #32]
/home/jeferson/optee/optee_os-rpi4/lib/libutee/tee_system_pta.c:28
    1784:	12800001 	mov	w1, #0xffffffff            	// #-1
/home/jeferson/optee/optee_os-rpi4/lib/libutee/tee_system_pta.c:30
    1788:	a8c37bfd 	ldp	x29, x30, [sp], #48
/home/jeferson/optee/optee_os-rpi4/lib/libutee/tee_system_pta.c:28
    178c:	14000611 	b	2fd0 <TEE_InvokeTACommand>
/home/jeferson/optee/optee_os-rpi4/lib/libutee/tee_system_pta.c:21
    1790:	d0000060 	adrp	x0, f000 <__text_end+0x2508>
    1794:	911782c4 	add	x4, x22, #0x5e0
    1798:	9116a000 	add	x0, x0, #0x5a8
    179c:	d2800005 	mov	x5, #0x0                   	// #0
    17a0:	d2800003 	mov	x3, #0x0                   	// #0
    17a4:	52800002 	mov	w2, #0x0                   	// #0
    17a8:	12800001 	mov	w1, #0xffffffff            	// #-1
    17ac:	94000562 	bl	2d34 <TEE_OpenTASession>
/home/jeferson/optee/optee_os-rpi4/lib/libutee/tee_system_pta.c:24
    17b0:	34fffdc0 	cbz	w0, 1768 <invoke_system_pta+0x28>
/home/jeferson/optee/optee_os-rpi4/lib/libutee/tee_system_pta.c:30
    17b4:	a94153f3 	ldp	x19, x20, [sp, #16]
    17b8:	a9425bf5 	ldp	x21, x22, [sp, #32]
    17bc:	a8c37bfd 	ldp	x29, x30, [sp], #48
    17c0:	d65f03c0 	ret

00000000000017c4 <tee_map_zi>:
tee_map_zi():
/home/jeferson/optee/optee_os-rpi4/lib/libutee/tee_system_pta.c:33
    17c4:	a9ba7bfd 	stp	x29, x30, [sp, #-96]!
    17c8:	90000082 	adrp	x2, 11000 <_DYNAMIC>
/home/jeferson/optee/optee_os-rpi4/lib/libutee/tee_system_pta.c:38
    17cc:	4f000400 	movi	v0.4s, #0x0
/home/jeferson/optee/optee_os-rpi4/lib/libutee/tee_system_pta.c:33
    17d0:	910003fd 	mov	x29, sp
    17d4:	f9409842 	ldr	x2, [x2, #304]
    17d8:	f9400043 	ldr	x3, [x2]
    17dc:	f9002fe3 	str	x3, [sp, #88]
    17e0:	d2800003 	mov	x3, #0x0                   	// #0
/home/jeferson/optee/optee_os-rpi4/lib/libutee/tee_system_pta.c:38
    17e4:	910063e2 	add	x2, sp, #0x18
    17e8:	ad000040 	stp	q0, q0, [x2]
/home/jeferson/optee/optee_os-rpi4/lib/libutee/tee_system_pta.c:41
    17ec:	b9001be0 	str	w0, [sp, #24]
/home/jeferson/optee/optee_os-rpi4/lib/libutee/tee_system_pta.c:38
    17f0:	ad010040 	stp	q0, q0, [x2, #32]
/home/jeferson/optee/optee_os-rpi4/lib/libutee/tee_system_pta.c:42
    17f4:	f2607c1f 	tst	x0, #0xffffffff00000000
    17f8:	54000060 	b.eq	1804 <tee_map_zi+0x40>  // b.none
/home/jeferson/optee/optee_os-rpi4/lib/libutee/tee_system_pta.c:44
    17fc:	d2800000 	mov	x0, #0x0                   	// #0
    1800:	1400000c 	b	1830 <tee_map_zi+0x6c>
    1804:	340000a1 	cbz	w1, 1818 <tee_map_zi+0x54>
    1808:	7100103f 	cmp	w1, #0x4
    180c:	54ffff81 	b.ne	17fc <tee_map_zi+0x38>  // b.any
/home/jeferson/optee/optee_os-rpi4/lib/libutee/tee_system_pta.c:48
    1810:	52800020 	mov	w0, #0x1                   	// #1
    1814:	b9001fe0 	str	w0, [sp, #28]
/home/jeferson/optee/optee_os-rpi4/lib/libutee/tee_system_pta.c:54
    1818:	52802621 	mov	w1, #0x131                 	// #305
    181c:	52800040 	mov	w0, #0x2                   	// #2
    1820:	97ffffc8 	bl	1740 <invoke_system_pta>
/home/jeferson/optee/optee_os-rpi4/lib/libutee/tee_system_pta.c:55
    1824:	35fffec0 	cbnz	w0, 17fc <tee_map_zi+0x38>
reg_pair_to_64():
/home/jeferson/optee/optee_os-rpi4/lib/libutils/ext/include/util.h:166
    1828:	294507e0 	ldp	w0, w1, [sp, #40]
    182c:	aa008020 	orr	x0, x1, x0, lsl #32
tee_map_zi():
/home/jeferson/optee/optee_os-rpi4/lib/libutee/tee_system_pta.c:60
    1830:	90000082 	adrp	x2, 11000 <_DYNAMIC>
    1834:	f9409842 	ldr	x2, [x2, #304]
    1838:	f9402fe1 	ldr	x1, [sp, #88]
    183c:	f9400043 	ldr	x3, [x2]
    1840:	eb030021 	subs	x1, x1, x3
    1844:	d2800003 	mov	x3, #0x0                   	// #0
    1848:	54000040 	b.eq	1850 <tee_map_zi+0x8c>  // b.none
    184c:	97fffadc 	bl	3bc <__stack_chk_fail>
    1850:	a8c67bfd 	ldp	x29, x30, [sp], #96
    1854:	d65f03c0 	ret

0000000000001858 <tee_unmap>:
tee_unmap():
/home/jeferson/optee/optee_os-rpi4/lib/libutee/tee_system_pta.c:63
    1858:	a9b87bfd 	stp	x29, x30, [sp, #-128]!
    185c:	90000082 	adrp	x2, 11000 <_DYNAMIC>
/home/jeferson/optee/optee_os-rpi4/lib/libutee/tee_system_pta.c:69
    1860:	4f000400 	movi	v0.4s, #0x0
/home/jeferson/optee/optee_os-rpi4/lib/libutee/tee_system_pta.c:63
    1864:	910003fd 	mov	x29, sp
    1868:	f9409842 	ldr	x2, [x2, #304]
    186c:	a90153f3 	stp	x19, x20, [sp, #16]
    1870:	aa0003f3 	mov	x19, x0
    1874:	f90013f5 	str	x21, [sp, #32]
    1878:	aa0103f5 	mov	x21, x1
    187c:	f9400040 	ldr	x0, [x2]
    1880:	f9003fe0 	str	x0, [sp, #120]
    1884:	d2800000 	mov	x0, #0x0                   	// #0
/home/jeferson/optee/optee_os-rpi4/lib/libutee/tee_system_pta.c:69
    1888:	9100e3e2 	add	x2, sp, #0x38
reg_pair_from_64():
/home/jeferson/optee/optee_os-rpi4/lib/libutils/ext/include/util.h:172
    188c:	d360fe60 	lsr	x0, x19, #32
tee_unmap():
/home/jeferson/optee/optee_os-rpi4/lib/libutee/tee_system_pta.c:69
    1890:	ad000040 	stp	q0, q0, [x2]
    1894:	ad010040 	stp	q0, q0, [x2, #32]
/home/jeferson/optee/optee_os-rpi4/lib/libutee/tee_system_pta.c:71
    1898:	b9003be1 	str	w1, [sp, #56]
/home/jeferson/optee/optee_os-rpi4/lib/libutee/tee_system_pta.c:74
    189c:	52800221 	mov	w1, #0x11                  	// #17
reg_pair_from_64():
/home/jeferson/optee/optee_os-rpi4/lib/libutils/ext/include/util.h:173
    18a0:	29094fe0 	stp	w0, w19, [sp, #72]
tee_unmap():
/home/jeferson/optee/optee_os-rpi4/lib/libutee/tee_system_pta.c:74
    18a4:	52800060 	mov	w0, #0x3                   	// #3
    18a8:	97ffffa6 	bl	1740 <invoke_system_pta>
    18ac:	2a0003f4 	mov	w20, w0
/home/jeferson/optee/optee_os-rpi4/lib/libutee/tee_system_pta.c:75
    18b0:	34000180 	cbz	w0, 18e0 <tee_unmap+0x88>
/home/jeferson/optee/optee_os-rpi4/lib/libutee/tee_system_pta.c:76
    18b4:	d0000060 	adrp	x0, f000 <__text_end+0x2508>
    18b8:	9116a000 	add	x0, x0, #0x5a8
    18bc:	d0000064 	adrp	x4, f000 <__text_end+0x2508>
    18c0:	aa1503e6 	mov	x6, x21
    18c4:	aa1303e5 	mov	x5, x19
    18c8:	912b6c84 	add	x4, x4, #0xadb
    18cc:	91004000 	add	x0, x0, #0x10
    18d0:	52800023 	mov	w3, #0x1                   	// #1
    18d4:	52800022 	mov	w2, #0x1                   	// #1
    18d8:	52800981 	mov	w1, #0x4c                  	// #76
    18dc:	97fffed5 	bl	1430 <trace_printf>
/home/jeferson/optee/optee_os-rpi4/lib/libutee/tee_system_pta.c:79
    18e0:	90000082 	adrp	x2, 11000 <_DYNAMIC>
    18e4:	f9409842 	ldr	x2, [x2, #304]
    18e8:	f9403fe0 	ldr	x0, [sp, #120]
    18ec:	f9400041 	ldr	x1, [x2]
    18f0:	eb010000 	subs	x0, x0, x1
    18f4:	d2800001 	mov	x1, #0x0                   	// #0
    18f8:	54000040 	b.eq	1900 <tee_unmap+0xa8>  // b.none
    18fc:	97fffab0 	bl	3bc <__stack_chk_fail>
    1900:	2a1403e0 	mov	w0, w20
    1904:	a94153f3 	ldp	x19, x20, [sp, #16]
    1908:	f94013f5 	ldr	x21, [sp, #32]
    190c:	a8c87bfd 	ldp	x29, x30, [sp], #128
    1910:	d65f03c0 	ret

0000000000001914 <tee_invoke_supp_plugin>:
tee_invoke_supp_plugin():
/home/jeferson/optee/optee_os-rpi4/lib/libutee/tee_system_pta.c:84
    1914:	a9b97bfd 	stp	x29, x30, [sp, #-112]!
    1918:	90000086 	adrp	x6, 11000 <_DYNAMIC>
    191c:	2a0203e7 	mov	w7, w2
/home/jeferson/optee/optee_os-rpi4/lib/libutee/tee_system_pta.c:90
    1920:	4f000400 	movi	v0.4s, #0x0
/home/jeferson/optee/optee_os-rpi4/lib/libutee/tee_system_pta.c:84
    1924:	910003fd 	mov	x29, sp
    1928:	f94098c6 	ldr	x6, [x6, #304]
    192c:	a90153f3 	stp	x19, x20, [sp, #16]
    1930:	f94000c2 	ldr	x2, [x6]
    1934:	f90037e2 	str	x2, [sp, #104]
    1938:	d2800002 	mov	x2, #0x0                   	// #0
/home/jeferson/optee/optee_os-rpi4/lib/libutee/tee_system_pta.c:90
    193c:	9100a3e2 	add	x2, sp, #0x28
    1940:	ad000040 	stp	q0, q0, [x2]
    1944:	ad010040 	stp	q0, q0, [x2, #32]
/home/jeferson/optee/optee_os-rpi4/lib/libutee/tee_system_pta.c:92
    1948:	b40004e0 	cbz	x0, 19e4 <tee_invoke_supp_plugin+0xd0>
/home/jeferson/optee/optee_os-rpi4/lib/libutee/tee_system_pta.c:92 (discriminator 1)
    194c:	f100009f 	cmp	x4, #0x0
    1950:	fa401860 	ccmp	x3, #0x0, #0x0, ne  // ne = any
    1954:	54000480 	b.eq	19e4 <tee_invoke_supp_plugin+0xd0>  // b.none
/home/jeferson/optee/optee_os-rpi4/lib/libutee/tee_system_pta.c:92 (discriminator 2)
    1958:	f100009f 	cmp	x4, #0x0
    195c:	fa400864 	ccmp	x3, #0x0, #0x4, eq  // eq = none
    1960:	54000421 	b.ne	19e4 <tee_invoke_supp_plugin+0xd0>  // b.any
/home/jeferson/optee/optee_os-rpi4/lib/libutee/tee_system_pta.c:95
    1964:	f90017e0 	str	x0, [sp, #40]
/home/jeferson/optee/optee_os-rpi4/lib/libutee/tee_system_pta.c:96
    1968:	d2800200 	mov	x0, #0x10                  	// #16
    196c:	aa0503f4 	mov	x20, x5
    1970:	f9001be0 	str	x0, [sp, #48]
/home/jeferson/optee/optee_os-rpi4/lib/libutee/tee_system_pta.c:102
    1974:	528001a0 	mov	w0, #0xd                   	// #13
/home/jeferson/optee/optee_os-rpi4/lib/libutee/tee_system_pta.c:98
    1978:	29071fe1 	stp	w1, w7, [sp, #56]
/home/jeferson/optee/optee_os-rpi4/lib/libutee/tee_system_pta.c:102
    197c:	5284e2a1 	mov	w1, #0x2715                	// #10005
/home/jeferson/optee/optee_os-rpi4/lib/libutee/tee_system_pta.c:100
    1980:	a90493e3 	stp	x3, x4, [sp, #72]
/home/jeferson/optee/optee_os-rpi4/lib/libutee/tee_system_pta.c:102
    1984:	97ffff6f 	bl	1740 <invoke_system_pta>
    1988:	2a0003f3 	mov	w19, w0
/home/jeferson/optee/optee_os-rpi4/lib/libutee/tee_system_pta.c:104
    198c:	34000160 	cbz	w0, 19b8 <tee_invoke_supp_plugin+0xa4>
/home/jeferson/optee/optee_os-rpi4/lib/libutee/tee_system_pta.c:105
    1990:	2a0003e5 	mov	w5, w0
    1994:	d0000060 	adrp	x0, f000 <__text_end+0x2508>
    1998:	9116a000 	add	x0, x0, #0x5a8
    199c:	d0000064 	adrp	x4, f000 <__text_end+0x2508>
    19a0:	91006800 	add	x0, x0, #0x1a
    19a4:	912c1484 	add	x4, x4, #0xb05
    19a8:	52800023 	mov	w3, #0x1                   	// #1
    19ac:	52800022 	mov	w2, #0x1                   	// #1
    19b0:	52800d21 	mov	w1, #0x69                  	// #105
    19b4:	97fffe9f 	bl	1430 <trace_printf>
/home/jeferson/optee/optee_os-rpi4/lib/libutee/tee_system_pta.c:107
    19b8:	b4000074 	cbz	x20, 19c4 <tee_invoke_supp_plugin+0xb0>
/home/jeferson/optee/optee_os-rpi4/lib/libutee/tee_system_pta.c:108
    19bc:	b9405be0 	ldr	w0, [sp, #88]
    19c0:	f9000280 	str	x0, [x20]
/home/jeferson/optee/optee_os-rpi4/lib/libutee/tee_system_pta.c:111
    19c4:	90000086 	adrp	x6, 11000 <_DYNAMIC>
    19c8:	f94098c6 	ldr	x6, [x6, #304]
    19cc:	f94037e0 	ldr	x0, [sp, #104]
    19d0:	f94000c1 	ldr	x1, [x6]
    19d4:	eb010000 	subs	x0, x0, x1
    19d8:	d2800001 	mov	x1, #0x0                   	// #0
    19dc:	54000080 	b.eq	19ec <tee_invoke_supp_plugin+0xd8>  // b.none
    19e0:	97fffa77 	bl	3bc <__stack_chk_fail>
/home/jeferson/optee/optee_os-rpi4/lib/libutee/tee_system_pta.c:93
    19e4:	129fff33 	mov	w19, #0xffff0006            	// #-65530
    19e8:	17fffff7 	b	19c4 <tee_invoke_supp_plugin+0xb0>
/home/jeferson/optee/optee_os-rpi4/lib/libutee/tee_system_pta.c:111
    19ec:	2a1303e0 	mov	w0, w19
    19f0:	a94153f3 	ldp	x19, x20, [sp, #16]
    19f4:	a8c77bfd 	ldp	x29, x30, [sp], #112
    19f8:	d65f03c0 	ret

00000000000019fc <_utee_panic>:
_utee_panic():
/home/jeferson/optee/optee_os-rpi4/lib/libutee/arch/arm/utee_syscalls_a64.S:41
    19fc:	a9bf7bfd 	stp	x29, x30, [sp, #-16]!
/home/jeferson/optee/optee_os-rpi4/lib/libutee/arch/arm/utee_syscalls_a64.S:42
    1a00:	910003e1 	mov	x1, sp
/home/jeferson/optee/optee_os-rpi4/lib/libutee/arch/arm/utee_syscalls_a64.S:43
    1a04:	94000007 	bl	1a20 <__utee_panic>

0000000000001a08 <_utee_return>:
_utee_return():
/home/jeferson/optee/optee_os-rpi4/lib/libutee/include/utee_syscalls_asm.S:8
    1a08:	d2800008 	mov	x8, #0x0                   	// #0
    1a0c:	d4000001 	svc	#0x0
    1a10:	d65f03c0 	ret

0000000000001a14 <_utee_log>:
_utee_log():
/home/jeferson/optee/optee_os-rpi4/lib/libutee/include/utee_syscalls_asm.S:10
    1a14:	d2800028 	mov	x8, #0x1                   	// #1
    1a18:	d4000001 	svc	#0x0
    1a1c:	d65f03c0 	ret

0000000000001a20 <__utee_panic>:
__utee_panic():
/home/jeferson/optee/optee_os-rpi4/lib/libutee/include/utee_syscalls_asm.S:12
    1a20:	d2800048 	mov	x8, #0x2                   	// #2
    1a24:	d4000001 	svc	#0x0
    1a28:	d65f03c0 	ret

0000000000001a2c <_utee_get_property>:
_utee_get_property():
/home/jeferson/optee/optee_os-rpi4/lib/libutee/include/utee_syscalls_asm.S:14
    1a2c:	d2800068 	mov	x8, #0x3                   	// #3
    1a30:	d4000001 	svc	#0x0
    1a34:	d65f03c0 	ret

0000000000001a38 <_utee_get_property_name_to_index>:
_utee_get_property_name_to_index():
/home/jeferson/optee/optee_os-rpi4/lib/libutee/include/utee_syscalls_asm.S:16
    1a38:	d2800088 	mov	x8, #0x4                   	// #4
    1a3c:	d4000001 	svc	#0x0
    1a40:	d65f03c0 	ret

0000000000001a44 <_utee_open_ta_session>:
_utee_open_ta_session():
/home/jeferson/optee/optee_os-rpi4/lib/libutee/include/utee_syscalls_asm.S:19
    1a44:	d28000a8 	mov	x8, #0x5                   	// #5
    1a48:	d4000001 	svc	#0x0
    1a4c:	d65f03c0 	ret

0000000000001a50 <_utee_close_ta_session>:
_utee_close_ta_session():
/home/jeferson/optee/optee_os-rpi4/lib/libutee/include/utee_syscalls_asm.S:21
    1a50:	d28000c8 	mov	x8, #0x6                   	// #6
    1a54:	d4000001 	svc	#0x0
    1a58:	d65f03c0 	ret

0000000000001a5c <_utee_invoke_ta_command>:
_utee_invoke_ta_command():
/home/jeferson/optee/optee_os-rpi4/lib/libutee/include/utee_syscalls_asm.S:23
    1a5c:	d28000e8 	mov	x8, #0x7                   	// #7
    1a60:	d4000001 	svc	#0x0
    1a64:	d65f03c0 	ret

0000000000001a68 <_utee_get_cancellation_flag>:
_utee_get_cancellation_flag():
/home/jeferson/optee/optee_os-rpi4/lib/libutee/include/utee_syscalls_asm.S:25
    1a68:	d2800128 	mov	x8, #0x9                   	// #9
    1a6c:	d4000001 	svc	#0x0
    1a70:	d65f03c0 	ret

0000000000001a74 <_utee_check_access_rights>:
_utee_check_access_rights():
/home/jeferson/optee/optee_os-rpi4/lib/libutee/include/utee_syscalls_asm.S:28
    1a74:	d2800108 	mov	x8, #0x8                   	// #8
    1a78:	d4000001 	svc	#0x0
    1a7c:	d65f03c0 	ret

0000000000001a80 <_utee_unmask_cancellation>:
_utee_unmask_cancellation():
/home/jeferson/optee/optee_os-rpi4/lib/libutee/include/utee_syscalls_asm.S:30
    1a80:	d2800148 	mov	x8, #0xa                   	// #10
    1a84:	d4000001 	svc	#0x0
    1a88:	d65f03c0 	ret

0000000000001a8c <_utee_mask_cancellation>:
_utee_mask_cancellation():
/home/jeferson/optee/optee_os-rpi4/lib/libutee/include/utee_syscalls_asm.S:32
    1a8c:	d2800168 	mov	x8, #0xb                   	// #11
    1a90:	d4000001 	svc	#0x0
    1a94:	d65f03c0 	ret

0000000000001a98 <_utee_wait>:
_utee_wait():
/home/jeferson/optee/optee_os-rpi4/lib/libutee/include/utee_syscalls_asm.S:34
    1a98:	d2800188 	mov	x8, #0xc                   	// #12
    1a9c:	d4000001 	svc	#0x0
    1aa0:	d65f03c0 	ret

0000000000001aa4 <_utee_get_time>:
_utee_get_time():
/home/jeferson/optee/optee_os-rpi4/lib/libutee/include/utee_syscalls_asm.S:36
    1aa4:	d28001a8 	mov	x8, #0xd                   	// #13
    1aa8:	d4000001 	svc	#0x0
    1aac:	d65f03c0 	ret

0000000000001ab0 <_utee_set_ta_time>:
_utee_set_ta_time():
/home/jeferson/optee/optee_os-rpi4/lib/libutee/include/utee_syscalls_asm.S:38
    1ab0:	d28001c8 	mov	x8, #0xe                   	// #14
    1ab4:	d4000001 	svc	#0x0
    1ab8:	d65f03c0 	ret

0000000000001abc <_utee_cryp_state_alloc>:
_utee_cryp_state_alloc():
/home/jeferson/optee/optee_os-rpi4/lib/libutee/include/utee_syscalls_asm.S:40
    1abc:	d28001e8 	mov	x8, #0xf                   	// #15
    1ac0:	d4000001 	svc	#0x0
    1ac4:	d65f03c0 	ret

0000000000001ac8 <_utee_cryp_state_copy>:
_utee_cryp_state_copy():
/home/jeferson/optee/optee_os-rpi4/lib/libutee/include/utee_syscalls_asm.S:42
    1ac8:	d2800208 	mov	x8, #0x10                  	// #16
    1acc:	d4000001 	svc	#0x0
    1ad0:	d65f03c0 	ret

0000000000001ad4 <_utee_cryp_state_free>:
_utee_cryp_state_free():
/home/jeferson/optee/optee_os-rpi4/lib/libutee/include/utee_syscalls_asm.S:44
    1ad4:	d2800228 	mov	x8, #0x11                  	// #17
    1ad8:	d4000001 	svc	#0x0
    1adc:	d65f03c0 	ret

0000000000001ae0 <_utee_hash_init>:
_utee_hash_init():
/home/jeferson/optee/optee_os-rpi4/lib/libutee/include/utee_syscalls_asm.S:46
    1ae0:	d2800248 	mov	x8, #0x12                  	// #18
    1ae4:	d4000001 	svc	#0x0
    1ae8:	d65f03c0 	ret

0000000000001aec <_utee_hash_update>:
_utee_hash_update():
/home/jeferson/optee/optee_os-rpi4/lib/libutee/include/utee_syscalls_asm.S:48
    1aec:	d2800268 	mov	x8, #0x13                  	// #19
    1af0:	d4000001 	svc	#0x0
    1af4:	d65f03c0 	ret

0000000000001af8 <_utee_hash_final>:
_utee_hash_final():
/home/jeferson/optee/optee_os-rpi4/lib/libutee/include/utee_syscalls_asm.S:50
    1af8:	d2800288 	mov	x8, #0x14                  	// #20
    1afc:	d4000001 	svc	#0x0
    1b00:	d65f03c0 	ret

0000000000001b04 <_utee_cipher_init>:
_utee_cipher_init():
/home/jeferson/optee/optee_os-rpi4/lib/libutee/include/utee_syscalls_asm.S:52
    1b04:	d28002a8 	mov	x8, #0x15                  	// #21
    1b08:	d4000001 	svc	#0x0
    1b0c:	d65f03c0 	ret

0000000000001b10 <_utee_cipher_update>:
_utee_cipher_update():
/home/jeferson/optee/optee_os-rpi4/lib/libutee/include/utee_syscalls_asm.S:54
    1b10:	d28002c8 	mov	x8, #0x16                  	// #22
    1b14:	d4000001 	svc	#0x0
    1b18:	d65f03c0 	ret

0000000000001b1c <_utee_cipher_final>:
_utee_cipher_final():
/home/jeferson/optee/optee_os-rpi4/lib/libutee/include/utee_syscalls_asm.S:56
    1b1c:	d28002e8 	mov	x8, #0x17                  	// #23
    1b20:	d4000001 	svc	#0x0
    1b24:	d65f03c0 	ret

0000000000001b28 <_utee_cryp_obj_get_info>:
_utee_cryp_obj_get_info():
/home/jeferson/optee/optee_os-rpi4/lib/libutee/include/utee_syscalls_asm.S:58
    1b28:	d2800308 	mov	x8, #0x18                  	// #24
    1b2c:	d4000001 	svc	#0x0
    1b30:	d65f03c0 	ret

0000000000001b34 <_utee_cryp_obj_restrict_usage>:
_utee_cryp_obj_restrict_usage():
/home/jeferson/optee/optee_os-rpi4/lib/libutee/include/utee_syscalls_asm.S:60
    1b34:	d2800328 	mov	x8, #0x19                  	// #25
    1b38:	d4000001 	svc	#0x0
    1b3c:	d65f03c0 	ret

0000000000001b40 <_utee_cryp_obj_get_attr>:
_utee_cryp_obj_get_attr():
/home/jeferson/optee/optee_os-rpi4/lib/libutee/include/utee_syscalls_asm.S:63
    1b40:	d2800348 	mov	x8, #0x1a                  	// #26
    1b44:	d4000001 	svc	#0x0
    1b48:	d65f03c0 	ret

0000000000001b4c <_utee_cryp_obj_alloc>:
_utee_cryp_obj_alloc():
/home/jeferson/optee/optee_os-rpi4/lib/libutee/include/utee_syscalls_asm.S:65
    1b4c:	d2800368 	mov	x8, #0x1b                  	// #27
    1b50:	d4000001 	svc	#0x0
    1b54:	d65f03c0 	ret

0000000000001b58 <_utee_cryp_obj_close>:
_utee_cryp_obj_close():
/home/jeferson/optee/optee_os-rpi4/lib/libutee/include/utee_syscalls_asm.S:67
    1b58:	d2800388 	mov	x8, #0x1c                  	// #28
    1b5c:	d4000001 	svc	#0x0
    1b60:	d65f03c0 	ret

0000000000001b64 <_utee_cryp_obj_reset>:
_utee_cryp_obj_reset():
/home/jeferson/optee/optee_os-rpi4/lib/libutee/include/utee_syscalls_asm.S:69
    1b64:	d28003a8 	mov	x8, #0x1d                  	// #29
    1b68:	d4000001 	svc	#0x0
    1b6c:	d65f03c0 	ret

0000000000001b70 <_utee_cryp_obj_populate>:
_utee_cryp_obj_populate():
/home/jeferson/optee/optee_os-rpi4/lib/libutee/include/utee_syscalls_asm.S:71
    1b70:	d28003c8 	mov	x8, #0x1e                  	// #30
    1b74:	d4000001 	svc	#0x0
    1b78:	d65f03c0 	ret

0000000000001b7c <_utee_cryp_obj_copy>:
_utee_cryp_obj_copy():
/home/jeferson/optee/optee_os-rpi4/lib/libutee/include/utee_syscalls_asm.S:73
    1b7c:	d28003e8 	mov	x8, #0x1f                  	// #31
    1b80:	d4000001 	svc	#0x0
    1b84:	d65f03c0 	ret

0000000000001b88 <_utee_cryp_derive_key>:
_utee_cryp_derive_key():
/home/jeferson/optee/optee_os-rpi4/lib/libutee/include/utee_syscalls_asm.S:75
    1b88:	d2800408 	mov	x8, #0x20                  	// #32
    1b8c:	d4000001 	svc	#0x0
    1b90:	d65f03c0 	ret

0000000000001b94 <_utee_cryp_random_number_generate>:
_utee_cryp_random_number_generate():
/home/jeferson/optee/optee_os-rpi4/lib/libutee/include/utee_syscalls_asm.S:77
    1b94:	d2800428 	mov	x8, #0x21                  	// #33
    1b98:	d4000001 	svc	#0x0
    1b9c:	d65f03c0 	ret

0000000000001ba0 <_utee_authenc_init>:
_utee_authenc_init():
/home/jeferson/optee/optee_os-rpi4/lib/libutee/include/utee_syscalls_asm.S:80
    1ba0:	d2800448 	mov	x8, #0x22                  	// #34
    1ba4:	d4000001 	svc	#0x0
    1ba8:	d65f03c0 	ret

0000000000001bac <_utee_authenc_update_aad>:
_utee_authenc_update_aad():
/home/jeferson/optee/optee_os-rpi4/lib/libutee/include/utee_syscalls_asm.S:82
    1bac:	d2800468 	mov	x8, #0x23                  	// #35
    1bb0:	d4000001 	svc	#0x0
    1bb4:	d65f03c0 	ret

0000000000001bb8 <_utee_authenc_update_payload>:
_utee_authenc_update_payload():
/home/jeferson/optee/optee_os-rpi4/lib/libutee/include/utee_syscalls_asm.S:84
    1bb8:	d2800488 	mov	x8, #0x24                  	// #36
    1bbc:	d4000001 	svc	#0x0
    1bc0:	d65f03c0 	ret

0000000000001bc4 <_utee_authenc_enc_final>:
_utee_authenc_enc_final():
/home/jeferson/optee/optee_os-rpi4/lib/libutee/include/utee_syscalls_asm.S:87
    1bc4:	d28004a8 	mov	x8, #0x25                  	// #37
    1bc8:	d4000001 	svc	#0x0
    1bcc:	d65f03c0 	ret

0000000000001bd0 <_utee_authenc_dec_final>:
_utee_authenc_dec_final():
/home/jeferson/optee/optee_os-rpi4/lib/libutee/include/utee_syscalls_asm.S:89
    1bd0:	d28004c8 	mov	x8, #0x26                  	// #38
    1bd4:	d4000001 	svc	#0x0
    1bd8:	d65f03c0 	ret

0000000000001bdc <_utee_asymm_operate>:
_utee_asymm_operate():
/home/jeferson/optee/optee_os-rpi4/lib/libutee/include/utee_syscalls_asm.S:91
    1bdc:	d28004e8 	mov	x8, #0x27                  	// #39
    1be0:	d4000001 	svc	#0x0
    1be4:	d65f03c0 	ret

0000000000001be8 <_utee_asymm_verify>:
_utee_asymm_verify():
/home/jeferson/optee/optee_os-rpi4/lib/libutee/include/utee_syscalls_asm.S:93
    1be8:	d2800508 	mov	x8, #0x28                  	// #40
    1bec:	d4000001 	svc	#0x0
    1bf0:	d65f03c0 	ret

0000000000001bf4 <_utee_storage_obj_open>:
_utee_storage_obj_open():
/home/jeferson/optee/optee_os-rpi4/lib/libutee/include/utee_syscalls_asm.S:95
    1bf4:	d2800528 	mov	x8, #0x29                  	// #41
    1bf8:	d4000001 	svc	#0x0
    1bfc:	d65f03c0 	ret

0000000000001c00 <_utee_storage_obj_create>:
_utee_storage_obj_create():
/home/jeferson/optee/optee_os-rpi4/lib/libutee/include/utee_syscalls_asm.S:97
    1c00:	d2800548 	mov	x8, #0x2a                  	// #42
    1c04:	d4000001 	svc	#0x0
    1c08:	d65f03c0 	ret

0000000000001c0c <_utee_storage_obj_del>:
_utee_storage_obj_del():
/home/jeferson/optee/optee_os-rpi4/lib/libutee/include/utee_syscalls_asm.S:99
    1c0c:	d2800568 	mov	x8, #0x2b                  	// #43
    1c10:	d4000001 	svc	#0x0
    1c14:	d65f03c0 	ret

0000000000001c18 <_utee_storage_obj_rename>:
_utee_storage_obj_rename():
/home/jeferson/optee/optee_os-rpi4/lib/libutee/include/utee_syscalls_asm.S:101
    1c18:	d2800588 	mov	x8, #0x2c                  	// #44
    1c1c:	d4000001 	svc	#0x0
    1c20:	d65f03c0 	ret

0000000000001c24 <_utee_storage_alloc_enum>:
_utee_storage_alloc_enum():
/home/jeferson/optee/optee_os-rpi4/lib/libutee/include/utee_syscalls_asm.S:103
    1c24:	d28005a8 	mov	x8, #0x2d                  	// #45
    1c28:	d4000001 	svc	#0x0
    1c2c:	d65f03c0 	ret

0000000000001c30 <_utee_storage_free_enum>:
_utee_storage_free_enum():
/home/jeferson/optee/optee_os-rpi4/lib/libutee/include/utee_syscalls_asm.S:105
    1c30:	d28005c8 	mov	x8, #0x2e                  	// #46
    1c34:	d4000001 	svc	#0x0
    1c38:	d65f03c0 	ret

0000000000001c3c <_utee_storage_reset_enum>:
_utee_storage_reset_enum():
/home/jeferson/optee/optee_os-rpi4/lib/libutee/include/utee_syscalls_asm.S:107
    1c3c:	d28005e8 	mov	x8, #0x2f                  	// #47
    1c40:	d4000001 	svc	#0x0
    1c44:	d65f03c0 	ret

0000000000001c48 <_utee_storage_start_enum>:
_utee_storage_start_enum():
/home/jeferson/optee/optee_os-rpi4/lib/libutee/include/utee_syscalls_asm.S:109
    1c48:	d2800608 	mov	x8, #0x30                  	// #48
    1c4c:	d4000001 	svc	#0x0
    1c50:	d65f03c0 	ret

0000000000001c54 <_utee_storage_next_enum>:
_utee_storage_next_enum():
/home/jeferson/optee/optee_os-rpi4/lib/libutee/include/utee_syscalls_asm.S:111
    1c54:	d2800628 	mov	x8, #0x31                  	// #49
    1c58:	d4000001 	svc	#0x0
    1c5c:	d65f03c0 	ret

0000000000001c60 <_utee_storage_obj_read>:
_utee_storage_obj_read():
/home/jeferson/optee/optee_os-rpi4/lib/libutee/include/utee_syscalls_asm.S:113
    1c60:	d2800648 	mov	x8, #0x32                  	// #50
    1c64:	d4000001 	svc	#0x0
    1c68:	d65f03c0 	ret

0000000000001c6c <_utee_storage_obj_write>:
_utee_storage_obj_write():
/home/jeferson/optee/optee_os-rpi4/lib/libutee/include/utee_syscalls_asm.S:115
    1c6c:	d2800668 	mov	x8, #0x33                  	// #51
    1c70:	d4000001 	svc	#0x0
    1c74:	d65f03c0 	ret

0000000000001c78 <_utee_storage_obj_trunc>:
_utee_storage_obj_trunc():
/home/jeferson/optee/optee_os-rpi4/lib/libutee/include/utee_syscalls_asm.S:117
    1c78:	d2800688 	mov	x8, #0x34                  	// #52
    1c7c:	d4000001 	svc	#0x0
    1c80:	d65f03c0 	ret

0000000000001c84 <_utee_storage_obj_seek>:
_utee_storage_obj_seek():
/home/jeferson/optee/optee_os-rpi4/lib/libutee/include/utee_syscalls_asm.S:119
    1c84:	d28006a8 	mov	x8, #0x35                  	// #53
    1c88:	d4000001 	svc	#0x0
    1c8c:	d65f03c0 	ret

0000000000001c90 <_utee_cryp_obj_generate_key>:
_utee_cryp_obj_generate_key():
/home/jeferson/optee/optee_os-rpi4/lib/libutee/include/utee_syscalls_asm.S:121
    1c90:	d28006c8 	mov	x8, #0x36                  	// #54
    1c94:	d4000001 	svc	#0x0
    1c98:	d65f03c0 	ret

0000000000001c9c <_utee_cache_operation>:
_utee_cache_operation():
/home/jeferson/optee/optee_os-rpi4/lib/libutee/include/utee_syscalls_asm.S:124
    1c9c:	d28008c8 	mov	x8, #0x46                  	// #70
    1ca0:	d4000001 	svc	#0x0
    1ca4:	d65f03c0 	ret

0000000000001ca8 <_get_fn_array>:
_get_fn_array():
/home/jeferson/optee/optee_os-rpi4/lib/libutee/arch/arm/user_ta_entry.c:84
    1ca8:	79403009 	ldrh	w9, [x0, #24]
/home/jeferson/optee/optee_os-rpi4/lib/libutee/arch/arm/user_ta_entry.c:95
    1cac:	93407c21 	sxtw	x1, w1
/home/jeferson/optee/optee_os-rpi4/lib/libutee/arch/arm/user_ta_entry.c:98
    1cb0:	93407c42 	sxtw	x2, w2
/home/jeferson/optee/optee_os-rpi4/lib/libutee/arch/arm/user_ta_entry.c:84
    1cb4:	d2800007 	mov	x7, #0x0                   	// #0
/home/jeferson/optee/optee_os-rpi4/lib/libutee/arch/arm/user_ta_entry.c:85
    1cb8:	d280070a 	mov	x10, #0x38                  	// #56
/home/jeferson/optee/optee_os-rpi4/lib/libutee/arch/arm/user_ta_entry.c:84 (discriminator 1)
    1cbc:	eb07013f 	cmp	x9, x7
    1cc0:	54000048 	b.hi	1cc8 <_get_fn_array+0x20>  // b.pmore
/home/jeferson/optee/optee_os-rpi4/lib/libutee/arch/arm/user_ta_entry.c:104
    1cc4:	d65f03c0 	ret
/home/jeferson/optee/optee_os-rpi4/lib/libutee/arch/arm/user_ta_entry.c:85
    1cc8:	9b0a7ce5 	mul	x5, x7, x10
    1ccc:	f9400808 	ldr	x8, [x0, #16]
    1cd0:	8b050106 	add	x6, x8, x5
/home/jeferson/optee/optee_os-rpi4/lib/libutee/arch/arm/user_ta_entry.c:86
    1cd4:	b8656905 	ldr	w5, [x8, x5]
    1cd8:	710008bf 	cmp	w5, #0x2
    1cdc:	54000060 	b.eq	1ce8 <_get_fn_array+0x40>  // b.none
/home/jeferson/optee/optee_os-rpi4/lib/libutee/arch/arm/user_ta_entry.c:84
    1ce0:	910004e7 	add	x7, x7, #0x1
    1ce4:	17fffff6 	b	1cbc <_get_fn_array+0x14>
/home/jeferson/optee/optee_os-rpi4/lib/libutee/arch/arm/user_ta_entry.c:89
    1ce8:	f9400008 	ldr	x8, [x0]
    1cec:	f94008c5 	ldr	x5, [x6, #16]
/home/jeferson/optee/optee_os-rpi4/lib/libutee/arch/arm/user_ta_entry.c:88
    1cf0:	f94014c6 	ldr	x6, [x6, #40]
/home/jeferson/optee/optee_os-rpi4/lib/libutee/arch/arm/user_ta_entry.c:89
    1cf4:	8b0800a5 	add	x5, x5, x8
/home/jeferson/optee/optee_os-rpi4/lib/libutee/arch/arm/user_ta_entry.c:90
    1cf8:	927cecc6 	and	x6, x6, #0xfffffffffffffff0
    1cfc:	8b0500c6 	add	x6, x6, x5
/home/jeferson/optee/optee_os-rpi4/lib/libutee/arch/arm/user_ta_entry.c:90 (discriminator 1)
    1d00:	eb0600bf 	cmp	x5, x6
    1d04:	54fffee0 	b.eq	1ce0 <_get_fn_array+0x38>  // b.none
/home/jeferson/optee/optee_os-rpi4/lib/libutee/arch/arm/user_ta_entry.c:91
    1d08:	f9400068 	ldr	x8, [x3]
    1d0c:	b4000068 	cbz	x8, 1d18 <_get_fn_array+0x70>
/home/jeferson/optee/optee_os-rpi4/lib/libutee/arch/arm/user_ta_entry.c:91 (discriminator 1)
    1d10:	f9400088 	ldr	x8, [x4]
    1d14:	b5fffe68 	cbnz	x8, 1ce0 <_get_fn_array+0x38>
/home/jeferson/optee/optee_os-rpi4/lib/libutee/arch/arm/user_ta_entry.c:93
    1d18:	f94000a8 	ldr	x8, [x5]
    1d1c:	b4fffe28 	cbz	x8, 1ce0 <_get_fn_array+0x38>
/home/jeferson/optee/optee_os-rpi4/lib/libutee/arch/arm/user_ta_entry.c:95
    1d20:	eb01011f 	cmp	x8, x1
    1d24:	540000e1 	b.ne	1d40 <_get_fn_array+0x98>  // b.any
/home/jeferson/optee/optee_os-rpi4/lib/libutee/arch/arm/user_ta_entry.c:96
    1d28:	f940000b 	ldr	x11, [x0]
    1d2c:	f94004a8 	ldr	x8, [x5, #8]
    1d30:	8b0b0108 	add	x8, x8, x11
    1d34:	f9000068 	str	x8, [x3]
/home/jeferson/optee/optee_os-rpi4/lib/libutee/arch/arm/user_ta_entry.c:101 (discriminator 2)
    1d38:	910040a5 	add	x5, x5, #0x10
/home/jeferson/optee/optee_os-rpi4/lib/libutee/arch/arm/user_ta_entry.c:90 (discriminator 2)
    1d3c:	17fffff1 	b	1d00 <_get_fn_array+0x58>
/home/jeferson/optee/optee_os-rpi4/lib/libutee/arch/arm/user_ta_entry.c:98
    1d40:	eb02011f 	cmp	x8, x2
    1d44:	54ffffa1 	b.ne	1d38 <_get_fn_array+0x90>  // b.any
/home/jeferson/optee/optee_os-rpi4/lib/libutee/arch/arm/user_ta_entry.c:99
    1d48:	f94004a8 	ldr	x8, [x5, #8]
    1d4c:	d343fd08 	lsr	x8, x8, #3
    1d50:	f9000088 	str	x8, [x4]
    1d54:	17fffff9 	b	1d38 <_get_fn_array+0x90>

0000000000001d58 <_fini_iterate_phdr_cb>:
_fini_iterate_phdr_cb():
/home/jeferson/optee/optee_os-rpi4/lib/libutee/arch/arm/user_ta_entry.c:140
    1d58:	a9bc7bfd 	stp	x29, x30, [sp, #-64]!
    1d5c:	90000081 	adrp	x1, 11000 <_DYNAMIC>
    1d60:	910003fd 	mov	x29, sp
    1d64:	f9409821 	ldr	x1, [x1, #304]
    1d68:	f9000bf3 	str	x19, [sp, #16]
/home/jeferson/optee/optee_os-rpi4/lib/libutee/arch/arm/user_ta_entry.c:145
    1d6c:	9100c3e4 	add	x4, sp, #0x30
    1d70:	9100a3e3 	add	x3, sp, #0x28
/home/jeferson/optee/optee_os-rpi4/lib/libutee/arch/arm/user_ta_entry.c:140
    1d74:	f9400022 	ldr	x2, [x1]
    1d78:	f9001fe2 	str	x2, [sp, #56]
    1d7c:	d2800002 	mov	x2, #0x0                   	// #0
/home/jeferson/optee/optee_os-rpi4/lib/libutee/arch/arm/user_ta_entry.c:147
    1d80:	d2800033 	mov	x19, #0x1                   	// #1
/home/jeferson/optee/optee_os-rpi4/lib/libutee/arch/arm/user_ta_entry.c:145
    1d84:	52800382 	mov	w2, #0x1c                  	// #28
    1d88:	52800341 	mov	w1, #0x1a                  	// #26
/home/jeferson/optee/optee_os-rpi4/lib/libutee/arch/arm/user_ta_entry.c:142
    1d8c:	a902ffff 	stp	xzr, xzr, [sp, #40]
/home/jeferson/optee/optee_os-rpi4/lib/libutee/arch/arm/user_ta_entry.c:145
    1d90:	97ffffc6 	bl	1ca8 <_get_fn_array>
/home/jeferson/optee/optee_os-rpi4/lib/libutee/arch/arm/user_ta_entry.c:147 (discriminator 1)
    1d94:	f9401be0 	ldr	x0, [sp, #48]
    1d98:	eb13001f 	cmp	x0, x19
    1d9c:	54000122 	b.cs	1dc0 <_fini_iterate_phdr_cb+0x68>  // b.hs, b.nlast
/home/jeferson/optee/optee_os-rpi4/lib/libutee/arch/arm/user_ta_entry.c:151
    1da0:	90000081 	adrp	x1, 11000 <_DYNAMIC>
    1da4:	f9409821 	ldr	x1, [x1, #304]
    1da8:	f9401fe0 	ldr	x0, [sp, #56]
    1dac:	f9400022 	ldr	x2, [x1]
    1db0:	eb020000 	subs	x0, x0, x2
    1db4:	d2800002 	mov	x2, #0x0                   	// #0
    1db8:	54000100 	b.eq	1dd8 <_fini_iterate_phdr_cb+0x80>  // b.none
    1dbc:	97fff980 	bl	3bc <__stack_chk_fail>
/home/jeferson/optee/optee_os-rpi4/lib/libutee/arch/arm/user_ta_entry.c:148 (discriminator 3)
    1dc0:	f94017e1 	ldr	x1, [sp, #40]
    1dc4:	cb130000 	sub	x0, x0, x19
/home/jeferson/optee/optee_os-rpi4/lib/libutee/arch/arm/user_ta_entry.c:147 (discriminator 3)
    1dc8:	91000673 	add	x19, x19, #0x1
/home/jeferson/optee/optee_os-rpi4/lib/libutee/arch/arm/user_ta_entry.c:148 (discriminator 3)
    1dcc:	f8607820 	ldr	x0, [x1, x0, lsl #3]
    1dd0:	d63f0000 	blr	x0
/home/jeferson/optee/optee_os-rpi4/lib/libutee/arch/arm/user_ta_entry.c:147 (discriminator 3)
    1dd4:	17fffff0 	b	1d94 <_fini_iterate_phdr_cb+0x3c>
/home/jeferson/optee/optee_os-rpi4/lib/libutee/arch/arm/user_ta_entry.c:151
    1dd8:	52800000 	mov	w0, #0x0                   	// #0
    1ddc:	f9400bf3 	ldr	x19, [sp, #16]
    1de0:	a8c47bfd 	ldp	x29, x30, [sp], #64
    1de4:	d65f03c0 	ret

0000000000001de8 <ta_header_get_session>:
ta_header_get_session():
/home/jeferson/optee/optee_os-rpi4/lib/libutee/arch/arm/user_ta_entry.c:208
    1de8:	2a0003e1 	mov	w1, w0
/home/jeferson/optee/optee_os-rpi4/lib/libutee/arch/arm/user_ta_entry.c:211
    1dec:	90000080 	adrp	x0, 11000 <_DYNAMIC>
    1df0:	f9426800 	ldr	x0, [x0, #1232]
/home/jeferson/optee/optee_os-rpi4/lib/libutee/arch/arm/user_ta_entry.c:211 (discriminator 1)
    1df4:	b5000040 	cbnz	x0, 1dfc <ta_header_get_session+0x14>
/home/jeferson/optee/optee_os-rpi4/lib/libutee/arch/arm/user_ta_entry.c:216
    1df8:	d65f03c0 	ret
/home/jeferson/optee/optee_os-rpi4/lib/libutee/arch/arm/user_ta_entry.c:212
    1dfc:	b9400002 	ldr	w2, [x0]
    1e00:	6b01005f 	cmp	w2, w1
    1e04:	54ffffa0 	b.eq	1df8 <ta_header_get_session+0x10>  // b.none
/home/jeferson/optee/optee_os-rpi4/lib/libutee/arch/arm/user_ta_entry.c:211 (discriminator 2)
    1e08:	f9400800 	ldr	x0, [x0, #16]
    1e0c:	17fffffa 	b	1df4 <ta_header_get_session+0xc>

0000000000001e10 <to_utee_params>:
to_utee_params():
/home/jeferson/optee/optee_os-rpi4/lib/libutee/arch/arm/user_ta_entry.c:270
    1e10:	2a0103e3 	mov	w3, w1
    1e14:	f8008403 	str	x3, [x0], #8
    1e18:	52800003 	mov	w3, #0x0                   	// #0
/home/jeferson/optee/optee_os-rpi4/lib/libutee/arch/arm/user_ta_entry.c:272
    1e1c:	1ac32425 	lsr	w5, w1, w3
    1e20:	12000ca4 	and	w4, w5, #0xf
    1e24:	721e04bf 	tst	w5, #0xc
    1e28:	54000181 	b.ne	1e58 <to_utee_params+0x48>  // b.any
    1e2c:	340001c4 	cbz	w4, 1e64 <to_utee_params+0x54>
/home/jeferson/optee/optee_os-rpi4/lib/libutee/arch/arm/user_ta_entry.c:276
    1e30:	b9400044 	ldr	w4, [x2]
    1e34:	f9000004 	str	x4, [x0]
/home/jeferson/optee/optee_os-rpi4/lib/libutee/arch/arm/user_ta_entry.c:277
    1e38:	b9400444 	ldr	w4, [x2, #4]
/home/jeferson/optee/optee_os-rpi4/lib/libutee/arch/arm/user_ta_entry.c:271 (discriminator 2)
    1e3c:	11001063 	add	w3, w3, #0x4
/home/jeferson/optee/optee_os-rpi4/lib/libutee/arch/arm/user_ta_entry.c:277 (discriminator 2)
    1e40:	f9000404 	str	x4, [x0, #8]
/home/jeferson/optee/optee_os-rpi4/lib/libutee/arch/arm/user_ta_entry.c:271 (discriminator 2)
    1e44:	91004042 	add	x2, x2, #0x10
    1e48:	91004000 	add	x0, x0, #0x10
    1e4c:	7100407f 	cmp	w3, #0x10
    1e50:	54fffe61 	b.ne	1e1c <to_utee_params+0xc>  // b.any
/home/jeferson/optee/optee_os-rpi4/lib/libutee/arch/arm/user_ta_entry.c:291
    1e54:	d65f03c0 	ret
/home/jeferson/optee/optee_os-rpi4/lib/libutee/arch/arm/user_ta_entry.c:272
    1e58:	51001484 	sub	w4, w4, #0x5
    1e5c:	7100089f 	cmp	w4, #0x2
    1e60:	54000089 	b.ls	1e70 <to_utee_params+0x60>  // b.plast
/home/jeferson/optee/optee_os-rpi4/lib/libutee/arch/arm/user_ta_entry.c:288
    1e64:	d2800004 	mov	x4, #0x0                   	// #0
/home/jeferson/optee/optee_os-rpi4/lib/libutee/arch/arm/user_ta_entry.c:286
    1e68:	f900001f 	str	xzr, [x0]
/home/jeferson/optee/optee_os-rpi4/lib/libutee/arch/arm/user_ta_entry.c:288
    1e6c:	17fffff4 	b	1e3c <to_utee_params+0x2c>
/home/jeferson/optee/optee_os-rpi4/lib/libutee/arch/arm/user_ta_entry.c:282
    1e70:	f9400044 	ldr	x4, [x2]
    1e74:	f9000004 	str	x4, [x0]
/home/jeferson/optee/optee_os-rpi4/lib/libutee/arch/arm/user_ta_entry.c:283
    1e78:	f9400444 	ldr	x4, [x2, #8]
/home/jeferson/optee/optee_os-rpi4/lib/libutee/arch/arm/user_ta_entry.c:284
    1e7c:	17fffff0 	b	1e3c <to_utee_params+0x2c>

0000000000001e80 <from_utee_params>:
from_utee_params():
/home/jeferson/optee/optee_os-rpi4/lib/libutee/arch/arm/user_ta_entry.c:298
    1e80:	f8408445 	ldr	x5, [x2], #8
    1e84:	52800003 	mov	w3, #0x0                   	// #0
    1e88:	2a0503e9 	mov	w9, w5
/home/jeferson/optee/optee_os-rpi4/lib/libutee/arch/arm/user_ta_entry.c:304
    1e8c:	1ac32528 	lsr	w8, w9, w3
    1e90:	12000d04 	and	w4, w8, #0xf
/home/jeferson/optee/optee_os-rpi4/lib/libutee/arch/arm/user_ta_entry.c:302
    1e94:	a9401847 	ldp	x7, x6, [x2]
/home/jeferson/optee/optee_os-rpi4/lib/libutee/arch/arm/user_ta_entry.c:304
    1e98:	721e051f 	tst	w8, #0xc
    1e9c:	54000081 	b.ne	1eac <from_utee_params+0x2c>  // b.any
    1ea0:	340000c4 	cbz	w4, 1eb8 <from_utee_params+0x38>
/home/jeferson/optee/optee_os-rpi4/lib/libutee/arch/arm/user_ta_entry.c:309
    1ea4:	29001807 	stp	w7, w6, [x0]
/home/jeferson/optee/optee_os-rpi4/lib/libutee/arch/arm/user_ta_entry.c:310
    1ea8:	14000004 	b	1eb8 <from_utee_params+0x38>
/home/jeferson/optee/optee_os-rpi4/lib/libutee/arch/arm/user_ta_entry.c:304
    1eac:	51001484 	sub	w4, w4, #0x5
    1eb0:	7100089f 	cmp	w4, #0x2
    1eb4:	54000109 	b.ls	1ed4 <from_utee_params+0x54>  // b.plast
/home/jeferson/optee/optee_os-rpi4/lib/libutee/arch/arm/user_ta_entry.c:300 (discriminator 2)
    1eb8:	11001063 	add	w3, w3, #0x4
    1ebc:	91004042 	add	x2, x2, #0x10
    1ec0:	91004000 	add	x0, x0, #0x10
    1ec4:	7100407f 	cmp	w3, #0x10
    1ec8:	54fffe21 	b.ne	1e8c <from_utee_params+0xc>  // b.any
/home/jeferson/optee/optee_os-rpi4/lib/libutee/arch/arm/user_ta_entry.c:323
    1ecc:	b9000025 	str	w5, [x1]
/home/jeferson/optee/optee_os-rpi4/lib/libutee/arch/arm/user_ta_entry.c:324
    1ed0:	d65f03c0 	ret
/home/jeferson/optee/optee_os-rpi4/lib/libutee/arch/arm/user_ta_entry.c:315
    1ed4:	a9001807 	stp	x7, x6, [x0]
/home/jeferson/optee/optee_os-rpi4/lib/libutee/arch/arm/user_ta_entry.c:316
    1ed8:	17fffff8 	b	1eb8 <from_utee_params+0x38>

0000000000001edc <_init_iterate_phdr_cb>:
_init_iterate_phdr_cb():
/home/jeferson/optee/optee_os-rpi4/lib/libutee/arch/arm/user_ta_entry.c:60
    1edc:	a9bd7bfd 	stp	x29, x30, [sp, #-48]!
    1ee0:	910003fd 	mov	x29, sp
    1ee4:	a90153f3 	stp	x19, x20, [sp, #16]
    1ee8:	aa0203f4 	mov	x20, x2
    1eec:	f90013f5 	str	x21, [sp, #32]
    1ef0:	aa0003f5 	mov	x21, x0
/home/jeferson/optee/optee_os-rpi4/lib/libutee/arch/arm/user_ta_entry.c:64
    1ef4:	d2800a00 	mov	x0, #0x50                  	// #80
    1ef8:	9400294f 	bl	c434 <malloc>
/home/jeferson/optee/optee_os-rpi4/lib/libutee/arch/arm/user_ta_entry.c:65
    1efc:	b5000140 	cbnz	x0, 1f24 <_init_iterate_phdr_cb+0x48>
/home/jeferson/optee/optee_os-rpi4/lib/libutee/arch/arm/user_ta_entry.c:66
    1f00:	d0000064 	adrp	x4, f000 <__text_end+0x2508>
    1f04:	d0000060 	adrp	x0, f000 <__text_end+0x2508>
    1f08:	912cc084 	add	x4, x4, #0xb30
    1f0c:	912dfc00 	add	x0, x0, #0xb7f
    1f10:	52800023 	mov	w3, #0x1                   	// #1
    1f14:	52800022 	mov	w2, #0x1                   	// #1
    1f18:	52800841 	mov	w1, #0x42                  	// #66
    1f1c:	97fffd45 	bl	1430 <trace_printf>
/home/jeferson/optee/optee_os-rpi4/lib/libutee/arch/arm/user_ta_entry.c:67
    1f20:	940001b7 	bl	25fc <abort>
    1f24:	aa0003f3 	mov	x19, x0
/home/jeferson/optee/optee_os-rpi4/lib/libutee/arch/arm/user_ta_entry.c:69
    1f28:	aa1503e1 	mov	x1, x21
    1f2c:	d2800802 	mov	x2, #0x40                  	// #64
    1f30:	97fff83c 	bl	20 <memcpy>
/home/jeferson/optee/optee_os-rpi4/lib/libutee/arch/arm/user_ta_entry.c:70
    1f34:	90000080 	adrp	x0, 11000 <_DYNAMIC>
    1f38:	91134000 	add	x0, x0, #0x4d0
/home/jeferson/optee/optee_os-rpi4/lib/libutee/arch/arm/user_ta_entry.c:73
    1f3c:	f94013f5 	ldr	x21, [sp, #32]
/home/jeferson/optee/optee_os-rpi4/lib/libutee/arch/arm/user_ta_entry.c:70
    1f40:	f9400c01 	ldr	x1, [x0, #24]
    1f44:	a904067f 	stp	xzr, x1, [x19, #64]
    1f48:	f9000033 	str	x19, [x1]
    1f4c:	91010273 	add	x19, x19, #0x40
    1f50:	f9000c13 	str	x19, [x0, #24]
/home/jeferson/optee/optee_os-rpi4/lib/libutee/arch/arm/user_ta_entry.c:71
    1f54:	f9400280 	ldr	x0, [x20]
    1f58:	91000400 	add	x0, x0, #0x1
    1f5c:	f9000280 	str	x0, [x20]
/home/jeferson/optee/optee_os-rpi4/lib/libutee/arch/arm/user_ta_entry.c:73
    1f60:	52800000 	mov	w0, #0x0                   	// #0
    1f64:	a94153f3 	ldp	x19, x20, [sp, #16]
    1f68:	a8c37bfd 	ldp	x29, x30, [sp], #48
    1f6c:	d65f03c0 	ret

0000000000001f70 <__utee_call_elf_init_fn>:
__utee_call_elf_init_fn():
/home/jeferson/optee/optee_os-rpi4/lib/libutee/arch/arm/user_ta_entry.c:107
    1f70:	a9b97bfd 	stp	x29, x30, [sp, #-112]!
    1f74:	90000080 	adrp	x0, 11000 <_DYNAMIC>
    1f78:	910003fd 	mov	x29, sp
    1f7c:	f9409800 	ldr	x0, [x0, #304]
    1f80:	a90153f3 	stp	x19, x20, [sp, #16]
/home/jeferson/optee/optee_os-rpi4/lib/libutee/arch/arm/user_ta_entry.c:119
    1f84:	90000094 	adrp	x20, 11000 <_DYNAMIC>
/home/jeferson/optee/optee_os-rpi4/lib/libutee/arch/arm/user_ta_entry.c:107
    1f88:	a9025bf5 	stp	x21, x22, [sp, #32]
/home/jeferson/optee/optee_os-rpi4/lib/libutee/arch/arm/user_ta_entry.c:111
    1f8c:	d2800013 	mov	x19, #0x0                   	// #0
/home/jeferson/optee/optee_os-rpi4/lib/libutee/arch/arm/user_ta_entry.c:107
    1f90:	a90363f7 	stp	x23, x24, [sp, #48]
/home/jeferson/optee/optee_os-rpi4/lib/libutee/arch/arm/user_ta_entry.c:122
    1f94:	910183f8 	add	x24, sp, #0x60
/home/jeferson/optee/optee_os-rpi4/lib/libutee/arch/arm/user_ta_entry.c:120
    1f98:	90000097 	adrp	x23, 11000 <_DYNAMIC>
/home/jeferson/optee/optee_os-rpi4/lib/libutee/arch/arm/user_ta_entry.c:107
    1f9c:	f90023f9 	str	x25, [sp, #64]
/home/jeferson/optee/optee_os-rpi4/lib/libutee/arch/arm/user_ta_entry.c:122
    1fa0:	910143f9 	add	x25, sp, #0x50
/home/jeferson/optee/optee_os-rpi4/lib/libutee/arch/arm/user_ta_entry.c:107
    1fa4:	f9400001 	ldr	x1, [x0]
    1fa8:	f90037e1 	str	x1, [sp, #104]
    1fac:	d2800001 	mov	x1, #0x0                   	// #0
/home/jeferson/optee/optee_os-rpi4/lib/libutee/arch/arm/user_ta_entry.c:116
    1fb0:	90000000 	adrp	x0, 1000 <kprintf.constprop.0+0xa28>
    1fb4:	910163e1 	add	x1, sp, #0x58
    1fb8:	913b7000 	add	x0, x0, #0xedc
/home/jeferson/optee/optee_os-rpi4/lib/libutee/arch/arm/user_ta_entry.c:109
    1fbc:	a9057fff 	stp	xzr, xzr, [sp, #80]
/home/jeferson/optee/optee_os-rpi4/lib/libutee/arch/arm/user_ta_entry.c:110
    1fc0:	f90033ff 	str	xzr, [sp, #96]
/home/jeferson/optee/optee_os-rpi4/lib/libutee/arch/arm/user_ta_entry.c:116
    1fc4:	94001321 	bl	6c48 <dl_iterate_phdr>
/home/jeferson/optee/optee_os-rpi4/lib/libutee/arch/arm/user_ta_entry.c:119
    1fc8:	91134280 	add	x0, x20, #0x4d0
    1fcc:	f9400c00 	ldr	x0, [x0, #24]
    1fd0:	f9400400 	ldr	x0, [x0, #8]
    1fd4:	f9400015 	ldr	x21, [x0]
/home/jeferson/optee/optee_os-rpi4/lib/libutee/arch/arm/user_ta_entry.c:120 (discriminator 1)
    1fd8:	f942f6e1 	ldr	x1, [x23, #1512]
/home/jeferson/optee/optee_os-rpi4/lib/libutee/arch/arm/user_ta_entry.c:119 (discriminator 1)
    1fdc:	b5000155 	cbnz	x21, 2004 <__utee_call_elf_init_fn+0x94>
/home/jeferson/optee/optee_os-rpi4/lib/libutee/arch/arm/user_ta_entry.c:132
    1fe0:	91134294 	add	x20, x20, #0x4d0
/home/jeferson/optee/optee_os-rpi4/lib/libutee/arch/arm/user_ta_entry.c:130
    1fe4:	8b010273 	add	x19, x19, x1
    1fe8:	f902f6f3 	str	x19, [x23, #1512]
/home/jeferson/optee/optee_os-rpi4/lib/libutee/arch/arm/user_ta_entry.c:132
    1fec:	f9400a80 	ldr	x0, [x20, #16]
/home/jeferson/optee/optee_os-rpi4/lib/libutee/arch/arm/user_ta_entry.c:132 (discriminator 2)
    1ff0:	b40004a0 	cbz	x0, 2084 <__utee_call_elf_init_fn+0x114>
/home/jeferson/optee/optee_os-rpi4/lib/libutee/arch/arm/user_ta_entry.c:133 (discriminator 3)
    1ff4:	a9440413 	ldp	x19, x1, [x0, #64]
    1ff8:	b50003b3 	cbnz	x19, 206c <__utee_call_elf_init_fn+0xfc>
/home/jeferson/optee/optee_os-rpi4/lib/libutee/arch/arm/user_ta_entry.c:133 (discriminator 2)
    1ffc:	f9000e81 	str	x1, [x20, #24]
    2000:	1400001c 	b	2070 <__utee_call_elf_init_fn+0x100>
/home/jeferson/optee/optee_os-rpi4/lib/libutee/arch/arm/user_ta_entry.c:120
    2004:	f9402fe0 	ldr	x0, [sp, #88]
    2008:	cb010000 	sub	x0, x0, x1
    200c:	eb13001f 	cmp	x0, x19
    2010:	54fffe80 	b.eq	1fe0 <__utee_call_elf_init_fn+0x70>  // b.none
/home/jeferson/optee/optee_os-rpi4/lib/libutee/arch/arm/user_ta_entry.c:124
    2014:	d2800016 	mov	x22, #0x0                   	// #0
/home/jeferson/optee/optee_os-rpi4/lib/libutee/arch/arm/user_ta_entry.c:122
    2018:	aa1803e4 	mov	x4, x24
    201c:	aa1903e3 	mov	x3, x25
    2020:	aa1503e0 	mov	x0, x21
    2024:	52800362 	mov	w2, #0x1b                  	// #27
    2028:	52800321 	mov	w1, #0x19                  	// #25
    202c:	97ffff1f 	bl	1ca8 <_get_fn_array>
/home/jeferson/optee/optee_os-rpi4/lib/libutee/arch/arm/user_ta_entry.c:124 (discriminator 1)
    2030:	f94033e0 	ldr	x0, [sp, #96]
    2034:	eb16001f 	cmp	x0, x22
    2038:	54000108 	b.hi	2058 <__utee_call_elf_init_fn+0xe8>  // b.pmore
/home/jeferson/optee/optee_os-rpi4/lib/libutee/arch/arm/user_ta_entry.c:119 (discriminator 2)
    203c:	f94026a0 	ldr	x0, [x21, #72]
/home/jeferson/optee/optee_os-rpi4/lib/libutee/arch/arm/user_ta_entry.c:128 (discriminator 2)
    2040:	91000673 	add	x19, x19, #0x1
/home/jeferson/optee/optee_os-rpi4/lib/libutee/arch/arm/user_ta_entry.c:126 (discriminator 2)
    2044:	f9002bff 	str	xzr, [sp, #80]
/home/jeferson/optee/optee_os-rpi4/lib/libutee/arch/arm/user_ta_entry.c:127 (discriminator 2)
    2048:	f90033ff 	str	xzr, [sp, #96]
/home/jeferson/optee/optee_os-rpi4/lib/libutee/arch/arm/user_ta_entry.c:119 (discriminator 2)
    204c:	f9400400 	ldr	x0, [x0, #8]
    2050:	f9400015 	ldr	x21, [x0]
    2054:	17ffffe1 	b	1fd8 <__utee_call_elf_init_fn+0x68>
/home/jeferson/optee/optee_os-rpi4/lib/libutee/arch/arm/user_ta_entry.c:125 (discriminator 3)
    2058:	f9402be0 	ldr	x0, [sp, #80]
    205c:	f8767800 	ldr	x0, [x0, x22, lsl #3]
/home/jeferson/optee/optee_os-rpi4/lib/libutee/arch/arm/user_ta_entry.c:124 (discriminator 3)
    2060:	910006d6 	add	x22, x22, #0x1
/home/jeferson/optee/optee_os-rpi4/lib/libutee/arch/arm/user_ta_entry.c:125 (discriminator 3)
    2064:	d63f0000 	blr	x0
/home/jeferson/optee/optee_os-rpi4/lib/libutee/arch/arm/user_ta_entry.c:124 (discriminator 3)
    2068:	17fffff2 	b	2030 <__utee_call_elf_init_fn+0xc0>
/home/jeferson/optee/optee_os-rpi4/lib/libutee/arch/arm/user_ta_entry.c:133 (discriminator 1)
    206c:	f9002661 	str	x1, [x19, #72]
/home/jeferson/optee/optee_os-rpi4/lib/libutee/arch/arm/user_ta_entry.c:133 (discriminator 4)
    2070:	f9402401 	ldr	x1, [x0, #72]
    2074:	f9000033 	str	x19, [x1]
/home/jeferson/optee/optee_os-rpi4/lib/libutee/arch/arm/user_ta_entry.c:134 (discriminator 4)
    2078:	9400290f 	bl	c4b4 <free>
/home/jeferson/optee/optee_os-rpi4/lib/libutee/arch/arm/user_ta_entry.c:132 (discriminator 4)
    207c:	aa1303e0 	mov	x0, x19
    2080:	17ffffdc 	b	1ff0 <__utee_call_elf_init_fn+0x80>
/home/jeferson/optee/optee_os-rpi4/lib/libutee/arch/arm/user_ta_entry.c:136
    2084:	f0000060 	adrp	x0, 11000 <_DYNAMIC>
    2088:	f9409800 	ldr	x0, [x0, #304]
    208c:	f94037e2 	ldr	x2, [sp, #104]
    2090:	f9400001 	ldr	x1, [x0]
    2094:	eb010042 	subs	x2, x2, x1
    2098:	d2800001 	mov	x1, #0x0                   	// #0
    209c:	54000040 	b.eq	20a4 <__utee_call_elf_init_fn+0x134>  // b.none
    20a0:	97fff8c7 	bl	3bc <__stack_chk_fail>
    20a4:	a94153f3 	ldp	x19, x20, [sp, #16]
    20a8:	a9425bf5 	ldp	x21, x22, [sp, #32]
    20ac:	a94363f7 	ldp	x23, x24, [sp, #48]
    20b0:	f94023f9 	ldr	x25, [sp, #64]
    20b4:	a8c77bfd 	ldp	x29, x30, [sp], #112
    20b8:	d65f03c0 	ret

00000000000020bc <__utee_call_elf_fini_fn>:
__utee_call_elf_fini_fn():
/home/jeferson/optee/optee_os-rpi4/lib/libutee/arch/arm/user_ta_entry.c:155
    20bc:	d2800001 	mov	x1, #0x0                   	// #0
    20c0:	f0ffffe0 	adrp	x0, 1000 <kprintf.constprop.0+0xa28>
    20c4:	91356000 	add	x0, x0, #0xd58
    20c8:	140012e0 	b	6c48 <dl_iterate_phdr>

00000000000020cc <ta_header_remove_session>:
ta_header_remove_session():
/home/jeferson/optee/optee_os-rpi4/lib/libutee/arch/arm/user_ta_entry.c:245
    20cc:	a9be7bfd 	stp	x29, x30, [sp, #-32]!
    20d0:	2a0003e2 	mov	w2, w0
    20d4:	910003fd 	mov	x29, sp
    20d8:	f9000bf3 	str	x19, [sp, #16]
/home/jeferson/optee/optee_os-rpi4/lib/libutee/arch/arm/user_ta_entry.c:249
    20dc:	f0000073 	adrp	x19, 11000 <_DYNAMIC>
    20e0:	f9426a60 	ldr	x0, [x19, #1232]
/home/jeferson/optee/optee_os-rpi4/lib/libutee/arch/arm/user_ta_entry.c:249 (discriminator 1)
    20e4:	b5000080 	cbnz	x0, 20f4 <ta_header_remove_session+0x28>
/home/jeferson/optee/optee_os-rpi4/lib/libutee/arch/arm/user_ta_entry.c:263
    20e8:	f9400bf3 	ldr	x19, [sp, #16]
    20ec:	a8c27bfd 	ldp	x29, x30, [sp], #32
    20f0:	d65f03c0 	ret
/home/jeferson/optee/optee_os-rpi4/lib/libutee/arch/arm/user_ta_entry.c:250
    20f4:	b9400003 	ldr	w3, [x0]
/home/jeferson/optee/optee_os-rpi4/lib/libutee/arch/arm/user_ta_entry.c:251
    20f8:	f9400801 	ldr	x1, [x0, #16]
/home/jeferson/optee/optee_os-rpi4/lib/libutee/arch/arm/user_ta_entry.c:250
    20fc:	6b02007f 	cmp	w3, w2
    2100:	540002c1 	b.ne	2158 <ta_header_remove_session+0x8c>  // b.any
/home/jeferson/optee/optee_os-rpi4/lib/libutee/arch/arm/user_ta_entry.c:251
    2104:	f9400c02 	ldr	x2, [x0, #24]
    2108:	b4000221 	cbz	x1, 214c <ta_header_remove_session+0x80>
/home/jeferson/optee/optee_os-rpi4/lib/libutee/arch/arm/user_ta_entry.c:251 (discriminator 1)
    210c:	f9000c22 	str	x2, [x1, #24]
/home/jeferson/optee/optee_os-rpi4/lib/libutee/arch/arm/user_ta_entry.c:251 (discriminator 4)
    2110:	f9400c02 	ldr	x2, [x0, #24]
    2114:	f9000041 	str	x1, [x2]
/home/jeferson/optee/optee_os-rpi4/lib/libutee/arch/arm/user_ta_entry.c:252 (discriminator 4)
    2118:	9400051b 	bl	3584 <TEE_Free>
/home/jeferson/optee/optee_os-rpi4/lib/libutee/arch/arm/user_ta_entry.c:255 (discriminator 4)
    211c:	f0000060 	adrp	x0, 11000 <_DYNAMIC>
    2120:	f940e800 	ldr	x0, [x0, #464]
    2124:	f9400801 	ldr	x1, [x0, #16]
/home/jeferson/optee/optee_os-rpi4/lib/libutee/arch/arm/user_ta_entry.c:257 (discriminator 4)
    2128:	f9426a60 	ldr	x0, [x19, #1232]
    212c:	b5fffde0 	cbnz	x0, 20e8 <ta_header_remove_session+0x1c>
/home/jeferson/optee/optee_os-rpi4/lib/libutee/arch/arm/user_ta_entry.c:257 (discriminator 1)
    2130:	d2c00280 	mov	x0, #0x1400000000          	// #85899345920
    2134:	ea21001f 	bics	xzr, x0, x1
    2138:	54fffd80 	b.eq	20e8 <ta_header_remove_session+0x1c>  // b.none
uninit_instance():
/home/jeferson/optee/optee_os-rpi4/lib/libutee/arch/arm/user_ta_entry.c:192
    213c:	97fff7f6 	bl	114 <TA_DestroyEntryPoint>
ta_header_remove_session():
/home/jeferson/optee/optee_os-rpi4/lib/libutee/arch/arm/user_ta_entry.c:263
    2140:	f9400bf3 	ldr	x19, [sp, #16]
    2144:	a8c27bfd 	ldp	x29, x30, [sp], #32
uninit_instance():
/home/jeferson/optee/optee_os-rpi4/lib/libutee/arch/arm/user_ta_entry.c:193
    2148:	17ffffdd 	b	20bc <__utee_call_elf_fini_fn>
ta_header_remove_session():
/home/jeferson/optee/optee_os-rpi4/lib/libutee/arch/arm/user_ta_entry.c:251 (discriminator 2)
    214c:	91134263 	add	x3, x19, #0x4d0
    2150:	f9000462 	str	x2, [x3, #8]
    2154:	17ffffef 	b	2110 <ta_header_remove_session+0x44>
/home/jeferson/optee/optee_os-rpi4/lib/libutee/arch/arm/user_ta_entry.c:251
    2158:	aa0103e0 	mov	x0, x1
    215c:	17ffffe2 	b	20e4 <ta_header_remove_session+0x18>

0000000000002160 <__utee_entry>:
__utee_entry():
/home/jeferson/optee/optee_os-rpi4/lib/libutee/arch/arm/user_ta_entry.c:421
    2160:	a9b77bfd 	stp	x29, x30, [sp, #-144]!
    2164:	f0000064 	adrp	x4, 11000 <_DYNAMIC>
/home/jeferson/optee/optee_os-rpi4/lib/libutee/arch/arm/user_ta_entry.c:424
    2168:	f100041f 	cmp	x0, #0x1
/home/jeferson/optee/optee_os-rpi4/lib/libutee/arch/arm/user_ta_entry.c:421
    216c:	910003fd 	mov	x29, sp
    2170:	a9025bf5 	stp	x21, x22, [sp, #32]
    2174:	aa0103f5 	mov	x21, x1
    2178:	aa0203f6 	mov	x22, x2
    217c:	f9409881 	ldr	x1, [x4, #304]
    2180:	a90153f3 	stp	x19, x20, [sp, #16]
    2184:	aa0403f4 	mov	x20, x4
    2188:	a90363f7 	stp	x23, x24, [sp, #48]
    218c:	f9400022 	ldr	x2, [x1]
    2190:	f90047e2 	str	x2, [sp, #136]
    2194:	d2800002 	mov	x2, #0x0                   	// #0
/home/jeferson/optee/optee_os-rpi4/lib/libutee/arch/arm/user_ta_entry.c:424
    2198:	54000ca0 	b.eq	232c <__utee_entry+0x1cc>  // b.none
    219c:	f100081f 	cmp	x0, #0x2
    21a0:	54000d80 	b.eq	2350 <__utee_entry+0x1f0>  // b.none
    21a4:	b50010e0 	cbnz	x0, 23c0 <__utee_entry+0x260>
ta_header_add_session():
/home/jeferson/optee/optee_os-rpi4/lib/libutee/arch/arm/user_ta_entry.c:220
    21a8:	2a1503e0 	mov	w0, w21
    21ac:	97ffff0f 	bl	1de8 <ta_header_get_session>
/home/jeferson/optee/optee_os-rpi4/lib/libutee/arch/arm/user_ta_entry.c:223
    21b0:	b5000840 	cbnz	x0, 22b8 <__utee_entry+0x158>
/home/jeferson/optee/optee_os-rpi4/lib/libutee/arch/arm/user_ta_entry.c:226
    21b4:	f0000060 	adrp	x0, 11000 <_DYNAMIC>
    21b8:	9117a000 	add	x0, x0, #0x5e8
    21bc:	39402001 	ldrb	w1, [x0, #8]
    21c0:	340000e1 	cbz	w1, 21dc <__utee_entry+0x7c>
/home/jeferson/optee/optee_os-rpi4/lib/libutee/arch/arm/user_ta_entry.c:233
    21c4:	52b00001 	mov	w1, #0x80000000            	// #-2147483648
    21c8:	d2800400 	mov	x0, #0x20                  	// #32
    21cc:	940004a3 	bl	3458 <TEE_Malloc>
/home/jeferson/optee/optee_os-rpi4/lib/libutee/arch/arm/user_ta_entry.c:235
    21d0:	b5000620 	cbnz	x0, 2294 <__utee_entry+0x134>
/home/jeferson/optee/optee_os-rpi4/lib/libutee/arch/arm/user_ta_entry.c:236
    21d4:	129ffe73 	mov	w19, #0xffff000c            	// #-65524
    21d8:	14000022 	b	2260 <__utee_entry+0x100>
/home/jeferson/optee/optee_os-rpi4/lib/libutee/arch/arm/user_ta_entry.c:227
    21dc:	52800021 	mov	w1, #0x1                   	// #1
    21e0:	39002001 	strb	w1, [x0, #8]
init_instance():
/home/jeferson/optee/optee_os-rpi4/lib/libutee/arch/arm/user_ta_entry.c:170
    21e4:	97fff823 	bl	270 <tahead_get_trace_level>
    21e8:	97fffc00 	bl	11e8 <trace_set_level>
/home/jeferson/optee/optee_os-rpi4/lib/libutee/arch/arm/user_ta_entry.c:172
    21ec:	f9409e80 	ldr	x0, [x20, #312]
    21f0:	f9400001 	ldr	x1, [x0]
    21f4:	f940be80 	ldr	x0, [x20, #376]
    21f8:	9400297c 	bl	c7e8 <malloc_add_pool>
/home/jeferson/optee/optee_os-rpi4/lib/libutee/arch/arm/user_ta_entry.c:173
    21fc:	f940a280 	ldr	x0, [x20, #320]
    2200:	f9400017 	ldr	x23, [x0]
    2204:	b4000177 	cbz	x23, 2230 <__utee_entry+0xd0>
/home/jeferson/optee/optee_os-rpi4/lib/libutee/arch/arm/user_ta_entry.c:174
    2208:	940028b3 	bl	c4d4 <raw_malloc_get_ctx_size>
    220c:	9400288a 	bl	c434 <malloc>
    2210:	f940da93 	ldr	x19, [x20, #432]
    2214:	f9000260 	str	x0, [x19]
/home/jeferson/optee/optee_os-rpi4/lib/libutee/arch/arm/user_ta_entry.c:175
    2218:	b40000c0 	cbz	x0, 2230 <__utee_entry+0xd0>
/home/jeferson/optee/optee_os-rpi4/lib/libutee/arch/arm/user_ta_entry.c:176
    221c:	940028b0 	bl	c4dc <raw_malloc_init_ctx>
/home/jeferson/optee/optee_os-rpi4/lib/libutee/arch/arm/user_ta_entry.c:177
    2220:	f940de81 	ldr	x1, [x20, #440]
    2224:	aa1703e2 	mov	x2, x23
    2228:	f9400260 	ldr	x0, [x19]
    222c:	940028b3 	bl	c4f8 <raw_malloc_add_pool>
get_memtag_implementation():
/home/jeferson/optee/optee_os-rpi4/lib/libutee/arch/arm/user_ta_entry.c:163
    2230:	910113e2 	add	x2, sp, #0x44
    2234:	b0000061 	adrp	x1, f000 <__text_end+0x2508>
    2238:	912d2421 	add	x1, x1, #0xb49
    223c:	12800040 	mov	w0, #0xfffffffd            	// #-3
/home/jeferson/optee/optee_os-rpi4/lib/libutee/arch/arm/user_ta_entry.c:161
    2240:	b90047ff 	str	wzr, [sp, #68]
/home/jeferson/optee/optee_os-rpi4/lib/libutee/arch/arm/user_ta_entry.c:163
    2244:	94000fe0 	bl	61c4 <TEE_GetPropertyAsU32>
init_instance():
/home/jeferson/optee/optee_os-rpi4/lib/libutee/arch/arm/user_ta_entry.c:183
    2248:	9400073e 	bl	3f40 <_TEE_MathAPI_Init>
/home/jeferson/optee/optee_os-rpi4/lib/libutee/arch/arm/user_ta_entry.c:184
    224c:	940011e8 	bl	69ec <__utee_tcb_init>
/home/jeferson/optee/optee_os-rpi4/lib/libutee/arch/arm/user_ta_entry.c:185
    2250:	97ffff48 	bl	1f70 <__utee_call_elf_init_fn>
/home/jeferson/optee/optee_os-rpi4/lib/libutee/arch/arm/user_ta_entry.c:186
    2254:	97fff7ae 	bl	10c <TA_CreateEntryPoint>
    2258:	2a0003f3 	mov	w19, w0
ta_header_add_session():
/home/jeferson/optee/optee_os-rpi4/lib/libutee/arch/arm/user_ta_entry.c:229
    225c:	34fffb40 	cbz	w0, 21c4 <__utee_entry+0x64>
ta_header_save_params():
/home/jeferson/optee/optee_os-rpi4/lib/libutee/arch/arm/user_ta_entry.c:199
    2260:	f940d280 	ldr	x0, [x20, #416]
/home/jeferson/optee/optee_os-rpi4/lib/libutee/arch/arm/user_ta_entry.c:204
    2264:	4f000400 	movi	v0.4s, #0x0
/home/jeferson/optee/optee_os-rpi4/lib/libutee/arch/arm/user_ta_entry.c:199
    2268:	b900001f 	str	wzr, [x0]
/home/jeferson/optee/optee_os-rpi4/lib/libutee/arch/arm/user_ta_entry.c:204
    226c:	f940e280 	ldr	x0, [x20, #448]
__utee_entry():
/home/jeferson/optee/optee_os-rpi4/lib/libutee/arch/arm/user_ta_entry.c:446
    2270:	f9409a94 	ldr	x20, [x20, #304]
ta_header_save_params():
/home/jeferson/optee/optee_os-rpi4/lib/libutee/arch/arm/user_ta_entry.c:204
    2274:	ad000000 	stp	q0, q0, [x0]
    2278:	ad010000 	stp	q0, q0, [x0, #32]
__utee_entry():
/home/jeferson/optee/optee_os-rpi4/lib/libutee/arch/arm/user_ta_entry.c:446
    227c:	f94047e0 	ldr	x0, [sp, #136]
    2280:	f9400281 	ldr	x1, [x20]
    2284:	eb010000 	subs	x0, x0, x1
    2288:	d2800001 	mov	x1, #0x0                   	// #0
    228c:	54000a20 	b.eq	23d0 <__utee_entry+0x270>  // b.none
    2290:	97fff84b 	bl	3bc <__stack_chk_fail>
ta_header_add_session():
/home/jeferson/optee/optee_os-rpi4/lib/libutee/arch/arm/user_ta_entry.c:239
    2294:	f0000061 	adrp	x1, 11000 <_DYNAMIC>
    2298:	91134021 	add	x1, x1, #0x4d0
    229c:	f9400422 	ldr	x2, [x1, #8]
/home/jeferson/optee/optee_os-rpi4/lib/libutee/arch/arm/user_ta_entry.c:237
    22a0:	b9000015 	str	w21, [x0]
/home/jeferson/optee/optee_os-rpi4/lib/libutee/arch/arm/user_ta_entry.c:239
    22a4:	a900fc1f 	stp	xzr, xzr, [x0, #8]
    22a8:	f9000c02 	str	x2, [x0, #24]
    22ac:	f9000040 	str	x0, [x2]
    22b0:	91004000 	add	x0, x0, #0x10
    22b4:	f9000420 	str	x0, [x1, #8]
entry_open_session():
/home/jeferson/optee/optee_os-rpi4/lib/libutee/arch/arm/user_ta_entry.c:338
    22b8:	2a1503e0 	mov	w0, w21
    22bc:	97fffecb 	bl	1de8 <ta_header_get_session>
    22c0:	aa0003f3 	mov	x19, x0
/home/jeferson/optee/optee_os-rpi4/lib/libutee/arch/arm/user_ta_entry.c:339
    22c4:	b4000820 	cbz	x0, 23c8 <__utee_entry+0x268>
/home/jeferson/optee/optee_os-rpi4/lib/libutee/arch/arm/user_ta_entry.c:342
    22c8:	910123f7 	add	x23, sp, #0x48
    22cc:	aa1603e2 	mov	x2, x22
    22d0:	910113e1 	add	x1, sp, #0x44
    22d4:	aa1703e0 	mov	x0, x23
    22d8:	97fffeea 	bl	1e80 <from_utee_params>
/home/jeferson/optee/optee_os-rpi4/lib/libutee/arch/arm/user_ta_entry.c:343
    22dc:	b94047f8 	ldr	w24, [sp, #68]
ta_header_save_params():
/home/jeferson/optee/optee_os-rpi4/lib/libutee/arch/arm/user_ta_entry.c:199
    22e0:	f940d280 	ldr	x0, [x20, #416]
/home/jeferson/optee/optee_os-rpi4/lib/libutee/arch/arm/user_ta_entry.c:202
    22e4:	aa1703e1 	mov	x1, x23
    22e8:	d2800802 	mov	x2, #0x40                  	// #64
/home/jeferson/optee/optee_os-rpi4/lib/libutee/arch/arm/user_ta_entry.c:199
    22ec:	b9000018 	str	w24, [x0]
/home/jeferson/optee/optee_os-rpi4/lib/libutee/arch/arm/user_ta_entry.c:202
    22f0:	f940e280 	ldr	x0, [x20, #448]
    22f4:	97fff74b 	bl	20 <memcpy>
entry_open_session():
/home/jeferson/optee/optee_os-rpi4/lib/libutee/arch/arm/user_ta_entry.c:345
    22f8:	91002262 	add	x2, x19, #0x8
    22fc:	aa1703e1 	mov	x1, x23
    2300:	2a1803e0 	mov	w0, w24
    2304:	97fff7dd 	bl	278 <TA_OpenSessionEntryPoint>
/home/jeferson/optee/optee_os-rpi4/lib/libutee/arch/arm/user_ta_entry.c:348
    2308:	aa1703e2 	mov	x2, x23
/home/jeferson/optee/optee_os-rpi4/lib/libutee/arch/arm/user_ta_entry.c:345
    230c:	2a0003f3 	mov	w19, w0
/home/jeferson/optee/optee_os-rpi4/lib/libutee/arch/arm/user_ta_entry.c:348
    2310:	2a1803e1 	mov	w1, w24
    2314:	aa1603e0 	mov	x0, x22
    2318:	97fffebe 	bl	1e10 <to_utee_params>
/home/jeferson/optee/optee_os-rpi4/lib/libutee/arch/arm/user_ta_entry.c:350
    231c:	34fffa33 	cbz	w19, 2260 <__utee_entry+0x100>
/home/jeferson/optee/optee_os-rpi4/lib/libutee/arch/arm/user_ta_entry.c:351
    2320:	2a1503e0 	mov	w0, w21
    2324:	97ffff6a 	bl	20cc <ta_header_remove_session>
    2328:	17ffffce 	b	2260 <__utee_entry+0x100>
entry_close_session():
/home/jeferson/optee/optee_os-rpi4/lib/libutee/arch/arm/user_ta_entry.c:357
    232c:	2a1503e0 	mov	w0, w21
    2330:	97fffeae 	bl	1de8 <ta_header_get_session>
/home/jeferson/optee/optee_os-rpi4/lib/libutee/arch/arm/user_ta_entry.c:359
    2334:	b40004a0 	cbz	x0, 23c8 <__utee_entry+0x268>
/home/jeferson/optee/optee_os-rpi4/lib/libutee/arch/arm/user_ta_entry.c:362
    2338:	f9400400 	ldr	x0, [x0, #8]
/home/jeferson/optee/optee_os-rpi4/lib/libutee/arch/arm/user_ta_entry.c:365
    233c:	52800013 	mov	w19, #0x0                   	// #0
/home/jeferson/optee/optee_os-rpi4/lib/libutee/arch/arm/user_ta_entry.c:362
    2340:	97fff77a 	bl	128 <TA_CloseSessionEntryPoint>
/home/jeferson/optee/optee_os-rpi4/lib/libutee/arch/arm/user_ta_entry.c:364
    2344:	2a1503e0 	mov	w0, w21
    2348:	97ffff61 	bl	20cc <ta_header_remove_session>
/home/jeferson/optee/optee_os-rpi4/lib/libutee/arch/arm/user_ta_entry.c:365
    234c:	17ffffc5 	b	2260 <__utee_entry+0x100>
entry_invoke_command():
/home/jeferson/optee/optee_os-rpi4/lib/libutee/arch/arm/user_ta_entry.c:374
    2350:	2a1503e0 	mov	w0, w21
    2354:	97fffea5 	bl	1de8 <ta_header_get_session>
    2358:	aa0003f3 	mov	x19, x0
/home/jeferson/optee/optee_os-rpi4/lib/libutee/arch/arm/user_ta_entry.c:376
    235c:	b4000360 	cbz	x0, 23c8 <__utee_entry+0x268>
/home/jeferson/optee/optee_os-rpi4/lib/libutee/arch/arm/user_ta_entry.c:379
    2360:	910123f5 	add	x21, sp, #0x48
    2364:	aa0303f7 	mov	x23, x3
    2368:	aa1603e2 	mov	x2, x22
    236c:	910113e1 	add	x1, sp, #0x44
    2370:	aa1503e0 	mov	x0, x21
    2374:	97fffec3 	bl	1e80 <from_utee_params>
ta_header_save_params():
/home/jeferson/optee/optee_os-rpi4/lib/libutee/arch/arm/user_ta_entry.c:199
    2378:	f940d280 	ldr	x0, [x20, #416]
/home/jeferson/optee/optee_os-rpi4/lib/libutee/arch/arm/user_ta_entry.c:202
    237c:	aa1503e1 	mov	x1, x21
entry_invoke_command():
/home/jeferson/optee/optee_os-rpi4/lib/libutee/arch/arm/user_ta_entry.c:380
    2380:	b94047f8 	ldr	w24, [sp, #68]
ta_header_save_params():
/home/jeferson/optee/optee_os-rpi4/lib/libutee/arch/arm/user_ta_entry.c:202
    2384:	d2800802 	mov	x2, #0x40                  	// #64
/home/jeferson/optee/optee_os-rpi4/lib/libutee/arch/arm/user_ta_entry.c:199
    2388:	b9000018 	str	w24, [x0]
/home/jeferson/optee/optee_os-rpi4/lib/libutee/arch/arm/user_ta_entry.c:202
    238c:	f940e280 	ldr	x0, [x20, #448]
    2390:	97fff724 	bl	20 <memcpy>
entry_invoke_command():
/home/jeferson/optee/optee_os-rpi4/lib/libutee/arch/arm/user_ta_entry.c:382
    2394:	f9400660 	ldr	x0, [x19, #8]
    2398:	aa1503e3 	mov	x3, x21
    239c:	2a1803e2 	mov	w2, w24
    23a0:	2a1703e1 	mov	w1, w23
    23a4:	97fff7b8 	bl	284 <TA_InvokeCommandEntryPoint>
    23a8:	2a0003f3 	mov	w19, w0
/home/jeferson/optee/optee_os-rpi4/lib/libutee/arch/arm/user_ta_entry.c:385
    23ac:	aa1503e2 	mov	x2, x21
    23b0:	2a1803e1 	mov	w1, w24
    23b4:	aa1603e0 	mov	x0, x22
    23b8:	97fffe96 	bl	1e10 <to_utee_params>
/home/jeferson/optee/optee_os-rpi4/lib/libutee/arch/arm/user_ta_entry.c:386
    23bc:	17ffffa9 	b	2260 <__utee_entry+0x100>
__utee_entry():
/home/jeferson/optee/optee_os-rpi4/lib/libutee/arch/arm/user_ta_entry.c:424
    23c0:	129ffeb3 	mov	w19, #0xffff000a            	// #-65526
    23c4:	17ffffa7 	b	2260 <__utee_entry+0x100>
entry_close_session():
/home/jeferson/optee/optee_os-rpi4/lib/libutee/arch/arm/user_ta_entry.c:360
    23c8:	129fff13 	mov	w19, #0xffff0007            	// #-65529
    23cc:	17ffffa5 	b	2260 <__utee_entry+0x100>
__utee_entry():
/home/jeferson/optee/optee_os-rpi4/lib/libutee/arch/arm/user_ta_entry.c:446
    23d0:	2a1303e0 	mov	w0, w19
    23d4:	a94153f3 	ldp	x19, x20, [sp, #16]
    23d8:	a9425bf5 	ldp	x21, x22, [sp, #32]
    23dc:	a94363f7 	ldp	x23, x24, [sp, #48]
    23e0:	a8c97bfd 	ldp	x29, x30, [sp], #144
    23e4:	d65f03c0 	ret

00000000000023e8 <to_gp11_param>:
to_gp11_param():
/home/jeferson/optee/optee_os-rpi4/lib/libutee/arch/arm/user_ta_entry_compat.c:11
    23e8:	52800003 	mov	w3, #0x0                   	// #0
/home/jeferson/optee/optee_os-rpi4/lib/libutee/arch/arm/user_ta_entry_compat.c:15
    23ec:	1ac32405 	lsr	w5, w0, w3
    23f0:	12000ca4 	and	w4, w5, #0xf
    23f4:	721e04bf 	tst	w5, #0xc
    23f8:	540000e1 	b.ne	2414 <to_gp11_param+0x2c>  // b.any
    23fc:	34000124 	cbz	w4, 2420 <to_gp11_param+0x38>
/home/jeferson/optee/optee_os-rpi4/lib/libutee/arch/arm/user_ta_entry_compat.c:19
    2400:	b9400024 	ldr	w4, [x1]
    2404:	b9000044 	str	w4, [x2]
/home/jeferson/optee/optee_os-rpi4/lib/libutee/arch/arm/user_ta_entry_compat.c:20
    2408:	b9400424 	ldr	w4, [x1, #4]
    240c:	b9000444 	str	w4, [x2, #4]
/home/jeferson/optee/optee_os-rpi4/lib/libutee/arch/arm/user_ta_entry_compat.c:21
    2410:	14000004 	b	2420 <to_gp11_param+0x38>
/home/jeferson/optee/optee_os-rpi4/lib/libutee/arch/arm/user_ta_entry_compat.c:15
    2414:	51001484 	sub	w4, w4, #0x5
    2418:	7100089f 	cmp	w4, #0x2
    241c:	540000e9 	b.ls	2438 <to_gp11_param+0x50>  // b.plast
/home/jeferson/optee/optee_os-rpi4/lib/libutee/arch/arm/user_ta_entry_compat.c:14 (discriminator 2)
    2420:	11001063 	add	w3, w3, #0x4
    2424:	91004021 	add	x1, x1, #0x10
    2428:	91004042 	add	x2, x2, #0x10
    242c:	7100407f 	cmp	w3, #0x10
    2430:	54fffde1 	b.ne	23ec <to_gp11_param+0x4>  // b.any
/home/jeferson/optee/optee_os-rpi4/lib/libutee/arch/arm/user_ta_entry_compat.c:32
    2434:	d65f03c0 	ret
/home/jeferson/optee/optee_os-rpi4/lib/libutee/arch/arm/user_ta_entry_compat.c:25
    2438:	f9400024 	ldr	x4, [x1]
    243c:	f9000044 	str	x4, [x2]
/home/jeferson/optee/optee_os-rpi4/lib/libutee/arch/arm/user_ta_entry_compat.c:26
    2440:	f9400424 	ldr	x4, [x1, #8]
    2444:	b9000844 	str	w4, [x2, #8]
/home/jeferson/optee/optee_os-rpi4/lib/libutee/arch/arm/user_ta_entry_compat.c:27
    2448:	17fffff6 	b	2420 <to_gp11_param+0x38>

000000000000244c <from_gp11_param>:
from_gp11_param():
/home/jeferson/optee/optee_os-rpi4/lib/libutee/arch/arm/user_ta_entry_compat.c:37
    244c:	52800003 	mov	w3, #0x0                   	// #0
/home/jeferson/optee/optee_os-rpi4/lib/libutee/arch/arm/user_ta_entry_compat.c:41
    2450:	1ac32405 	lsr	w5, w0, w3
    2454:	12000ca4 	and	w4, w5, #0xf
    2458:	721e04bf 	tst	w5, #0xc
    245c:	540000e1 	b.ne	2478 <from_gp11_param+0x2c>  // b.any
    2460:	34000124 	cbz	w4, 2484 <from_gp11_param+0x38>
/home/jeferson/optee/optee_os-rpi4/lib/libutee/arch/arm/user_ta_entry_compat.c:45
    2464:	b9400024 	ldr	w4, [x1]
    2468:	b9000044 	str	w4, [x2]
/home/jeferson/optee/optee_os-rpi4/lib/libutee/arch/arm/user_ta_entry_compat.c:46
    246c:	b9400424 	ldr	w4, [x1, #4]
    2470:	b9000444 	str	w4, [x2, #4]
/home/jeferson/optee/optee_os-rpi4/lib/libutee/arch/arm/user_ta_entry_compat.c:47
    2474:	14000004 	b	2484 <from_gp11_param+0x38>
/home/jeferson/optee/optee_os-rpi4/lib/libutee/arch/arm/user_ta_entry_compat.c:41
    2478:	51001484 	sub	w4, w4, #0x5
    247c:	7100089f 	cmp	w4, #0x2
    2480:	540000e9 	b.ls	249c <from_gp11_param+0x50>  // b.plast
/home/jeferson/optee/optee_os-rpi4/lib/libutee/arch/arm/user_ta_entry_compat.c:40 (discriminator 2)
    2484:	11001063 	add	w3, w3, #0x4
    2488:	91004021 	add	x1, x1, #0x10
    248c:	91004042 	add	x2, x2, #0x10
    2490:	7100407f 	cmp	w3, #0x10
    2494:	54fffde1 	b.ne	2450 <from_gp11_param+0x4>  // b.any
/home/jeferson/optee/optee_os-rpi4/lib/libutee/arch/arm/user_ta_entry_compat.c:58
    2498:	d65f03c0 	ret
/home/jeferson/optee/optee_os-rpi4/lib/libutee/arch/arm/user_ta_entry_compat.c:51
    249c:	f9400024 	ldr	x4, [x1]
    24a0:	f9000044 	str	x4, [x2]
/home/jeferson/optee/optee_os-rpi4/lib/libutee/arch/arm/user_ta_entry_compat.c:52
    24a4:	b9400824 	ldr	w4, [x1, #8]
    24a8:	f9000444 	str	x4, [x2, #8]
/home/jeferson/optee/optee_os-rpi4/lib/libutee/arch/arm/user_ta_entry_compat.c:53
    24ac:	17fffff6 	b	2484 <from_gp11_param+0x38>

00000000000024b0 <__ta_open_sess>:
__ta_open_sess():
/home/jeferson/optee/optee_os-rpi4/lib/libutee/arch/arm/user_ta_entry_compat.c:70
    24b0:	a9b87bfd 	stp	x29, x30, [sp, #-128]!
    24b4:	aa0203e7 	mov	x7, x2
    24b8:	aa0303e6 	mov	x6, x3
/home/jeferson/optee/optee_os-rpi4/lib/libutee/arch/arm/user_ta_entry_compat.c:71
    24bc:	4f000400 	movi	v0.4s, #0x0
/home/jeferson/optee/optee_os-rpi4/lib/libutee/arch/arm/user_ta_entry_compat.c:70
    24c0:	910003fd 	mov	x29, sp
    24c4:	a90153f3 	stp	x19, x20, [sp, #16]
    24c8:	f0000074 	adrp	x20, 11000 <_DYNAMIC>
/home/jeferson/optee/optee_os-rpi4/lib/libutee/arch/arm/user_ta_entry_compat.c:71
    24cc:	9100e3f3 	add	x19, sp, #0x38
/home/jeferson/optee/optee_os-rpi4/lib/libutee/arch/arm/user_ta_entry_compat.c:70
    24d0:	f9409a82 	ldr	x2, [x20, #304]
    24d4:	a9025bf5 	stp	x21, x22, [sp, #32]
    24d8:	aa0103f6 	mov	x22, x1
    24dc:	f9400043 	ldr	x3, [x2]
    24e0:	f9003fe3 	str	x3, [sp, #120]
    24e4:	d2800003 	mov	x3, #0x0                   	// #0
/home/jeferson/optee/optee_os-rpi4/lib/libutee/arch/arm/user_ta_entry_compat.c:74
    24e8:	aa1303e2 	mov	x2, x19
/home/jeferson/optee/optee_os-rpi4/lib/libutee/arch/arm/user_ta_entry_compat.c:71
    24ec:	ad000260 	stp	q0, q0, [x19]
/home/jeferson/optee/optee_os-rpi4/lib/libutee/arch/arm/user_ta_entry_compat.c:70
    24f0:	2a0003f5 	mov	w21, w0
/home/jeferson/optee/optee_os-rpi4/lib/libutee/arch/arm/user_ta_entry_compat.c:71
    24f4:	ad010260 	stp	q0, q0, [x19, #32]
/home/jeferson/optee/optee_os-rpi4/lib/libutee/arch/arm/user_ta_entry_compat.c:74
    24f8:	97ffffbc 	bl	23e8 <to_gp11_param>
/home/jeferson/optee/optee_os-rpi4/lib/libutee/arch/arm/user_ta_entry_compat.c:75
    24fc:	aa0703e2 	mov	x2, x7
    2500:	aa1303e1 	mov	x1, x19
    2504:	d63f00c0 	blr	x6
/home/jeferson/optee/optee_os-rpi4/lib/libutee/arch/arm/user_ta_entry_compat.c:76
    2508:	aa1303e1 	mov	x1, x19
/home/jeferson/optee/optee_os-rpi4/lib/libutee/arch/arm/user_ta_entry_compat.c:75
    250c:	2a0003e6 	mov	w6, w0
/home/jeferson/optee/optee_os-rpi4/lib/libutee/arch/arm/user_ta_entry_compat.c:76
    2510:	aa1603e2 	mov	x2, x22
    2514:	2a1503e0 	mov	w0, w21
    2518:	97ffffcd 	bl	244c <from_gp11_param>
/home/jeferson/optee/optee_os-rpi4/lib/libutee/arch/arm/user_ta_entry_compat.c:79
    251c:	f9409a94 	ldr	x20, [x20, #304]
    2520:	f9403fe0 	ldr	x0, [sp, #120]
    2524:	f9400281 	ldr	x1, [x20]
    2528:	eb010000 	subs	x0, x0, x1
    252c:	d2800001 	mov	x1, #0x0                   	// #0
    2530:	54000040 	b.eq	2538 <__ta_open_sess+0x88>  // b.none
    2534:	97fff7a2 	bl	3bc <__stack_chk_fail>
    2538:	2a0603e0 	mov	w0, w6
    253c:	a94153f3 	ldp	x19, x20, [sp, #16]
    2540:	a9425bf5 	ldp	x21, x22, [sp, #32]
    2544:	a8c87bfd 	ldp	x29, x30, [sp], #128
    2548:	d65f03c0 	ret

000000000000254c <__ta_invoke_cmd>:
__ta_invoke_cmd():
/home/jeferson/optee/optee_os-rpi4/lib/libutee/arch/arm/user_ta_entry_compat.c:90
    254c:	a9b87bfd 	stp	x29, x30, [sp, #-128]!
    2550:	aa0003e7 	mov	x7, x0
    2554:	2a0103e8 	mov	w8, w1
    2558:	910003fd 	mov	x29, sp
    255c:	a9025bf5 	stp	x21, x22, [sp, #32]
    2560:	f0000075 	adrp	x21, 11000 <_DYNAMIC>
    2564:	aa0403e6 	mov	x6, x4
    2568:	f9409aa0 	ldr	x0, [x21, #304]
    256c:	a90153f3 	stp	x19, x20, [sp, #16]
/home/jeferson/optee/optee_os-rpi4/lib/libutee/arch/arm/user_ta_entry_compat.c:91
    2570:	9100e3f3 	add	x19, sp, #0x38
    2574:	4f000400 	movi	v0.4s, #0x0
/home/jeferson/optee/optee_os-rpi4/lib/libutee/arch/arm/user_ta_entry_compat.c:90
    2578:	f9400001 	ldr	x1, [x0]
    257c:	f9003fe1 	str	x1, [sp, #120]
    2580:	d2800001 	mov	x1, #0x0                   	// #0
    2584:	2a0203f4 	mov	w20, w2
    2588:	aa0303f6 	mov	x22, x3
/home/jeferson/optee/optee_os-rpi4/lib/libutee/arch/arm/user_ta_entry_compat.c:94
    258c:	aa0303e1 	mov	x1, x3
    2590:	aa1303e2 	mov	x2, x19
    2594:	2a1403e0 	mov	w0, w20
/home/jeferson/optee/optee_os-rpi4/lib/libutee/arch/arm/user_ta_entry_compat.c:91
    2598:	ad000260 	stp	q0, q0, [x19]
    259c:	ad010260 	stp	q0, q0, [x19, #32]
/home/jeferson/optee/optee_os-rpi4/lib/libutee/arch/arm/user_ta_entry_compat.c:94
    25a0:	97ffff92 	bl	23e8 <to_gp11_param>
/home/jeferson/optee/optee_os-rpi4/lib/libutee/arch/arm/user_ta_entry_compat.c:95
    25a4:	aa1303e3 	mov	x3, x19
    25a8:	2a1403e2 	mov	w2, w20
    25ac:	2a0803e1 	mov	w1, w8
    25b0:	aa0703e0 	mov	x0, x7
    25b4:	d63f00c0 	blr	x6
/home/jeferson/optee/optee_os-rpi4/lib/libutee/arch/arm/user_ta_entry_compat.c:96
    25b8:	aa1303e1 	mov	x1, x19
/home/jeferson/optee/optee_os-rpi4/lib/libutee/arch/arm/user_ta_entry_compat.c:95
    25bc:	2a0003e6 	mov	w6, w0
/home/jeferson/optee/optee_os-rpi4/lib/libutee/arch/arm/user_ta_entry_compat.c:96
    25c0:	aa1603e2 	mov	x2, x22
    25c4:	2a1403e0 	mov	w0, w20
    25c8:	97ffffa1 	bl	244c <from_gp11_param>
/home/jeferson/optee/optee_os-rpi4/lib/libutee/arch/arm/user_ta_entry_compat.c:99
    25cc:	f9409ab5 	ldr	x21, [x21, #304]
    25d0:	f9403fe0 	ldr	x0, [sp, #120]
    25d4:	f94002a1 	ldr	x1, [x21]
    25d8:	eb010000 	subs	x0, x0, x1
    25dc:	d2800001 	mov	x1, #0x0                   	// #0
    25e0:	54000040 	b.eq	25e8 <__ta_invoke_cmd+0x9c>  // b.none
    25e4:	97fff776 	bl	3bc <__stack_chk_fail>
    25e8:	2a0603e0 	mov	w0, w6
    25ec:	a94153f3 	ldp	x19, x20, [sp, #16]
    25f0:	a9425bf5 	ldp	x21, x22, [sp, #32]
    25f4:	a8c87bfd 	ldp	x29, x30, [sp], #128
    25f8:	d65f03c0 	ret

00000000000025fc <abort>:
abort():
/home/jeferson/optee/optee_os-rpi4/lib/libutee/abort.c:12
    25fc:	a9bf7bfd 	stp	x29, x30, [sp, #-16]!
/home/jeferson/optee/optee_os-rpi4/lib/libutee/abort.c:13
    2600:	b0000060 	adrp	x0, f000 <__text_end+0x2508>
    2604:	912e5400 	add	x0, x0, #0xb95
/home/jeferson/optee/optee_os-rpi4/lib/libutee/abort.c:12
    2608:	910003fd 	mov	x29, sp
/home/jeferson/optee/optee_os-rpi4/lib/libutee/abort.c:13
    260c:	97fffc21 	bl	1690 <puts>
/home/jeferson/optee/optee_os-rpi4/lib/libutee/abort.c:14
    2610:	d2800000 	mov	x0, #0x0                   	// #0
    2614:	97fffcfa 	bl	19fc <_utee_panic>
/home/jeferson/optee/optee_os-rpi4/lib/libutee/abort.c:16 (discriminator 1)
    2618:	14000000 	b	2618 <abort+0x1c>

000000000000261c <copy_param>:
copy_param():
/home/jeferson/optee/optee_os-rpi4/lib/libutee/tee_api.c:43
    261c:	2a0103e3 	mov	w3, w1
    2620:	52800004 	mov	w4, #0x0                   	// #0
    2624:	f8008403 	str	x3, [x0], #8
/home/jeferson/optee/optee_os-rpi4/lib/libutee/tee_api.c:45
    2628:	1ac42425 	lsr	w5, w1, w4
    262c:	12000ca3 	and	w3, w5, #0xf
    2630:	71000c7f 	cmp	w3, #0x3
    2634:	540001a0 	b.eq	2668 <copy_param+0x4c>  // b.none
    2638:	721e04bf 	tst	w5, #0xc
    263c:	540000c1 	b.ne	2654 <copy_param+0x38>  // b.any
    2640:	7100047f 	cmp	w3, #0x1
    2644:	54000120 	b.eq	2668 <copy_param+0x4c>  // b.none
    2648:	d2800003 	mov	x3, #0x0                   	// #0
    264c:	d2800005 	mov	x5, #0x0                   	// #0
    2650:	14000007 	b	266c <copy_param+0x50>
    2654:	51001463 	sub	w3, w3, #0x5
    2658:	7100087f 	cmp	w3, #0x2
    265c:	54ffff68 	b.hi	2648 <copy_param+0x2c>  // b.pmore
/home/jeferson/optee/optee_os-rpi4/lib/libutee/tee_api.c:55
    2660:	a9400c45 	ldp	x5, x3, [x2]
/home/jeferson/optee/optee_os-rpi4/lib/libutee/tee_api.c:56
    2664:	14000002 	b	266c <copy_param+0x50>
/home/jeferson/optee/optee_os-rpi4/lib/libutee/tee_api.c:49
    2668:	29400c45 	ldp	w5, w3, [x2]
/home/jeferson/optee/optee_os-rpi4/lib/libutee/tee_api.c:44 (discriminator 2)
    266c:	11001084 	add	w4, w4, #0x4
/home/jeferson/optee/optee_os-rpi4/lib/libutee/tee_api.c:62 (discriminator 2)
    2670:	a9000c05 	stp	x5, x3, [x0]
/home/jeferson/optee/optee_os-rpi4/lib/libutee/tee_api.c:44 (discriminator 2)
    2674:	91004042 	add	x2, x2, #0x10
    2678:	91004000 	add	x0, x0, #0x10
    267c:	7100409f 	cmp	w4, #0x10
    2680:	54fffd41 	b.ne	2628 <copy_param+0xc>  // b.any
/home/jeferson/optee/optee_os-rpi4/lib/libutee/tee_api.c:64
    2684:	d65f03c0 	ret

0000000000002688 <copy_gp11_param>:
copy_gp11_param():
/home/jeferson/optee/optee_os-rpi4/lib/libutee/tee_api.c:73
    2688:	2a0103e3 	mov	w3, w1
    268c:	52800004 	mov	w4, #0x0                   	// #0
    2690:	f8008403 	str	x3, [x0], #8
/home/jeferson/optee/optee_os-rpi4/lib/libutee/tee_api.c:75
    2694:	1ac42425 	lsr	w5, w1, w4
    2698:	12000ca3 	and	w3, w5, #0xf
    269c:	71000c7f 	cmp	w3, #0x3
    26a0:	540001c0 	b.eq	26d8 <copy_gp11_param+0x50>  // b.none
    26a4:	721e04bf 	tst	w5, #0xc
    26a8:	540000c1 	b.ne	26c0 <copy_gp11_param+0x38>  // b.any
    26ac:	7100047f 	cmp	w3, #0x1
    26b0:	54000140 	b.eq	26d8 <copy_gp11_param+0x50>  // b.none
    26b4:	d2800003 	mov	x3, #0x0                   	// #0
    26b8:	d2800005 	mov	x5, #0x0                   	// #0
    26bc:	14000008 	b	26dc <copy_gp11_param+0x54>
    26c0:	51001463 	sub	w3, w3, #0x5
    26c4:	7100087f 	cmp	w3, #0x2
    26c8:	54ffff68 	b.hi	26b4 <copy_gp11_param+0x2c>  // b.pmore
/home/jeferson/optee/optee_os-rpi4/lib/libutee/tee_api.c:85
    26cc:	b9400843 	ldr	w3, [x2, #8]
/home/jeferson/optee/optee_os-rpi4/lib/libutee/tee_api.c:84
    26d0:	f9400045 	ldr	x5, [x2]
/home/jeferson/optee/optee_os-rpi4/lib/libutee/tee_api.c:86
    26d4:	14000002 	b	26dc <copy_gp11_param+0x54>
/home/jeferson/optee/optee_os-rpi4/lib/libutee/tee_api.c:79
    26d8:	29400c45 	ldp	w5, w3, [x2]
/home/jeferson/optee/optee_os-rpi4/lib/libutee/tee_api.c:74 (discriminator 2)
    26dc:	11001084 	add	w4, w4, #0x4
/home/jeferson/optee/optee_os-rpi4/lib/libutee/tee_api.c:92 (discriminator 2)
    26e0:	a9000c05 	stp	x5, x3, [x0]
/home/jeferson/optee/optee_os-rpi4/lib/libutee/tee_api.c:74 (discriminator 2)
    26e4:	91004042 	add	x2, x2, #0x10
    26e8:	91004000 	add	x0, x0, #0x10
    26ec:	7100409f 	cmp	w4, #0x10
    26f0:	54fffd21 	b.ne	2694 <copy_gp11_param+0xc>  // b.any
/home/jeferson/optee/optee_os-rpi4/lib/libutee/tee_api.c:94
    26f4:	d65f03c0 	ret

00000000000026f8 <check_mem_access_rights_params>:
check_mem_access_rights_params():
/home/jeferson/optee/optee_os-rpi4/lib/libutee/tee_api.c:261
    26f8:	f0000063 	adrp	x3, 11000 <_DYNAMIC>
bufs_intersect():
/home/jeferson/optee/optee_os-rpi4/lib/libutee/tee_api.c:241
    26fc:	d1000447 	sub	x7, x2, #0x1
    2700:	8b0100e7 	add	x7, x7, x1
check_mem_access_rights_params():
/home/jeferson/optee/optee_os-rpi4/lib/libutee/tee_api.c:261
    2704:	52800005 	mov	w5, #0x0                   	// #0
    2708:	f940d064 	ldr	x4, [x3, #416]
    270c:	f940e063 	ldr	x3, [x3, #448]
    2710:	b9400089 	ldr	w9, [x4]
    2714:	1ac52524 	lsr	w4, w9, w5
    2718:	12000c84 	and	w4, w4, #0xf
    271c:	7100149f 	cmp	w4, #0x5
    2720:	54000300 	b.eq	2780 <check_mem_access_rights_params+0x88>  // b.none
    2724:	51001884 	sub	w4, w4, #0x6
    2728:	7100049f 	cmp	w4, #0x1
    272c:	540001e8 	b.hi	2768 <check_mem_access_rights_params+0x70>  // b.pmore
    2730:	528000c6 	mov	w6, #0x6                   	// #6
/home/jeferson/optee/optee_os-rpi4/lib/libutee/tee_api.c:268
    2734:	f9400464 	ldr	x4, [x3, #8]
bufs_intersect():
/home/jeferson/optee/optee_os-rpi4/lib/libutee/tee_api.c:244
    2738:	f100005f 	cmp	x2, #0x0
    273c:	fa401884 	ccmp	x4, #0x0, #0x4, ne  // ne = any
    2740:	54000140 	b.eq	2768 <check_mem_access_rights_params+0x70>  // b.none
/home/jeferson/optee/optee_os-rpi4/lib/libutee/tee_api.c:240
    2744:	f9400068 	ldr	x8, [x3]
/home/jeferson/optee/optee_os-rpi4/lib/libutee/tee_api.c:242
    2748:	d1000484 	sub	x4, x4, #0x1
    274c:	8b080084 	add	x4, x4, x8
/home/jeferson/optee/optee_os-rpi4/lib/libutee/tee_api.c:247
    2750:	eb07011f 	cmp	x8, x7
    2754:	fa449022 	ccmp	x1, x4, #0x2, ls  // ls = plast
    2758:	54000088 	b.hi	2768 <check_mem_access_rights_params+0x70>  // b.pmore
check_mem_access_rights_params():
/home/jeferson/optee/optee_os-rpi4/lib/libutee/tee_api.c:267
    275c:	320000c6 	orr	w6, w6, #0x1
/home/jeferson/optee/optee_os-rpi4/lib/libutee/tee_api.c:271
    2760:	6a26001f 	bics	wzr, w0, w6
    2764:	54000121 	b.ne	2788 <check_mem_access_rights_params+0x90>  // b.any
/home/jeferson/optee/optee_os-rpi4/lib/libutee/tee_api.c:258 (discriminator 2)
    2768:	110010a5 	add	w5, w5, #0x4
    276c:	91004063 	add	x3, x3, #0x10
    2770:	710040bf 	cmp	w5, #0x10
    2774:	54fffd01 	b.ne	2714 <check_mem_access_rights_params+0x1c>  // b.any
/home/jeferson/optee/optee_os-rpi4/lib/libutee/tee_api.c:280
    2778:	52800000 	mov	w0, #0x0                   	// #0
/home/jeferson/optee/optee_os-rpi4/lib/libutee/tee_api.c:281
    277c:	d65f03c0 	ret
/home/jeferson/optee/optee_os-rpi4/lib/libutee/tee_api.c:259
    2780:	52800086 	mov	w6, #0x4                   	// #4
    2784:	17ffffec 	b	2734 <check_mem_access_rights_params+0x3c>
/home/jeferson/optee/optee_os-rpi4/lib/libutee/tee_api.c:272
    2788:	129fffc0 	mov	w0, #0xffff0001            	// #-65535
    278c:	17fffffc 	b	277c <check_mem_access_rights_params+0x84>

0000000000002790 <buf_overlaps_no_share_heap>:
buf_overlaps_no_share_heap():
/home/jeferson/optee/optee_os-rpi4/lib/libutee/tee_api.c:284
    2790:	aa0003e3 	mov	x3, x0
/home/jeferson/optee/optee_os-rpi4/lib/libutee/tee_api.c:285
    2794:	f0000060 	adrp	x0, 11000 <_DYNAMIC>
    2798:	f940d800 	ldr	x0, [x0, #432]
    279c:	f9400000 	ldr	x0, [x0]
/home/jeferson/optee/optee_os-rpi4/lib/libutee/tee_api.c:287
    27a0:	b4000140 	cbz	x0, 27c8 <buf_overlaps_no_share_heap+0x38>
/home/jeferson/optee/optee_os-rpi4/lib/libutee/tee_api.c:284 (discriminator 1)
    27a4:	a9bf7bfd 	stp	x29, x30, [sp, #-16]!
    27a8:	aa0103e2 	mov	x2, x1
/home/jeferson/optee/optee_os-rpi4/lib/libutee/tee_api.c:287 (discriminator 1)
    27ac:	aa0303e1 	mov	x1, x3
/home/jeferson/optee/optee_os-rpi4/lib/libutee/tee_api.c:284 (discriminator 1)
    27b0:	910003fd 	mov	x29, sp
/home/jeferson/optee/optee_os-rpi4/lib/libutee/tee_api.c:287 (discriminator 1)
    27b4:	94002786 	bl	c5cc <raw_malloc_buffer_overlaps_heap>
    27b8:	12001c00 	and	w0, w0, #0xff
/home/jeferson/optee/optee_os-rpi4/lib/libutee/tee_api.c:288 (discriminator 1)
    27bc:	12000000 	and	w0, w0, #0x1
    27c0:	a8c17bfd 	ldp	x29, x30, [sp], #16
    27c4:	d65f03c0 	ret
/home/jeferson/optee/optee_os-rpi4/lib/libutee/tee_api.c:287
    27c8:	52800000 	mov	w0, #0x0                   	// #0
/home/jeferson/optee/optee_os-rpi4/lib/libutee/tee_api.c:288
    27cc:	12000000 	and	w0, w0, #0x1
    27d0:	d65f03c0 	ret

00000000000027d4 <check_invoke_param>:
check_invoke_param():
/home/jeferson/optee/optee_os-rpi4/lib/libutee/tee_api.c:291
    27d4:	a9bc7bfd 	stp	x29, x30, [sp, #-64]!
    27d8:	910003fd 	mov	x29, sp
    27dc:	a90153f3 	stp	x19, x20, [sp, #16]
    27e0:	aa0103f3 	mov	x19, x1
    27e4:	52800014 	mov	w20, #0x0                   	// #0
    27e8:	a9025bf5 	stp	x21, x22, [sp, #32]
    27ec:	2a0003f5 	mov	w21, w0
    27f0:	f9001bf7 	str	x23, [sp, #48]
/home/jeferson/optee/optee_os-rpi4/lib/libutee/tee_api.c:299
    27f4:	1ad426a1 	lsr	w1, w21, w20
    27f8:	12000c21 	and	w1, w1, #0xf
    27fc:	7100143f 	cmp	w1, #0x5
    2800:	540003a0 	b.eq	2874 <check_invoke_param+0xa0>  // b.none
    2804:	51001821 	sub	w1, w1, #0x6
    2808:	7100043f 	cmp	w1, #0x1
    280c:	54000228 	b.hi	2850 <check_invoke_param+0x7c>  // b.pmore
    2810:	528000c0 	mov	w0, #0x6                   	// #6
/home/jeferson/optee/optee_os-rpi4/lib/libutee/tee_api.c:297
    2814:	a9405e76 	ldp	x22, x23, [x19]
/home/jeferson/optee/optee_os-rpi4/lib/libutee/tee_api.c:306
    2818:	32000000 	orr	w0, w0, #0x1
    281c:	aa1703e2 	mov	x2, x23
    2820:	aa1603e1 	mov	x1, x22
    2824:	97ffffb5 	bl	26f8 <check_mem_access_rights_params>
    2828:	34000060 	cbz	w0, 2834 <check_invoke_param+0x60>
/home/jeferson/optee/optee_os-rpi4/lib/libutee/tee_api.c:307
    282c:	52800000 	mov	w0, #0x0                   	// #0
    2830:	94000c06 	bl	5848 <TEE_Panic>
/home/jeferson/optee/optee_os-rpi4/lib/libutee/tee_api.c:308
    2834:	aa1703e1 	mov	x1, x23
    2838:	aa1603e0 	mov	x0, x22
    283c:	97ffffd5 	bl	2790 <buf_overlaps_no_share_heap>
    2840:	72001c1f 	tst	w0, #0xff
    2844:	54000060 	b.eq	2850 <check_invoke_param+0x7c>  // b.none
/home/jeferson/optee/optee_os-rpi4/lib/libutee/tee_api.c:309
    2848:	52800000 	mov	w0, #0x0                   	// #0
    284c:	94000bff 	bl	5848 <TEE_Panic>
/home/jeferson/optee/optee_os-rpi4/lib/libutee/tee_api.c:294 (discriminator 2)
    2850:	11001294 	add	w20, w20, #0x4
    2854:	91004273 	add	x19, x19, #0x10
    2858:	7100429f 	cmp	w20, #0x10
    285c:	54fffcc1 	b.ne	27f4 <check_invoke_param+0x20>  // b.any
/home/jeferson/optee/optee_os-rpi4/lib/libutee/tee_api.c:315
    2860:	a94153f3 	ldp	x19, x20, [sp, #16]
    2864:	a9425bf5 	ldp	x21, x22, [sp, #32]
    2868:	f9401bf7 	ldr	x23, [sp, #48]
    286c:	a8c47bfd 	ldp	x29, x30, [sp], #64
    2870:	d65f03c0 	ret
/home/jeferson/optee/optee_os-rpi4/lib/libutee/tee_api.c:295
    2874:	52800080 	mov	w0, #0x4                   	// #4
    2878:	17ffffe7 	b	2814 <check_invoke_param+0x40>

000000000000287c <update_out_param>:
update_out_param():
/home/jeferson/optee/optee_os-rpi4/lib/libutee/tee_api.c:180
    287c:	a9bc7bfd 	stp	x29, x30, [sp, #-64]!
    2880:	910003fd 	mov	x29, sp
    2884:	a90153f3 	stp	x19, x20, [sp, #16]
/home/jeferson/optee/optee_os-rpi4/lib/libutee/tee_api.c:182
    2888:	aa0203f4 	mov	x20, x2
    288c:	aa0003f3 	mov	x19, x0
/home/jeferson/optee/optee_os-rpi4/lib/libutee/tee_api.c:180
    2890:	a90363f7 	stp	x23, x24, [sp, #48]
    2894:	aa0103f8 	mov	x24, x1
/home/jeferson/optee/optee_os-rpi4/lib/libutee/tee_api.c:182
    2898:	f8408697 	ldr	x23, [x20], #8
/home/jeferson/optee/optee_os-rpi4/lib/libutee/tee_api.c:180
    289c:	a9025bf5 	stp	x21, x22, [sp, #32]
/home/jeferson/optee/optee_os-rpi4/lib/libutee/tee_api.c:184
    28a0:	d2800015 	mov	x21, #0x0                   	// #0
/home/jeferson/optee/optee_os-rpi4/lib/libutee/tee_api.c:188
    28a4:	531e76a0 	lsl	w0, w21, #2
/home/jeferson/optee/optee_os-rpi4/lib/libutee/tee_api.c:186
    28a8:	a9405a82 	ldp	x2, x22, [x20]
/home/jeferson/optee/optee_os-rpi4/lib/libutee/tee_api.c:188
    28ac:	1ac026e0 	lsr	w0, w23, w0
    28b0:	12000c01 	and	w1, w0, #0xf
    28b4:	721e041f 	tst	w0, #0xc
    28b8:	540000a1 	b.ne	28cc <update_out_param+0x50>  // b.any
    28bc:	721f081f 	tst	w0, #0xe
    28c0:	540000c0 	b.eq	28d8 <update_out_param+0x5c>  // b.none
/home/jeferson/optee/optee_os-rpi4/lib/libutee/tee_api.c:192
    28c4:	29005a62 	stp	w2, w22, [x19]
/home/jeferson/optee/optee_os-rpi4/lib/libutee/tee_api.c:193
    28c8:	14000004 	b	28d8 <update_out_param+0x5c>
/home/jeferson/optee/optee_os-rpi4/lib/libutee/tee_api.c:188
    28cc:	51001820 	sub	w0, w1, #0x6
    28d0:	7100041f 	cmp	w0, #0x1
    28d4:	54000169 	b.ls	2900 <update_out_param+0x84>  // b.plast
/home/jeferson/optee/optee_os-rpi4/lib/libutee/tee_api.c:184 (discriminator 2)
    28d8:	910006b5 	add	x21, x21, #0x1
    28dc:	91004294 	add	x20, x20, #0x10
    28e0:	91004273 	add	x19, x19, #0x10
    28e4:	f10012bf 	cmp	x21, #0x4
    28e8:	54fffde1 	b.ne	28a4 <update_out_param+0x28>  // b.any
/home/jeferson/optee/optee_os-rpi4/lib/libutee/tee_api.c:205
    28ec:	a94153f3 	ldp	x19, x20, [sp, #16]
    28f0:	a9425bf5 	ldp	x21, x22, [sp, #32]
    28f4:	a94363f7 	ldp	x23, x24, [sp, #48]
    28f8:	a8c47bfd 	ldp	x29, x30, [sp], #64
    28fc:	d65f03c0 	ret
/home/jeferson/optee/optee_os-rpi4/lib/libutee/tee_api.c:196
    2900:	f8757b01 	ldr	x1, [x24, x21, lsl #3]
    2904:	b40000a1 	cbz	x1, 2918 <update_out_param+0x9c>
/home/jeferson/optee/optee_os-rpi4/lib/libutee/tee_api.c:198
    2908:	a9400a60 	ldp	x0, x2, [x19]
    290c:	eb16005f 	cmp	x2, x22
/home/jeferson/optee/optee_os-rpi4/lib/libutee/tee_api.c:197
    2910:	9a969042 	csel	x2, x2, x22, ls  // ls = plast
    2914:	97fff5c3 	bl	20 <memcpy>
/home/jeferson/optee/optee_os-rpi4/lib/libutee/tee_api.c:199
    2918:	f9000676 	str	x22, [x19, #8]
/home/jeferson/optee/optee_os-rpi4/lib/libutee/tee_api.c:200
    291c:	17ffffef 	b	28d8 <update_out_param+0x5c>

0000000000002920 <update_out_gp11_param>:
update_out_gp11_param():
/home/jeferson/optee/optee_os-rpi4/lib/libutee/tee_api.c:210
    2920:	a9bc7bfd 	stp	x29, x30, [sp, #-64]!
    2924:	910003fd 	mov	x29, sp
    2928:	a90153f3 	stp	x19, x20, [sp, #16]
/home/jeferson/optee/optee_os-rpi4/lib/libutee/tee_api.c:212
    292c:	aa0203f4 	mov	x20, x2
    2930:	aa0003f3 	mov	x19, x0
/home/jeferson/optee/optee_os-rpi4/lib/libutee/tee_api.c:210
    2934:	a90363f7 	stp	x23, x24, [sp, #48]
    2938:	aa0103f8 	mov	x24, x1
/home/jeferson/optee/optee_os-rpi4/lib/libutee/tee_api.c:212
    293c:	f8408697 	ldr	x23, [x20], #8
/home/jeferson/optee/optee_os-rpi4/lib/libutee/tee_api.c:210
    2940:	a9025bf5 	stp	x21, x22, [sp, #32]
/home/jeferson/optee/optee_os-rpi4/lib/libutee/tee_api.c:214
    2944:	d2800015 	mov	x21, #0x0                   	// #0
/home/jeferson/optee/optee_os-rpi4/lib/libutee/tee_api.c:218
    2948:	531e76a0 	lsl	w0, w21, #2
/home/jeferson/optee/optee_os-rpi4/lib/libutee/tee_api.c:216
    294c:	a9405a82 	ldp	x2, x22, [x20]
/home/jeferson/optee/optee_os-rpi4/lib/libutee/tee_api.c:218
    2950:	1ac026e0 	lsr	w0, w23, w0
    2954:	12000c01 	and	w1, w0, #0xf
    2958:	721e041f 	tst	w0, #0xc
    295c:	540000a1 	b.ne	2970 <update_out_gp11_param+0x50>  // b.any
    2960:	721f081f 	tst	w0, #0xe
    2964:	540000c0 	b.eq	297c <update_out_gp11_param+0x5c>  // b.none
/home/jeferson/optee/optee_os-rpi4/lib/libutee/tee_api.c:222
    2968:	29005a62 	stp	w2, w22, [x19]
/home/jeferson/optee/optee_os-rpi4/lib/libutee/tee_api.c:223
    296c:	14000004 	b	297c <update_out_gp11_param+0x5c>
/home/jeferson/optee/optee_os-rpi4/lib/libutee/tee_api.c:218
    2970:	51001820 	sub	w0, w1, #0x6
    2974:	7100041f 	cmp	w0, #0x1
    2978:	54000169 	b.ls	29a4 <update_out_gp11_param+0x84>  // b.plast
/home/jeferson/optee/optee_os-rpi4/lib/libutee/tee_api.c:214 (discriminator 2)
    297c:	910006b5 	add	x21, x21, #0x1
    2980:	91004294 	add	x20, x20, #0x10
    2984:	91004273 	add	x19, x19, #0x10
    2988:	f10012bf 	cmp	x21, #0x4
    298c:	54fffde1 	b.ne	2948 <update_out_gp11_param+0x28>  // b.any
/home/jeferson/optee/optee_os-rpi4/lib/libutee/tee_api.c:235
    2990:	a94153f3 	ldp	x19, x20, [sp, #16]
    2994:	a9425bf5 	ldp	x21, x22, [sp, #32]
    2998:	a94363f7 	ldp	x23, x24, [sp, #48]
    299c:	a8c47bfd 	ldp	x29, x30, [sp], #64
    29a0:	d65f03c0 	ret
/home/jeferson/optee/optee_os-rpi4/lib/libutee/tee_api.c:226
    29a4:	f8757b01 	ldr	x1, [x24, x21, lsl #3]
    29a8:	b40000c1 	cbz	x1, 29c0 <update_out_gp11_param+0xa0>
/home/jeferson/optee/optee_os-rpi4/lib/libutee/tee_api.c:228
    29ac:	b9400a62 	ldr	w2, [x19, #8]
/home/jeferson/optee/optee_os-rpi4/lib/libutee/tee_api.c:227
    29b0:	f9400260 	ldr	x0, [x19]
/home/jeferson/optee/optee_os-rpi4/lib/libutee/tee_api.c:228
    29b4:	eb16005f 	cmp	x2, x22
/home/jeferson/optee/optee_os-rpi4/lib/libutee/tee_api.c:227
    29b8:	9a969042 	csel	x2, x2, x22, ls  // ls = plast
    29bc:	97fff599 	bl	20 <memcpy>
/home/jeferson/optee/optee_os-rpi4/lib/libutee/tee_api.c:229
    29c0:	b9000a76 	str	w22, [x19, #8]
/home/jeferson/optee/optee_os-rpi4/lib/libutee/tee_api.c:230
    29c4:	17ffffee 	b	297c <update_out_gp11_param+0x5c>

00000000000029c8 <TEE_CloseTASession>:
TEE_CloseTASession():
/home/jeferson/optee/optee_os-rpi4/lib/libutee/tee_api.c:415
    29c8:	b4000120 	cbz	x0, 29ec <TEE_CloseTASession+0x24>
/home/jeferson/optee/optee_os-rpi4/lib/libutee/tee_api.c:414
    29cc:	a9bf7bfd 	stp	x29, x30, [sp, #-16]!
    29d0:	910003fd 	mov	x29, sp
/home/jeferson/optee/optee_os-rpi4/lib/libutee/tee_api.c:416
    29d4:	97fffc1f 	bl	1a50 <_utee_close_ta_session>
/home/jeferson/optee/optee_os-rpi4/lib/libutee/tee_api.c:418
    29d8:	34000060 	cbz	w0, 29e4 <TEE_CloseTASession+0x1c>
/home/jeferson/optee/optee_os-rpi4/lib/libutee/tee_api.c:421
    29dc:	a8c17bfd 	ldp	x29, x30, [sp], #16
/home/jeferson/optee/optee_os-rpi4/lib/libutee/tee_api.c:419
    29e0:	14000b9a 	b	5848 <TEE_Panic>
/home/jeferson/optee/optee_os-rpi4/lib/libutee/tee_api.c:421
    29e4:	a8c17bfd 	ldp	x29, x30, [sp], #16
    29e8:	d65f03c0 	ret
    29ec:	d65f03c0 	ret

00000000000029f0 <TEE_GetCancellationFlag>:
TEE_GetCancellationFlag():
/home/jeferson/optee/optee_os-rpi4/lib/libutee/tee_api.c:530
    29f0:	a9be7bfd 	stp	x29, x30, [sp, #-32]!
    29f4:	f0000061 	adrp	x1, 11000 <_DYNAMIC>
    29f8:	910003fd 	mov	x29, sp
    29fc:	f9409821 	ldr	x1, [x1, #304]
    2a00:	f9400020 	ldr	x0, [x1]
    2a04:	f9000fe0 	str	x0, [sp, #24]
    2a08:	d2800000 	mov	x0, #0x0                   	// #0
/home/jeferson/optee/optee_os-rpi4/lib/libutee/tee_api.c:532
    2a0c:	910053e0 	add	x0, sp, #0x14
    2a10:	97fffc16 	bl	1a68 <_utee_get_cancellation_flag>
/home/jeferson/optee/optee_os-rpi4/lib/libutee/tee_api.c:534
    2a14:	34000040 	cbz	w0, 2a1c <TEE_GetCancellationFlag+0x2c>
/home/jeferson/optee/optee_os-rpi4/lib/libutee/tee_api.c:535
    2a18:	b90017ff 	str	wzr, [sp, #20]
/home/jeferson/optee/optee_os-rpi4/lib/libutee/tee_api.c:537
    2a1c:	f0000061 	adrp	x1, 11000 <_DYNAMIC>
/home/jeferson/optee/optee_os-rpi4/lib/libutee/tee_api.c:536
    2a20:	b94017e0 	ldr	w0, [sp, #20]
/home/jeferson/optee/optee_os-rpi4/lib/libutee/tee_api.c:537
    2a24:	f9409821 	ldr	x1, [x1, #304]
/home/jeferson/optee/optee_os-rpi4/lib/libutee/tee_api.c:536
    2a28:	7100001f 	cmp	w0, #0x0
    2a2c:	1a9f07e0 	cset	w0, ne  // ne = any
/home/jeferson/optee/optee_os-rpi4/lib/libutee/tee_api.c:537
    2a30:	f9400fe3 	ldr	x3, [sp, #24]
    2a34:	f9400022 	ldr	x2, [x1]
    2a38:	eb020063 	subs	x3, x3, x2
    2a3c:	d2800002 	mov	x2, #0x0                   	// #0
    2a40:	54000040 	b.eq	2a48 <TEE_GetCancellationFlag+0x58>  // b.none
    2a44:	97fff65e 	bl	3bc <__stack_chk_fail>
    2a48:	a8c27bfd 	ldp	x29, x30, [sp], #32
    2a4c:	d65f03c0 	ret

0000000000002a50 <TEE_UnmaskCancellation>:
TEE_UnmaskCancellation():
/home/jeferson/optee/optee_os-rpi4/lib/libutee/tee_api.c:540
    2a50:	a9be7bfd 	stp	x29, x30, [sp, #-32]!
    2a54:	f0000061 	adrp	x1, 11000 <_DYNAMIC>
    2a58:	910003fd 	mov	x29, sp
    2a5c:	f9409821 	ldr	x1, [x1, #304]
    2a60:	f9400020 	ldr	x0, [x1]
    2a64:	f9000fe0 	str	x0, [sp, #24]
    2a68:	d2800000 	mov	x0, #0x0                   	// #0
/home/jeferson/optee/optee_os-rpi4/lib/libutee/tee_api.c:542
    2a6c:	910053e0 	add	x0, sp, #0x14
    2a70:	97fffc04 	bl	1a80 <_utee_unmask_cancellation>
/home/jeferson/optee/optee_os-rpi4/lib/libutee/tee_api.c:544
    2a74:	34000040 	cbz	w0, 2a7c <TEE_UnmaskCancellation+0x2c>
/home/jeferson/optee/optee_os-rpi4/lib/libutee/tee_api.c:545
    2a78:	94000b74 	bl	5848 <TEE_Panic>
/home/jeferson/optee/optee_os-rpi4/lib/libutee/tee_api.c:547
    2a7c:	f0000061 	adrp	x1, 11000 <_DYNAMIC>
/home/jeferson/optee/optee_os-rpi4/lib/libutee/tee_api.c:546
    2a80:	b94017e0 	ldr	w0, [sp, #20]
/home/jeferson/optee/optee_os-rpi4/lib/libutee/tee_api.c:547
    2a84:	f9409821 	ldr	x1, [x1, #304]
/home/jeferson/optee/optee_os-rpi4/lib/libutee/tee_api.c:546
    2a88:	7100001f 	cmp	w0, #0x0
    2a8c:	1a9f07e0 	cset	w0, ne  // ne = any
/home/jeferson/optee/optee_os-rpi4/lib/libutee/tee_api.c:547
    2a90:	f9400fe3 	ldr	x3, [sp, #24]
    2a94:	f9400022 	ldr	x2, [x1]
    2a98:	eb020063 	subs	x3, x3, x2
    2a9c:	d2800002 	mov	x2, #0x0                   	// #0
    2aa0:	54000040 	b.eq	2aa8 <TEE_UnmaskCancellation+0x58>  // b.none
    2aa4:	97fff646 	bl	3bc <__stack_chk_fail>
    2aa8:	a8c27bfd 	ldp	x29, x30, [sp], #32
    2aac:	d65f03c0 	ret

0000000000002ab0 <TEE_MaskCancellation>:
TEE_MaskCancellation():
/home/jeferson/optee/optee_os-rpi4/lib/libutee/tee_api.c:550
    2ab0:	a9be7bfd 	stp	x29, x30, [sp, #-32]!
    2ab4:	f0000061 	adrp	x1, 11000 <_DYNAMIC>
    2ab8:	910003fd 	mov	x29, sp
    2abc:	f9409821 	ldr	x1, [x1, #304]
    2ac0:	f9400020 	ldr	x0, [x1]
    2ac4:	f9000fe0 	str	x0, [sp, #24]
    2ac8:	d2800000 	mov	x0, #0x0                   	// #0
/home/jeferson/optee/optee_os-rpi4/lib/libutee/tee_api.c:552
    2acc:	910053e0 	add	x0, sp, #0x14
    2ad0:	97fffbef 	bl	1a8c <_utee_mask_cancellation>
/home/jeferson/optee/optee_os-rpi4/lib/libutee/tee_api.c:554
    2ad4:	34000040 	cbz	w0, 2adc <TEE_MaskCancellation+0x2c>
/home/jeferson/optee/optee_os-rpi4/lib/libutee/tee_api.c:555
    2ad8:	94000b5c 	bl	5848 <TEE_Panic>
/home/jeferson/optee/optee_os-rpi4/lib/libutee/tee_api.c:557
    2adc:	f0000061 	adrp	x1, 11000 <_DYNAMIC>
/home/jeferson/optee/optee_os-rpi4/lib/libutee/tee_api.c:556
    2ae0:	b94017e0 	ldr	w0, [sp, #20]
/home/jeferson/optee/optee_os-rpi4/lib/libutee/tee_api.c:557
    2ae4:	f9409821 	ldr	x1, [x1, #304]
/home/jeferson/optee/optee_os-rpi4/lib/libutee/tee_api.c:556
    2ae8:	7100001f 	cmp	w0, #0x0
    2aec:	1a9f07e0 	cset	w0, ne  // ne = any
/home/jeferson/optee/optee_os-rpi4/lib/libutee/tee_api.c:557
    2af0:	f9400fe3 	ldr	x3, [sp, #24]
    2af4:	f9400022 	ldr	x2, [x1]
    2af8:	eb020063 	subs	x3, x3, x2
    2afc:	d2800002 	mov	x2, #0x0                   	// #0
    2b00:	54000040 	b.eq	2b08 <TEE_MaskCancellation+0x58>  // b.none
    2b04:	97fff62e 	bl	3bc <__stack_chk_fail>
    2b08:	a8c27bfd 	ldp	x29, x30, [sp], #32
    2b0c:	d65f03c0 	ret

0000000000002b10 <TEE_CheckMemoryAccessRights>:
TEE_CheckMemoryAccessRights():
/home/jeferson/optee/optee_os-rpi4/lib/libutee/tee_api.c:566
    2b10:	b5000102 	cbnz	x2, 2b30 <TEE_CheckMemoryAccessRights+0x20>
/home/jeferson/optee/optee_os-rpi4/lib/libutee/tee_api.c:567
    2b14:	52800000 	mov	w0, #0x0                   	// #0
/home/jeferson/optee/optee_os-rpi4/lib/libutee/tee_api.c:592
    2b18:	d65f03c0 	ret
/home/jeferson/optee/optee_os-rpi4/lib/libutee/tee_api.c:567
    2b1c:	52800000 	mov	w0, #0x0                   	// #0
/home/jeferson/optee/optee_os-rpi4/lib/libutee/tee_api.c:592
    2b20:	a94153f3 	ldp	x19, x20, [sp, #16]
    2b24:	f94013f5 	ldr	x21, [sp, #32]
    2b28:	a8c37bfd 	ldp	x29, x30, [sp], #48
    2b2c:	d65f03c0 	ret
/home/jeferson/optee/optee_os-rpi4/lib/libutee/tee_api.c:563
    2b30:	a9bd7bfd 	stp	x29, x30, [sp, #-48]!
    2b34:	910003fd 	mov	x29, sp
    2b38:	a90153f3 	stp	x19, x20, [sp, #16]
    2b3c:	aa0103f4 	mov	x20, x1
    2b40:	aa0203f3 	mov	x19, x2
    2b44:	f90013f5 	str	x21, [sp, #32]
    2b48:	2a0003f5 	mov	w21, w0
/home/jeferson/optee/optee_os-rpi4/lib/libutee/tee_api.c:573
    2b4c:	97fffbca 	bl	1a74 <_utee_check_access_rights>
    2b50:	35000200 	cbnz	w0, 2b90 <TEE_CheckMemoryAccessRights+0x80>
/home/jeferson/optee/optee_os-rpi4/lib/libutee/tee_api.c:584
    2b54:	aa1303e2 	mov	x2, x19
    2b58:	aa1403e1 	mov	x1, x20
    2b5c:	12000aa0 	and	w0, w21, #0x7
    2b60:	97fffee6 	bl	26f8 <check_mem_access_rights_params>
    2b64:	35000160 	cbnz	w0, 2b90 <TEE_CheckMemoryAccessRights+0x80>
/home/jeferson/optee/optee_os-rpi4/lib/libutee/tee_api.c:587
    2b68:	aa1303e1 	mov	x1, x19
    2b6c:	aa1403e0 	mov	x0, x20
    2b70:	94002728 	bl	c810 <malloc_buffer_overlaps_heap>
    2b74:	72001c1f 	tst	w0, #0xff
    2b78:	54fffd20 	b.eq	2b1c <TEE_CheckMemoryAccessRights+0xc>  // b.none
/home/jeferson/optee/optee_os-rpi4/lib/libutee/tee_api.c:588
    2b7c:	aa1303e1 	mov	x1, x19
    2b80:	aa1403e0 	mov	x0, x20
    2b84:	9400271e 	bl	c7fc <malloc_buffer_is_within_alloced>
/home/jeferson/optee/optee_os-rpi4/lib/libutee/tee_api.c:587
    2b88:	72001c1f 	tst	w0, #0xff
    2b8c:	54fffc81 	b.ne	2b1c <TEE_CheckMemoryAccessRights+0xc>  // b.any
/home/jeferson/optee/optee_os-rpi4/lib/libutee/tee_api.c:589
    2b90:	129fffc0 	mov	w0, #0xffff0001            	// #-65535
    2b94:	17ffffe3 	b	2b20 <TEE_CheckMemoryAccessRights+0x10>

0000000000002b98 <map_tmp_param>:
map_tmp_param():
/home/jeferson/optee/optee_os-rpi4/lib/libutee/tee_api.c:98
    2b98:	a9b87bfd 	stp	x29, x30, [sp, #-128]!
    2b9c:	f0000064 	adrp	x4, 11000 <_DYNAMIC>
    2ba0:	910003fd 	mov	x29, sp
    2ba4:	f9409884 	ldr	x4, [x4, #304]
    2ba8:	a90153f3 	stp	x19, x20, [sp, #16]
/home/jeferson/optee/optee_os-rpi4/lib/libutee/tee_api.c:116
    2bac:	d2800013 	mov	x19, #0x0                   	// #0
/home/jeferson/optee/optee_os-rpi4/lib/libutee/tee_api.c:98
    2bb0:	a9025bf5 	stp	x21, x22, [sp, #32]
    2bb4:	aa0203f6 	mov	x22, x2
    2bb8:	aa0303f5 	mov	x21, x3
    2bbc:	a90363f7 	stp	x23, x24, [sp, #48]
    2bc0:	aa0103f7 	mov	x23, x1
/home/jeferson/optee/optee_os-rpi4/lib/libutee/tee_api.c:135
    2bc4:	52800023 	mov	w3, #0x1                   	// #1
/home/jeferson/optee/optee_os-rpi4/lib/libutee/tee_api.c:98
    2bc8:	a9046bf9 	stp	x25, x26, [sp, #64]
    2bcc:	aa0003f9 	mov	x25, x0
    2bd0:	91002338 	add	x24, x25, #0x8
    2bd4:	a90573fb 	stp	x27, x28, [sp, #80]
/home/jeferson/optee/optee_os-rpi4/lib/libutee/tee_api.c:115
    2bd8:	aa1803fb 	mov	x27, x24
/home/jeferson/optee/optee_os-rpi4/lib/libutee/tee_api.c:135
    2bdc:	9101c3fc 	add	x28, sp, #0x70
/home/jeferson/optee/optee_os-rpi4/lib/libutee/tee_api.c:98
    2be0:	f9400080 	ldr	x0, [x4]
    2be4:	f9003fe0 	str	x0, [sp, #120]
    2be8:	d2800000 	mov	x0, #0x0                   	// #0
/home/jeferson/optee/optee_os-rpi4/lib/libutee/tee_api.c:114
    2bec:	f900003f 	str	xzr, [x1]
/home/jeferson/optee/optee_os-rpi4/lib/libutee/tee_api.c:101
    2bf0:	d280001a 	mov	x26, #0x0                   	// #0
/home/jeferson/optee/optee_os-rpi4/lib/libutee/tee_api.c:115
    2bf4:	f900005f 	str	xzr, [x2]
/home/jeferson/optee/optee_os-rpi4/lib/libutee/tee_api.c:103
    2bf8:	b90073ff 	str	wzr, [sp, #112]
/home/jeferson/optee/optee_os-rpi4/lib/libutee/tee_api.c:118
    2bfc:	f9400321 	ldr	x1, [x25]
    2c00:	531e7660 	lsl	w0, w19, #2
/home/jeferson/optee/optee_os-rpi4/lib/libutee/tee_api.c:117
    2c04:	f8337abf 	str	xzr, [x21, x19, lsl #3]
/home/jeferson/optee/optee_os-rpi4/lib/libutee/tee_api.c:118
    2c08:	1ac02421 	lsr	w1, w1, w0
    2c0c:	12000c21 	and	w1, w1, #0xf
    2c10:	51001421 	sub	w1, w1, #0x5
    2c14:	7100083f 	cmp	w1, #0x2
    2c18:	540001e8 	b.hi	2c54 <map_tmp_param+0xbc>  // b.pmore
/home/jeferson/optee/optee_os-rpi4/lib/libutee/tee_api.c:123
    2c1c:	a9405361 	ldp	x1, x20, [x27]
/home/jeferson/optee/optee_os-rpi4/lib/libutee/tee_api.c:133
    2c20:	f100003f 	cmp	x1, #0x0
    2c24:	fa401a84 	ccmp	x20, #0x0, #0x4, ne  // ne = any
    2c28:	54000160 	b.eq	2c54 <map_tmp_param+0xbc>  // b.none
/home/jeferson/optee/optee_os-rpi4/lib/libutee/tee_api.c:134 (discriminator 1)
    2c2c:	aa1403e2 	mov	x2, x20
    2c30:	52800020 	mov	w0, #0x1                   	// #1
    2c34:	b9006fe3 	str	w3, [sp, #108]
    2c38:	97ffffb6 	bl	2b10 <TEE_CheckMemoryAccessRights>
/home/jeferson/optee/optee_os-rpi4/lib/libutee/tee_api.c:133 (discriminator 1)
    2c3c:	b9406fe3 	ldr	w3, [sp, #108]
    2c40:	350000a0 	cbnz	w0, 2c54 <map_tmp_param+0xbc>
/home/jeferson/optee/optee_os-rpi4/lib/libutee/tee_api.c:136
    2c44:	91003e94 	add	x20, x20, #0xf
/home/jeferson/optee/optee_os-rpi4/lib/libutee/tee_api.c:135
    2c48:	383c6a63 	strb	w3, [x19, x28]
/home/jeferson/optee/optee_os-rpi4/lib/libutee/tee_api.c:136
    2c4c:	927cee94 	and	x20, x20, #0xfffffffffffffff0
    2c50:	8b14035a 	add	x26, x26, x20
/home/jeferson/optee/optee_os-rpi4/lib/libutee/tee_api.c:116 (discriminator 2)
    2c54:	91000673 	add	x19, x19, #0x1
    2c58:	9100437b 	add	x27, x27, #0x10
    2c5c:	f100127f 	cmp	x19, #0x4
    2c60:	54fffce1 	b.ne	2bfc <map_tmp_param+0x64>  // b.any
/home/jeferson/optee/optee_os-rpi4/lib/libutee/tee_api.c:144
    2c64:	b400053a 	cbz	x26, 2d08 <map_tmp_param+0x170>
/home/jeferson/optee/optee_os-rpi4/lib/libutee/tee_api.c:145
    2c68:	2a1303e1 	mov	w1, w19
    2c6c:	aa1a03e0 	mov	x0, x26
    2c70:	97fffad5 	bl	17c4 <tee_map_zi>
/home/jeferson/optee/optee_os-rpi4/lib/libutee/tee_api.c:146
    2c74:	b40004e0 	cbz	x0, 2d10 <map_tmp_param+0x178>
/home/jeferson/optee/optee_os-rpi4/lib/libutee/tee_api.c:148
    2c78:	f90002e0 	str	x0, [x23]
/home/jeferson/optee/optee_os-rpi4/lib/libutee/tee_api.c:149
    2c7c:	f90002da 	str	x26, [x22]
/home/jeferson/optee/optee_os-rpi4/lib/libutee/tee_api.c:157
    2c80:	9101c3f6 	add	x22, sp, #0x70
/home/jeferson/optee/optee_os-rpi4/lib/libutee/tee_api.c:100
    2c84:	d2800013 	mov	x19, #0x0                   	// #0
/home/jeferson/optee/optee_os-rpi4/lib/libutee/tee_api.c:153
    2c88:	f9400323 	ldr	x3, [x25]
    2c8c:	531e7661 	lsl	w1, w19, #2
    2c90:	1ac12463 	lsr	w3, w3, w1
    2c94:	12000c63 	and	w3, w3, #0xf
    2c98:	51001461 	sub	w1, w3, #0x5
    2c9c:	7100083f 	cmp	w1, #0x2
    2ca0:	540001a8 	b.hi	2cd4 <map_tmp_param+0x13c>  // b.pmore
/home/jeferson/optee/optee_os-rpi4/lib/libutee/tee_api.c:157
    2ca4:	38766a61 	ldrb	w1, [x19, x22]
    2ca8:	34000161 	cbz	w1, 2cd4 <map_tmp_param+0x13c>
/home/jeferson/optee/optee_os-rpi4/lib/libutee/tee_api.c:159
    2cac:	a9400b01 	ldp	x1, x2, [x24]
/home/jeferson/optee/optee_os-rpi4/lib/libutee/tee_api.c:161
    2cb0:	f8337aa0 	str	x0, [x21, x19, lsl #3]
/home/jeferson/optee/optee_os-rpi4/lib/libutee/tee_api.c:163
    2cb4:	f9000300 	str	x0, [x24]
/home/jeferson/optee/optee_os-rpi4/lib/libutee/tee_api.c:162
    2cb8:	91003c54 	add	x20, x2, #0xf
    2cbc:	927cee94 	and	x20, x20, #0xfffffffffffffff0
    2cc0:	8b140014 	add	x20, x0, x20
/home/jeferson/optee/optee_os-rpi4/lib/libutee/tee_api.c:164
    2cc4:	7100187f 	cmp	w3, #0x6
    2cc8:	54000040 	b.eq	2cd0 <map_tmp_param+0x138>  // b.none
/home/jeferson/optee/optee_os-rpi4/lib/libutee/tee_api.c:166
    2ccc:	97fff4d5 	bl	20 <memcpy>
/home/jeferson/optee/optee_os-rpi4/lib/libutee/tee_api.c:162
    2cd0:	aa1403e0 	mov	x0, x20
/home/jeferson/optee/optee_os-rpi4/lib/libutee/tee_api.c:152 (discriminator 2)
    2cd4:	91000673 	add	x19, x19, #0x1
    2cd8:	91004318 	add	x24, x24, #0x10
    2cdc:	f100127f 	cmp	x19, #0x4
    2ce0:	54fffd41 	b.ne	2c88 <map_tmp_param+0xf0>  // b.any
/home/jeferson/optee/optee_os-rpi4/lib/libutee/tee_api.c:173
    2ce4:	52800000 	mov	w0, #0x0                   	// #0
/home/jeferson/optee/optee_os-rpi4/lib/libutee/tee_api.c:175
    2ce8:	f0000064 	adrp	x4, 11000 <_DYNAMIC>
    2cec:	f9409884 	ldr	x4, [x4, #304]
    2cf0:	f9403fe1 	ldr	x1, [sp, #120]
    2cf4:	f9400082 	ldr	x2, [x4]
    2cf8:	eb020021 	subs	x1, x1, x2
    2cfc:	d2800002 	mov	x2, #0x0                   	// #0
    2d00:	540000c0 	b.eq	2d18 <map_tmp_param+0x180>  // b.none
    2d04:	97fff5ae 	bl	3bc <__stack_chk_fail>
/home/jeferson/optee/optee_os-rpi4/lib/libutee/tee_api.c:100
    2d08:	d2800000 	mov	x0, #0x0                   	// #0
    2d0c:	17ffffdd 	b	2c80 <map_tmp_param+0xe8>
/home/jeferson/optee/optee_os-rpi4/lib/libutee/tee_api.c:147
    2d10:	129ffe60 	mov	w0, #0xffff000c            	// #-65524
    2d14:	17fffff5 	b	2ce8 <map_tmp_param+0x150>
/home/jeferson/optee/optee_os-rpi4/lib/libutee/tee_api.c:175
    2d18:	a94153f3 	ldp	x19, x20, [sp, #16]
    2d1c:	a9425bf5 	ldp	x21, x22, [sp, #32]
    2d20:	a94363f7 	ldp	x23, x24, [sp, #48]
    2d24:	a9446bf9 	ldp	x25, x26, [sp, #64]
    2d28:	a94573fb 	ldp	x27, x28, [sp, #80]
    2d2c:	a8c87bfd 	ldp	x29, x30, [sp], #128
    2d30:	d65f03c0 	ret

0000000000002d34 <TEE_OpenTASession>:
TEE_OpenTASession():
/home/jeferson/optee/optee_os-rpi4/lib/libutee/tee_api.c:323
    2d34:	a9b27bfd 	stp	x29, x30, [sp, #-224]!
    2d38:	f0000066 	adrp	x6, 11000 <_DYNAMIC>
    2d3c:	910003fd 	mov	x29, sp
    2d40:	f94098c6 	ldr	x6, [x6, #304]
    2d44:	a90153f3 	stp	x19, x20, [sp, #16]
    2d48:	2a0203f3 	mov	w19, w2
    2d4c:	a9025bf5 	stp	x21, x22, [sp, #32]
    2d50:	aa0303f4 	mov	x20, x3
    2d54:	aa0403f5 	mov	x21, x4
    2d58:	a90363f7 	stp	x23, x24, [sp, #48]
    2d5c:	aa0003f7 	mov	x23, x0
    2d60:	2a0103f8 	mov	w24, w1
    2d64:	a9046bf9 	stp	x25, x26, [sp, #64]
    2d68:	aa0503f9 	mov	x25, x5
    2d6c:	f94000c0 	ldr	x0, [x6]
    2d70:	f9006fe0 	str	x0, [sp, #216]
    2d74:	d2800000 	mov	x0, #0x0                   	// #0
/home/jeferson/optee/optee_os-rpi4/lib/libutee/tee_api.c:326
    2d78:	b9005fff 	str	wzr, [sp, #92]
/home/jeferson/optee/optee_os-rpi4/lib/libutee/tee_api.c:328
    2d7c:	a9067fff 	stp	xzr, xzr, [sp, #96]
/home/jeferson/optee/optee_os-rpi4/lib/libutee/tee_api.c:329
    2d80:	a9077fff 	stp	xzr, xzr, [sp, #112]
    2d84:	a9087fff 	stp	xzr, xzr, [sp, #128]
/home/jeferson/optee/optee_os-rpi4/lib/libutee/tee_api.c:325
    2d88:	a9097fff 	stp	xzr, xzr, [sp, #144]
    2d8c:	a90a7fff 	stp	xzr, xzr, [sp, #160]
    2d90:	a90b7fff 	stp	xzr, xzr, [sp, #176]
    2d94:	a90c7fff 	stp	xzr, xzr, [sp, #192]
    2d98:	f9006bff 	str	xzr, [sp, #208]
/home/jeferson/optee/optee_os-rpi4/lib/libutee/tee_api.c:331
    2d9c:	340000e2 	cbz	w2, 2db8 <TEE_OpenTASession+0x84>
/home/jeferson/optee/optee_os-rpi4/lib/libutee/tee_api.c:332
    2da0:	aa0303e0 	mov	x0, x3
    2da4:	d2800801 	mov	x1, #0x40                  	// #64
    2da8:	94000b18 	bl	5a08 <__utee_check_inout_annotation>
/home/jeferson/optee/optee_os-rpi4/lib/libutee/tee_api.c:335
    2dac:	aa1403e1 	mov	x1, x20
    2db0:	2a1303e0 	mov	w0, w19
    2db4:	97fffe88 	bl	27d4 <check_invoke_param>
/home/jeferson/optee/optee_os-rpi4/lib/libutee/tee_api.c:337
    2db8:	aa1503e0 	mov	x0, x21
/home/jeferson/optee/optee_os-rpi4/lib/libutee/tee_api.c:339
    2dbc:	910243f6 	add	x22, sp, #0x90
/home/jeferson/optee/optee_os-rpi4/lib/libutee/tee_api.c:337
    2dc0:	d2800101 	mov	x1, #0x8                   	// #8
    2dc4:	94000aff 	bl	59c0 <__utee_check_out_annotation>
/home/jeferson/optee/optee_os-rpi4/lib/libutee/tee_api.c:339
    2dc8:	2a1303e1 	mov	w1, w19
    2dcc:	aa1403e2 	mov	x2, x20
    2dd0:	aa1603e0 	mov	x0, x22
/home/jeferson/optee/optee_os-rpi4/lib/libutee/tee_api.c:340
    2dd4:	9101c3fa 	add	x26, sp, #0x70
/home/jeferson/optee/optee_os-rpi4/lib/libutee/tee_api.c:339
    2dd8:	97fffe11 	bl	261c <copy_param>
/home/jeferson/optee/optee_os-rpi4/lib/libutee/tee_api.c:340
    2ddc:	910183e1 	add	x1, sp, #0x60
    2de0:	aa1a03e3 	mov	x3, x26
    2de4:	9101a3e2 	add	x2, sp, #0x68
    2de8:	aa1603e0 	mov	x0, x22
    2dec:	97ffff6b 	bl	2b98 <map_tmp_param>
    2df0:	2a0003f3 	mov	w19, w0
/home/jeferson/optee/optee_os-rpi4/lib/libutee/tee_api.c:341
    2df4:	35000260 	cbnz	w0, 2e40 <TEE_OpenTASession+0x10c>
/home/jeferson/optee/optee_os-rpi4/lib/libutee/tee_api.c:343
    2df8:	aa1903e4 	mov	x4, x25
    2dfc:	910173e3 	add	x3, sp, #0x5c
    2e00:	aa1603e2 	mov	x2, x22
    2e04:	2a1803e1 	mov	w1, w24
    2e08:	aa1703e0 	mov	x0, x23
    2e0c:	97fffb0e 	bl	1a44 <_utee_open_ta_session>
/home/jeferson/optee/optee_os-rpi4/lib/libutee/tee_api.c:345
    2e10:	aa1603e2 	mov	x2, x22
/home/jeferson/optee/optee_os-rpi4/lib/libutee/tee_api.c:343
    2e14:	2a0003f3 	mov	w19, w0
/home/jeferson/optee/optee_os-rpi4/lib/libutee/tee_api.c:345
    2e18:	aa1a03e1 	mov	x1, x26
    2e1c:	aa1403e0 	mov	x0, x20
    2e20:	97fffe97 	bl	287c <update_out_param>
/home/jeferson/optee/optee_os-rpi4/lib/libutee/tee_api.c:346
    2e24:	f94033e0 	ldr	x0, [sp, #96]
    2e28:	b40000a0 	cbz	x0, 2e3c <TEE_OpenTASession+0x108>
/home/jeferson/optee/optee_os-rpi4/lib/libutee/tee_api.c:347
    2e2c:	f94037e1 	ldr	x1, [sp, #104]
    2e30:	97fffa8a 	bl	1858 <tee_unmap>
/home/jeferson/optee/optee_os-rpi4/lib/libutee/tee_api.c:349
    2e34:	34000040 	cbz	w0, 2e3c <TEE_OpenTASession+0x108>
/home/jeferson/optee/optee_os-rpi4/lib/libutee/tee_api.c:350
    2e38:	94000a84 	bl	5848 <TEE_Panic>
/home/jeferson/optee/optee_os-rpi4/lib/libutee/tee_api.c:359
    2e3c:	34000053 	cbz	w19, 2e44 <TEE_OpenTASession+0x110>
/home/jeferson/optee/optee_os-rpi4/lib/libutee/tee_api.c:360
    2e40:	b9005fff 	str	wzr, [sp, #92]
/home/jeferson/optee/optee_os-rpi4/lib/libutee/tee_api.c:364
    2e44:	f0000066 	adrp	x6, 11000 <_DYNAMIC>
/home/jeferson/optee/optee_os-rpi4/lib/libutee/tee_api.c:362
    2e48:	b9405fe0 	ldr	w0, [sp, #92]
    2e4c:	f90002a0 	str	x0, [x21]
/home/jeferson/optee/optee_os-rpi4/lib/libutee/tee_api.c:364
    2e50:	f94098c6 	ldr	x6, [x6, #304]
    2e54:	f9406fe0 	ldr	x0, [sp, #216]
    2e58:	f94000c1 	ldr	x1, [x6]
    2e5c:	eb010000 	subs	x0, x0, x1
    2e60:	d2800001 	mov	x1, #0x0                   	// #0
    2e64:	54000040 	b.eq	2e6c <TEE_OpenTASession+0x138>  // b.none
    2e68:	97fff555 	bl	3bc <__stack_chk_fail>
    2e6c:	2a1303e0 	mov	w0, w19
    2e70:	a94153f3 	ldp	x19, x20, [sp, #16]
    2e74:	a9425bf5 	ldp	x21, x22, [sp, #32]
    2e78:	a94363f7 	ldp	x23, x24, [sp, #48]
    2e7c:	a9446bf9 	ldp	x25, x26, [sp, #64]
    2e80:	a8ce7bfd 	ldp	x29, x30, [sp], #224
    2e84:	d65f03c0 	ret

0000000000002e88 <__GP11_TEE_OpenTASession>:
__GP11_TEE_OpenTASession():
/home/jeferson/optee/optee_os-rpi4/lib/libutee/tee_api.c:372
    2e88:	a9b27bfd 	stp	x29, x30, [sp, #-224]!
    2e8c:	f0000066 	adrp	x6, 11000 <_DYNAMIC>
    2e90:	910003fd 	mov	x29, sp
    2e94:	f94098c6 	ldr	x6, [x6, #304]
    2e98:	a90153f3 	stp	x19, x20, [sp, #16]
    2e9c:	2a0203f3 	mov	w19, w2
    2ea0:	a9025bf5 	stp	x21, x22, [sp, #32]
    2ea4:	aa0303f4 	mov	x20, x3
    2ea8:	aa0403f5 	mov	x21, x4
    2eac:	a90363f7 	stp	x23, x24, [sp, #48]
    2eb0:	aa0003f7 	mov	x23, x0
    2eb4:	2a0103f8 	mov	w24, w1
    2eb8:	a9046bf9 	stp	x25, x26, [sp, #64]
    2ebc:	aa0503f9 	mov	x25, x5
    2ec0:	f94000c0 	ldr	x0, [x6]
    2ec4:	f9006fe0 	str	x0, [sp, #216]
    2ec8:	d2800000 	mov	x0, #0x0                   	// #0
/home/jeferson/optee/optee_os-rpi4/lib/libutee/tee_api.c:375
    2ecc:	b9005fff 	str	wzr, [sp, #92]
/home/jeferson/optee/optee_os-rpi4/lib/libutee/tee_api.c:377
    2ed0:	a9067fff 	stp	xzr, xzr, [sp, #96]
/home/jeferson/optee/optee_os-rpi4/lib/libutee/tee_api.c:378
    2ed4:	a9077fff 	stp	xzr, xzr, [sp, #112]
    2ed8:	a9087fff 	stp	xzr, xzr, [sp, #128]
/home/jeferson/optee/optee_os-rpi4/lib/libutee/tee_api.c:374
    2edc:	a9097fff 	stp	xzr, xzr, [sp, #144]
    2ee0:	a90a7fff 	stp	xzr, xzr, [sp, #160]
    2ee4:	a90b7fff 	stp	xzr, xzr, [sp, #176]
    2ee8:	a90c7fff 	stp	xzr, xzr, [sp, #192]
    2eec:	f9006bff 	str	xzr, [sp, #208]
/home/jeferson/optee/optee_os-rpi4/lib/libutee/tee_api.c:380
    2ef0:	34000082 	cbz	w2, 2f00 <__GP11_TEE_OpenTASession+0x78>
/home/jeferson/optee/optee_os-rpi4/lib/libutee/tee_api.c:381
    2ef4:	aa0303e0 	mov	x0, x3
    2ef8:	d2800801 	mov	x1, #0x40                  	// #64
    2efc:	94000ac3 	bl	5a08 <__utee_check_inout_annotation>
/home/jeferson/optee/optee_os-rpi4/lib/libutee/tee_api.c:384
    2f00:	aa1503e0 	mov	x0, x21
/home/jeferson/optee/optee_os-rpi4/lib/libutee/tee_api.c:386
    2f04:	910243f6 	add	x22, sp, #0x90
/home/jeferson/optee/optee_os-rpi4/lib/libutee/tee_api.c:384
    2f08:	d2800101 	mov	x1, #0x8                   	// #8
    2f0c:	94000aad 	bl	59c0 <__utee_check_out_annotation>
/home/jeferson/optee/optee_os-rpi4/lib/libutee/tee_api.c:386
    2f10:	2a1303e1 	mov	w1, w19
    2f14:	aa1403e2 	mov	x2, x20
    2f18:	aa1603e0 	mov	x0, x22
/home/jeferson/optee/optee_os-rpi4/lib/libutee/tee_api.c:387
    2f1c:	9101c3fa 	add	x26, sp, #0x70
/home/jeferson/optee/optee_os-rpi4/lib/libutee/tee_api.c:386
    2f20:	97fffdda 	bl	2688 <copy_gp11_param>
/home/jeferson/optee/optee_os-rpi4/lib/libutee/tee_api.c:387
    2f24:	910183e1 	add	x1, sp, #0x60
    2f28:	aa1a03e3 	mov	x3, x26
    2f2c:	9101a3e2 	add	x2, sp, #0x68
    2f30:	aa1603e0 	mov	x0, x22
    2f34:	97ffff19 	bl	2b98 <map_tmp_param>
    2f38:	2a0003f3 	mov	w19, w0
/home/jeferson/optee/optee_os-rpi4/lib/libutee/tee_api.c:388
    2f3c:	35000260 	cbnz	w0, 2f88 <__GP11_TEE_OpenTASession+0x100>
/home/jeferson/optee/optee_os-rpi4/lib/libutee/tee_api.c:390
    2f40:	aa1903e4 	mov	x4, x25
    2f44:	910173e3 	add	x3, sp, #0x5c
    2f48:	aa1603e2 	mov	x2, x22
