
5dbac793-f574-4871-8ad3-04331ec17f24.elf:     file format elf64-littleaarch64
5dbac793-f574-4871-8ad3-04331ec17f24.elf
architecture: aarch64, flags 0x00000150:
HAS_SYMS, DYNAMIC, D_PAGED
start address 0x00000000000006d4

Program Header:
    LOAD off    0x0000000000001000 vaddr 0x0000000000000000 paddr 0x0000000000000000 align 2**12
         filesz 0x0000000000018440 memsz 0x0000000000018440 flags r-x
    LOAD off    0x000000000001a000 vaddr 0x0000000000019000 paddr 0x0000000000019000 align 2**12
         filesz 0x000000000000064c memsz 0x000000000000bef0 flags rw-
 DYNAMIC off    0x000000000001a000 vaddr 0x0000000000019000 paddr 0x0000000000019000 align 2**3
         filesz 0x0000000000000110 memsz 0x0000000000000110 flags rw-
   STACK off    0x0000000000000000 vaddr 0x0000000000000000 paddr 0x0000000000000000 align 2**4
         filesz 0x0000000000000000 memsz 0x0000000000000000 flags rw-

Dynamic Section:
  HASH                 0x00000000000180c8
  GNU_HASH             0x0000000000017fd8
  STRTAB               0x0000000000018098
  SYMTAB               0x0000000000018008
  STRSZ                0x000000000000002e
  SYMENT               0x0000000000000018
  DEBUG                0x0000000000000000
  RELA                 0x00000000000180f8
  RELASZ               0x0000000000000588
  RELAENT              0x0000000000000018
  FLAGS_1              0x0000000008000000
  RELACOUNT            0x0000000000000023
private flags = 0x0:

Sections:
Idx Name          Size      VMA               LMA               File off  Algn
  0 .ta_head      00000020  0000000000000000  0000000000000000  00001000  2**3
                  CONTENTS, ALLOC, LOAD, READONLY, DATA
  1 .text         00012e60  0000000000000020  0000000000000020  00001020  2**4
                  CONTENTS, ALLOC, LOAD, READONLY, CODE
  2 .eh_frame     00003c04  0000000000012e80  0000000000012e80  00013e80  2**3
                  CONTENTS, ALLOC, LOAD, READONLY, DATA
  3 .rodata       0000154b  0000000000016a88  0000000000016a88  00017a88  2**3
                  CONTENTS, ALLOC, LOAD, READONLY, DATA
  4 .gnu.hash     00000030  0000000000017fd8  0000000000017fd8  00018fd8  2**3
                  CONTENTS, ALLOC, LOAD, READONLY, DATA
  5 .dynsym       00000090  0000000000018008  0000000000018008  00019008  2**3
                  CONTENTS, ALLOC, LOAD, READONLY, DATA
  6 .dynstr       0000002e  0000000000018098  0000000000018098  00019098  2**0
                  CONTENTS, ALLOC, LOAD, READONLY, DATA
  7 .hash         0000002c  00000000000180c8  00000000000180c8  000190c8  2**3
                  CONTENTS, ALLOC, LOAD, READONLY, DATA
  8 .rela.dyn     00000348  00000000000180f8  00000000000180f8  000190f8  2**3
                  CONTENTS, ALLOC, LOAD, READONLY, DATA
  9 .dynamic      00000110  0000000000019000  0000000000019000  0001a000  2**3
                  CONTENTS, ALLOC, LOAD, DATA
 10 .got          000000e0  0000000000019110  0000000000019110  0001a110  2**3
                  CONTENTS, ALLOC, LOAD, DATA
 11 .rela.got     00000240  00000000000191f0  00000000000191f0  0001a1f0  2**3
                  CONTENTS, ALLOC, LOAD, READONLY, DATA
 12 .data         0000021c  0000000000019430  0000000000019430  0001a430  2**3
                  CONTENTS, ALLOC, LOAD, DATA
 13 .bss          0000b8a0  0000000000019650  0000000000019650  0001a64c  2**3
                  ALLOC
 14 .debug_info   000229b2  0000000000000000  0000000000000000  0001a64c  2**0
                  CONTENTS, READONLY, DEBUGGING, OCTETS
 15 .debug_abbrev 00004e48  0000000000000000  0000000000000000  0003cffe  2**0
                  CONTENTS, READONLY, DEBUGGING, OCTETS
 16 .debug_loclists 000146f3  0000000000000000  0000000000000000  00041e46  2**0
                  CONTENTS, READONLY, DEBUGGING, OCTETS
 17 .debug_aranges 000009e0  0000000000000000  0000000000000000  00056540  2**4
                  CONTENTS, READONLY, DEBUGGING, OCTETS
 18 .debug_rnglists 0000093d  0000000000000000  0000000000000000  00056f20  2**0
                  CONTENTS, READONLY, DEBUGGING, OCTETS
 19 .debug_macro  0001b4f3  0000000000000000  0000000000000000  0005785d  2**0
                  CONTENTS, READONLY, DEBUGGING, OCTETS
 20 .debug_line   0000f3c4  0000000000000000  0000000000000000  00072d50  2**0
                  CONTENTS, READONLY, DEBUGGING, OCTETS
 21 .debug_str    0001c0a3  0000000000000000  0000000000000000  00082114  2**0
                  CONTENTS, READONLY, DEBUGGING, OCTETS
 22 .debug_line_str 00000ab0  0000000000000000  0000000000000000  0009e1b7  2**0
                  CONTENTS, READONLY, DEBUGGING, OCTETS
 23 .comment      00000055  0000000000000000  0000000000000000  0009ec67  2**0
                  CONTENTS, READONLY
SYMBOL TABLE:
0000000000000000 l    d  .ta_head	0000000000000000 .ta_head
0000000000000020 l    d  .text	0000000000000000 .text
0000000000012e80 l    d  .eh_frame	0000000000000000 .eh_frame
0000000000016a88 l    d  .rodata	0000000000000000 .rodata
0000000000017fd8 l    d  .gnu.hash	0000000000000000 .gnu.hash
0000000000018008 l    d  .dynsym	0000000000000000 .dynsym
0000000000018098 l    d  .dynstr	0000000000000000 .dynstr
00000000000180c8 l    d  .hash	0000000000000000 .hash
00000000000180f8 l    d  .rela.dyn	0000000000000000 .rela.dyn
0000000000019000 l    d  .dynamic	0000000000000000 .dynamic
0000000000019110 l    d  .got	0000000000000000 .got
00000000000191f0 l    d  .rela.got	0000000000000000 .rela.got
0000000000019430 l    d  .data	0000000000000000 .data
0000000000019650 l    d  .bss	0000000000000000 .bss
0000000000000000 l    d  .debug_info	0000000000000000 .debug_info
0000000000000000 l    d  .debug_abbrev	0000000000000000 .debug_abbrev
0000000000000000 l    d  .debug_loclists	0000000000000000 .debug_loclists
0000000000000000 l    d  .debug_aranges	0000000000000000 .debug_aranges
0000000000000000 l    d  .debug_rnglists	0000000000000000 .debug_rnglists
0000000000000000 l    d  .debug_macro	0000000000000000 .debug_macro
0000000000000000 l    d  .debug_line	0000000000000000 .debug_line
0000000000000000 l    d  .debug_str	0000000000000000 .debug_str
0000000000000000 l    d  .debug_line_str	0000000000000000 .debug_line_str
0000000000000000 l    d  .comment	0000000000000000 .comment
0000000000000000 l    df *ABS*	0000000000000000 user_ta_header.c
0000000000016a90 l     O .rodata	0000000000000004 __compound_literal.7
0000000000016a94 l     O .rodata	0000000000000001 __compound_literal.6
0000000000016a98 l     O .rodata	0000000000000004 __compound_literal.5
0000000000016a9c l     O .rodata	0000000000000004 __compound_literal.4
0000000000016aa0 l     O .rodata	0000000000000004 __compound_literal.3
0000000000016aa4 l     O .rodata	0000000000000001 __compound_literal.2
0000000000016aa5 l     O .rodata	0000000000000001 __compound_literal.1
0000000000016aa6 l     O .rodata	0000000000000001 __compound_literal.0
0000000000000000 l    df *ABS*	0000000000000000 memcpy.c
0000000000000000 l    df *ABS*	0000000000000000 aes_ta.c
0000000000016ae8 l     O .rodata	0000000000000020 __func__.9
0000000000016b08 l     O .rodata	000000000000001a __func__.8
0000000000016b22 l     O .rodata	0000000000000010 __func__.6
0000000000016b32 l     O .rodata	000000000000000f __func__.5
0000000000016b41 l     O .rodata	0000000000000010 __func__.4
0000000000016b51 l     O .rodata	000000000000000f __func__.3
0000000000016b60 l     O .rodata	000000000000000c __func__.2
0000000000016b6c l     O .rodata	000000000000000d __func__.1
0000000000016b79 l     O .rodata	000000000000000e __func__.0
0000000000016b87 l     O .rodata	0000000000000022 __func__.7
0000000000000000 l    df *ABS*	0000000000000000 stack_check.c
0000000000000000 l    df *ABS*	0000000000000000 trace.c
00000000000172fb l     O .rodata	0000000000000005 lvl_strs.0
0000000000000000 l    df *ABS*	0000000000000000 snprintk.c
0000000000000c54 l     F .text	0000000000000bc4 kprintf.constprop.0
0000000000016c36 l     O .rodata	0000000000000011 hexdigits
0000000000016c47 l     O .rodata	0000000000000011 HEXDIGITS
0000000000000000 l    df *ABS*	0000000000000000 memchr.c
0000000000000000 l    df *ABS*	0000000000000000 strlen.c
0000000000000000 l    df *ABS*	0000000000000000 trace_ext.c
0000000000000000 l    df *ABS*	0000000000000000 tee_api.c
0000000000001a8c l     F .text	000000000000006c copy_param
0000000000001af8 l     F .text	0000000000000070 copy_gp11_param
0000000000001b68 l     F .text	0000000000000098 check_mem_access_rights_params
0000000000001c00 l     F .text	0000000000000044 buf_overlaps_no_share_heap
0000000000001c44 l     F .text	00000000000000a8 check_invoke_param
0000000000001cec l     F .text	00000000000000a4 update_out_param
0000000000001d90 l     F .text	00000000000000a8 update_out_gp11_param
0000000000002008 l     F .text	000000000000019c map_tmp_param
0000000000019650 l     O .bss	0000000000000008 tee_api_instance_data
0000000000016ac8 l     O .rodata	000000000000000b __func__.0
0000000000000000 l    df *ABS*	0000000000000000 tee_api_objects.c
0000000000000000 l    df *ABS*	0000000000000000 tee_api_operations.c
0000000000004590 l     F .text	0000000000000108 __tee_alg_get_main_alg
0000000000004698 l     F .text	0000000000000250 tee_buffer_update
00000000000048e8 l     F .text	000000000000009c __tee_alg_get_class
0000000000004984 l     F .text	00000000000000ec ae_update_helper
0000000000004a70 l     F .text	000000000000005c reset_operation_state
0000000000004acc l     F .text	00000000000001e4 set_operation_key2
0000000000016c62 l     O .rodata	0000000000000012 __func__.0
0000000000000000 l    df *ABS*	0000000000000000 tee_api_panic.c
0000000000008a5c l     F .text	000000000000001c check_access
0000000000008a80 l     F .text	0000000000000010 check_res.constprop.0
0000000000008c10 l     F .text	0000000000000024 __utee_check_attr_in_annotation.localalias
0000000000000000 l    df *ABS*	0000000000000000 tee_system_pta.c
0000000000008c58 l     F .text	0000000000000084 invoke_system_pta
0000000000016c74 l     O .rodata	0000000000000010 uuid.2
0000000000016c84 l     O .rodata	000000000000000a __func__.1
0000000000016c8e l     O .rodata	0000000000000017 __func__.0
0000000000019660 l     O .bss	0000000000000008 sess.3
0000000000000000 l    df *ABS*	0000000000000000 utee_syscalls_a64.o
0000000000000000 l    df *ABS*	0000000000000000 user_ta_entry.c
00000000000091c0 l     F .text	00000000000000b0 _get_fn_array
0000000000009270 l     F .text	0000000000000090 _fini_iterate_phdr_cb
0000000000009300 l     F .text	0000000000000028 ta_header_get_session
0000000000009328 l     F .text	0000000000000070 to_utee_params
0000000000009398 l     F .text	000000000000005c from_utee_params
00000000000093f4 l     F .text	0000000000000094 _init_iterate_phdr_cb
00000000000095e4 l     F .text	0000000000000094 ta_header_remove_session
0000000000017426 l     O .rodata	0000000000000016 __func__.0
0000000000019668 l     O .bss	0000000000000008 _num_mod_init
0000000000019670 l     O .bss	0000000000000001 init_done
0000000000019540 l     O .data	0000000000000010 ta_sessions
0000000000019550 l     O .data	0000000000000010 __phdr_info_head
0000000000000000 l    df *ABS*	0000000000000000 user_ta_entry_compat.c
0000000000009900 l     F .text	0000000000000064 to_gp11_param
0000000000009964 l     F .text	0000000000000064 from_gp11_param
0000000000000000 l    df *ABS*	0000000000000000 abort.c
0000000000000000 l    df *ABS*	0000000000000000 assert.c
0000000000000000 l    df *ABS*	0000000000000000 tee_api_arith_mpi.c
0000000000009b8c l     F .text	0000000000000030 api_panic
0000000000009bbc l     F .text	0000000000000030 mpi_panic
0000000000009bec l     F .text	0000000000000098 get_mpi
0000000000009c84 l     F .text	0000000000000064 copy_mpi_to_bigint
0000000000009ce8 l     F .text	000000000000014c bigint_binary
0000000000009e34 l     F .text	0000000000000020 mpi_is_odd
0000000000009e54 l     F .text	0000000000000028 rng_read
0000000000009e7c l     F .text	0000000000000574 mpi_egcd
00000000000196d8 l     O .bss	0000000000003800 data.18
000000000000a92c l     F .text	00000000000001d0 bigint_binary_mod
0000000000017533 l     O .rodata	0000000000000008 __func__.15
000000000001753b l     O .rodata	000000000000000e __func__.11
0000000000017549 l     O .rodata	0000000000000009 __func__.2
0000000000017552 l     O .rodata	0000000000000012 __func__.17
0000000000017564 l     O .rodata	000000000000000f __func__.16
0000000000017573 l     O .rodata	000000000000001f __func__.14
0000000000017592 l     O .rodata	0000000000000019 __func__.13
00000000000175ab l     O .rodata	0000000000000012 __func__.7
00000000000175bd l     O .rodata	0000000000000015 __func__.12
00000000000175d2 l     O .rodata	000000000000000e __func__.10
00000000000175e0 l     O .rodata	000000000000000e __func__.9
00000000000175ee l     O .rodata	000000000000000e __func__.8
00000000000175fc l     O .rodata	0000000000000011 __func__.6
000000000001760d l     O .rodata	0000000000000018 __func__.5
0000000000017625 l     O .rodata	0000000000000011 __func__.4
0000000000017636 l     O .rodata	000000000000001d __func__.3
0000000000017653 l     O .rodata	0000000000000019 __func__.1
000000000001766c l     O .rodata	0000000000000015 __func__.0
0000000000000000 l    df *ABS*	0000000000000000 tee_api_property.c
000000000000bcdc l     F .text	000000000000006c propset_get
000000000000bd48 l     F .text	000000000000002c is_propset_pseudo_handle
000000000000bd74 l     F .text	0000000000000140 propget_get_ext_prop
000000000000beb4 l     F .text	00000000000001f8 propget_get_property
0000000000016cb8 l     O .rodata	0000000000000004 __compound_literal.3
0000000000016cbc l     O .rodata	0000000000000004 __compound_literal.2
0000000000016cc0 l     O .rodata	0000000000000004 __compound_literal.1
0000000000016cc4 l     O .rodata	0000000000000004 __compound_literal.0
0000000000000000 l    df *ABS*	0000000000000000 tcb.c
0000000000017797 l     O .rodata	0000000000000010 __func__.1
00000000000177a7 l     O .rodata	0000000000000010 __func__.0
000000000001ced8 l     O .bss	0000000000000008 _tls_size
000000000001cee0 l     O .bss	0000000000000008 _tcb
0000000000000000 l    df *ABS*	0000000000000000 base64.c
0000000000016ccc l     O .rodata	0000000000000041 base64_table
0000000000000000 l    df *ABS*	0000000000000000 bignum.c
000000000000d23c l     F .text	0000000000000064 mpi_get_digit
000000000000d2a0 l     F .text	000000000000040c mpi_mul_hlp
000000000000d6ac l     F .text	0000000000000148 mpi_montmul
000000000000d7f4 l     F .text	0000000000000078 mpi_montred
000000000000d86c l     F .text	0000000000000038 mpi_montg_init.isra.0
000000000000d8a4 l     F .text	00000000000000ac mpi_bigendian_to_host.part.0
000000000000d950 l     F .text	00000000000000c0 mpi_fill_random_internal
000000000000db9c l     F .text	000000000000006c mbedtls_mpi_resize_clear
000000000000f8cc l     F .text	00000000000000c4 mpi_check_small_factors
00000000000102b0 l     F .text	00000000000002a4 mpi_miller_rabin
0000000000016d10 l     O .rodata	00000000000002a0 small_prime
0000000000016fb0 l     O .rodata	0000000000000024 gcd_pairs
0000000000000000 l    df *ABS*	0000000000000000 constant_time.c
00000000000113bc l     F .text	0000000000000020 mbedtls_ct_uchar_mask_of_range
0000000000000000 l    df *ABS*	0000000000000000 platform_util.c
00000000000195c0 l     O .data	0000000000000008 memset_func
0000000000000000 l    df *ABS*	0000000000000000 bget_malloc.c
0000000000011ba0 l     F .text	0000000000000010 _assert_trap
0000000000011bb0 l     F .text	0000000000000028 bget_buf_size.part.0
0000000000011bd8 l     F .text	0000000000000038 raw_malloc_return_hook.constprop.0
0000000000017ec6 l     O .rodata	000000000000000e __func__.2
0000000000017ed4 l     O .rodata	0000000000000005 __func__.8
0000000000017ed9 l     O .rodata	0000000000000006 __func__.7
0000000000017edf l     O .rodata	0000000000000005 __func__.5
0000000000017ee4 l     O .rodata	0000000000000006 __func__.6
0000000000017eea l     O .rodata	0000000000000006 __func__.4
0000000000017ef0 l     O .rodata	0000000000000007 __func__.3
0000000000017ef7 l     O .rodata	0000000000000014 __func__.1
0000000000017f0b l     O .rodata	0000000000000013 __func__.0
00000000000195c8 l     O .data	0000000000000080 malloc_ctx
0000000000000000 l    df *ABS*	0000000000000000 snprintf.c
0000000000000000 l    df *ABS*	0000000000000000 memmove.c
0000000000000000 l    df *ABS*	0000000000000000 memset.c
0000000000000000 l    df *ABS*	0000000000000000 strcmp.c
0000000000000000 l    df *ABS*	0000000000000000 strlcpy.c
0000000000000000 l    df *ABS*	0000000000000000 mempool.c
0000000000017fa7 l     O .rodata	0000000000000013 __func__.2
0000000000017fba l     O .rodata	000000000000000b __func__.1
0000000000017fc5 l     O .rodata	000000000000000e __func__.0
0000000000000000 l    df *ABS*	0000000000000000 consttime_memcmp.c
0000000000000000 l    df *ABS*	0000000000000000 
0000000000019000 l     O *ABS*	0000000000000000 _DYNAMIC
0000000000019128 l     O *ABS*	0000000000000000 _GLOBAL_OFFSET_TABLE_
0000000000001a1c g     F .text	0000000000000070 putchar
000000000000a570 g     F .text	0000000000000008 __GP11_TEE_BigIntConvertFromOctetString
00000000000034a4 g     F .text	0000000000000110 TEE_PopulateTransientObject
0000000000006e7c g     F .text	0000000000000010 __GP11_TEE_AEInit
000000000000bab8 g     F .text	0000000000000004 TEE_BigIntConvertToFMM
000000000000b328 g     F .text	000000000000000c TEE_BigIntSquareMod
000000000000aafc g     F .text	00000000000001a0 TEE_BigIntShiftRight
0000000000012754 g     F .text	00000000000000d4 raw_malloc_add_pool
0000000000008e2c g     F .text	00000000000000e8 tee_invoke_supp_plugin
000000000000dab4 g     F .text	00000000000000e8 mbedtls_mpi_grow
0000000000005f8c g     F .text	0000000000000070 TEE_DigestUpdate
000000000000ca04 g     F .text	0000000000000130 __GP11_TEE_GetPropertyName
0000000000002a54 g     F .text	00000000000000d8 TEE_Realloc
0000000000005dc4 g     F .text	0000000000000020 TEE_SetOperationKey2
0000000000006c04 g     F .text	00000000000000a4 __GP11_TEE_MACComputeFinal
0000000000008c38 g     F .text	0000000000000020 __utee_check_inout_annotation
000000000001251c g     F .text	0000000000000010 raw_free
00000000000018dc g     F .text	0000000000000100 printf
000000000000aea0 g     F .text	000000000000002c TEE_BigIntAbs
0000000000006634 g     F .text	00000000000000a4 __GP11_TEE_CipherUpdate
00000000000036c4 g     F .text	000000000000004c TEE_InitRefAttribute
0000000000008f2c g     F .text	000000000000000c _utee_log
0000000000002440 g     F .text	0000000000000184 TEE_InvokeTACommand
00000000000037ac g     F .text	000000000000004c __GP11_TEE_InitValueAttribute
0000000000008a90 g     F .text	000000000000004c __utee_check_outbuf_annotation
000000000000da20 g     F .text	0000000000000028 mbedtls_mpi_init_mempool
00000000000090ac g     F .text	000000000000000c _utee_cryp_random_number_generate
000000000000e218 g     F .text	00000000000000c4 mbedtls_mpi_write_binary
0000000000007188 g     F .text	0000000000000200 TEE_AEEncryptFinal
0000000000000b2c g     F .text	0000000000000058 vsnprintk
000000000000ea98 g     F .text	0000000000000078 mbedtls_mpi_sub_int
0000000000007b80 g     F .text	0000000000000178 __GP11_TEE_AsymmetricDecrypt
0000000000012bac g     F .text	000000000000005c memmove
0000000000012a80 g     F .text	00000000000000d4 snprintf
000000000000a8ac g     F .text	0000000000000080 TEE_BigIntCmpS32
0000000000002760 g     F .text	0000000000000008 __GP11_TEE_MemMove
0000000000019538 g     O .data	0000000000000008 __stack_chk_guard
0000000000011904 g     F .text	000000000000027c mbedtls_ct_rsaes_pkcs1_v15_unpadding
0000000000003760 g     F .text	000000000000004c TEE_InitValueAttribute
000000000000dc08 g     F .text	0000000000000118 mbedtls_mpi_shrink
0000000000002778 g     F .text	0000000000000008 __GP11_TEE_MemFill
000000000000aecc g     F .text	000000000000000c TEE_BigIntAdd
000000000000904c g     F .text	000000000000000c _utee_cryp_obj_restrict_usage
0000000000016ab0 g     O .rodata	0000000000000008 ta_heap_size
0000000000003710 g     F .text	0000000000000050 __GP11_TEE_InitRefAttribute
0000000000003414 g     F .text	0000000000000090 TEE_ResetTransientObject
00000000000090f4 g     F .text	000000000000000c _utee_asymm_operate
000000000000cfec g     F .text	0000000000000018 _base64_enc_len
000000000000ed64 g     F .text	000000000000020c mbedtls_mpi_read_string
0000000000003a58 g     F .text	00000000000000d4 __GP11_TEE_GenerateKey
00000000000063b8 g     F .text	00000000000000e0 TEE_CipherInit
000000000000aee4 g     F .text	00000000000000e4 TEE_BigIntNeg
0000000000009148 g     F .text	000000000000000c _utee_storage_free_enum
0000000000000020 g       .text	0000000000000000 __text_start
000000000000cbc0 g     F .text	00000000000000e0 TEE_GetNextProperty
0000000000003f90 g     F .text	0000000000000050 TEE_StartPersistentObjectEnumerator
000000000000e3ec g     F .text	00000000000000c0 mbedtls_mpi_shift_r
0000000000012a6c g     F .text	0000000000000014 malloc_buffer_overlaps_heap
0000000000008ff8 g     F .text	000000000000000c _utee_hash_init
000000000000b310 g     F .text	000000000000000c TEE_BigIntSubMod
0000000000010c50 g     F .text	000000000000034c mbedtls_mpi_gen_prime
000000000000c730 g     F .text	000000000000009c TEE_GetPropertyAsBinaryBlock
000000000000dee0 g     F .text	000000000000002c mbedtls_mpi_get_bit
0000000000016aa8 g     O .rodata	0000000000000008 __ta_no_share_heap_size
000000000000e0dc g     F .text	0000000000000084 mbedtls_mpi_read_binary
0000000000006db8 g     F .text	00000000000000c4 TEE_AEInit
0000000000000980 g     F .text	00000000000000e4 trace_printf
000000000000f998 g     F .text	0000000000000004 mbedtls_mpi_montmul
00000000000091b4 g     F .text	000000000000000c _utee_cache_operation
0000000000000020 g     F .text	00000000000000ec memcpy
000000000000babc g     F .text	00000000000000d4 TEE_BigIntConvertFromFMM
0000000000008a78 g     F .text	0000000000000008 TEE_Panic
0000000000005e30 g     F .text	000000000000015c TEE_CopyOperation
00000000000019dc g     F .text	0000000000000040 puts
000000000000bb90 g     F .text	000000000000014c TEE_BigIntComputeFMM
0000000000012a34 g     F .text	0000000000000010 malloc_get_stats
00000000000028a0 g     F .text	0000000000000028 TEE_GetREETime
00000000000129f8 g     F .text	000000000000003c raw_malloc_get_stats
0000000000003eb0 g     F .text	0000000000000090 TEE_AllocatePersistentObjectEnumerator
0000000000019430 g     O .data	0000000000000108 ta_props
00000000000076f0 g     F .text	000000000000018c TEE_AsymmetricEncrypt
00000000000029ec g     F .text	0000000000000008 __GP11_TEE_Malloc
00000000000022f8 g     F .text	0000000000000148 __GP11_TEE_OpenTASession
0000000000008b28 g     F .text	0000000000000030 __utee_check_instring_annotation
0000000000012690 g     F .text	0000000000000018 malloc
000000000000c9f0 g     F .text	0000000000000004 TEE_FreePropertyEnumerator
0000000000011434 g     F .text	0000000000000010 mbedtls_ct_mpi_uint_mask
0000000000006498 g     F .text	0000000000000008 __GP11_TEE_CipherInit
0000000000003984 g     F .text	00000000000000d4 TEE_GenerateKey
0000000000012b54 g     F .text	0000000000000058 vsnprintf
0000000000019648 g     O .data	0000000000000004 trace_level
0000000000003c10 g     F .text	0000000000000008 __GP11_TEE_OpenPersistentObject
000000000000a814 g     F .text	0000000000000098 TEE_BigIntCmp
0000000000016a88 g     O .rodata	0000000000000008 ta_num_props
000000000001223c g     F .text	00000000000000d0 bgetr
000000000000910c g     F .text	000000000000000c _utee_storage_obj_open
000000000000276c g     F .text	0000000000000008 __GP11_TEE_MemCompare
0000000000012dfc g     F .text	0000000000000014 mempool_free
00000000000064a0 g     F .text	0000000000000194 TEE_CipherUpdate
0000000000009004 g     F .text	000000000000000c _utee_hash_update
000000000000a578 g     F .text	00000000000000c8 TEE_BigIntConvertToOctetString
00000000000059c4 g     F .text	00000000000001b0 TEE_GetOperationInfoMultiple
000000000000dfec g     F .text	000000000000005c mbedtls_mpi_bitlen
000000000000aca4 g     F .text	0000000000000084 TEE_BigIntGetBit
0000000000016ab8 g     O .rodata	0000000000000003 trace_ext_prefix
000000000000916c g     F .text	000000000000000c _utee_storage_next_enum
000000000001250c g     F .text	0000000000000010 raw_malloc
0000000000011ef0 g     F .text	0000000000000088 bgetz
0000000000011444 g     F .text	0000000000000018 mbedtls_ct_size_bool_eq
0000000000002750 g     F .text	000000000000000c TEE_GetInstanceData
00000000000027a8 g     F .text	000000000000003c TEE_Wait
000000000000eb10 g     F .text	00000000000001ac mbedtls_mpi_mul_mpi
000000000000ac9c g     F .text	0000000000000008 __GP11_TEE_BigIntShiftRight
0000000000002b3c g     F .text	0000000000000008 TEE_CacheFlush
0000000000000764 g     F .text	000000000000021c trace_vprintf
0000000000000114 g     F .text	0000000000000004 TA_DestroyEntryPoint
000000000000da10 g     F .text	0000000000000010 mbedtls_mpi_init
0000000000009124 g     F .text	000000000000000c _utee_storage_obj_del
000000000000df98 g     F .text	0000000000000054 mbedtls_mpi_lsb
00000000000068f0 g     F .text	00000000000000b0 __GP11_TEE_CipherDoFinal
0000000000009b34 g     F .text	0000000000000044 _assert_log
0000000000007088 g     F .text	0000000000000100 __GP11_TEE_AEUpdate
0000000000008fe0 g     F .text	000000000000000c _utee_cryp_state_copy
000000000000ba98 g     F .text	0000000000000008 TEE_BigIntFMMContextSizeInU32
0000000000008d70 g     F .text	00000000000000bc tee_unmap
0000000000006ca8 g     F .text	0000000000000104 TEE_MACCompareFinal
0000000000011478 g     F .text	0000000000000030 mbedtls_ct_uint_if
0000000000003e4c g     F .text	000000000000005c TEE_RenamePersistentObject
0000000000006004 g     F .text	000000000000016c TEE_DigestDoFinal
00000000000035b4 g     F .text	0000000000000110 __GP11_TEE_PopulateTransientObject
000000000000a3f0 g     F .text	0000000000000050 _TEE_MathAPI_Init
000000000000cca0 g     F .text	0000000000000240 __utee_tcb_init
000000000000e90c g     F .text	0000000000000088 mbedtls_mpi_add_mpi
0000000000009b14 g     F .text	0000000000000020 abort
0000000000010554 g     F .text	00000000000001b8 mbedtls_mpi_random
0000000000000708 g     F .text	0000000000000030 __stack_chk_fail
0000000000008bf0 g     F .text	0000000000000020 __utee_check_out_annotation
000000000001cef0 g     O .bss	0000000000008000 ta_heap
000000000000b334 g     F .text	0000000000000150 TEE_BigIntInvMod
0000000000005ffc g     F .text	0000000000000008 __GP11_TEE_DigestUpdate
0000000000009488 g     F .text	000000000000014c __utee_call_elf_init_fn
0000000000002ca8 g     F .text	00000000000000c8 __GP11_TEE_GetObjectInfo
000000000000017c g     F .text	0000000000000060 TA_CloseSessionEntryPoint
00000000000001dc g     F .text	00000000000004f8 __GP11_TA_InvokeCommandEntryPoint
0000000000008f68 g     F .text	000000000000000c _utee_close_ta_session
000000000000ba60 g     F .text	0000000000000008 __GP11_TEE_BigIntInitFMMContext
00000000000079f0 g     F .text	0000000000000190 TEE_AsymmetricDecrypt
0000000000002e20 g     F .text	00000000000000c0 __GP11_TEE_GetObjectInfo1
0000000000003b2c g     F .text	00000000000000e4 TEE_OpenPersistentObject
000000000000e994 g     F .text	000000000000008c mbedtls_mpi_sub_mpi
0000000000012e10 g     F .text	0000000000000070 consttime_memcmp
0000000000008f20 g     F .text	000000000000000c _utee_return
0000000000008f38 g     F .text	000000000000000c __utee_panic
00000000000113dc g     F .text	0000000000000048 mbedtls_ct_memcmp
000000000000cee0 g     F .text	000000000000001c __tls_get_addr
00000000000006fc g     F .text	000000000000000c TA_InvokeCommandEntryPoint
00000000000095d4 g     F .text	0000000000000010 __utee_call_elf_fini_fn
0000000000012720 g     F .text	0000000000000010 free_wipe
0000000000012d48 g     F .text	0000000000000064 mempool_alloc
0000000000008f14 g     F .text	000000000000000c _utee_panic
0000000000012738 g     F .text	000000000000001c raw_malloc_init_ctx
0000000000012dac g     F .text	0000000000000050 mempool_calloc
00000000000091a8 g     F .text	000000000000000c _utee_cryp_obj_generate_key
0000000000009190 g     F .text	000000000000000c _utee_storage_obj_trunc
00000000000038f0 g     F .text	0000000000000094 TEE_CopyObjectAttributes
0000000000019560 g     O .data	0000000000000060 tee_props
0000000000008f98 g     F .text	000000000000000c _utee_unmask_cancellation
000000000000c99c g     F .text	000000000000000c TEE_ResetPropertyEnumerator
00000000000126a8 g     F .text	000000000000001c calloc
00000000000028c8 g     F .text	0000000000000124 TEE_Malloc
0000000000001f80 g     F .text	0000000000000088 TEE_CheckMemoryAccessRights
000000000000c7cc g     F .text	00000000000000e8 TEE_GetPropertyAsUUID
0000000000008f44 g     F .text	000000000000000c _utee_get_property
0000000000006170 g     F .text	00000000000000a4 __GP11_TEE_DigestDoFinal
000000000000ada0 g     F .text	00000000000000b0 TEE_BigIntSetBit
000000000000de78 g     F .text	0000000000000068 mbedtls_mpi_lset
0000000000005de4 g     F .text	000000000000004c __GP11_TEE_SetOperationKey2
0000000000004228 g     F .text	00000000000000c8 TEE_ReadObjectData
0000000000002fb4 g     F .text	0000000000000104 TEE_GetObjectBufferAttribute
00000000000006f0 g     F .text	000000000000000c TA_OpenSessionEntryPoint
0000000000000118 g     F .text	0000000000000064 __GP11_TA_OpenSessionEntryPoint
0000000000004cb0 g     F .text	0000000000000040 TEE_FreeOperation
000000000000cefc g     F .text	00000000000000f0 dl_iterate_phdr
0000000000024ef0 g       .bss	0000000000000000 __ftrace_buf_end
00000000000196d0 g     O .bss	0000000000000004 ta_param_types
000000000000f490 g     F .text	0000000000000078 mbedtls_mpi_div_int
0000000000002b4c g     F .text	0000000000000050 __utee_from_attr
0000000000010b64 g     F .text	00000000000000dc mbedtls_mpi_is_prime_ext
000000000000b9c8 g     F .text	0000000000000088 TEE_BigIntIsProbablePrime
000000000000ecbc g     F .text	00000000000000a8 mbedtls_mpi_mul_int
0000000000003dd8 g     F .text	0000000000000048 TEE_CloseAndDeletePersistentObject1
000000000000f9a0 g     F .text	00000000000006d0 mbedtls_mpi_exp_mod
0000000000011654 g     F .text	00000000000000bc mbedtls_mpi_safe_cond_assign
000000000000c0ac g     F .text	0000000000000258 TEE_GetPropertyAsString
000000000001180c g     F .text	00000000000000f8 mbedtls_mpi_lt_mpi_ct
0000000000007460 g     F .text	00000000000001d4 TEE_AEDecryptFinal
000000000000a440 g     F .text	0000000000000060 TEE_BigIntInit
000000000000a640 g     F .text	0000000000000064 __GP11_TEE_BigIntConvertToOctetString
000000000000ae50 g     F .text	0000000000000050 TEE_BigIntAssign
0000000000008b58 g     F .text	000000000000004c __utee_check_outstring_annotation
000000000000275c g     F .text	0000000000000004 TEE_MemMove
0000000000011b80 g     F .text	0000000000000020 mbedtls_platform_zeroize
000000000000a4a8 g     F .text	00000000000000c8 TEE_BigIntConvertFromOctetString
00000000000090e8 g     F .text	000000000000000c _utee_authenc_dec_final
000000000000e4ac g     F .text	000000000000009c mbedtls_mpi_cmp_abs
0000000000009178 g     F .text	000000000000000c _utee_storage_obj_read
00000000000069a0 g     F .text	00000000000000a4 TEE_MACInit
0000000000007cf8 g     F .text	000000000000016c TEE_AsymmetricSignDigest
0000000000001864 g     F .text	000000000000002c memchr
0000000000001ec0 g     F .text	0000000000000060 TEE_UnmaskCancellation
0000000000002bec g     F .text	00000000000000bc TEE_GetObjectInfo
0000000000010f9c g     F .text	0000000000000420 mbedtls_mpi_self_test
0000000000008adc g     F .text	000000000000004c __utee_check_gp11_outbuf_annotation
000000000000919c g     F .text	000000000000000c _utee_storage_obj_seek
0000000000006fbc g     F .text	00000000000000cc TEE_AEUpdate
0000000000003384 g     F .text	0000000000000090 TEE_FreeTransientObject
0000000000008f8c g     F .text	000000000000000c _utee_check_access_rights
00000000000025c4 g     F .text	0000000000000178 __GP11_TEE_InvokeTACommand
000000000000e618 g     F .text	0000000000000078 mbedtls_mpi_cmp_int
000000000000d118 g     F .text	0000000000000124 _base64_dec
0000000000009154 g     F .text	000000000000000c _utee_storage_reset_enum
0000000000005944 g     F .text	000000000000002c __GP11_TEE_FreeOperation
0000000000011598 g     F .text	00000000000000bc mbedtls_ct_base64_dec_value
0000000000008598 g     F .text	000000000000005c rand
0000000000008c10 g     F .text	0000000000000024 __utee_check_attr_in_annotation
00000000000090d0 g     F .text	000000000000000c _utee_authenc_update_payload
0000000000005970 g     F .text	0000000000000054 TEE_GetOperationInfo
000000000000b298 g     F .text	000000000000006c TEE_BigIntMod
000000000000f5bc g     F .text	000000000000009c mbedtls_mpi_mod_int
0000000000007e64 g     F .text	000000000000016c __GP11_TEE_AsymmetricSignDigest
000000000000e064 g     F .text	0000000000000078 mbedtls_mpi_read_binary_le
000000000000b0e4 g     F .text	00000000000001b4 TEE_BigIntDiv
0000000000009064 g     F .text	000000000000000c _utee_cryp_obj_alloc
0000000000024ef0 g       .bss	0000000000000000 __ftrace_buf_start
0000000000012c48 g     F .text	0000000000000038 strlcpy
00000000000114e4 g     F .text	00000000000000b4 mbedtls_ct_base64_enc_char
000000000000dd20 g     F .text	00000000000000cc mbedtls_mpi_copy
00000000000085f4 g     F .text	0000000000000468 TEE_IsAlgorithmSupported
0000000000012470 g     F .text	0000000000000018 malloc_reset_stats
000000000000c8b4 g     F .text	00000000000000e8 TEE_GetPropertyAsIdentity
0000000000001818 g     F .text	000000000000004c __vsprintf
000000000000c560 g     F .text	00000000000000e8 TEE_GetPropertyAsU64
0000000000008fc8 g     F .text	000000000000000c _utee_set_ta_time
0000000000008f74 g     F .text	000000000000000c _utee_invoke_ta_command
0000000000002ee0 g     F .text	0000000000000044 TEE_RestrictObjectUsage1
00000000000126c4 g     F .text	0000000000000018 realloc
000000000000ddec g     F .text	000000000000008c mbedtls_mpi_swap
0000000000012c80 g     F .text	00000000000000c8 mempool_alloc_pool
000000000000afc8 g     F .text	0000000000000114 TEE_BigIntMul
0000000000005c00 g     F .text	000000000000003c TEE_ResetOperation
0000000000012730 g     F .text	0000000000000008 raw_malloc_get_ctx_size
000000000000e2dc g     F .text	0000000000000110 mbedtls_mpi_shift_l
000000000000e548 g     F .text	00000000000000d0 mbedtls_mpi_cmp_mpi
0000000000002774 g     F .text	0000000000000004 TEE_MemFill
0000000000012a44 g     F .text	0000000000000014 malloc_add_pool
0000000000006a4c g     F .text	00000000000000a0 TEE_MACUpdate
0000000000000754 g     F .text	0000000000000010 trace_get_level
000000000000e690 g     F .text	0000000000000120 mbedtls_mpi_add_abs
0000000000002f24 g     F .text	0000000000000090 TEE_RestrictObjectUsage
000000000000ba70 g     F .text	0000000000000010 TEE_BigIntFMMSizeInU32
000000000000c3a0 g     F .text	00000000000000d8 TEE_GetPropertyAsBool
000000000001259c g     F .text	00000000000000f4 raw_realloc
000000000000ba50 g     F .text	0000000000000004 TEE_BigIntInitFMM
000000000000328c g     F .text	0000000000000028 TEE_CloseObject
000000000000901c g     F .text	000000000000000c _utee_cipher_init
0000000000009678 g     F .text	0000000000000288 __utee_entry
000000000000c478 g     F .text	00000000000000e8 TEE_GetPropertyAsU32
0000000000012e80 g       .text	0000000000000000 __text_end
000000000000b484 g     F .text	0000000000000108 TEE_BigIntRelativePrime
000000000000f508 g     F .text	00000000000000b4 mbedtls_mpi_mod_mpi
0000000000009040 g     F .text	000000000000000c _utee_cryp_obj_get_info
000000000001230c g     F .text	00000000000000d0 bpool
000000000000c9a8 g     F .text	0000000000000048 TEE_AllocatePropertyEnumerator
0000000000008fd4 g     F .text	000000000000000c _utee_cryp_state_alloc
0000000000001e60 g     F .text	0000000000000060 TEE_GetCancellationFlag
0000000000003d5c g     F .text	000000000000007c __GP11_TEE_CreatePersistentObject
0000000000010070 g     F .text	00000000000001d8 mbedtls_mpi_gcd
000000000000285c g     F .text	0000000000000044 TEE_SetTAPersistentTime
000000000000e160 g     F .text	00000000000000b8 mbedtls_mpi_write_binary_le
0000000000012c08 g     F .text	000000000000001c memset
0000000000012488 g     F .text	0000000000000084 raw_memalign
00000000000027e4 g     F .text	0000000000000078 TEE_GetTAPersistentTime
0000000000005d88 g     F .text	000000000000003c __GP11_TEE_SetOperationKey
0000000000007388 g     F .text	00000000000000d8 __GP11_TEE_AEEncryptFinal
0000000000000a64 g     F .text	0000000000000004 dhex_dump
0000000000003c18 g     F .text	0000000000000144 TEE_CreatePersistentObject
0000000000001f20 g     F .text	0000000000000060 TEE_MaskCancellation
0000000000006e8c g     F .text	000000000000009c TEE_AEUpdateAAD
000000000000440c g     F .text	000000000000005c TEE_TruncateObjectData
0000000000009058 g     F .text	000000000000000c _utee_cryp_obj_get_attr
0000000000002d70 g     F .text	00000000000000b0 TEE_GetObjectInfo1
0000000000009034 g     F .text	000000000000000c _utee_cipher_final
0000000000000738 g     F .text	000000000000001c trace_set_level
0000000000003154 g     F .text	0000000000000138 TEE_GetObjectValueAttribute
0000000000005c3c g     F .text	000000000000014c TEE_SetOperationKey
000000000001145c g     F .text	000000000000001c mbedtls_ct_mpi_uint_lt
00000000000030b8 g     F .text	000000000000009c __GP11_TEE_GetObjectBufferAttribute
0000000000008fec g     F .text	000000000000000c _utee_cryp_state_free
0000000000012c24 g     F .text	0000000000000024 strcmp
0000000000008f5c g     F .text	000000000000000c _utee_open_ta_session
000000000000a758 g     F .text	00000000000000bc TEE_BigIntConvertToS32
000000000000aed8 g     F .text	000000000000000c TEE_BigIntSub
0000000000004588 g     F .text	0000000000000008 __GP11_TEE_SeekObjectData
00000000000006e8 g     F .text	0000000000000008 tahead_get_trace_level
0000000000009160 g     F .text	000000000000000c _utee_storage_start_enum
0000000000004470 g     F .text	0000000000000118 TEE_SeekObjectData
0000000000008cdc g     F .text	0000000000000094 tee_map_zi
0000000000004468 g     F .text	0000000000000008 __GP11_TEE_TruncateObjectData
000000000000f99c g     F .text	0000000000000004 mbedtls_mpi_montred
00000000000126dc g     F .text	000000000000001c memalign
0000000000011424 g     F .text	0000000000000010 mbedtls_ct_uint_mask
00000000000066d8 g     F .text	0000000000000218 TEE_CipherDoFinal
000000000000a4a0 g     F .text	0000000000000008 __GP11_TEE_BigIntInit
000000000000a6a4 g     F .text	00000000000000b4 TEE_BigIntConvertFromS32
000000000000ea20 g     F .text	0000000000000078 mbedtls_mpi_add_int
00000000000090dc g     F .text	000000000000000c _utee_authenc_enc_final
0000000000012a58 g     F .text	0000000000000014 malloc_buffer_is_within_alloced
0000000000009070 g     F .text	000000000000000c _utee_cryp_obj_close
0000000000008590 g     F .text	0000000000000008 __GP11_TEE_GenerateRandom
000000000000ba5c g     F .text	0000000000000004 TEE_BigIntInitFMMContext
0000000000008fa4 g     F .text	000000000000000c _utee_mask_cancellation
0000000000019688 g     O .bss	0000000000000008 __ta_no_share_malloc_ctx
0000000000009130 g     F .text	000000000000000c _utee_storage_obj_rename
00000000000040fc g     F .text	000000000000012c __GP11_TEE_GetNextPersistentObject
000000000000438c g     F .text	0000000000000078 TEE_WriteObjectData
0000000000003f68 g     F .text	0000000000000028 TEE_ResetPersistentObjectEnumerator
000000000000273c g     F .text	0000000000000008 __GP11_TEE_CheckMemoryAccessRights
000000000000b0dc g     F .text	0000000000000008 TEE_BigIntSquare
0000000000009184 g     F .text	000000000000000c _utee_storage_obj_write
000000000000010c g     F .text	0000000000000008 TA_CreateEntryPoint
00000000000006d4 g     F .text	0000000000000014 __ta_entry
000000000001cef0 g     O .bss	0000000000000000 __ta_no_share_heap
00000000000090c4 g     F .text	000000000000000c _utee_authenc_update_aad
000000000000f990 g     F .text	0000000000000008 mbedtls_mpi_montg_init
0000000000000b84 g     F .text	00000000000000d0 snprintk
000000000000ad28 g     F .text	0000000000000078 TEE_BigIntGetBitCount
0000000000009094 g     F .text	000000000000000c _utee_cryp_obj_copy
0000000000006f28 g     F .text	0000000000000094 __GP11_TEE_AEUpdateAAD
000000000000b31c g     F .text	000000000000000c TEE_BigIntMulMod
000000000001070c g     F .text	0000000000000458 mbedtls_mpi_inv_mod
0000000000008c34 g     F .text	0000000000000004 __utee_check_gp11_attr_in_annotation
0000000000008280 g     F .text	0000000000000178 TEE_DeriveKey
0000000000019690 g     O .bss	0000000000000040 ta_params
000000000000ef70 g     F .text	0000000000000520 mbedtls_mpi_div_mpi
0000000000008ba4 g     F .text	000000000000004c __utee_check_gp11_outstring_annotation
000000000000e048 g     F .text	000000000000001c mbedtls_mpi_size
0000000000011c10 g     F .text	00000000000002e0 bget
00000000000042f0 g     F .text	000000000000009c __GP11_TEE_ReadObjectData
0000000000003368 g     F .text	000000000000001c TEE_AllocateTransientObject
0000000000006aec g     F .text	0000000000000008 __GP11_TEE_MACUpdate
000000000000baa0 g     F .text	0000000000000018 __GP11_TEE_BigIntFMMContextSizeInU32
000000000000c9f4 g     F .text	0000000000000010 TEE_StartPropertyEnumerator
0000000000008fb0 g     F .text	000000000000000c _utee_wait
000000000000df0c g     F .text	000000000000008c mbedtls_mpi_set_bit
00000000000029f4 g     F .text	0000000000000060 TEE_Free
0000000000010c40 g     F .text	0000000000000010 mbedtls_mpi_is_prime
0000000000002b44 g     F .text	0000000000000008 TEE_CacheInvalidate
0000000000009b78 g     F .text	0000000000000014 _assert_break
000000000000b304 g     F .text	000000000000000c TEE_BigIntAddMod
00000000000114a8 g     F .text	000000000000003c mbedtls_ct_mpi_uint_cond_assign
000000000000ba54 g     F .text	0000000000000008 __GP11_TEE_BigIntInitFMM
0000000000008fbc g     F .text	000000000000000c _utee_get_time
000000000000cb34 g     F .text	000000000000008c TEE_GetPropertyName
0000000000002b2c g     F .text	0000000000000008 __GP11_TEE_Realloc
0000000000004cf0 g     F .text	0000000000000c54 TEE_AllocateOperation
0000000000009088 g     F .text	000000000000000c _utee_cryp_obj_populate
0000000000005b74 g     F .text	000000000000008c __GP11_TEE_GetOperationInfoMultiple
0000000000002b9c g     F .text	0000000000000050 __utee_from_gp11_attr
0000000000008570 g     F .text	0000000000000020 TEE_GenerateRandom
0000000000006214 g     F .text	00000000000001a4 TEE_DigestExtract
0000000000002768 g     F .text	0000000000000004 TEE_MemCompare
0000000000009028 g     F .text	000000000000000c _utee_cipher_update
0000000000000a68 g     F .text	00000000000000c4 __vsnprintf
0000000000019678 g     O .bss	0000000000000010 __elf_phdr_info
0000000000003f40 g     F .text	0000000000000028 TEE_FreePersistentObjectEnumerator
00000000000021a4 g     F .text	0000000000000154 TEE_OpenTASession
00000000000083f8 g     F .text	0000000000000178 __GP11_TEE_DeriveKey
0000000000007634 g     F .text	00000000000000bc __GP11_TEE_AEDecryptFinal
00000000000018ac g     F .text	0000000000000028 trace_ext_puts
000000000000c304 g     F .text	000000000000009c __GP11_TEE_GetPropertyAsString
00000000000128a8 g     F .text	0000000000000150 raw_malloc_buffer_is_within_alloced
00000000000018d4 g     F .text	0000000000000008 trace_ext_get_thread_id
0000000000012828 g     F .text	0000000000000080 raw_malloc_buffer_overlaps_heap
0000000000003e20 g     F .text	000000000000002c TEE_CloseAndDeletePersistentObject
00000000000090a0 g     F .text	000000000000000c _utee_cryp_derive_key
000000000000da48 g     F .text	000000000000006c mbedtls_mpi_free
0000000000006a44 g     F .text	0000000000000008 __GP11_TEE_MACInit
0000000000008128 g     F .text	0000000000000158 __GP11_TEE_AsymmetricVerifyDigest
000000000000907c g     F .text	000000000000000c _utee_cryp_obj_reset
0000000000002b34 g     F .text	0000000000000008 TEE_CacheClean
0000000000008f50 g     F .text	000000000000000c _utee_get_property_name_to_index
000000000001252c g     F .text	0000000000000070 raw_calloc
000000000000d004 g     F .text	0000000000000114 _base64_enc
0000000000011710 g     F .text	00000000000000fc mbedtls_mpi_safe_cond_swap
00000000000090b8 g     F .text	000000000000000c _utee_authenc_init
00000000000037f8 g     F .text	00000000000000f8 TEE_CopyObjectAttributes1
0000000000003ea8 g     F .text	0000000000000008 __GP11_TEE_RenamePersistentObject
0000000000001890 g     F .text	000000000000001c strlen
000000000000b760 g     F .text	0000000000000268 TEE_BigIntComputeExtendedGcd
000000000000913c g     F .text	000000000000000c _utee_storage_alloc_enum
000000000000b58c g     F .text	00000000000001d4 TEE_BigIntExpMod
0000000000002780 g     F .text	0000000000000028 TEE_GetSystemTime
0000000000009100 g     F .text	000000000000000c _utee_asymm_verify
0000000000000000 g     O .ta_head	0000000000000020 ta_head
0000000000011f78 g     F .text	00000000000002c4 brel
0000000000009a64 g     F .text	00000000000000b0 __ta_invoke_cmd
000000000000c648 g     F .text	00000000000000e8 __GP11_TEE_GetPropertyAsBinaryBlock
000000000000e7b0 g     F .text	000000000000015c mbedtls_mpi_sub_abs
0000000000010248 g     F .text	0000000000000068 mbedtls_mpi_fill_random
00000000000032b4 g     F .text	00000000000000b4 __GP11_TEE_AllocateTransientObject
00000000000099c8 g     F .text	000000000000009c __ta_open_sess
0000000000002744 g     F .text	000000000000000c TEE_SetInstanceData
000000000000787c g     F .text	0000000000000174 __GP11_TEE_AsymmetricEncrypt
0000000000008f80 g     F .text	000000000000000c _utee_get_cancellation_flag
000000000000f658 g     F .text	0000000000000274 mbedtls_mpi_write_string
00000000000126f8 g     F .text	0000000000000018 aligned_alloc
0000000000003fe0 g     F .text	000000000000011c TEE_GetNextPersistentObject
000000000000ba68 g     F .text	0000000000000008 TEE_BigIntInitFMMContext1
0000000000006dac g     F .text	000000000000000c __GP11_TEE_MACCompareFinal
0000000000004404 g     F .text	0000000000000008 __GP11_TEE_WriteObjectData
0000000000001e38 g     F .text	0000000000000028 TEE_CloseTASession
0000000000007fd0 g     F .text	0000000000000158 TEE_AsymmetricVerifyDigest
0000000000009118 g     F .text	000000000000000c _utee_storage_obj_create
000000000000ba80 g     F .text	0000000000000018 __GP11_TEE_BigIntFMMSizeInU32
0000000000012710 g     F .text	0000000000000010 free
00000000000123dc g     F .text	0000000000000094 bstats
0000000000006af4 g     F .text	0000000000000110 TEE_MACComputeFinal
000000000001cee8 g     O .bss	0000000000000008 mbedtls_mpi_mempool
0000000000009010 g     F .text	000000000000000c _utee_hash_final



Disassembly of section .text:

0000000000000020 <memcpy>:
memcpy():
/home/jeferson/optee/optee_os-rpi4/lib/libutils/isoc/newlib/memcpy.c:106
      20:	f1007c5f 	cmp	x2, #0x1f
      24:	54000629 	b.ls	e8 <memcpy+0xc8>  // b.plast
/home/jeferson/optee/optee_os-rpi4/lib/libutils/isoc/newlib/memcpy.c:106 (discriminator 1)
      28:	aa010005 	orr	x5, x0, x1
      2c:	f24008a5 	ands	x5, x5, #0x7
      30:	54000641 	b.ne	f8 <memcpy+0xd8>  // b.any
      34:	d1008048 	sub	x8, x2, #0x20
/home/jeferson/optee/optee_os-rpi4/lib/libutils/isoc/newlib/memcpy.c:108
      38:	aa0103e3 	mov	x3, x1
      3c:	927be908 	and	x8, x8, #0xffffffffffffffe0
/home/jeferson/optee/optee_os-rpi4/lib/libutils/isoc/newlib/memcpy.c:107
      40:	aa0003e4 	mov	x4, x0
      44:	91008108 	add	x8, x8, #0x20
      48:	8b080007 	add	x7, x0, x8
      4c:	d503201f 	nop
/home/jeferson/optee/optee_os-rpi4/lib/libutils/isoc/newlib/memcpy.c:112
      50:	f9400066 	ldr	x6, [x3]
      54:	f9000086 	str	x6, [x4]
/home/jeferson/optee/optee_os-rpi4/lib/libutils/isoc/newlib/memcpy.c:113
      58:	91008063 	add	x3, x3, #0x20
      5c:	91008084 	add	x4, x4, #0x20
      60:	f85e8066 	ldur	x6, [x3, #-24]
      64:	f81e8086 	stur	x6, [x4, #-24]
/home/jeferson/optee/optee_os-rpi4/lib/libutils/isoc/newlib/memcpy.c:114
      68:	f85f0066 	ldur	x6, [x3, #-16]
      6c:	f81f0086 	stur	x6, [x4, #-16]
/home/jeferson/optee/optee_os-rpi4/lib/libutils/isoc/newlib/memcpy.c:115
      70:	f85f8066 	ldur	x6, [x3, #-8]
      74:	f81f8086 	stur	x6, [x4, #-8]
/home/jeferson/optee/optee_os-rpi4/lib/libutils/isoc/newlib/memcpy.c:111
      78:	eb0400ff 	cmp	x7, x4
      7c:	54fffea1 	b.ne	50 <memcpy+0x30>  // b.any
/home/jeferson/optee/optee_os-rpi4/lib/libutils/isoc/newlib/memcpy.c:115
      80:	8b080021 	add	x1, x1, x8
/home/jeferson/optee/optee_os-rpi4/lib/libutils/isoc/newlib/memcpy.c:116
      84:	92401043 	and	x3, x2, #0x1f
/home/jeferson/optee/optee_os-rpi4/lib/libutils/isoc/newlib/memcpy.c:120
      88:	f27d045f 	tst	x2, #0x18
      8c:	540003c0 	b.eq	104 <memcpy+0xe4>  // b.none
/home/jeferson/optee/optee_os-rpi4/lib/libutils/isoc/newlib/memcpy.c:121
      90:	f8656826 	ldr	x6, [x1, x5]
      94:	f8256886 	str	x6, [x4, x5]
/home/jeferson/optee/optee_os-rpi4/lib/libutils/isoc/newlib/memcpy.c:120
      98:	910020a5 	add	x5, x5, #0x8
      9c:	cb050066 	sub	x6, x3, x5
      a0:	f1001cdf 	cmp	x6, #0x7
      a4:	54ffff68 	b.hi	90 <memcpy+0x70>  // b.pmore
      a8:	d1002063 	sub	x3, x3, #0x8
/home/jeferson/optee/optee_os-rpi4/lib/libutils/isoc/newlib/memcpy.c:122
      ac:	92400842 	and	x2, x2, #0x7
      b0:	927df063 	and	x3, x3, #0xfffffffffffffff8
/home/jeferson/optee/optee_os-rpi4/lib/libutils/isoc/newlib/memcpy.c:130
      b4:	d1000446 	sub	x6, x2, #0x1
      b8:	91002063 	add	x3, x3, #0x8
/home/jeferson/optee/optee_os-rpi4/lib/libutils/isoc/newlib/memcpy.c:121
      bc:	8b030084 	add	x4, x4, x3
      c0:	8b030021 	add	x1, x1, x3
/home/jeferson/optee/optee_os-rpi4/lib/libutils/isoc/newlib/memcpy.c:130
      c4:	b4000102 	cbz	x2, e4 <memcpy+0xc4>
/home/jeferson/optee/optee_os-rpi4/lib/libutils/isoc/newlib/memcpy.c:99
      c8:	d2800002 	mov	x2, #0x0                   	// #0
      cc:	d503201f 	nop
/home/jeferson/optee/optee_os-rpi4/lib/libutils/isoc/newlib/memcpy.c:131
      d0:	38626825 	ldrb	w5, [x1, x2]
/home/jeferson/optee/optee_os-rpi4/lib/libutils/isoc/newlib/memcpy.c:130
      d4:	eb0200df 	cmp	x6, x2
/home/jeferson/optee/optee_os-rpi4/lib/libutils/isoc/newlib/memcpy.c:131
      d8:	38226885 	strb	w5, [x4, x2]
/home/jeferson/optee/optee_os-rpi4/lib/libutils/isoc/newlib/memcpy.c:130
      dc:	91000442 	add	x2, x2, #0x1
      e0:	54ffff81 	b.ne	d0 <memcpy+0xb0>  // b.any
/home/jeferson/optee/optee_os-rpi4/lib/libutils/isoc/newlib/memcpy.c:135
      e4:	d65f03c0 	ret
/home/jeferson/optee/optee_os-rpi4/lib/libutils/isoc/newlib/memcpy.c:99
      e8:	aa0003e4 	mov	x4, x0
/home/jeferson/optee/optee_os-rpi4/lib/libutils/isoc/newlib/memcpy.c:130
      ec:	d1000446 	sub	x6, x2, #0x1
      f0:	b5fffec2 	cbnz	x2, c8 <memcpy+0xa8>
/home/jeferson/optee/optee_os-rpi4/lib/libutils/isoc/newlib/memcpy.c:135
      f4:	d65f03c0 	ret
/home/jeferson/optee/optee_os-rpi4/lib/libutils/isoc/newlib/memcpy.c:130
      f8:	d1000446 	sub	x6, x2, #0x1
/home/jeferson/optee/optee_os-rpi4/lib/libutils/isoc/newlib/memcpy.c:99
      fc:	aa0003e4 	mov	x4, x0
     100:	17fffff2 	b	c8 <memcpy+0xa8>
/home/jeferson/optee/optee_os-rpi4/lib/libutils/isoc/newlib/memcpy.c:120
     104:	aa0303e2 	mov	x2, x3
     108:	17fffff9 	b	ec <memcpy+0xcc>

000000000000010c <TA_CreateEntryPoint>:
TA_CreateEntryPoint():
/home/jeferson/optee/optee_examples/aes/ta/aes_ta.c:368
     10c:	52800000 	mov	w0, #0x0                   	// #0
     110:	d65f03c0 	ret

0000000000000114 <TA_DestroyEntryPoint>:
TA_DestroyEntryPoint():
/home/jeferson/optee/optee_examples/aes/ta/aes_ta.c:373
     114:	d65f03c0 	ret

0000000000000118 <__GP11_TA_OpenSessionEntryPoint>:
__GP11_TA_OpenSessionEntryPoint():
/home/jeferson/optee/optee_examples/aes/ta/aes_ta.c:378
     118:	a9be7bfd 	stp	x29, x30, [sp, #-32]!
/home/jeferson/optee/optee_examples/aes/ta/aes_ta.c:386
     11c:	52800001 	mov	w1, #0x0                   	// #0
/home/jeferson/optee/optee_examples/aes/ta/aes_ta.c:378
     120:	910003fd 	mov	x29, sp
/home/jeferson/optee/optee_examples/aes/ta/aes_ta.c:386
     124:	52800400 	mov	w0, #0x20                  	// #32
/home/jeferson/optee/optee_examples/aes/ta/aes_ta.c:378
     128:	f9000bf3 	str	x19, [sp, #16]
     12c:	aa0203f3 	mov	x19, x2
/home/jeferson/optee/optee_examples/aes/ta/aes_ta.c:386
     130:	94000a2f 	bl	29ec <__GP11_TEE_Malloc>
/home/jeferson/optee/optee_examples/aes/ta/aes_ta.c:387
     134:	b4000200 	cbz	x0, 174 <__GP11_TA_OpenSessionEntryPoint+0x5c>
     138:	aa0003e5 	mov	x5, x0
/home/jeferson/optee/optee_examples/aes/ta/aes_ta.c:394
     13c:	d00000a4 	adrp	x4, 16000 <__text_end+0x3180>
     140:	913f5084 	add	x4, x4, #0xfd4
     144:	52800023 	mov	w3, #0x1                   	// #1
/home/jeferson/optee/optee_examples/aes/ta/aes_ta.c:390
     148:	a9017cbf 	stp	xzr, xzr, [x5, #16]
/home/jeferson/optee/optee_examples/aes/ta/aes_ta.c:394
     14c:	52800062 	mov	w2, #0x3                   	// #3
     150:	52803141 	mov	w1, #0x18a                 	// #394
     154:	d00000a0 	adrp	x0, 16000 <__text_end+0x3180>
     158:	912ba000 	add	x0, x0, #0xae8
/home/jeferson/optee/optee_examples/aes/ta/aes_ta.c:393
     15c:	f9000265 	str	x5, [x19]
/home/jeferson/optee/optee_examples/aes/ta/aes_ta.c:394
     160:	94000208 	bl	980 <trace_printf>
/home/jeferson/optee/optee_examples/aes/ta/aes_ta.c:396
     164:	52800000 	mov	w0, #0x0                   	// #0
/home/jeferson/optee/optee_examples/aes/ta/aes_ta.c:397
     168:	f9400bf3 	ldr	x19, [sp, #16]
     16c:	a8c27bfd 	ldp	x29, x30, [sp], #32
     170:	d65f03c0 	ret
/home/jeferson/optee/optee_examples/aes/ta/aes_ta.c:388
     174:	129ffe60 	mov	w0, #0xffff000c            	// #-65524
     178:	17fffffc 	b	168 <__GP11_TA_OpenSessionEntryPoint+0x50>

000000000000017c <TA_CloseSessionEntryPoint>:
TA_CloseSessionEntryPoint():
/home/jeferson/optee/optee_examples/aes/ta/aes_ta.c:400
     17c:	a9be7bfd 	stp	x29, x30, [sp, #-32]!
     180:	910003fd 	mov	x29, sp
/home/jeferson/optee/optee_examples/aes/ta/aes_ta.c:404
     184:	aa0003e5 	mov	x5, x0
     188:	d00000a4 	adrp	x4, 16000 <__text_end+0x3180>
     18c:	913fc084 	add	x4, x4, #0xff0
     190:	52800023 	mov	w3, #0x1                   	// #1
/home/jeferson/optee/optee_examples/aes/ta/aes_ta.c:400
     194:	f9000bf3 	str	x19, [sp, #16]
     198:	aa0003f3 	mov	x19, x0
/home/jeferson/optee/optee_examples/aes/ta/aes_ta.c:404
     19c:	d00000a0 	adrp	x0, 16000 <__text_end+0x3180>
     1a0:	912ba000 	add	x0, x0, #0xae8
     1a4:	52800062 	mov	w2, #0x3                   	// #3
     1a8:	91008000 	add	x0, x0, #0x20
     1ac:	52803281 	mov	w1, #0x194                 	// #404
     1b0:	940001f4 	bl	980 <trace_printf>
/home/jeferson/optee/optee_examples/aes/ta/aes_ta.c:408
     1b4:	f9400e60 	ldr	x0, [x19, #24]
     1b8:	b4000040 	cbz	x0, 1c0 <TA_CloseSessionEntryPoint+0x44>
/home/jeferson/optee/optee_examples/aes/ta/aes_ta.c:409
     1bc:	94000c72 	bl	3384 <TEE_FreeTransientObject>
/home/jeferson/optee/optee_examples/aes/ta/aes_ta.c:410
     1c0:	f9400a60 	ldr	x0, [x19, #16]
     1c4:	b4000040 	cbz	x0, 1cc <TA_CloseSessionEntryPoint+0x50>
/home/jeferson/optee/optee_examples/aes/ta/aes_ta.c:411
     1c8:	940015df 	bl	5944 <__GP11_TEE_FreeOperation>
/home/jeferson/optee/optee_examples/aes/ta/aes_ta.c:412
     1cc:	aa1303e0 	mov	x0, x19
/home/jeferson/optee/optee_examples/aes/ta/aes_ta.c:413
     1d0:	f9400bf3 	ldr	x19, [sp, #16]
     1d4:	a8c27bfd 	ldp	x29, x30, [sp], #32
/home/jeferson/optee/optee_examples/aes/ta/aes_ta.c:412
     1d8:	14000a07 	b	29f4 <TEE_Free>

00000000000001dc <__GP11_TA_InvokeCommandEntryPoint>:
__GP11_TA_InvokeCommandEntryPoint():
/home/jeferson/optee/optee_examples/aes/ta/aes_ta.c:419
     1dc:	a9b97bfd 	stp	x29, x30, [sp, #-112]!
     1e0:	910003fd 	mov	x29, sp
     1e4:	a90363f7 	stp	x23, x24, [sp, #48]
     1e8:	2a0103f7 	mov	w23, w1
     1ec:	b00000c1 	adrp	x1, 19000 <_DYNAMIC>
     1f0:	2a0203f8 	mov	w24, w2
/home/jeferson/optee/optee_examples/aes/ta/aes_ta.c:420
     1f4:	71000eff 	cmp	w23, #0x3
/home/jeferson/optee/optee_examples/aes/ta/aes_ta.c:419
     1f8:	a9025bf5 	stp	x21, x22, [sp, #32]
     1fc:	aa0003f6 	mov	x22, x0
     200:	aa0103f5 	mov	x21, x1
     204:	f9409820 	ldr	x0, [x1, #304]
     208:	a90153f3 	stp	x19, x20, [sp, #16]
     20c:	d00000b4 	adrp	x20, 16000 <__text_end+0x3180>
     210:	f90023f9 	str	x25, [sp, #64]
     214:	f9400002 	ldr	x2, [x0]
     218:	f90037e2 	str	x2, [sp, #104]
     21c:	d2800002 	mov	x2, #0x0                   	// #0
/home/jeferson/optee/optee_examples/aes/ta/aes_ta.c:420
     220:	54002408 	b.hi	6a0 <__GP11_TA_InvokeCommandEntryPoint+0x4c4>  // b.pmore
     224:	d00000a0 	adrp	x0, 16000 <__text_end+0x3180>
     228:	912b8000 	add	x0, x0, #0xae0
     22c:	aa0303f3 	mov	x19, x3
     230:	78775800 	ldrh	w0, [x0, w23, uxtw #1]
     234:	10000061 	adr	x1, 240 <__GP11_TA_InvokeCommandEntryPoint+0x64>
     238:	8b20a820 	add	x0, x1, w0, sxth #2
     23c:	d61f0000 	br	x0
alloc_resources():
/home/jeferson/optee/optee_examples/aes/ta/aes_ta.c:124
     240:	912ba299 	add	x25, x20, #0xae8
     244:	aa1603e5 	mov	x5, x22
     248:	f00000a4 	adrp	x4, 17000 <gcd_pairs+0x50>
     24c:	91003084 	add	x4, x4, #0xc
     250:	52800023 	mov	w3, #0x1                   	// #1
     254:	52800062 	mov	w2, #0x3                   	// #3
     258:	52800f81 	mov	w1, #0x7c                  	// #124
     25c:	9100eb20 	add	x0, x25, #0x3a
     260:	940001c8 	bl	980 <trace_printf>
/home/jeferson/optee/optee_examples/aes/ta/aes_ta.c:128
     264:	7104471f 	cmp	w24, #0x111
     268:	540001c1 	b.ne	2a0 <__GP11_TA_InvokeCommandEntryPoint+0xc4>  // b.any
/home/jeferson/optee/optee_examples/aes/ta/aes_ta.c:131
     26c:	b9400265 	ldr	w5, [x19]
ta2tee_algo_id():
/home/jeferson/optee/optee_examples/aes/ta/aes_ta.c:59
     270:	710004bf 	cmp	w5, #0x1
     274:	540001a0 	b.eq	2a8 <__GP11_TA_InvokeCommandEntryPoint+0xcc>  // b.none
     278:	710008bf 	cmp	w5, #0x2
     27c:	54000400 	b.eq	2fc <__GP11_TA_InvokeCommandEntryPoint+0x120>  // b.none
     280:	34000425 	cbz	w5, 304 <__GP11_TA_InvokeCommandEntryPoint+0x128>
/home/jeferson/optee/optee_examples/aes/ta/aes_ta.c:70
     284:	f00000a4 	adrp	x4, 17000 <gcd_pairs+0x50>
     288:	9100c084 	add	x4, x4, #0x30
     28c:	52800023 	mov	w3, #0x1                   	// #1
     290:	52800022 	mov	w2, #0x1                   	// #1
     294:	528008c1 	mov	w1, #0x46                  	// #70
     298:	91012b20 	add	x0, x25, #0x4a
ta2tee_key_size():
/home/jeferson/optee/optee_examples/aes/ta/aes_ta.c:82
     29c:	940001b9 	bl	980 <trace_printf>
cipher_buffer():
/home/jeferson/optee/optee_examples/aes/ta/aes_ta.c:350
     2a0:	129fff33 	mov	w19, #0xffff0006            	// #-65530
     2a4:	1400003f 	b	3a0 <__GP11_TA_InvokeCommandEntryPoint+0x1c4>
ta2tee_algo_id():
/home/jeferson/optee/optee_examples/aes/ta/aes_ta.c:59
     2a8:	52802200 	mov	w0, #0x110                 	// #272
     2ac:	72a20000 	movk	w0, #0x1000, lsl #16
/home/jeferson/optee/optee_examples/aes/ta/aes_ta.c:64
     2b0:	b90002c0 	str	w0, [x22]
alloc_resources():
/home/jeferson/optee/optee_examples/aes/ta/aes_ta.c:135
     2b4:	b9401265 	ldr	w5, [x19, #16]
ta2tee_key_size():
/home/jeferson/optee/optee_examples/aes/ta/aes_ta.c:76
     2b8:	710040bf 	cmp	w5, #0x10
     2bc:	54000060 	b.eq	2c8 <__GP11_TA_InvokeCommandEntryPoint+0xec>  // b.none
     2c0:	710080bf 	cmp	w5, #0x20
     2c4:	54000241 	b.ne	30c <__GP11_TA_InvokeCommandEntryPoint+0x130>  // b.any
/home/jeferson/optee/optee_examples/aes/ta/aes_ta.c:79
     2c8:	b9000ac5 	str	w5, [x22, #8]
alloc_resources():
/home/jeferson/optee/optee_examples/aes/ta/aes_ta.c:139
     2cc:	b9402265 	ldr	w5, [x19, #32]
ta2tee_mode_id():
/home/jeferson/optee/optee_examples/aes/ta/aes_ta.c:88
     2d0:	340002e5 	cbz	w5, 32c <__GP11_TA_InvokeCommandEntryPoint+0x150>
     2d4:	710004bf 	cmp	w5, #0x1
     2d8:	540002c0 	b.eq	330 <__GP11_TA_InvokeCommandEntryPoint+0x154>  // b.none
/home/jeferson/optee/optee_examples/aes/ta/aes_ta.c:96
     2dc:	912ba280 	add	x0, x20, #0xae8
     2e0:	f00000a4 	adrp	x4, 17000 <gcd_pairs+0x50>
     2e4:	91015084 	add	x4, x4, #0x54
     2e8:	52800023 	mov	w3, #0x1                   	// #1
     2ec:	52800022 	mov	w2, #0x1                   	// #1
     2f0:	52800c01 	mov	w1, #0x60                  	// #96
     2f4:	9101a400 	add	x0, x0, #0x69
     2f8:	17ffffe9 	b	29c <__GP11_TA_InvokeCommandEntryPoint+0xc0>
ta2tee_algo_id():
/home/jeferson/optee/optee_examples/aes/ta/aes_ta.c:59
     2fc:	52804200 	mov	w0, #0x210                 	// #528
     300:	17ffffeb 	b	2ac <__GP11_TA_InvokeCommandEntryPoint+0xd0>
     304:	52800200 	mov	w0, #0x10                  	// #16
     308:	17ffffe9 	b	2ac <__GP11_TA_InvokeCommandEntryPoint+0xd0>
ta2tee_key_size():
/home/jeferson/optee/optee_examples/aes/ta/aes_ta.c:82
     30c:	912ba280 	add	x0, x20, #0xae8
     310:	f00000a4 	adrp	x4, 17000 <gcd_pairs+0x50>
     314:	91010084 	add	x4, x4, #0x40
     318:	52800023 	mov	w3, #0x1                   	// #1
     31c:	52800022 	mov	w2, #0x1                   	// #1
     320:	52800a41 	mov	w1, #0x52                  	// #82
     324:	91016400 	add	x0, x0, #0x59
     328:	17ffffdd 	b	29c <__GP11_TA_InvokeCommandEntryPoint+0xc0>
ta2tee_mode_id():
/home/jeferson/optee/optee_examples/aes/ta/aes_ta.c:88
     32c:	52800037 	mov	w23, #0x1                   	// #1
/home/jeferson/optee/optee_examples/aes/ta/aes_ta.c:90
     330:	b90006d7 	str	w23, [x22, #4]
alloc_resources():
/home/jeferson/optee/optee_examples/aes/ta/aes_ta.c:151
     334:	f9400ac0 	ldr	x0, [x22, #16]
     338:	b4000040 	cbz	x0, 340 <__GP11_TA_InvokeCommandEntryPoint+0x164>
/home/jeferson/optee/optee_examples/aes/ta/aes_ta.c:152
     33c:	94001582 	bl	5944 <__GP11_TEE_FreeOperation>
/home/jeferson/optee/optee_examples/aes/ta/aes_ta.c:155
     340:	b9400ac3 	ldr	w3, [x22, #8]
     344:	910042c0 	add	x0, x22, #0x10
     348:	29400ac1 	ldp	w1, w2, [x22]
     34c:	531d7063 	lsl	w3, w3, #3
     350:	94001268 	bl	4cf0 <TEE_AllocateOperation>
     354:	2a0003f3 	mov	w19, w0
/home/jeferson/optee/optee_examples/aes/ta/aes_ta.c:159
     358:	340003e0 	cbz	w0, 3d4 <__GP11_TA_InvokeCommandEntryPoint+0x1f8>
/home/jeferson/optee/optee_examples/aes/ta/aes_ta.c:160
     35c:	912ba280 	add	x0, x20, #0xae8
     360:	f00000a4 	adrp	x4, 17000 <gcd_pairs+0x50>
     364:	91019084 	add	x4, x4, #0x64
     368:	52800023 	mov	w3, #0x1                   	// #1
     36c:	52800022 	mov	w2, #0x1                   	// #1
     370:	52801401 	mov	w1, #0xa0                  	// #160
     374:	9100e800 	add	x0, x0, #0x3a
     378:	94000182 	bl	980 <trace_printf>
/home/jeferson/optee/optee_examples/aes/ta/aes_ta.c:161
     37c:	f9000adf 	str	xzr, [x22, #16]
/home/jeferson/optee/optee_examples/aes/ta/aes_ta.c:211
     380:	f9400ac0 	ldr	x0, [x22, #16]
     384:	b4000040 	cbz	x0, 38c <__GP11_TA_InvokeCommandEntryPoint+0x1b0>
/home/jeferson/optee/optee_examples/aes/ta/aes_ta.c:212
     388:	9400156f 	bl	5944 <__GP11_TEE_FreeOperation>
/home/jeferson/optee/optee_examples/aes/ta/aes_ta.c:213
     38c:	f9000adf 	str	xzr, [x22, #16]
/home/jeferson/optee/optee_examples/aes/ta/aes_ta.c:215
     390:	f9400ec0 	ldr	x0, [x22, #24]
     394:	b4000040 	cbz	x0, 39c <__GP11_TA_InvokeCommandEntryPoint+0x1c0>
/home/jeferson/optee/optee_examples/aes/ta/aes_ta.c:216
     398:	94000bfb 	bl	3384 <TEE_FreeTransientObject>
/home/jeferson/optee/optee_examples/aes/ta/aes_ta.c:217
     39c:	f9000edf 	str	xzr, [x22, #24]
__GP11_TA_InvokeCommandEntryPoint():
/home/jeferson/optee/optee_examples/aes/ta/aes_ta.c:433
     3a0:	f9409ab5 	ldr	x21, [x21, #304]
     3a4:	f94037e0 	ldr	x0, [sp, #104]
     3a8:	f94002a1 	ldr	x1, [x21]
     3ac:	eb010000 	subs	x0, x0, x1
     3b0:	d2800001 	mov	x1, #0x0                   	// #0
     3b4:	54001621 	b.ne	678 <__GP11_TA_InvokeCommandEntryPoint+0x49c>  // b.any
     3b8:	2a1303e0 	mov	w0, w19
     3bc:	a94153f3 	ldp	x19, x20, [sp, #16]
     3c0:	a9425bf5 	ldp	x21, x22, [sp, #32]
     3c4:	a94363f7 	ldp	x23, x24, [sp, #48]
     3c8:	f94023f9 	ldr	x25, [sp, #64]
     3cc:	a8c77bfd 	ldp	x29, x30, [sp], #112
     3d0:	d65f03c0 	ret
alloc_resources():
/home/jeferson/optee/optee_examples/aes/ta/aes_ta.c:166
     3d4:	f9400ec0 	ldr	x0, [x22, #24]
     3d8:	b4000040 	cbz	x0, 3e0 <__GP11_TA_InvokeCommandEntryPoint+0x204>
/home/jeferson/optee/optee_examples/aes/ta/aes_ta.c:167
     3dc:	94000bea 	bl	3384 <TEE_FreeTransientObject>
/home/jeferson/optee/optee_examples/aes/ta/aes_ta.c:170
     3e0:	b9400ac1 	ldr	w1, [x22, #8]
     3e4:	910062c2 	add	x2, x22, #0x18
     3e8:	52800200 	mov	w0, #0x10                  	// #16
     3ec:	72b40000 	movk	w0, #0xa000, lsl #16
     3f0:	531d7021 	lsl	w1, w1, #3
     3f4:	94000bb0 	bl	32b4 <__GP11_TEE_AllocateTransientObject>
     3f8:	2a0003f3 	mov	w19, w0
/home/jeferson/optee/optee_examples/aes/ta/aes_ta.c:173
     3fc:	34000160 	cbz	w0, 428 <__GP11_TA_InvokeCommandEntryPoint+0x24c>
/home/jeferson/optee/optee_examples/aes/ta/aes_ta.c:174
     400:	912ba280 	add	x0, x20, #0xae8
     404:	f00000a4 	adrp	x4, 17000 <gcd_pairs+0x50>
     408:	91020484 	add	x4, x4, #0x81
     40c:	52800023 	mov	w3, #0x1                   	// #1
     410:	52800022 	mov	w2, #0x1                   	// #1
     414:	528015c1 	mov	w1, #0xae                  	// #174
     418:	9100e800 	add	x0, x0, #0x3a
     41c:	94000159 	bl	980 <trace_printf>
/home/jeferson/optee/optee_examples/aes/ta/aes_ta.c:175
     420:	f9000edf 	str	xzr, [x22, #24]
/home/jeferson/optee/optee_examples/aes/ta/aes_ta.c:176
     424:	17ffffd7 	b	380 <__GP11_TA_InvokeCommandEntryPoint+0x1a4>
/home/jeferson/optee/optee_examples/aes/ta/aes_ta.c:188
     428:	b9400ac0 	ldr	w0, [x22, #8]
     42c:	52800001 	mov	w1, #0x0                   	// #0
     430:	9400096f 	bl	29ec <__GP11_TEE_Malloc>
     434:	aa0003e2 	mov	x2, x0
/home/jeferson/optee/optee_examples/aes/ta/aes_ta.c:189
     438:	b4000440 	cbz	x0, 4c0 <__GP11_TA_InvokeCommandEntryPoint+0x2e4>
/home/jeferson/optee/optee_examples/aes/ta/aes_ta.c:194
     43c:	910143f3 	add	x19, sp, #0x50
     440:	b9400ac3 	ldr	w3, [x22, #8]
     444:	52b80001 	mov	w1, #0xc0000000            	// #-1073741824
     448:	aa1303e0 	mov	x0, x19
     44c:	94000cb1 	bl	3710 <__GP11_TEE_InitRefAttribute>
/home/jeferson/optee/optee_examples/aes/ta/aes_ta.c:196
     450:	aa1303e1 	mov	x1, x19
     454:	52800022 	mov	w2, #0x1                   	// #1
     458:	f9400ec0 	ldr	x0, [x22, #24]
     45c:	94000c56 	bl	35b4 <__GP11_TEE_PopulateTransientObject>
     460:	2a0003f3 	mov	w19, w0
/home/jeferson/optee/optee_examples/aes/ta/aes_ta.c:197
     464:	34000160 	cbz	w0, 490 <__GP11_TA_InvokeCommandEntryPoint+0x2b4>
/home/jeferson/optee/optee_examples/aes/ta/aes_ta.c:198
     468:	f00000a4 	adrp	x4, 17000 <gcd_pairs+0x50>
     46c:	91029484 	add	x4, x4, #0xa5
     470:	912ba280 	add	x0, x20, #0xae8
     474:	2a1303e5 	mov	w5, w19
     478:	52800023 	mov	w3, #0x1                   	// #1
     47c:	52800022 	mov	w2, #0x1                   	// #1
     480:	528018c1 	mov	w1, #0xc6                  	// #198
/home/jeferson/optee/optee_examples/aes/ta/aes_ta.c:204
     484:	9100e800 	add	x0, x0, #0x3a
     488:	9400013e 	bl	980 <trace_printf>
/home/jeferson/optee/optee_examples/aes/ta/aes_ta.c:205
     48c:	17ffffbd 	b	380 <__GP11_TA_InvokeCommandEntryPoint+0x1a4>
/home/jeferson/optee/optee_examples/aes/ta/aes_ta.c:202
     490:	a94106c0 	ldp	x0, x1, [x22, #16]
     494:	9400163d 	bl	5d88 <__GP11_TEE_SetOperationKey>
     498:	2a0003f3 	mov	w19, w0
/home/jeferson/optee/optee_examples/aes/ta/aes_ta.c:203
     49c:	34fff820 	cbz	w0, 3a0 <__GP11_TA_InvokeCommandEntryPoint+0x1c4>
/home/jeferson/optee/optee_examples/aes/ta/aes_ta.c:204
     4a0:	f00000a4 	adrp	x4, 17000 <gcd_pairs+0x50>
     4a4:	91033084 	add	x4, x4, #0xcc
     4a8:	912ba280 	add	x0, x20, #0xae8
     4ac:	2a1303e5 	mov	w5, w19
     4b0:	52800023 	mov	w3, #0x1                   	// #1
     4b4:	52800022 	mov	w2, #0x1                   	// #1
     4b8:	52801981 	mov	w1, #0xcc                  	// #204
     4bc:	17fffff2 	b	484 <__GP11_TA_InvokeCommandEntryPoint+0x2a8>
/home/jeferson/optee/optee_examples/aes/ta/aes_ta.c:190
     4c0:	129ffe73 	mov	w19, #0xffff000c            	// #-65524
     4c4:	17ffffaf 	b	380 <__GP11_TA_InvokeCommandEntryPoint+0x1a4>
set_aes_key():
/home/jeferson/optee/optee_examples/aes/ta/aes_ta.c:240
     4c8:	912ba294 	add	x20, x20, #0xae8
     4cc:	aa1603e5 	mov	x5, x22
     4d0:	9101e294 	add	x20, x20, #0x78
     4d4:	f00000a4 	adrp	x4, 17000 <gcd_pairs+0x50>
     4d8:	9103a884 	add	x4, x4, #0xea
     4dc:	52800023 	mov	w3, #0x1                   	// #1
     4e0:	52800062 	mov	w2, #0x3                   	// #3
     4e4:	52801e01 	mov	w1, #0xf0                  	// #240
     4e8:	aa1403e0 	mov	x0, x20
     4ec:	94000125 	bl	980 <trace_printf>
/home/jeferson/optee/optee_examples/aes/ta/aes_ta.c:244
     4f0:	7100171f 	cmp	w24, #0x5
     4f4:	54ffed61 	b.ne	2a0 <__GP11_TA_InvokeCommandEntryPoint+0xc4>  // b.any
/home/jeferson/optee/optee_examples/aes/ta/aes_ta.c:248
     4f8:	b9400a63 	ldr	w3, [x19, #8]
/home/jeferson/optee/optee_examples/aes/ta/aes_ta.c:250
     4fc:	b9400ac6 	ldr	w6, [x22, #8]
/home/jeferson/optee/optee_examples/aes/ta/aes_ta.c:247
     500:	f9400262 	ldr	x2, [x19]
/home/jeferson/optee/optee_examples/aes/ta/aes_ta.c:250
     504:	6b06007f 	cmp	w3, w6
     508:	54000140 	b.eq	530 <__GP11_TA_InvokeCommandEntryPoint+0x354>  // b.none
/home/jeferson/optee/optee_examples/aes/ta/aes_ta.c:251
     50c:	2a0303e5 	mov	w5, w3
     510:	f00000a4 	adrp	x4, 17000 <gcd_pairs+0x50>
     514:	91042084 	add	x4, x4, #0x108
     518:	52800023 	mov	w3, #0x1                   	// #1
     51c:	52800022 	mov	w2, #0x1                   	// #1
     520:	52801f61 	mov	w1, #0xfb                  	// #251
cipher_buffer():
/home/jeferson/optee/optee_examples/aes/ta/aes_ta.c:348
     524:	aa1403e0 	mov	x0, x20
     528:	94000116 	bl	980 <trace_printf>
     52c:	17ffff5d 	b	2a0 <__GP11_TA_InvokeCommandEntryPoint+0xc4>
set_aes_key():
/home/jeferson/optee/optee_examples/aes/ta/aes_ta.c:273
     530:	910143f3 	add	x19, sp, #0x50
     534:	52b80001 	mov	w1, #0xc0000000            	// #-1073741824
     538:	aa1303e0 	mov	x0, x19
     53c:	94000c75 	bl	3710 <__GP11_TEE_InitRefAttribute>
/home/jeferson/optee/optee_examples/aes/ta/aes_ta.c:275
     540:	f9400ec0 	ldr	x0, [x22, #24]
     544:	94000bb4 	bl	3414 <TEE_ResetTransientObject>
/home/jeferson/optee/optee_examples/aes/ta/aes_ta.c:276
     548:	aa1303e1 	mov	x1, x19
     54c:	52800022 	mov	w2, #0x1                   	// #1
     550:	f9400ec0 	ldr	x0, [x22, #24]
     554:	94000c18 	bl	35b4 <__GP11_TEE_PopulateTransientObject>
     558:	2a0003f3 	mov	w19, w0
/home/jeferson/optee/optee_examples/aes/ta/aes_ta.c:277
     55c:	34000140 	cbz	w0, 584 <__GP11_TA_InvokeCommandEntryPoint+0x3a8>
/home/jeferson/optee/optee_examples/aes/ta/aes_ta.c:278
     560:	f00000a4 	adrp	x4, 17000 <gcd_pairs+0x50>
     564:	91029484 	add	x4, x4, #0xa5
     568:	2a0003e5 	mov	w5, w0
     56c:	52800023 	mov	w3, #0x1                   	// #1
     570:	52800022 	mov	w2, #0x1                   	// #1
     574:	528022c1 	mov	w1, #0x116                 	// #278
/home/jeferson/optee/optee_examples/aes/ta/aes_ta.c:285
     578:	aa1403e0 	mov	x0, x20
     57c:	94000101 	bl	980 <trace_printf>
/home/jeferson/optee/optee_examples/aes/ta/aes_ta.c:286
     580:	17ffff88 	b	3a0 <__GP11_TA_InvokeCommandEntryPoint+0x1c4>
/home/jeferson/optee/optee_examples/aes/ta/aes_ta.c:282
     584:	f9400ac0 	ldr	x0, [x22, #16]
     588:	9400159e 	bl	5c00 <TEE_ResetOperation>
/home/jeferson/optee/optee_examples/aes/ta/aes_ta.c:283
     58c:	a94106c0 	ldp	x0, x1, [x22, #16]
     590:	940015fe 	bl	5d88 <__GP11_TEE_SetOperationKey>
     594:	2a0003f3 	mov	w19, w0
/home/jeferson/optee/optee_examples/aes/ta/aes_ta.c:284
     598:	34fff040 	cbz	w0, 3a0 <__GP11_TA_InvokeCommandEntryPoint+0x1c4>
/home/jeferson/optee/optee_examples/aes/ta/aes_ta.c:285
     59c:	f00000a4 	adrp	x4, 17000 <gcd_pairs+0x50>
     5a0:	91033084 	add	x4, x4, #0xcc
     5a4:	2a0003e5 	mov	w5, w0
     5a8:	52800023 	mov	w3, #0x1                   	// #1
     5ac:	52800022 	mov	w2, #0x1                   	// #1
     5b0:	528023a1 	mov	w1, #0x11d                 	// #285
     5b4:	17fffff1 	b	578 <__GP11_TA_InvokeCommandEntryPoint+0x39c>
reset_aes_iv():
/home/jeferson/optee/optee_examples/aes/ta/aes_ta.c:308
     5b8:	912ba280 	add	x0, x20, #0xae8
     5bc:	aa1603e5 	mov	x5, x22
     5c0:	f00000a4 	adrp	x4, 17000 <gcd_pairs+0x50>
     5c4:	9104ac84 	add	x4, x4, #0x12b
     5c8:	52800023 	mov	w3, #0x1                   	// #1
     5cc:	52800062 	mov	w2, #0x3                   	// #3
     5d0:	52802681 	mov	w1, #0x134                 	// #308
     5d4:	91021000 	add	x0, x0, #0x84
     5d8:	940000ea 	bl	980 <trace_printf>
/home/jeferson/optee/optee_examples/aes/ta/aes_ta.c:312
     5dc:	7100171f 	cmp	w24, #0x5
     5e0:	54ffe601 	b.ne	2a0 <__GP11_TA_InvokeCommandEntryPoint+0xc4>  // b.any
/home/jeferson/optee/optee_examples/aes/ta/aes_ta.c:321
     5e4:	b9400a62 	ldr	w2, [x19, #8]
     5e8:	f9400261 	ldr	x1, [x19]
/home/jeferson/optee/optee_examples/aes/ta/aes_ta.c:323
     5ec:	52800013 	mov	w19, #0x0                   	// #0
/home/jeferson/optee/optee_examples/aes/ta/aes_ta.c:321
     5f0:	f9400ac0 	ldr	x0, [x22, #16]
     5f4:	940017a9 	bl	6498 <__GP11_TEE_CipherInit>
/home/jeferson/optee/optee_examples/aes/ta/aes_ta.c:323
     5f8:	17ffff6a 	b	3a0 <__GP11_TA_InvokeCommandEntryPoint+0x1c4>
cipher_buffer():
/home/jeferson/optee/optee_examples/aes/ta/aes_ta.c:340
     5fc:	912ba294 	add	x20, x20, #0xae8
     600:	aa1603e5 	mov	x5, x22
     604:	91024694 	add	x20, x20, #0x91
     608:	f00000a4 	adrp	x4, 17000 <gcd_pairs+0x50>
     60c:	91053084 	add	x4, x4, #0x14c
     610:	52800023 	mov	w3, #0x1                   	// #1
     614:	52800062 	mov	w2, #0x3                   	// #3
     618:	52802a81 	mov	w1, #0x154                 	// #340
     61c:	aa1403e0 	mov	x0, x20
     620:	940000d8 	bl	980 <trace_printf>
/home/jeferson/optee/optee_examples/aes/ta/aes_ta.c:344
     624:	7101971f 	cmp	w24, #0x65
     628:	54ffe3c1 	b.ne	2a0 <__GP11_TA_InvokeCommandEntryPoint+0xc4>  // b.any
/home/jeferson/optee/optee_examples/aes/ta/aes_ta.c:347
     62c:	b9400a62 	ldr	w2, [x19, #8]
     630:	b9401a66 	ldr	w6, [x19, #24]
     634:	6b0200df 	cmp	w6, w2
     638:	54000102 	b.cs	658 <__GP11_TA_InvokeCommandEntryPoint+0x47c>  // b.hs, b.nlast
/home/jeferson/optee/optee_examples/aes/ta/aes_ta.c:348
     63c:	2a0203e5 	mov	w5, w2
     640:	f00000a4 	adrp	x4, 17000 <gcd_pairs+0x50>
     644:	91059884 	add	x4, x4, #0x166
     648:	52800023 	mov	w3, #0x1                   	// #1
     64c:	52800022 	mov	w2, #0x1                   	// #1
     650:	52802b81 	mov	w1, #0x15c                 	// #348
     654:	17ffffb4 	b	524 <__GP11_TA_InvokeCommandEntryPoint+0x348>
/home/jeferson/optee/optee_examples/aes/ta/aes_ta.c:353
     658:	f9400ac0 	ldr	x0, [x22, #16]
     65c:	b4000380 	cbz	x0, 6cc <__GP11_TA_InvokeCommandEntryPoint+0x4f0>
/home/jeferson/optee/optee_examples/aes/ta/aes_ta.c:359
     660:	f9409ab5 	ldr	x21, [x21, #304]
     664:	f94037e1 	ldr	x1, [sp, #104]
     668:	f94002a3 	ldr	x3, [x21]
     66c:	eb030021 	subs	x1, x1, x3
     670:	d2800003 	mov	x3, #0x0                   	// #0
     674:	54000040 	b.eq	67c <__GP11_TA_InvokeCommandEntryPoint+0x4a0>  // b.none
__GP11_TA_InvokeCommandEntryPoint():
/home/jeferson/optee/optee_examples/aes/ta/aes_ta.c:433
     678:	94000024 	bl	708 <__stack_chk_fail>
cipher_buffer():
/home/jeferson/optee/optee_examples/aes/ta/aes_ta.c:359
     67c:	91006264 	add	x4, x19, #0x18
     680:	f9400261 	ldr	x1, [x19]
__GP11_TA_InvokeCommandEntryPoint():
/home/jeferson/optee/optee_examples/aes/ta/aes_ta.c:433
     684:	a9425bf5 	ldp	x21, x22, [sp, #32]
     688:	a94363f7 	ldp	x23, x24, [sp, #48]
cipher_buffer():
/home/jeferson/optee/optee_examples/aes/ta/aes_ta.c:359
     68c:	f9400a63 	ldr	x3, [x19, #16]
__GP11_TA_InvokeCommandEntryPoint():
/home/jeferson/optee/optee_examples/aes/ta/aes_ta.c:433
     690:	a94153f3 	ldp	x19, x20, [sp, #16]
     694:	f94023f9 	ldr	x25, [sp, #64]
     698:	a8c77bfd 	ldp	x29, x30, [sp], #112
cipher_buffer():
/home/jeferson/optee/optee_examples/aes/ta/aes_ta.c:359
     69c:	140017e6 	b	6634 <__GP11_TEE_CipherUpdate>
__GP11_TA_InvokeCommandEntryPoint():
/home/jeferson/optee/optee_examples/aes/ta/aes_ta.c:430
     6a0:	912ba280 	add	x0, x20, #0xae8
     6a4:	2a1703e5 	mov	w5, w23
     6a8:	f00000a4 	adrp	x4, 17000 <gcd_pairs+0x50>
     6ac:	9105fc84 	add	x4, x4, #0x17f
     6b0:	52800023 	mov	w3, #0x1                   	// #1
     6b4:	52800022 	mov	w2, #0x1                   	// #1
     6b8:	528035c1 	mov	w1, #0x1ae                 	// #430
     6bc:	91027c00 	add	x0, x0, #0x9f
/home/jeferson/optee/optee_examples/aes/ta/aes_ta.c:431
     6c0:	129ffeb3 	mov	w19, #0xffff000a            	// #-65526
/home/jeferson/optee/optee_examples/aes/ta/aes_ta.c:430
     6c4:	940000af 	bl	980 <trace_printf>
/home/jeferson/optee/optee_examples/aes/ta/aes_ta.c:431
     6c8:	17ffff36 	b	3a0 <__GP11_TA_InvokeCommandEntryPoint+0x1c4>
cipher_buffer():
/home/jeferson/optee/optee_examples/aes/ta/aes_ta.c:354
     6cc:	129fff13 	mov	w19, #0xffff0007            	// #-65529
     6d0:	17ffff34 	b	3a0 <__GP11_TA_InvokeCommandEntryPoint+0x1c4>

00000000000006d4 <__ta_entry>:
__ta_entry():
/home/jeferson/optee/optee_os-rpi4/out/arm-plat-rpi4/export-ta_arm64/src/user_ta_header.c:51
     6d4:	a9bf7bfd 	stp	x29, x30, [sp, #-16]!
     6d8:	910003fd 	mov	x29, sp
/home/jeferson/optee/optee_os-rpi4/out/arm-plat-rpi4/export-ta_arm64/src/user_ta_header.c:70
     6dc:	940023e7 	bl	9678 <__utee_entry>
/home/jeferson/optee/optee_os-rpi4/out/arm-plat-rpi4/export-ta_arm64/src/user_ta_header.c:81
     6e0:	2a0003e0 	mov	w0, w0
     6e4:	9400220f 	bl	8f20 <_utee_return>

00000000000006e8 <tahead_get_trace_level>:
tahead_get_trace_level():
/home/jeferson/optee/optee_os-rpi4/out/arm-plat-rpi4/export-ta_arm64/src/user_ta_header.c:193
     6e8:	52800080 	mov	w0, #0x4                   	// #4
     6ec:	d65f03c0 	ret

00000000000006f0 <TA_OpenSessionEntryPoint>:
TA_OpenSessionEntryPoint():
/home/jeferson/optee/optee_os-rpi4/out/arm-plat-rpi4/export-ta_arm64/src/user_ta_header.c:203
     6f0:	b00000c3 	adrp	x3, 19000 <_DYNAMIC>
     6f4:	f940cc63 	ldr	x3, [x3, #408]
     6f8:	140024b4 	b	99c8 <__ta_open_sess>

00000000000006fc <TA_InvokeCommandEntryPoint>:
TA_InvokeCommandEntryPoint():
/home/jeferson/optee/optee_os-rpi4/out/arm-plat-rpi4/export-ta_arm64/src/user_ta_header.c:211
     6fc:	b00000c4 	adrp	x4, 19000 <_DYNAMIC>
     700:	f940c084 	ldr	x4, [x4, #384]
     704:	140024d8 	b	9a64 <__ta_invoke_cmd>

0000000000000708 <__stack_chk_fail>:
__stack_chk_fail():
/home/jeferson/optee/optee_os-rpi4/lib/libutils/isoc/stack_check.c:24
     708:	a9bf7bfd 	stp	x29, x30, [sp, #-16]!
/home/jeferson/optee/optee_os-rpi4/lib/libutils/isoc/stack_check.c:25
     70c:	f00000a4 	adrp	x4, 17000 <gcd_pairs+0x50>
     710:	52800023 	mov	w3, #0x1                   	// #1
/home/jeferson/optee/optee_os-rpi4/lib/libutils/isoc/stack_check.c:24
     714:	910003fd 	mov	x29, sp
/home/jeferson/optee/optee_os-rpi4/lib/libutils/isoc/stack_check.c:25
     718:	910b2484 	add	x4, x4, #0x2c9
     71c:	52800022 	mov	w2, #0x1                   	// #1
     720:	52800001 	mov	w1, #0x0                   	// #0
     724:	d2800000 	mov	x0, #0x0                   	// #0
     728:	94000096 	bl	980 <trace_printf>
/home/jeferson/optee/optee_os-rpi4/lib/libutils/isoc/stack_check.c:27 (discriminator 1)
     72c:	1299fe00 	mov	w0, #0xffff300f            	// #-53233
     730:	940021f9 	bl	8f14 <_utee_panic>
/home/jeferson/optee/optee_os-rpi4/lib/libutils/isoc/stack_check.c:26 (discriminator 1)
     734:	17fffffe 	b	72c <__stack_chk_fail+0x24>

0000000000000738 <trace_set_level>:
trace_set_level():
/home/jeferson/optee/optee_os-rpi4/lib/libutils/ext/trace.c:28
     738:	7100141f 	cmp	w0, #0x5
     73c:	52800081 	mov	w1, #0x4                   	// #4
     740:	1a813000 	csel	w0, w0, w1, cc  // cc = lo, ul, last
     744:	b00000c1 	adrp	x1, 19000 <_DYNAMIC>
     748:	f940a821 	ldr	x1, [x1, #336]
     74c:	b9000020 	str	w0, [x1]
/home/jeferson/optee/optee_os-rpi4/lib/libutils/ext/trace.c:29
     750:	d65f03c0 	ret

0000000000000754 <trace_get_level>:
trace_get_level():
/home/jeferson/optee/optee_os-rpi4/lib/libutils/ext/trace.c:33
     754:	b00000c0 	adrp	x0, 19000 <_DYNAMIC>
/home/jeferson/optee/optee_os-rpi4/lib/libutils/ext/trace.c:34
     758:	f940a800 	ldr	x0, [x0, #336]
     75c:	b9400000 	ldr	w0, [x0]
     760:	d65f03c0 	ret

0000000000000764 <trace_vprintf>:
trace_vprintf():
/home/jeferson/optee/optee_os-rpi4/lib/libutils/ext/trace.c:113
     764:	a9a77bfd 	stp	x29, x30, [sp, #-400]!
     768:	910003fd 	mov	x29, sp
     76c:	a9046bf9 	stp	x25, x26, [sp, #64]
     770:	2a0103f9 	mov	w25, w1
     774:	b00000c1 	adrp	x1, 19000 <_DYNAMIC>
     778:	a9025bf5 	stp	x21, x22, [sp, #32]
     77c:	aa0003f6 	mov	x22, x0
     780:	aa0103f5 	mov	x21, x1
     784:	f9409820 	ldr	x0, [x1, #304]
     788:	a90153f3 	stp	x19, x20, [sp, #16]
     78c:	2a0203f3 	mov	w19, w2
     790:	a90363f7 	stp	x23, x24, [sp, #48]
     794:	aa0403f7 	mov	x23, x4
     798:	aa0503f8 	mov	x24, x5
     79c:	a90573fb 	stp	x27, x28, [sp, #80]
/home/jeferson/optee/optee_os-rpi4/lib/libutils/ext/trace.c:118
     7a0:	72001c7b 	ands	w27, w3, #0xff
/home/jeferson/optee/optee_os-rpi4/lib/libutils/ext/trace.c:113
     7a4:	f9400002 	ldr	x2, [x0]
     7a8:	f900c7e2 	str	x2, [sp, #392]
     7ac:	d2800002 	mov	x2, #0x0                   	// #0
/home/jeferson/optee/optee_os-rpi4/lib/libutils/ext/trace.c:118
     7b0:	54000b20 	b.eq	914 <trace_vprintf+0x1b0>  // b.none
/home/jeferson/optee/optee_os-rpi4/lib/libutils/ext/trace.c:118 (discriminator 1)
     7b4:	f940a820 	ldr	x0, [x1, #336]
     7b8:	b9400000 	ldr	w0, [x0]
     7bc:	6b13001f 	cmp	w0, w19
     7c0:	540009cb 	b.lt	8f8 <trace_vprintf+0x194>  // b.tstop
trace_level_to_string():
/home/jeferson/optee/optee_os-rpi4/lib/libutils/ext/trace.c:51
     7c4:	7100127f 	cmp	w19, #0x4
/home/jeferson/optee/optee_os-rpi4/lib/libutils/ext/trace.c:54
     7c8:	f00000a0 	adrp	x0, 17000 <gcd_pairs+0x50>
/home/jeferson/optee/optee_os-rpi4/lib/libutils/ext/trace.c:51
     7cc:	1a9f9261 	csel	w1, w19, wzr, ls  // ls = plast
/home/jeferson/optee/optee_os-rpi4/lib/libutils/ext/trace.c:54
     7d0:	910bec00 	add	x0, x0, #0x2fb
     7d4:	3861c803 	ldrb	w3, [x0, w1, sxtw]
trace_vprintf():
/home/jeferson/optee/optee_os-rpi4/lib/libutils/ext/trace.c:122
     7d8:	910223f4 	add	x20, sp, #0x88
     7dc:	f00000a2 	adrp	x2, 17000 <gcd_pairs+0x50>
     7e0:	aa1403e0 	mov	x0, x20
     7e4:	910b8442 	add	x2, x2, #0x2e1
     7e8:	d2802001 	mov	x1, #0x100                 	// #256
     7ec:	940000e6 	bl	b84 <snprintk>
/home/jeferson/optee/optee_os-rpi4/lib/libutils/ext/trace.c:124
     7f0:	37f80840 	tbnz	w0, #31, 8f8 <trace_vprintf+0x194>
/home/jeferson/optee/optee_os-rpi4/lib/libutils/ext/trace.c:129
     7f4:	f940b2a3 	ldr	x3, [x21, #352]
     7f8:	d280201c 	mov	x28, #0x100                 	// #256
/home/jeferson/optee/optee_os-rpi4/lib/libutils/ext/trace.c:126
     7fc:	93407c1a 	sxtw	x26, w0
/home/jeferson/optee/optee_os-rpi4/lib/libutils/ext/trace.c:129
     800:	cb20c381 	sub	x1, x28, w0, sxtw
     804:	f00000a2 	adrp	x2, 17000 <gcd_pairs+0x50>
     808:	8b20c280 	add	x0, x20, w0, sxtw
     80c:	910b9442 	add	x2, x2, #0x2e5
     810:	940000dd 	bl	b84 <snprintk>
/home/jeferson/optee/optee_os-rpi4/lib/libutils/ext/trace.c:131
     814:	37f80720 	tbnz	w0, #31, 8f8 <trace_vprintf+0x194>
/home/jeferson/optee/optee_os-rpi4/lib/libutils/ext/trace.c:133
     818:	8b20c35a 	add	x26, x26, w0, sxtw
/home/jeferson/optee/optee_os-rpi4/lib/libutils/ext/trace.c:135
     81c:	3400093b 	cbz	w27, 940 <trace_vprintf+0x1dc>
/home/jeferson/optee/optee_os-rpi4/lib/libutils/ext/trace.c:135 (discriminator 1)
     820:	52800340 	mov	w0, #0x1a                  	// #26
     824:	1ad32400 	lsr	w0, w0, w19
     828:	360008c0 	tbz	w0, #0, 940 <trace_vprintf+0x1dc>
print_thread_id():
/home/jeferson/optee/optee_os-rpi4/lib/libutils/ext/trace.c:66
     82c:	9400042a 	bl	18d4 <trace_ext_get_thread_id>
trace_vprintf():
/home/jeferson/optee/optee_os-rpi4/lib/libutils/ext/trace.c:137
     830:	8b1a029b 	add	x27, x20, x26
     834:	cb1a039c 	sub	x28, x28, x26
print_thread_id():
/home/jeferson/optee/optee_os-rpi4/lib/libutils/ext/trace.c:66
     838:	2a0003e4 	mov	w4, w0
/home/jeferson/optee/optee_os-rpi4/lib/libutils/ext/trace.c:68
     83c:	37f80700 	tbnz	w0, #31, 91c <trace_vprintf+0x1b8>
/home/jeferson/optee/optee_os-rpi4/lib/libutils/ext/trace.c:69
     840:	f00000a2 	adrp	x2, 17000 <gcd_pairs+0x50>
     844:	aa1c03e1 	mov	x1, x28
     848:	910ba442 	add	x2, x2, #0x2e9
     84c:	aa1b03e0 	mov	x0, x27
     850:	52800023 	mov	w3, #0x1                   	// #1
     854:	940000cc 	bl	b84 <snprintk>
trace_vprintf():
/home/jeferson/optee/optee_os-rpi4/lib/libutils/ext/trace.c:144
     858:	37f80500 	tbnz	w0, #31, 8f8 <trace_vprintf+0x194>
/home/jeferson/optee/optee_os-rpi4/lib/libutils/ext/trace.c:146
     85c:	8b20c353 	add	x19, x26, w0, sxtw
/home/jeferson/optee/optee_os-rpi4/lib/libutils/ext/trace.c:148
     860:	b4000176 	cbz	x22, 88c <trace_vprintf+0x128>
/home/jeferson/optee/optee_os-rpi4/lib/libutils/ext/trace.c:149
     864:	f00000a2 	adrp	x2, 17000 <gcd_pairs+0x50>
     868:	d2802001 	mov	x1, #0x100                 	// #256
     86c:	2a1903e4 	mov	w4, w25
     870:	aa1603e3 	mov	x3, x22
     874:	910bd042 	add	x2, x2, #0x2f4
     878:	cb130021 	sub	x1, x1, x19
     87c:	8b130280 	add	x0, x20, x19
     880:	940000c1 	bl	b84 <snprintk>
/home/jeferson/optee/optee_os-rpi4/lib/libutils/ext/trace.c:151
     884:	37f803a0 	tbnz	w0, #31, 8f8 <trace_vprintf+0x194>
/home/jeferson/optee/optee_os-rpi4/lib/libutils/ext/trace.c:153
     888:	8b20c273 	add	x19, x19, w0, sxtw
/home/jeferson/optee/optee_os-rpi4/lib/libutils/ext/trace.c:163
     88c:	910183e3 	add	x3, sp, #0x60
     890:	aa1803e1 	mov	x1, x24
     894:	aa0303e0 	mov	x0, x3
     898:	d2800402 	mov	x2, #0x20                  	// #32
     89c:	97fffde1 	bl	20 <memcpy>
     8a0:	aa0003e3 	mov	x3, x0
     8a4:	d2802001 	mov	x1, #0x100                 	// #256
     8a8:	aa1703e2 	mov	x2, x23
     8ac:	cb130021 	sub	x1, x1, x19
     8b0:	8b130280 	add	x0, x20, x19
     8b4:	9400009e 	bl	b2c <vsnprintk>
/home/jeferson/optee/optee_os-rpi4/lib/libutils/ext/trace.c:164
     8b8:	7100001f 	cmp	w0, #0x0
     8bc:	5400004d 	b.le	8c4 <trace_vprintf+0x160>
/home/jeferson/optee/optee_os-rpi4/lib/libutils/ext/trace.c:165
     8c0:	8b20c273 	add	x19, x19, w0, sxtw
/home/jeferson/optee/optee_os-rpi4/lib/libutils/ext/trace.c:167
     8c4:	f103fa7f 	cmp	x19, #0xfe
     8c8:	d2801fc0 	mov	x0, #0xfe                  	// #254
     8cc:	9a809273 	csel	x19, x19, x0, ls  // ls = plast
/home/jeferson/optee/optee_os-rpi4/lib/libutils/ext/trace.c:170
     8d0:	52800140 	mov	w0, #0xa                   	// #10
     8d4:	38336a80 	strb	w0, [x20, x19]
/home/jeferson/optee/optee_os-rpi4/lib/libutils/ext/trace.c:171
     8d8:	b4000093 	cbz	x19, 8e8 <trace_vprintf+0x184>
/home/jeferson/optee/optee_os-rpi4/lib/libutils/ext/trace.c:171 (discriminator 1)
     8dc:	38736a80 	ldrb	w0, [x20, x19]
     8e0:	7100281f 	cmp	w0, #0xa
     8e4:	540003c0 	b.eq	95c <trace_vprintf+0x1f8>  // b.none
/home/jeferson/optee/optee_os-rpi4/lib/libutils/ext/trace.c:174
     8e8:	91022be0 	add	x0, sp, #0x8a
     8ec:	3833681f 	strb	wzr, [x0, x19]
/home/jeferson/optee/optee_os-rpi4/lib/libutils/ext/trace.c:176
     8f0:	aa1403e0 	mov	x0, x20
     8f4:	940003ee 	bl	18ac <trace_ext_puts>
/home/jeferson/optee/optee_os-rpi4/lib/libutils/ext/trace.c:177
     8f8:	f9409ab5 	ldr	x21, [x21, #304]
     8fc:	f940c7e0 	ldr	x0, [sp, #392]
     900:	f94002a1 	ldr	x1, [x21]
     904:	eb010000 	subs	x0, x0, x1
     908:	d2800001 	mov	x1, #0x0                   	// #0
     90c:	540002c0 	b.eq	964 <trace_vprintf+0x200>  // b.none
     910:	97ffff7e 	bl	708 <__stack_chk_fail>
trace_level_to_string():
/home/jeferson/optee/optee_os-rpi4/lib/libutils/ext/trace.c:49
     914:	528009a3 	mov	w3, #0x4d                  	// #77
     918:	17ffffb0 	b	7d8 <trace_vprintf+0x74>
print_thread_id():
/home/jeferson/optee/optee_os-rpi4/lib/libutils/ext/trace.c:71
     91c:	aa1c03e1 	mov	x1, x28
     920:	aa1b03e0 	mov	x0, x27
     924:	f00000a4 	adrp	x4, 17000 <gcd_pairs+0x50>
     928:	52800023 	mov	w3, #0x1                   	// #1
     92c:	91303084 	add	x4, x4, #0xc0c
     930:	f00000a2 	adrp	x2, 17000 <gcd_pairs+0x50>
     934:	910bbc42 	add	x2, x2, #0x2ef
     938:	94000093 	bl	b84 <snprintk>
     93c:	17ffffc7 	b	858 <trace_vprintf+0xf4>
trace_vprintf():
/home/jeferson/optee/optee_os-rpi4/lib/libutils/ext/trace.c:157
     940:	f103fb5f 	cmp	x26, #0xfe
     944:	54fffda8 	b.hi	8f8 <trace_vprintf+0x194>  // b.pmore
/home/jeferson/optee/optee_os-rpi4/lib/libutils/ext/trace.c:159
     948:	91000753 	add	x19, x26, #0x1
     94c:	52800400 	mov	w0, #0x20                  	// #32
     950:	383a6a80 	strb	w0, [x20, x26]
/home/jeferson/optee/optee_os-rpi4/lib/libutils/ext/trace.c:160
     954:	38336a9f 	strb	wzr, [x20, x19]
     958:	17ffffcd 	b	88c <trace_vprintf+0x128>
/home/jeferson/optee/optee_os-rpi4/lib/libutils/ext/trace.c:172
     95c:	d1000673 	sub	x19, x19, #0x1
     960:	17ffffde 	b	8d8 <trace_vprintf+0x174>
/home/jeferson/optee/optee_os-rpi4/lib/libutils/ext/trace.c:177
     964:	a94153f3 	ldp	x19, x20, [sp, #16]
     968:	a9425bf5 	ldp	x21, x22, [sp, #32]
     96c:	a94363f7 	ldp	x23, x24, [sp, #48]
     970:	a9446bf9 	ldp	x25, x26, [sp, #64]
     974:	a94573fb 	ldp	x27, x28, [sp, #80]
     978:	a8d97bfd 	ldp	x29, x30, [sp], #400
     97c:	d65f03c0 	ret

0000000000000980 <trace_printf>:
trace_printf():
/home/jeferson/optee/optee_os-rpi4/lib/libutils/ext/trace.c:104
     980:	a9ad7bfd 	stp	x29, x30, [sp, #-304]!
     984:	910003fd 	mov	x29, sp
     988:	a90153f3 	stp	x19, x20, [sp, #16]
     98c:	b00000d3 	adrp	x19, 19000 <_DYNAMIC>
     990:	aa0003f4 	mov	x20, x0
     994:	f9409a60 	ldr	x0, [x19, #304]
     998:	a9025bf5 	stp	x21, x22, [sp, #32]
     99c:	2a0103f5 	mov	w21, w1
     9a0:	a90363f7 	stp	x23, x24, [sp, #48]
     9a4:	2a0203f6 	mov	w22, w2
     9a8:	12001c78 	and	w24, w3, #0xff
     9ac:	3d8027e0 	str	q0, [sp, #144]
     9b0:	aa0403f7 	mov	x23, x4
/home/jeferson/optee/optee_os-rpi4/lib/libutils/ext/trace.c:108
     9b4:	d2800402 	mov	x2, #0x20                  	// #32
/home/jeferson/optee/optee_os-rpi4/lib/libutils/ext/trace.c:104
     9b8:	3d802be1 	str	q1, [sp, #160]
     9bc:	3d802fe2 	str	q2, [sp, #176]
     9c0:	3d8033e3 	str	q3, [sp, #192]
     9c4:	3d8037e4 	str	q4, [sp, #208]
     9c8:	3d803be5 	str	q5, [sp, #224]
     9cc:	3d803fe6 	str	q6, [sp, #240]
     9d0:	3d8043e7 	str	q7, [sp, #256]
     9d4:	a9119be5 	stp	x5, x6, [sp, #280]
/home/jeferson/optee/optee_os-rpi4/lib/libutils/ext/trace.c:108
     9d8:	910103e5 	add	x5, sp, #0x40
/home/jeferson/optee/optee_os-rpi4/lib/libutils/ext/trace.c:104
     9dc:	f90097e7 	str	x7, [sp, #296]
     9e0:	f9400001 	ldr	x1, [x0]
     9e4:	f90047e1 	str	x1, [sp, #136]
     9e8:	d2800001 	mov	x1, #0x0                   	// #0
/home/jeferson/optee/optee_os-rpi4/lib/libutils/ext/trace.c:107
     9ec:	9104c3e0 	add	x0, sp, #0x130
     9f0:	a90683e0 	stp	x0, x0, [sp, #104]
     9f4:	910443e0 	add	x0, sp, #0x110
/home/jeferson/optee/optee_os-rpi4/lib/libutils/ext/trace.c:108
     9f8:	9101a3e1 	add	x1, sp, #0x68
/home/jeferson/optee/optee_os-rpi4/lib/libutils/ext/trace.c:107
     9fc:	f9003fe0 	str	x0, [sp, #120]
     a00:	128002e0 	mov	w0, #0xffffffe8            	// #-24
     a04:	b90083e0 	str	w0, [sp, #128]
     a08:	12800fe0 	mov	w0, #0xffffff80            	// #-128
     a0c:	b90087e0 	str	w0, [sp, #132]
/home/jeferson/optee/optee_os-rpi4/lib/libutils/ext/trace.c:108
     a10:	aa0503e0 	mov	x0, x5
     a14:	97fffd83 	bl	20 <memcpy>
     a18:	aa0003e5 	mov	x5, x0
     a1c:	2a1503e1 	mov	w1, w21
     a20:	aa1403e0 	mov	x0, x20
     a24:	aa1703e4 	mov	x4, x23
     a28:	2a1803e3 	mov	w3, w24
     a2c:	2a1603e2 	mov	w2, w22
     a30:	97ffff4d 	bl	764 <trace_vprintf>
/home/jeferson/optee/optee_os-rpi4/lib/libutils/ext/trace.c:110
     a34:	f9409a73 	ldr	x19, [x19, #304]
     a38:	f94047e0 	ldr	x0, [sp, #136]
     a3c:	f9400261 	ldr	x1, [x19]
     a40:	eb010000 	subs	x0, x0, x1
     a44:	d2800001 	mov	x1, #0x0                   	// #0
     a48:	54000040 	b.eq	a50 <trace_printf+0xd0>  // b.none
     a4c:	97ffff2f 	bl	708 <__stack_chk_fail>
     a50:	a94153f3 	ldp	x19, x20, [sp, #16]
     a54:	a9425bf5 	ldp	x21, x22, [sp, #32]
     a58:	a94363f7 	ldp	x23, x24, [sp, #48]
     a5c:	a8d37bfd 	ldp	x29, x30, [sp], #304
     a60:	d65f03c0 	ret

0000000000000a64 <dhex_dump>:
dhex_dump():
/home/jeferson/optee/optee_os-rpi4/lib/libutils/ext/trace.c:287
     a64:	d65f03c0 	ret

0000000000000a68 <__vsnprintf>:
__vsnprintf():
/home/jeferson/optee/optee_os-rpi4/lib/libutils/ext/snprintk.c:138
     a68:	a9b97bfd 	stp	x29, x30, [sp, #-112]!
     a6c:	b00000c5 	adrp	x5, 19000 <_DYNAMIC>
     a70:	910003fd 	mov	x29, sp
     a74:	f94098a5 	ldr	x5, [x5, #304]
     a78:	a90153f3 	stp	x19, x20, [sp, #16]
     a7c:	aa0103f4 	mov	x20, x1
     a80:	a9025bf5 	stp	x21, x22, [sp, #32]
     a84:	aa0003f3 	mov	x19, x0
/home/jeferson/optee/optee_os-rpi4/lib/libutils/ext/snprintk.c:142
     a88:	8b140016 	add	x22, x0, x20
/home/jeferson/optee/optee_os-rpi4/lib/libutils/ext/snprintk.c:138
     a8c:	f9001bf7 	str	x23, [sp, #48]
     a90:	aa0303e1 	mov	x1, x3
     a94:	aa0203f5 	mov	x21, x2
     a98:	12001c97 	and	w23, w4, #0xff
     a9c:	f94000a0 	ldr	x0, [x5]
     aa0:	f90037e0 	str	x0, [sp, #104]
     aa4:	d2800000 	mov	x0, #0x0                   	// #0
/home/jeferson/optee/optee_os-rpi4/lib/libutils/ext/snprintk.c:143
     aa8:	910103e5 	add	x5, sp, #0x40
     aac:	aa0503e0 	mov	x0, x5
     ab0:	d2800402 	mov	x2, #0x20                  	// #32
/home/jeferson/optee/optee_os-rpi4/lib/libutils/ext/snprintk.c:142
     ab4:	f90033f6 	str	x22, [sp, #96]
/home/jeferson/optee/optee_os-rpi4/lib/libutils/ext/snprintk.c:143
     ab8:	97fffd5a 	bl	20 <memcpy>
     abc:	aa0003e3 	mov	x3, x0
     ac0:	2a1703e4 	mov	w4, w23
     ac4:	aa1303e2 	mov	x2, x19
     ac8:	910183e1 	add	x1, sp, #0x60
     acc:	aa1503e0 	mov	x0, x21
     ad0:	94000061 	bl	c54 <kprintf.constprop.0>
/home/jeferson/optee/optee_os-rpi4/lib/libutils/ext/snprintk.c:144
     ad4:	f100027f 	cmp	x19, #0x0
     ad8:	fa401a84 	ccmp	x20, #0x0, #0x4, ne  // ne = any
     adc:	540000a0 	b.eq	af0 <__vsnprintf+0x88>  // b.none
/home/jeferson/optee/optee_os-rpi4/lib/libutils/ext/snprintk.c:146
     ae0:	93407c01 	sxtw	x1, w0
     ae4:	eb20c29f 	cmp	x20, w0, sxtw
     ae8:	54000148 	b.hi	b10 <__vsnprintf+0xa8>  // b.pmore
/home/jeferson/optee/optee_os-rpi4/lib/libutils/ext/snprintk.c:147
     aec:	381ff2df 	sturb	wzr, [x22, #-1]
/home/jeferson/optee/optee_os-rpi4/lib/libutils/ext/snprintk.c:152
     af0:	b00000c5 	adrp	x5, 19000 <_DYNAMIC>
     af4:	f94098a5 	ldr	x5, [x5, #304]
     af8:	f94037e1 	ldr	x1, [sp, #104]
     afc:	f94000a2 	ldr	x2, [x5]
     b00:	eb020021 	subs	x1, x1, x2
     b04:	d2800002 	mov	x2, #0x0                   	// #0
     b08:	54000080 	b.eq	b18 <__vsnprintf+0xb0>  // b.none
     b0c:	97fffeff 	bl	708 <__stack_chk_fail>
/home/jeferson/optee/optee_os-rpi4/lib/libutils/ext/snprintk.c:149
     b10:	38216a7f 	strb	wzr, [x19, x1]
/home/jeferson/optee/optee_os-rpi4/lib/libutils/ext/snprintk.c:151
     b14:	17fffff7 	b	af0 <__vsnprintf+0x88>
/home/jeferson/optee/optee_os-rpi4/lib/libutils/ext/snprintk.c:152
     b18:	a94153f3 	ldp	x19, x20, [sp, #16]
     b1c:	a9425bf5 	ldp	x21, x22, [sp, #32]
     b20:	f9401bf7 	ldr	x23, [sp, #48]
     b24:	a8c77bfd 	ldp	x29, x30, [sp], #112
     b28:	d65f03c0 	ret

0000000000000b2c <vsnprintk>:
vsnprintk():
/home/jeferson/optee/optee_os-rpi4/lib/libutils/ext/snprintk.c:130
     b2c:	a9bb7bfd 	stp	x29, x30, [sp, #-80]!
/home/jeferson/optee/optee_os-rpi4/lib/libutils/ext/snprintk.c:131
     b30:	9100c3e4 	add	x4, sp, #0x30
/home/jeferson/optee/optee_os-rpi4/lib/libutils/ext/snprintk.c:130
     b34:	910003fd 	mov	x29, sp
     b38:	a90153f3 	stp	x19, x20, [sp, #16]
     b3c:	aa0003f3 	mov	x19, x0
     b40:	aa0103f4 	mov	x20, x1
/home/jeferson/optee/optee_os-rpi4/lib/libutils/ext/snprintk.c:131
     b44:	aa0403e0 	mov	x0, x4
/home/jeferson/optee/optee_os-rpi4/lib/libutils/ext/snprintk.c:130
     b48:	aa0303e1 	mov	x1, x3
     b4c:	f90013f5 	str	x21, [sp, #32]
     b50:	aa0203f5 	mov	x21, x2
/home/jeferson/optee/optee_os-rpi4/lib/libutils/ext/snprintk.c:131
     b54:	d2800402 	mov	x2, #0x20                  	// #32
     b58:	97fffd32 	bl	20 <memcpy>
     b5c:	aa1503e2 	mov	x2, x21
     b60:	aa0003e3 	mov	x3, x0
     b64:	aa1403e1 	mov	x1, x20
     b68:	aa1303e0 	mov	x0, x19
     b6c:	52800024 	mov	w4, #0x1                   	// #1
     b70:	97ffffbe 	bl	a68 <__vsnprintf>
/home/jeferson/optee/optee_os-rpi4/lib/libutils/ext/snprintk.c:132
     b74:	a94153f3 	ldp	x19, x20, [sp, #16]
     b78:	f94013f5 	ldr	x21, [sp, #32]
     b7c:	a8c57bfd 	ldp	x29, x30, [sp], #80
     b80:	d65f03c0 	ret

0000000000000b84 <snprintk>:
snprintk():
/home/jeferson/optee/optee_os-rpi4/lib/libutils/ext/snprintk.c:113
     b84:	a9ad7bfd 	stp	x29, x30, [sp, #-304]!
     b88:	910003fd 	mov	x29, sp
     b8c:	a90153f3 	stp	x19, x20, [sp, #16]
     b90:	b00000d3 	adrp	x19, 19000 <_DYNAMIC>
     b94:	aa0003f4 	mov	x20, x0
     b98:	f9409a60 	ldr	x0, [x19, #304]
     b9c:	a9025bf5 	stp	x21, x22, [sp, #32]
     ba0:	aa0103f5 	mov	x21, x1
     ba4:	3d8023e0 	str	q0, [sp, #128]
     ba8:	aa0203f6 	mov	x22, x2
/home/jeferson/optee/optee_os-rpi4/lib/libutils/ext/snprintk.c:118
     bac:	d2800402 	mov	x2, #0x20                  	// #32
/home/jeferson/optee/optee_os-rpi4/lib/libutils/ext/snprintk.c:113
     bb0:	3d8027e1 	str	q1, [sp, #144]
     bb4:	3d802be2 	str	q2, [sp, #160]
     bb8:	3d802fe3 	str	q3, [sp, #176]
     bbc:	3d8033e4 	str	q4, [sp, #192]
     bc0:	3d8037e5 	str	q5, [sp, #208]
     bc4:	3d803be6 	str	q6, [sp, #224]
     bc8:	3d803fe7 	str	q7, [sp, #240]
     bcc:	a91093e3 	stp	x3, x4, [sp, #264]
/home/jeferson/optee/optee_os-rpi4/lib/libutils/ext/snprintk.c:118
     bd0:	9100c3e3 	add	x3, sp, #0x30
/home/jeferson/optee/optee_os-rpi4/lib/libutils/ext/snprintk.c:113
     bd4:	a9119be5 	stp	x5, x6, [sp, #280]
     bd8:	f90097e7 	str	x7, [sp, #296]
     bdc:	f9400001 	ldr	x1, [x0]
     be0:	f9003fe1 	str	x1, [sp, #120]
     be4:	d2800001 	mov	x1, #0x0                   	// #0
/home/jeferson/optee/optee_os-rpi4/lib/libutils/ext/snprintk.c:117
     be8:	9104c3e0 	add	x0, sp, #0x130
     bec:	a90583e0 	stp	x0, x0, [sp, #88]
     bf0:	910403e0 	add	x0, sp, #0x100
/home/jeferson/optee/optee_os-rpi4/lib/libutils/ext/snprintk.c:118
     bf4:	910163e1 	add	x1, sp, #0x58
/home/jeferson/optee/optee_os-rpi4/lib/libutils/ext/snprintk.c:117
     bf8:	f90037e0 	str	x0, [sp, #104]
     bfc:	128004e0 	mov	w0, #0xffffffd8            	// #-40
     c00:	b90073e0 	str	w0, [sp, #112]
     c04:	12800fe0 	mov	w0, #0xffffff80            	// #-128
     c08:	b90077e0 	str	w0, [sp, #116]
/home/jeferson/optee/optee_os-rpi4/lib/libutils/ext/snprintk.c:118
     c0c:	aa0303e0 	mov	x0, x3
     c10:	97fffd04 	bl	20 <memcpy>
     c14:	aa0003e3 	mov	x3, x0
     c18:	aa1603e2 	mov	x2, x22
     c1c:	aa1503e1 	mov	x1, x21
     c20:	aa1403e0 	mov	x0, x20
     c24:	97ffffc2 	bl	b2c <vsnprintk>
/home/jeferson/optee/optee_os-rpi4/lib/libutils/ext/snprintk.c:122
     c28:	f9409a73 	ldr	x19, [x19, #304]
     c2c:	f9403fe1 	ldr	x1, [sp, #120]
     c30:	f9400262 	ldr	x2, [x19]
     c34:	eb020021 	subs	x1, x1, x2
     c38:	d2800002 	mov	x2, #0x0                   	// #0
     c3c:	54000040 	b.eq	c44 <snprintk+0xc0>  // b.none
     c40:	97fffeb2 	bl	708 <__stack_chk_fail>
     c44:	a94153f3 	ldp	x19, x20, [sp, #16]
     c48:	a9425bf5 	ldp	x21, x22, [sp, #32]
     c4c:	a8d37bfd 	ldp	x29, x30, [sp], #304
     c50:	d65f03c0 	ret

0000000000000c54 <kprintf.constprop.0>:
kprintf():
/home/jeferson/optee/optee_os-rpi4/lib/libutils/ext/snprintk.c:242
     c54:	d103c3ff 	sub	sp, sp, #0xf0
     c58:	aa0103e9 	mov	x9, x1
     c5c:	a9037bfd 	stp	x29, x30, [sp, #48]
     c60:	9100c3fd 	add	x29, sp, #0x30
     c64:	a90873fb 	stp	x27, x28, [sp, #128]
     c68:	aa0003fc 	mov	x28, x0
     c6c:	12001c80 	and	w0, w4, #0xff
     c70:	b900abe0 	str	w0, [sp, #168]
     c74:	b00000c0 	adrp	x0, 19000 <_DYNAMIC>
     c78:	a90453f3 	stp	x19, x20, [sp, #64]
     c7c:	b9401874 	ldr	w20, [x3, #24]
     c80:	f9409800 	ldr	x0, [x0, #304]
     c84:	a9055bf5 	stp	x21, x22, [sp, #80]
     c88:	aa0203f6 	mov	x22, x2
     c8c:	a90663f7 	stp	x23, x24, [sp, #96]
     c90:	a9076bf9 	stp	x25, x26, [sp, #112]
     c94:	f9400001 	ldr	x1, [x0]
     c98:	f90077e1 	str	x1, [sp, #232]
     c9c:	d2800001 	mov	x1, #0x0                   	// #0
     ca0:	a9406c73 	ldp	x19, x27, [x3]
/home/jeferson/optee/optee_os-rpi4/lib/libutils/ext/snprintk.c:264
     ca4:	b4000489 	cbz	x9, d34 <kprintf.constprop.0+0xe0>
/home/jeferson/optee/optee_os-rpi4/lib/libutils/ext/snprintk.c:265
     ca8:	f9400139 	ldr	x25, [x9]
/home/jeferson/optee/optee_os-rpi4/lib/libutils/ext/snprintk.c:297
     cac:	d00000b8 	adrp	x24, 16000 <__text_end+0x3180>
/home/jeferson/optee/optee_os-rpi4/lib/libutils/ext/snprintk.c:275
     cb0:	d2800017 	mov	x23, #0x0                   	// #0
/home/jeferson/optee/optee_os-rpi4/lib/libutils/ext/snprintk.c:297
     cb4:	912eb300 	add	x0, x24, #0xbac
/home/jeferson/optee/optee_os-rpi4/lib/libutils/ext/snprintk.c:273
     cb8:	5280001a 	mov	w26, #0x0                   	// #0
/home/jeferson/optee/optee_os-rpi4/lib/libutils/ext/snprintk.c:297
     cbc:	f9004fe0 	str	x0, [sp, #152]
/home/jeferson/optee/optee_os-rpi4/lib/libutils/ext/snprintk.c:281
     cc0:	39400380 	ldrb	w0, [x28]
     cc4:	7100941f 	cmp	w0, #0x25
     cc8:	7a401804 	ccmp	w0, #0x0, #0x4, ne  // ne = any
     ccc:	54000381 	b.ne	d3c <kprintf.constprop.0+0xe8>  // b.any
/home/jeferson/optee/optee_os-rpi4/lib/libutils/ext/snprintk.c:285
     cd0:	340051a0 	cbz	w0, 1704 <kprintf.constprop.0+0xab0>
/home/jeferson/optee/optee_os-rpi4/lib/libutils/ext/snprintk.c:293
     cd4:	12800005 	mov	w5, #0xffffffff            	// #-1
/home/jeferson/optee/optee_os-rpi4/lib/libutils/ext/snprintk.c:297
     cd8:	d00000a2 	adrp	x2, 16000 <__text_end+0x3180>
/home/jeferson/optee/optee_os-rpi4/lib/libutils/ext/snprintk.c:288
     cdc:	9100079c 	add	x28, x28, #0x1
     ce0:	2a1403e4 	mov	w4, w20
     ce4:	aa1303e3 	mov	x3, x19
/home/jeferson/optee/optee_os-rpi4/lib/libutils/ext/snprintk.c:297
     ce8:	912f2042 	add	x2, x2, #0xbc8
/home/jeferson/optee/optee_os-rpi4/lib/libutils/ext/snprintk.c:330
     cec:	2a0503e7 	mov	w7, w5
/home/jeferson/optee/optee_os-rpi4/lib/libutils/ext/snprintk.c:294
     cf0:	52800001 	mov	w1, #0x0                   	// #0
/home/jeferson/optee/optee_os-rpi4/lib/libutils/ext/snprintk.c:292
     cf4:	5280000b 	mov	w11, #0x0                   	// #0
/home/jeferson/optee/optee_os-rpi4/lib/libutils/ext/snprintk.c:290
     cf8:	52800015 	mov	w21, #0x0                   	// #0
/home/jeferson/optee/optee_os-rpi4/lib/libutils/ext/snprintk.c:305
     cfc:	5280040d 	mov	w13, #0x20                  	// #32
/home/jeferson/optee/optee_os-rpi4/lib/libutils/ext/snprintk.c:296
     d00:	38401798 	ldrb	w24, [x28], #1
/home/jeferson/optee/optee_os-rpi4/lib/libutils/ext/snprintk.c:297
     d04:	7100e71f 	cmp	w24, #0x39
     d08:	5400036c 	b.gt	d74 <kprintf.constprop.0+0x120>
     d0c:	71007f1f 	cmp	w24, #0x1f
     d10:	54004f8d 	b.le	1700 <kprintf.constprop.0+0xaac>
     d14:	51008300 	sub	w0, w24, #0x20
     d18:	7100641f 	cmp	w0, #0x19
     d1c:	54000328 	b.hi	d80 <kprintf.constprop.0+0x12c>  // b.pmore
     d20:	f9404fe6 	ldr	x6, [sp, #152]
     d24:	386048c0 	ldrb	w0, [x6, w0, uxtw]
     d28:	10000066 	adr	x6, d34 <kprintf.constprop.0+0xe0>
     d2c:	8b2088c0 	add	x0, x6, w0, sxtb #2
     d30:	d61f0000 	br	x0
/home/jeferson/optee/optee_os-rpi4/lib/libutils/ext/snprintk.c:267
     d34:	d2800019 	mov	x25, #0x0                   	// #0
     d38:	17ffffdd 	b	cac <kprintf.constprop.0+0x58>
/home/jeferson/optee/optee_os-rpi4/lib/libutils/ext/snprintk.c:282
     d3c:	1100075a 	add	w26, w26, #0x1
/home/jeferson/optee/optee_os-rpi4/lib/libutils/ext/snprintk.c:283
     d40:	b40000b6 	cbz	x22, d54 <kprintf.constprop.0+0x100>
     d44:	f100013f 	cmp	x9, #0x0
     d48:	fa5912c0 	ccmp	x22, x25, #0x0, ne  // ne = any
     d4c:	54000042 	b.cs	d54 <kprintf.constprop.0+0x100>  // b.hs, b.nlast
     d50:	380016c0 	strb	w0, [x22], #1
/home/jeferson/optee/optee_os-rpi4/lib/libutils/ext/snprintk.c:281
     d54:	9100079c 	add	x28, x28, #0x1
     d58:	17ffffda 	b	cc0 <kprintf.constprop.0+0x6c>
/home/jeferson/optee/optee_os-rpi4/lib/libutils/ext/snprintk.c:297
     d5c:	52800561 	mov	w1, #0x2b                  	// #43
     d60:	17ffffe8 	b	d00 <kprintf.constprop.0+0xac>
     d64:	78605840 	ldrh	w0, [x2, w0, uxtw #1]
     d68:	10000066 	adr	x6, d74 <kprintf.constprop.0+0x120>
     d6c:	8b20a8c0 	add	x0, x6, w0, sxth #2
     d70:	d61f0000 	br	x0
     d74:	51011300 	sub	w0, w24, #0x44
     d78:	7100d81f 	cmp	w0, #0x36
     d7c:	54ffff49 	b.ls	d64 <kprintf.constprop.0+0x110>  // b.plast
/home/jeferson/optee/optee_os-rpi4/lib/libutils/ext/snprintk.c:554
     d80:	2a0403f4 	mov	w20, w4
     d84:	aa0303f3 	mov	x19, x3
/home/jeferson/optee/optee_os-rpi4/lib/libutils/ext/snprintk.c:551
     d88:	390303f8 	strb	w24, [sp, #192]
/home/jeferson/optee/optee_os-rpi4/lib/libutils/ext/snprintk.c:554
     d8c:	1400005a 	b	ef4 <kprintf.constprop.0+0x2a0>
/home/jeferson/optee/optee_os-rpi4/lib/libutils/ext/snprintk.c:305
     d90:	7100003f 	cmp	w1, #0x0
     d94:	1a8d1021 	csel	w1, w1, w13, ne  // ne = any
     d98:	17ffffda 	b	d00 <kprintf.constprop.0+0xac>
/home/jeferson/optee/optee_os-rpi4/lib/libutils/ext/snprintk.c:308
     d9c:	320002b5 	orr	w21, w21, #0x1
/home/jeferson/optee/optee_os-rpi4/lib/libutils/ext/snprintk.c:309
     da0:	17ffffd8 	b	d00 <kprintf.constprop.0+0xac>
/home/jeferson/optee/optee_os-rpi4/lib/libutils/ext/snprintk.c:317
     da4:	37f80124 	tbnz	w4, #31, dc8 <kprintf.constprop.0+0x174>
     da8:	91002c66 	add	x6, x3, #0xb
     dac:	aa0303e0 	mov	x0, x3
     db0:	927df0c3 	and	x3, x6, #0xfffffffffffffff8
     db4:	b940000b 	ldr	w11, [x0]
     db8:	36fffa4b 	tbz	w11, #31, d00 <kprintf.constprop.0+0xac>
/home/jeferson/optee/optee_os-rpi4/lib/libutils/ext/snprintk.c:319
     dbc:	4b0b03eb 	neg	w11, w11
/home/jeferson/optee/optee_os-rpi4/lib/libutils/ext/snprintk.c:322
     dc0:	321e02b5 	orr	w21, w21, #0x4
/home/jeferson/optee/optee_os-rpi4/lib/libutils/ext/snprintk.c:323
     dc4:	17ffffcf 	b	d00 <kprintf.constprop.0+0xac>
/home/jeferson/optee/optee_os-rpi4/lib/libutils/ext/snprintk.c:317
     dc8:	11002086 	add	w6, w4, #0x8
     dcc:	710000df 	cmp	w6, #0x0
     dd0:	540000cd 	b.le	de8 <kprintf.constprop.0+0x194>
     dd4:	91002c68 	add	x8, x3, #0xb
     dd8:	aa0303e0 	mov	x0, x3
     ddc:	2a0603e4 	mov	w4, w6
     de0:	927df103 	and	x3, x8, #0xfffffffffffffff8
     de4:	17fffff4 	b	db4 <kprintf.constprop.0+0x160>
     de8:	8b24c360 	add	x0, x27, w4, sxtw
     dec:	2a0603e4 	mov	w4, w6
     df0:	17fffff1 	b	db4 <kprintf.constprop.0+0x160>
/home/jeferson/optee/optee_os-rpi4/lib/libutils/ext/snprintk.c:328
     df4:	38401798 	ldrb	w24, [x28], #1
     df8:	7100ab1f 	cmp	w24, #0x2a
     dfc:	54000361 	b.ne	e68 <kprintf.constprop.0+0x214>  // b.any
/home/jeferson/optee/optee_os-rpi4/lib/libutils/ext/snprintk.c:329
     e00:	37f80144 	tbnz	w4, #31, e28 <kprintf.constprop.0+0x1d4>
     e04:	91002c60 	add	x0, x3, #0xb
     e08:	2a0403e6 	mov	w6, w4
     e0c:	927df000 	and	x0, x0, #0xfffffffffffffff8
/home/jeferson/optee/optee_os-rpi4/lib/libutils/ext/snprintk.c:330
     e10:	b9400065 	ldr	w5, [x3]
/home/jeferson/optee/optee_os-rpi4/lib/libutils/ext/snprintk.c:331
     e14:	2a0603e4 	mov	w4, w6
     e18:	aa0003e3 	mov	x3, x0
/home/jeferson/optee/optee_os-rpi4/lib/libutils/ext/snprintk.c:330
     e1c:	710000bf 	cmp	w5, #0x0
     e20:	1a87a0a5 	csel	w5, w5, w7, ge  // ge = tcont
/home/jeferson/optee/optee_os-rpi4/lib/libutils/ext/snprintk.c:331
     e24:	17ffffb7 	b	d00 <kprintf.constprop.0+0xac>
/home/jeferson/optee/optee_os-rpi4/lib/libutils/ext/snprintk.c:329
     e28:	11002086 	add	w6, w4, #0x8
     e2c:	710000df 	cmp	w6, #0x0
     e30:	5400008d 	b.le	e40 <kprintf.constprop.0+0x1ec>
     e34:	91002c60 	add	x0, x3, #0xb
     e38:	927df000 	and	x0, x0, #0xfffffffffffffff8
     e3c:	17fffff5 	b	e10 <kprintf.constprop.0+0x1bc>
     e40:	aa0303e0 	mov	x0, x3
     e44:	8b24c363 	add	x3, x27, w4, sxtw
     e48:	17fffff2 	b	e10 <kprintf.constprop.0+0x1bc>
/home/jeferson/optee/optee_os-rpi4/lib/libutils/ext/snprintk.c:335
     e4c:	52800146 	mov	w6, #0xa                   	// #10
/home/jeferson/optee/optee_os-rpi4/lib/libutils/ext/snprintk.c:336
     e50:	38401798 	ldrb	w24, [x28], #1
/home/jeferson/optee/optee_os-rpi4/lib/libutils/ext/snprintk.c:335
     e54:	1b0600a5 	madd	w5, w5, w6, w0
/home/jeferson/optee/optee_os-rpi4/lib/libutils/ext/snprintk.c:334
     e58:	5100c300 	sub	w0, w24, #0x30
     e5c:	7100241f 	cmp	w0, #0x9
     e60:	54ffff69 	b.ls	e4c <kprintf.constprop.0+0x1f8>  // b.plast
     e64:	17ffffa8 	b	d04 <kprintf.constprop.0+0xb0>
/home/jeferson/optee/optee_os-rpi4/lib/libutils/ext/snprintk.c:333
     e68:	52800005 	mov	w5, #0x0                   	// #0
     e6c:	17fffffb 	b	e58 <kprintf.constprop.0+0x204>
/home/jeferson/optee/optee_os-rpi4/lib/libutils/ext/snprintk.c:346
     e70:	321602b5 	orr	w21, w21, #0x400
/home/jeferson/optee/optee_os-rpi4/lib/libutils/ext/snprintk.c:347
     e74:	17ffffa3 	b	d00 <kprintf.constprop.0+0xac>
/home/jeferson/optee/optee_os-rpi4/lib/libutils/ext/snprintk.c:297
     e78:	5280000b 	mov	w11, #0x0                   	// #0
/home/jeferson/optee/optee_os-rpi4/lib/libutils/ext/snprintk.c:352
     e7c:	5100c308 	sub	w8, w24, #0x30
     e80:	52800140 	mov	w0, #0xa                   	// #10
/home/jeferson/optee/optee_os-rpi4/lib/libutils/ext/snprintk.c:353
     e84:	38401798 	ldrb	w24, [x28], #1
/home/jeferson/optee/optee_os-rpi4/lib/libutils/ext/snprintk.c:352
     e88:	1b00216b 	madd	w11, w11, w0, w8
/home/jeferson/optee/optee_os-rpi4/lib/libutils/ext/snprintk.c:354
     e8c:	5100c300 	sub	w0, w24, #0x30
     e90:	7100241f 	cmp	w0, #0x9
     e94:	54ffff49 	b.ls	e7c <kprintf.constprop.0+0x228>  // b.plast
     e98:	17ffff9b 	b	d04 <kprintf.constprop.0+0xb0>
/home/jeferson/optee/optee_os-rpi4/lib/libutils/ext/snprintk.c:358
     e9c:	321a02b5 	orr	w21, w21, #0x40
/home/jeferson/optee/optee_os-rpi4/lib/libutils/ext/snprintk.c:359
     ea0:	17ffff98 	b	d00 <kprintf.constprop.0+0xac>
/home/jeferson/optee/optee_os-rpi4/lib/libutils/ext/snprintk.c:361
     ea4:	321902b5 	orr	w21, w21, #0x80
/home/jeferson/optee/optee_os-rpi4/lib/libutils/ext/snprintk.c:362
     ea8:	17ffff96 	b	d00 <kprintf.constprop.0+0xac>
/home/jeferson/optee/optee_os-rpi4/lib/libutils/ext/snprintk.c:364
     eac:	39400380 	ldrb	w0, [x28]
     eb0:	7101b01f 	cmp	w0, #0x6c
     eb4:	54000081 	b.ne	ec4 <kprintf.constprop.0+0x270>  // b.any
/home/jeferson/optee/optee_os-rpi4/lib/libutils/ext/snprintk.c:328
     eb8:	9100079c 	add	x28, x28, #0x1
/home/jeferson/optee/optee_os-rpi4/lib/libutils/ext/snprintk.c:372
     ebc:	321b02b5 	orr	w21, w21, #0x20
/home/jeferson/optee/optee_os-rpi4/lib/libutils/ext/snprintk.c:373
     ec0:	17ffff90 	b	d00 <kprintf.constprop.0+0xac>
/home/jeferson/optee/optee_os-rpi4/lib/libutils/ext/snprintk.c:368
     ec4:	321c02b5 	orr	w21, w21, #0x10
     ec8:	17ffff8e 	b	d00 <kprintf.constprop.0+0xac>
/home/jeferson/optee/optee_os-rpi4/lib/libutils/ext/snprintk.c:375
     ecc:	321802b5 	orr	w21, w21, #0x100
/home/jeferson/optee/optee_os-rpi4/lib/libutils/ext/snprintk.c:376
     ed0:	17ffff8c 	b	d00 <kprintf.constprop.0+0xac>
/home/jeferson/optee/optee_os-rpi4/lib/libutils/ext/snprintk.c:378
     ed4:	321702b5 	orr	w21, w21, #0x200
/home/jeferson/optee/optee_os-rpi4/lib/libutils/ext/snprintk.c:379
     ed8:	17ffff8a 	b	d00 <kprintf.constprop.0+0xac>
/home/jeferson/optee/optee_os-rpi4/lib/libutils/ext/snprintk.c:381
     edc:	37f80164 	tbnz	w4, #31, f08 <kprintf.constprop.0+0x2b4>
     ee0:	91002c73 	add	x19, x3, #0xb
     ee4:	2a0403f4 	mov	w20, w4
     ee8:	927df273 	and	x19, x19, #0xfffffffffffffff8
     eec:	b9400060 	ldr	w0, [x3]
     ef0:	390303e0 	strb	w0, [sp, #192]
/home/jeferson/optee/optee_os-rpi4/lib/libutils/ext/snprintk.c:550
     ef4:	910303ed 	add	x13, sp, #0xc0
/home/jeferson/optee/optee_os-rpi4/lib/libutils/ext/snprintk.c:552
     ef8:	52800025 	mov	w5, #0x1                   	// #1
/home/jeferson/optee/optee_os-rpi4/lib/libutils/ext/snprintk.c:291
     efc:	52800002 	mov	w2, #0x0                   	// #0
/home/jeferson/optee/optee_os-rpi4/lib/libutils/ext/snprintk.c:553
     f00:	52800001 	mov	w1, #0x0                   	// #0
/home/jeferson/optee/optee_os-rpi4/lib/libutils/ext/snprintk.c:554
     f04:	140000fa 	b	12ec <kprintf.constprop.0+0x698>
/home/jeferson/optee/optee_os-rpi4/lib/libutils/ext/snprintk.c:381
     f08:	11002094 	add	w20, w4, #0x8
     f0c:	7100029f 	cmp	w20, #0x0
     f10:	5400008d 	b.le	f20 <kprintf.constprop.0+0x2cc>
     f14:	91002c73 	add	x19, x3, #0xb
     f18:	927df273 	and	x19, x19, #0xfffffffffffffff8
     f1c:	17fffff4 	b	eec <kprintf.constprop.0+0x298>
     f20:	aa0303f3 	mov	x19, x3
     f24:	8b24c363 	add	x3, x27, w4, sxtw
     f28:	17fffff1 	b	eec <kprintf.constprop.0+0x298>
/home/jeferson/optee/optee_os-rpi4/lib/libutils/ext/snprintk.c:386
     f2c:	321c02b5 	orr	w21, w21, #0x10
/home/jeferson/optee/optee_os-rpi4/lib/libutils/ext/snprintk.c:390
     f30:	363802f5 	tbz	w21, #7, f8c <kprintf.constprop.0+0x338>
     f34:	37f80424 	tbnz	w4, #31, fb8 <kprintf.constprop.0+0x364>
     f38:	91003c73 	add	x19, x3, #0xf
     f3c:	2a0403f4 	mov	w20, w4
     f40:	927df273 	and	x19, x19, #0xfffffffffffffff8
     f44:	f9400062 	ldr	x2, [x3]
/home/jeferson/optee/optee_os-rpi4/lib/libutils/ext/snprintk.c:391
     f48:	b6f82d22 	tbz	x2, #63, 14ec <kprintf.constprop.0+0x898>
/home/jeferson/optee/optee_os-rpi4/lib/libutils/ext/snprintk.c:392
     f4c:	cb0203e2 	neg	x2, x2
/home/jeferson/optee/optee_os-rpi4/lib/libutils/ext/snprintk.c:395
     f50:	52800020 	mov	w0, #0x1                   	// #1
/home/jeferson/optee/optee_os-rpi4/lib/libutils/ext/snprintk.c:393
     f54:	528005a1 	mov	w1, #0x2d                  	// #45
/home/jeferson/optee/optee_os-rpi4/lib/libutils/ext/snprintk.c:494
     f58:	310004bf 	cmn	w5, #0x1
     f5c:	54003b21 	b.ne	16c0 <kprintf.constprop.0+0xa6c>  // b.any
/home/jeferson/optee/optee_os-rpi4/lib/libutils/ext/snprintk.c:509
     f60:	7100041f 	cmp	w0, #0x1
     f64:	54002c80 	b.eq	14f4 <kprintf.constprop.0+0x8a0>  // b.none
     f68:	7100081f 	cmp	w0, #0x2
     f6c:	54000ea1 	b.ne	1140 <kprintf.constprop.0+0x4ec>  // b.any
/home/jeferson/optee/optee_os-rpi4/lib/libutils/ext/snprintk.c:502
     f70:	910397ed 	add	x13, sp, #0xe5
/home/jeferson/optee/optee_os-rpi4/lib/libutils/ext/snprintk.c:531
     f74:	92400c40 	and	x0, x2, #0xf
/home/jeferson/optee/optee_os-rpi4/lib/libutils/ext/snprintk.c:532
     f78:	d344fc42 	lsr	x2, x2, #4
/home/jeferson/optee/optee_os-rpi4/lib/libutils/ext/snprintk.c:531
     f7c:	38606ae0 	ldrb	w0, [x23, x0]
     f80:	381ffda0 	strb	w0, [x13, #-1]!
/home/jeferson/optee/optee_os-rpi4/lib/libutils/ext/snprintk.c:533
     f84:	b5ffff82 	cbnz	x2, f74 <kprintf.constprop.0+0x320>
     f88:	1400007b 	b	1174 <kprintf.constprop.0+0x520>
/home/jeferson/optee/optee_os-rpi4/lib/libutils/ext/snprintk.c:390
     f8c:	3747fd55 	tbnz	w21, #8, f34 <kprintf.constprop.0+0x2e0>
     f90:	374ffd35 	tbnz	w21, #9, f34 <kprintf.constprop.0+0x2e0>
     f94:	372ffd15 	tbnz	w21, #5, f34 <kprintf.constprop.0+0x2e0>
     f98:	3727fcf5 	tbnz	w21, #4, f34 <kprintf.constprop.0+0x2e0>
     f9c:	36300335 	tbz	w21, #6, 1000 <kprintf.constprop.0+0x3ac>
     fa0:	37f801e4 	tbnz	w4, #31, fdc <kprintf.constprop.0+0x388>
     fa4:	91002c73 	add	x19, x3, #0xb
     fa8:	2a0403f4 	mov	w20, w4
     fac:	927df273 	and	x19, x19, #0xfffffffffffffff8
     fb0:	79800062 	ldrsh	x2, [x3]
     fb4:	17ffffe5 	b	f48 <kprintf.constprop.0+0x2f4>
     fb8:	11002094 	add	w20, w4, #0x8
     fbc:	7100029f 	cmp	w20, #0x0
     fc0:	5400008d 	b.le	fd0 <kprintf.constprop.0+0x37c>
     fc4:	91003c73 	add	x19, x3, #0xf
     fc8:	927df273 	and	x19, x19, #0xfffffffffffffff8
     fcc:	17ffffde 	b	f44 <kprintf.constprop.0+0x2f0>
     fd0:	aa0303f3 	mov	x19, x3
     fd4:	8b24c363 	add	x3, x27, w4, sxtw
     fd8:	17ffffdb 	b	f44 <kprintf.constprop.0+0x2f0>
     fdc:	11002094 	add	w20, w4, #0x8
     fe0:	7100029f 	cmp	w20, #0x0
     fe4:	5400008d 	b.le	ff4 <kprintf.constprop.0+0x3a0>
     fe8:	91002c73 	add	x19, x3, #0xb
     fec:	927df273 	and	x19, x19, #0xfffffffffffffff8
     ff0:	17fffff0 	b	fb0 <kprintf.constprop.0+0x35c>
     ff4:	aa0303f3 	mov	x19, x3
     ff8:	8b24c363 	add	x3, x27, w4, sxtw
     ffc:	17ffffed 	b	fb0 <kprintf.constprop.0+0x35c>
    1000:	37f800c4 	tbnz	w4, #31, 1018 <kprintf.constprop.0+0x3c4>
    1004:	91002c73 	add	x19, x3, #0xb
    1008:	2a0403f4 	mov	w20, w4
    100c:	927df273 	and	x19, x19, #0xfffffffffffffff8
    1010:	b9800062 	ldrsw	x2, [x3]
    1014:	17ffffcd 	b	f48 <kprintf.constprop.0+0x2f4>
    1018:	11002094 	add	w20, w4, #0x8
    101c:	7100029f 	cmp	w20, #0x0
    1020:	5400008d 	b.le	1030 <kprintf.constprop.0+0x3dc>
    1024:	91002c73 	add	x19, x3, #0xb
    1028:	927df273 	and	x19, x19, #0xfffffffffffffff8
    102c:	17fffff9 	b	1010 <kprintf.constprop.0+0x3bc>
    1030:	aa0303f3 	mov	x19, x3
    1034:	8b24c363 	add	x3, x27, w4, sxtw
    1038:	17fffff6 	b	1010 <kprintf.constprop.0+0x3bc>
/home/jeferson/optee/optee_os-rpi4/lib/libutils/ext/snprintk.c:398
    103c:	36380135 	tbz	w21, #7, 1060 <kprintf.constprop.0+0x40c>
/home/jeferson/optee/optee_os-rpi4/lib/libutils/ext/snprintk.c:407
    1040:	37f80284 	tbnz	w4, #31, 1090 <kprintf.constprop.0+0x43c>
    1044:	91003c73 	add	x19, x3, #0xf
    1048:	2a0403f4 	mov	w20, w4
    104c:	927df273 	and	x19, x19, #0xfffffffffffffff8
    1050:	f9400060 	ldr	x0, [x3]
    1054:	93407f41 	sxtw	x1, w26
    1058:	f9000001 	str	x1, [x0]
    105c:	17ffff19 	b	cc0 <kprintf.constprop.0+0x6c>
/home/jeferson/optee/optee_os-rpi4/lib/libutils/ext/snprintk.c:400
    1060:	3747ff15 	tbnz	w21, #8, 1040 <kprintf.constprop.0+0x3ec>
/home/jeferson/optee/optee_os-rpi4/lib/libutils/ext/snprintk.c:402
    1064:	374ffef5 	tbnz	w21, #9, 1040 <kprintf.constprop.0+0x3ec>
/home/jeferson/optee/optee_os-rpi4/lib/libutils/ext/snprintk.c:404
    1068:	372ffed5 	tbnz	w21, #5, 1040 <kprintf.constprop.0+0x3ec>
/home/jeferson/optee/optee_os-rpi4/lib/libutils/ext/snprintk.c:406
    106c:	3727feb5 	tbnz	w21, #4, 1040 <kprintf.constprop.0+0x3ec>
/home/jeferson/optee/optee_os-rpi4/lib/libutils/ext/snprintk.c:408
    1070:	36300355 	tbz	w21, #6, 10d8 <kprintf.constprop.0+0x484>
/home/jeferson/optee/optee_os-rpi4/lib/libutils/ext/snprintk.c:409
    1074:	37f80204 	tbnz	w4, #31, 10b4 <kprintf.constprop.0+0x460>
    1078:	91003c73 	add	x19, x3, #0xf
    107c:	2a0403f4 	mov	w20, w4
    1080:	927df273 	and	x19, x19, #0xfffffffffffffff8
    1084:	f9400060 	ldr	x0, [x3]
    1088:	7900001a 	strh	w26, [x0]
    108c:	17ffff0d 	b	cc0 <kprintf.constprop.0+0x6c>
/home/jeferson/optee/optee_os-rpi4/lib/libutils/ext/snprintk.c:407
    1090:	11002094 	add	w20, w4, #0x8
    1094:	7100029f 	cmp	w20, #0x0
    1098:	5400008d 	b.le	10a8 <kprintf.constprop.0+0x454>
    109c:	91003c73 	add	x19, x3, #0xf
    10a0:	927df273 	and	x19, x19, #0xfffffffffffffff8
    10a4:	17ffffeb 	b	1050 <kprintf.constprop.0+0x3fc>
    10a8:	aa0303f3 	mov	x19, x3
    10ac:	8b24c363 	add	x3, x27, w4, sxtw
    10b0:	17ffffe8 	b	1050 <kprintf.constprop.0+0x3fc>
/home/jeferson/optee/optee_os-rpi4/lib/libutils/ext/snprintk.c:409
    10b4:	11002094 	add	w20, w4, #0x8
    10b8:	7100029f 	cmp	w20, #0x0
    10bc:	5400008d 	b.le	10cc <kprintf.constprop.0+0x478>
    10c0:	91003c73 	add	x19, x3, #0xf
    10c4:	927df273 	and	x19, x19, #0xfffffffffffffff8
    10c8:	17ffffef 	b	1084 <kprintf.constprop.0+0x430>
    10cc:	aa0303f3 	mov	x19, x3
    10d0:	8b24c363 	add	x3, x27, w4, sxtw
    10d4:	17ffffec 	b	1084 <kprintf.constprop.0+0x430>
/home/jeferson/optee/optee_os-rpi4/lib/libutils/ext/snprintk.c:411
    10d8:	37f800e4 	tbnz	w4, #31, 10f4 <kprintf.constprop.0+0x4a0>
    10dc:	91003c73 	add	x19, x3, #0xf
    10e0:	2a0403f4 	mov	w20, w4
    10e4:	927df273 	and	x19, x19, #0xfffffffffffffff8
    10e8:	f9400060 	ldr	x0, [x3]
    10ec:	b900001a 	str	w26, [x0]
    10f0:	17fffef4 	b	cc0 <kprintf.constprop.0+0x6c>
    10f4:	11002094 	add	w20, w4, #0x8
    10f8:	7100029f 	cmp	w20, #0x0
    10fc:	5400008d 	b.le	110c <kprintf.constprop.0+0x4b8>
    1100:	91003c73 	add	x19, x3, #0xf
    1104:	927df273 	and	x19, x19, #0xfffffffffffffff8
    1108:	17fffff8 	b	10e8 <kprintf.constprop.0+0x494>
    110c:	aa0303f3 	mov	x19, x3
    1110:	8b24c363 	add	x3, x27, w4, sxtw
    1114:	17fffff5 	b	10e8 <kprintf.constprop.0+0x494>
/home/jeferson/optee/optee_os-rpi4/lib/libutils/ext/snprintk.c:414
    1118:	321c02b5 	orr	w21, w21, #0x10
/home/jeferson/optee/optee_os-rpi4/lib/libutils/ext/snprintk.c:417
    111c:	36380355 	tbz	w21, #7, 1184 <kprintf.constprop.0+0x530>
    1120:	37f80484 	tbnz	w4, #31, 11b0 <kprintf.constprop.0+0x55c>
    1124:	91003c73 	add	x19, x3, #0xf
    1128:	2a0403f4 	mov	w20, w4
    112c:	927df273 	and	x19, x19, #0xfffffffffffffff8
    1130:	f9400062 	ldr	x2, [x3]
/home/jeferson/optee/optee_os-rpi4/lib/libutils/ext/snprintk.c:494
    1134:	52800001 	mov	w1, #0x0                   	// #0
    1138:	310004bf 	cmn	w5, #0x1
    113c:	54002c01 	b.ne	16bc <kprintf.constprop.0+0xa68>  // b.any
/home/jeferson/optee/optee_os-rpi4/lib/libutils/ext/snprintk.c:502
    1140:	910397ed 	add	x13, sp, #0xe5
/home/jeferson/optee/optee_os-rpi4/lib/libutils/ext/snprintk.c:512
    1144:	12000840 	and	w0, w2, #0x7
    1148:	aa0d03e4 	mov	x4, x13
    114c:	1100c000 	add	w0, w0, #0x30
    1150:	381ffda0 	strb	w0, [x13, #-1]!
/home/jeferson/optee/optee_os-rpi4/lib/libutils/ext/snprintk.c:513
    1154:	d343fc42 	lsr	x2, x2, #3
/home/jeferson/optee/optee_os-rpi4/lib/libutils/ext/snprintk.c:514
    1158:	b5ffff62 	cbnz	x2, 1144 <kprintf.constprop.0+0x4f0>
/home/jeferson/optee/optee_os-rpi4/lib/libutils/ext/snprintk.c:516
    115c:	360000d5 	tbz	w21, #0, 1174 <kprintf.constprop.0+0x520>
    1160:	7100c01f 	cmp	w0, #0x30
    1164:	54000080 	b.eq	1174 <kprintf.constprop.0+0x520>  // b.none
/home/jeferson/optee/optee_os-rpi4/lib/libutils/ext/snprintk.c:517
    1168:	52800600 	mov	w0, #0x30                  	// #48
    116c:	381ff1a0 	sturb	w0, [x13, #-1]
    1170:	d100088d 	sub	x13, x4, #0x2
/home/jeferson/optee/optee_os-rpi4/lib/libutils/ext/snprintk.c:543
    1174:	2a0503e2 	mov	w2, w5
    1178:	910397e5 	add	x5, sp, #0xe5
    117c:	4b0d00a5 	sub	w5, w5, w13
    1180:	1400005b 	b	12ec <kprintf.constprop.0+0x698>
/home/jeferson/optee/optee_os-rpi4/lib/libutils/ext/snprintk.c:417
    1184:	3747fcf5 	tbnz	w21, #8, 1120 <kprintf.constprop.0+0x4cc>
    1188:	374ffcd5 	tbnz	w21, #9, 1120 <kprintf.constprop.0+0x4cc>
    118c:	372ffcb5 	tbnz	w21, #5, 1120 <kprintf.constprop.0+0x4cc>
    1190:	3727fc95 	tbnz	w21, #4, 1120 <kprintf.constprop.0+0x4cc>
    1194:	36300335 	tbz	w21, #6, 11f8 <kprintf.constprop.0+0x5a4>
    1198:	37f801e4 	tbnz	w4, #31, 11d4 <kprintf.constprop.0+0x580>
    119c:	91002c73 	add	x19, x3, #0xb
    11a0:	2a0403f4 	mov	w20, w4
    11a4:	927df273 	and	x19, x19, #0xfffffffffffffff8
    11a8:	79400062 	ldrh	w2, [x3]
    11ac:	17ffffe2 	b	1134 <kprintf.constprop.0+0x4e0>
    11b0:	11002094 	add	w20, w4, #0x8
    11b4:	7100029f 	cmp	w20, #0x0
    11b8:	5400008d 	b.le	11c8 <kprintf.constprop.0+0x574>
    11bc:	91003c73 	add	x19, x3, #0xf
    11c0:	927df273 	and	x19, x19, #0xfffffffffffffff8
    11c4:	17ffffdb 	b	1130 <kprintf.constprop.0+0x4dc>
    11c8:	aa0303f3 	mov	x19, x3
    11cc:	8b24c363 	add	x3, x27, w4, sxtw
    11d0:	17ffffd8 	b	1130 <kprintf.constprop.0+0x4dc>
    11d4:	11002094 	add	w20, w4, #0x8
    11d8:	7100029f 	cmp	w20, #0x0
    11dc:	5400008d 	b.le	11ec <kprintf.constprop.0+0x598>
    11e0:	91002c73 	add	x19, x3, #0xb
    11e4:	927df273 	and	x19, x19, #0xfffffffffffffff8
    11e8:	17fffff0 	b	11a8 <kprintf.constprop.0+0x554>
    11ec:	aa0303f3 	mov	x19, x3
    11f0:	8b24c363 	add	x3, x27, w4, sxtw
    11f4:	17ffffed 	b	11a8 <kprintf.constprop.0+0x554>
    11f8:	37f800c4 	tbnz	w4, #31, 1210 <kprintf.constprop.0+0x5bc>
    11fc:	91002c73 	add	x19, x3, #0xb
    1200:	2a0403f4 	mov	w20, w4
    1204:	927df273 	and	x19, x19, #0xfffffffffffffff8
    1208:	b9400062 	ldr	w2, [x3]
    120c:	17ffffca 	b	1134 <kprintf.constprop.0+0x4e0>
    1210:	11002094 	add	w20, w4, #0x8
    1214:	7100029f 	cmp	w20, #0x0
    1218:	5400008d 	b.le	1228 <kprintf.constprop.0+0x5d4>
    121c:	91002c73 	add	x19, x3, #0xb
    1220:	927df273 	and	x19, x19, #0xfffffffffffffff8
    1224:	17fffff9 	b	1208 <kprintf.constprop.0+0x5b4>
    1228:	aa0303f3 	mov	x19, x3
    122c:	8b24c363 	add	x3, x27, w4, sxtw
    1230:	17fffff6 	b	1208 <kprintf.constprop.0+0x5b4>
/home/jeferson/optee/optee_os-rpi4/lib/libutils/ext/snprintk.c:421
    1234:	b940abe0 	ldr	w0, [sp, #168]
    1238:	34000c80 	cbz	w0, 13c8 <kprintf.constprop.0+0x774>
    123c:	39400380 	ldrb	w0, [x28]
    1240:	7101541f 	cmp	w0, #0x55
    1244:	54000c21 	b.ne	13c8 <kprintf.constprop.0+0x774>  // b.any
    1248:	39400780 	ldrb	w0, [x28, #1]
    124c:	7101b01f 	cmp	w0, #0x6c
    1250:	54000bc1 	b.ne	13c8 <kprintf.constprop.0+0x774>  // b.any
/home/jeferson/optee/optee_os-rpi4/lib/libutils/ext/snprintk.c:426
    1254:	91000b9c 	add	x28, x28, #0x2
/home/jeferson/optee/optee_os-rpi4/lib/libutils/ext/snprintk.c:427
    1258:	37f80a64 	tbnz	w4, #31, 13a4 <kprintf.constprop.0+0x750>
    125c:	91003c73 	add	x19, x3, #0xf
    1260:	2a0403f4 	mov	w20, w4
    1264:	927df273 	and	x19, x19, #0xfffffffffffffff8
    1268:	f9400061 	ldr	x1, [x3]
uuid2str():
/home/jeferson/optee/optee_os-rpi4/lib/libutils/ext/snprintk.c:229
    126c:	910303ed 	add	x13, sp, #0xc0
    1270:	d00000a2 	adrp	x2, 17000 <gcd_pairs+0x50>
    1274:	910c1c42 	add	x2, x2, #0x307
    1278:	f90053ed 	str	x13, [sp, #160]
    127c:	39403c20 	ldrb	w0, [x1, #15]
    1280:	39402427 	ldrb	w7, [x1, #9]
    1284:	39402026 	ldrb	w6, [x1, #8]
    1288:	79400c25 	ldrh	w5, [x1, #6]
    128c:	79400824 	ldrh	w4, [x1, #4]
    1290:	b9002be0 	str	w0, [sp, #40]
    1294:	b900afeb 	str	w11, [sp, #172]
    1298:	39403820 	ldrb	w0, [x1, #14]
    129c:	b90023e0 	str	w0, [sp, #32]
    12a0:	f9005be9 	str	x9, [sp, #176]
    12a4:	39403420 	ldrb	w0, [x1, #13]
    12a8:	b9001be0 	str	w0, [sp, #24]
    12ac:	39403020 	ldrb	w0, [x1, #12]
    12b0:	b90013e0 	str	w0, [sp, #16]
    12b4:	39402c20 	ldrb	w0, [x1, #11]
    12b8:	b9000be0 	str	w0, [sp, #8]
    12bc:	39402820 	ldrb	w0, [x1, #10]
    12c0:	b90003e0 	str	w0, [sp]
    12c4:	aa0d03e0 	mov	x0, x13
    12c8:	b9400023 	ldr	w3, [x1]
    12cc:	d28004a1 	mov	x1, #0x25                  	// #37
    12d0:	97fffe2d 	bl	b84 <snprintk>
    12d4:	b940afeb 	ldr	w11, [sp, #172]
kprintf():
/home/jeferson/optee/optee_os-rpi4/lib/libutils/ext/snprintk.c:466
    12d8:	2a0003e5 	mov	w5, w0
    12dc:	f94053ed 	ldr	x13, [sp, #160]
/home/jeferson/optee/optee_os-rpi4/lib/libutils/ext/snprintk.c:291
    12e0:	52800002 	mov	w2, #0x0                   	// #0
    12e4:	f9405be9 	ldr	x9, [sp, #176]
/home/jeferson/optee/optee_os-rpi4/lib/libutils/ext/snprintk.c:467
    12e8:	52800001 	mov	w1, #0x0                   	// #0
/home/jeferson/optee/optee_os-rpi4/lib/libutils/ext/snprintk.c:571
    12ec:	6b05005f 	cmp	w2, w5
    12f0:	1a85a040 	csel	w0, w2, w5, ge  // ge = tcont
/home/jeferson/optee/optee_os-rpi4/lib/libutils/ext/snprintk.c:572
    12f4:	340021c1 	cbz	w1, 172c <kprintf.constprop.0+0xad8>
/home/jeferson/optee/optee_os-rpi4/lib/libutils/ext/snprintk.c:573
    12f8:	11000400 	add	w0, w0, #0x1
/home/jeferson/optee/optee_os-rpi4/lib/libutils/ext/snprintk.c:578
    12fc:	6b0b001f 	cmp	w0, w11
    1300:	1a8ba004 	csel	w4, w0, w11, ge  // ge = tcont
    1304:	0b04035a 	add	w26, w26, w4
/home/jeferson/optee/optee_os-rpi4/lib/libutils/ext/snprintk.c:581
    1308:	52808084 	mov	w4, #0x404                 	// #1028
    130c:	6a0402a4 	ands	w4, w21, w4
    1310:	540000a1 	b.ne	1324 <kprintf.constprop.0+0x6d0>  // b.any
/home/jeferson/optee/optee_os-rpi4/lib/libutils/ext/snprintk.c:582
    1314:	4b000166 	sub	w6, w11, w0
/home/jeferson/optee/optee_os-rpi4/lib/libutils/ext/snprintk.c:584
    1318:	52800407 	mov	w7, #0x20                  	// #32
/home/jeferson/optee/optee_os-rpi4/lib/libutils/ext/snprintk.c:583
    131c:	710000df 	cmp	w6, #0x0
    1320:	540020cc 	b.gt	1738 <kprintf.constprop.0+0xae4>
/home/jeferson/optee/optee_os-rpi4/lib/libutils/ext/snprintk.c:588
    1324:	34002181 	cbz	w1, 1754 <kprintf.constprop.0+0xb00>
/home/jeferson/optee/optee_os-rpi4/lib/libutils/ext/snprintk.c:589
    1328:	b40000b6 	cbz	x22, 133c <kprintf.constprop.0+0x6e8>
    132c:	f100013f 	cmp	x9, #0x0
    1330:	fa561322 	ccmp	x25, x22, #0x2, ne  // ne = any
    1334:	54000049 	b.ls	133c <kprintf.constprop.0+0x6e8>  // b.plast
    1338:	380016c1 	strb	w1, [x22], #1
/home/jeferson/optee/optee_os-rpi4/lib/libutils/ext/snprintk.c:596
    133c:	7110009f 	cmp	w4, #0x400
    1340:	540000a1 	b.ne	1354 <kprintf.constprop.0+0x700>  // b.any
/home/jeferson/optee/optee_os-rpi4/lib/libutils/ext/snprintk.c:597
    1344:	4b000161 	sub	w1, w11, w0
/home/jeferson/optee/optee_os-rpi4/lib/libutils/ext/snprintk.c:599
    1348:	52800604 	mov	w4, #0x30                  	// #48
/home/jeferson/optee/optee_os-rpi4/lib/libutils/ext/snprintk.c:598
    134c:	7100003f 	cmp	w1, #0x0
    1350:	5400226c 	b.gt	179c <kprintf.constprop.0+0xb48>
/home/jeferson/optee/optee_os-rpi4/lib/libutils/ext/snprintk.c:603
    1354:	4b050042 	sub	w2, w2, w5
/home/jeferson/optee/optee_os-rpi4/lib/libutils/ext/snprintk.c:605
    1358:	52800601 	mov	w1, #0x30                  	// #48
/home/jeferson/optee/optee_os-rpi4/lib/libutils/ext/snprintk.c:604
    135c:	7100005f 	cmp	w2, #0x0
    1360:	540022cc 	b.gt	17b8 <kprintf.constprop.0+0xb64>
    1364:	2a0503e5 	mov	w5, w5
    1368:	d2800001 	mov	x1, #0x0                   	// #0
/home/jeferson/optee/optee_os-rpi4/lib/libutils/ext/snprintk.c:608
    136c:	eb05003f 	cmp	x1, x5
    1370:	54002321 	b.ne	17d4 <kprintf.constprop.0+0xb80>  // b.any
/home/jeferson/optee/optee_os-rpi4/lib/libutils/ext/snprintk.c:611
    1374:	3617ca75 	tbz	w21, #2, cc0 <kprintf.constprop.0+0x6c>
/home/jeferson/optee/optee_os-rpi4/lib/libutils/ext/snprintk.c:612
    1378:	4b000160 	sub	w0, w11, w0
/home/jeferson/optee/optee_os-rpi4/lib/libutils/ext/snprintk.c:614
    137c:	52800401 	mov	w1, #0x20                  	// #32
/home/jeferson/optee/optee_os-rpi4/lib/libutils/ext/snprintk.c:613
    1380:	7100001f 	cmp	w0, #0x0
    1384:	54ffc9ed 	b.le	cc0 <kprintf.constprop.0+0x6c>
/home/jeferson/optee/optee_os-rpi4/lib/libutils/ext/snprintk.c:614
    1388:	b40000b6 	cbz	x22, 139c <kprintf.constprop.0+0x748>
    138c:	f100013f 	cmp	x9, #0x0
    1390:	fa561322 	ccmp	x25, x22, #0x2, ne  // ne = any
    1394:	54000049 	b.ls	139c <kprintf.constprop.0+0x748>  // b.plast
    1398:	380016c1 	strb	w1, [x22], #1
    139c:	51000400 	sub	w0, w0, #0x1
    13a0:	17fffff8 	b	1380 <kprintf.constprop.0+0x72c>
/home/jeferson/optee/optee_os-rpi4/lib/libutils/ext/snprintk.c:427
    13a4:	11002094 	add	w20, w4, #0x8
    13a8:	7100029f 	cmp	w20, #0x0
    13ac:	5400008d 	b.le	13bc <kprintf.constprop.0+0x768>
    13b0:	91003c73 	add	x19, x3, #0xf
    13b4:	927df273 	and	x19, x19, #0xfffffffffffffff8
    13b8:	17ffffac 	b	1268 <kprintf.constprop.0+0x614>
    13bc:	aa0303f3 	mov	x19, x3
    13c0:	8b24c363 	add	x3, x27, w4, sxtw
    13c4:	17ffffa9 	b	1268 <kprintf.constprop.0+0x614>
/home/jeferson/optee/optee_os-rpi4/lib/libutils/ext/snprintk.c:441
    13c8:	37f801c4 	tbnz	w4, #31, 1400 <kprintf.constprop.0+0x7ac>
    13cc:	91003c73 	add	x19, x3, #0xf
    13d0:	2a0403f4 	mov	w20, w4
    13d4:	927df273 	and	x19, x19, #0xfffffffffffffff8
    13d8:	f9400062 	ldr	x2, [x3]
/home/jeferson/optee/optee_os-rpi4/lib/libutils/ext/snprintk.c:443
    13dc:	b00000b7 	adrp	x23, 16000 <__text_end+0x3180>
/home/jeferson/optee/optee_os-rpi4/lib/libutils/ext/snprintk.c:444
    13e0:	321f02b5 	orr	w21, w21, #0x2
/home/jeferson/optee/optee_os-rpi4/lib/libutils/ext/snprintk.c:443
    13e4:	9130daf7 	add	x23, x23, #0xc36
/home/jeferson/optee/optee_os-rpi4/lib/libutils/ext/snprintk.c:445
    13e8:	52800f18 	mov	w24, #0x78                  	// #120
/home/jeferson/optee/optee_os-rpi4/lib/libutils/ext/snprintk.c:494
    13ec:	52800001 	mov	w1, #0x0                   	// #0
    13f0:	310004bf 	cmn	w5, #0x1
    13f4:	54ffdbe0 	b.eq	f70 <kprintf.constprop.0+0x31c>  // b.none
    13f8:	52800040 	mov	w0, #0x2                   	// #2
    13fc:	140000b1 	b	16c0 <kprintf.constprop.0+0xa6c>
/home/jeferson/optee/optee_os-rpi4/lib/libutils/ext/snprintk.c:441
    1400:	11002094 	add	w20, w4, #0x8
    1404:	7100029f 	cmp	w20, #0x0
    1408:	5400008d 	b.le	1418 <kprintf.constprop.0+0x7c4>
    140c:	91003c73 	add	x19, x3, #0xf
    1410:	927df273 	and	x19, x19, #0xfffffffffffffff8
    1414:	17fffff1 	b	13d8 <kprintf.constprop.0+0x784>
    1418:	aa0303f3 	mov	x19, x3
    141c:	8b24c363 	add	x3, x27, w4, sxtw
    1420:	17ffffee 	b	13d8 <kprintf.constprop.0+0x784>
/home/jeferson/optee/optee_os-rpi4/lib/libutils/ext/snprintk.c:448
    1424:	37f80364 	tbnz	w4, #31, 1490 <kprintf.constprop.0+0x83c>
    1428:	91003c73 	add	x19, x3, #0xf
    142c:	2a0403f4 	mov	w20, w4
    1430:	927df273 	and	x19, x19, #0xfffffffffffffff8
    1434:	f940006d 	ldr	x13, [x3]
    1438:	b500006d 	cbnz	x13, 1444 <kprintf.constprop.0+0x7f0>
/home/jeferson/optee/optee_os-rpi4/lib/libutils/ext/snprintk.c:450
    143c:	d00000a3 	adrp	x3, 17000 <gcd_pairs+0x50>
    1440:	910c006d 	add	x13, x3, #0x300
/home/jeferson/optee/optee_os-rpi4/lib/libutils/ext/snprintk.c:451
    1444:	310004bf 	cmn	w5, #0x1
    1448:	54000360 	b.eq	14b4 <kprintf.constprop.0+0x860>  // b.none
/home/jeferson/optee/optee_os-rpi4/lib/libutils/ext/snprintk.c:457
    144c:	93407ca2 	sxtw	x2, w5
    1450:	aa0d03e0 	mov	x0, x13
    1454:	52800001 	mov	w1, #0x0                   	// #0
    1458:	f90053ed 	str	x13, [sp, #160]
    145c:	2915afe5 	stp	w5, w11, [sp, #172]
    1460:	f9005fe9 	str	x9, [sp, #184]
    1464:	94000100 	bl	1864 <memchr>
/home/jeferson/optee/optee_os-rpi4/lib/libutils/ext/snprintk.c:459
    1468:	2955afe5 	ldp	w5, w11, [sp, #172]
    146c:	f94053ed 	ldr	x13, [sp, #160]
    1470:	f9405fe9 	ldr	x9, [sp, #184]
    1474:	b4000080 	cbz	x0, 1484 <kprintf.constprop.0+0x830>
/home/jeferson/optee/optee_os-rpi4/lib/libutils/ext/snprintk.c:460
    1478:	cb0d0000 	sub	x0, x0, x13
    147c:	6b0000bf 	cmp	w5, w0
    1480:	1a80d0a5 	csel	w5, w5, w0, le
/home/jeferson/optee/optee_os-rpi4/lib/libutils/ext/snprintk.c:291
    1484:	52800002 	mov	w2, #0x0                   	// #0
/home/jeferson/optee/optee_os-rpi4/lib/libutils/ext/snprintk.c:467
    1488:	52800001 	mov	w1, #0x0                   	// #0
    148c:	17ffff98 	b	12ec <kprintf.constprop.0+0x698>
/home/jeferson/optee/optee_os-rpi4/lib/libutils/ext/snprintk.c:448
    1490:	11002094 	add	w20, w4, #0x8
    1494:	7100029f 	cmp	w20, #0x0
    1498:	5400008d 	b.le	14a8 <kprintf.constprop.0+0x854>
    149c:	91003c73 	add	x19, x3, #0xf
    14a0:	927df273 	and	x19, x19, #0xfffffffffffffff8
    14a4:	17ffffe4 	b	1434 <kprintf.constprop.0+0x7e0>
    14a8:	aa0303f3 	mov	x19, x3
    14ac:	8b24c363 	add	x3, x27, w4, sxtw
    14b0:	17ffffe1 	b	1434 <kprintf.constprop.0+0x7e0>
/home/jeferson/optee/optee_os-rpi4/lib/libutils/ext/snprintk.c:466
    14b4:	aa0d03e0 	mov	x0, x13
    14b8:	f90053ed 	str	x13, [sp, #160]
    14bc:	b900afeb 	str	w11, [sp, #172]
    14c0:	f9005be9 	str	x9, [sp, #176]
    14c4:	940000f3 	bl	1890 <strlen>
    14c8:	17ffff83 	b	12d4 <kprintf.constprop.0+0x680>
/home/jeferson/optee/optee_os-rpi4/lib/libutils/ext/snprintk.c:470
    14cc:	321c02b5 	orr	w21, w21, #0x10
/home/jeferson/optee/optee_os-rpi4/lib/libutils/ext/snprintk.c:473
    14d0:	36380235 	tbz	w21, #7, 1514 <kprintf.constprop.0+0x8c0>
    14d4:	37f80364 	tbnz	w4, #31, 1540 <kprintf.constprop.0+0x8ec>
    14d8:	91003c73 	add	x19, x3, #0xf
    14dc:	2a0403f4 	mov	w20, w4
    14e0:	927df273 	and	x19, x19, #0xfffffffffffffff8
    14e4:	f9400062 	ldr	x2, [x3]
/home/jeferson/optee/optee_os-rpi4/lib/libutils/ext/snprintk.c:488
    14e8:	52800001 	mov	w1, #0x0                   	// #0
/home/jeferson/optee/optee_os-rpi4/lib/libutils/ext/snprintk.c:494
    14ec:	310004bf 	cmn	w5, #0x1
    14f0:	54000f61 	b.ne	16dc <kprintf.constprop.0+0xa88>  // b.any
/home/jeferson/optee/optee_os-rpi4/lib/libutils/ext/snprintk.c:502
    14f4:	910397e0 	add	x0, sp, #0xe5
/home/jeferson/optee/optee_os-rpi4/lib/libutils/ext/snprintk.c:523
    14f8:	d2800144 	mov	x4, #0xa                   	// #10
    14fc:	d100040d 	sub	x13, x0, #0x1
/home/jeferson/optee/optee_os-rpi4/lib/libutils/ext/snprintk.c:522
    1500:	f100245f 	cmp	x2, #0x9
    1504:	54000f08 	b.hi	16e4 <kprintf.constprop.0+0xa90>  // b.pmore
/home/jeferson/optee/optee_os-rpi4/lib/libutils/ext/snprintk.c:526
    1508:	1100c042 	add	w2, w2, #0x30
    150c:	381ff002 	sturb	w2, [x0, #-1]
/home/jeferson/optee/optee_os-rpi4/lib/libutils/ext/snprintk.c:527
    1510:	17ffff19 	b	1174 <kprintf.constprop.0+0x520>
/home/jeferson/optee/optee_os-rpi4/lib/libutils/ext/snprintk.c:473
    1514:	3747fe15 	tbnz	w21, #8, 14d4 <kprintf.constprop.0+0x880>
    1518:	374ffdf5 	tbnz	w21, #9, 14d4 <kprintf.constprop.0+0x880>
    151c:	372ffdd5 	tbnz	w21, #5, 14d4 <kprintf.constprop.0+0x880>
    1520:	3727fdb5 	tbnz	w21, #4, 14d4 <kprintf.constprop.0+0x880>
    1524:	36300335 	tbz	w21, #6, 1588 <kprintf.constprop.0+0x934>
    1528:	37f801e4 	tbnz	w4, #31, 1564 <kprintf.constprop.0+0x910>
    152c:	91002c73 	add	x19, x3, #0xb
    1530:	2a0403f4 	mov	w20, w4
    1534:	927df273 	and	x19, x19, #0xfffffffffffffff8
    1538:	79400062 	ldrh	w2, [x3]
    153c:	17ffffeb 	b	14e8 <kprintf.constprop.0+0x894>
    1540:	11002094 	add	w20, w4, #0x8
    1544:	7100029f 	cmp	w20, #0x0
    1548:	5400008d 	b.le	1558 <kprintf.constprop.0+0x904>
    154c:	91003c73 	add	x19, x3, #0xf
    1550:	927df273 	and	x19, x19, #0xfffffffffffffff8
    1554:	17ffffe4 	b	14e4 <kprintf.constprop.0+0x890>
    1558:	aa0303f3 	mov	x19, x3
    155c:	8b24c363 	add	x3, x27, w4, sxtw
    1560:	17ffffe1 	b	14e4 <kprintf.constprop.0+0x890>
    1564:	11002094 	add	w20, w4, #0x8
    1568:	7100029f 	cmp	w20, #0x0
    156c:	5400008d 	b.le	157c <kprintf.constprop.0+0x928>
    1570:	91002c73 	add	x19, x3, #0xb
    1574:	927df273 	and	x19, x19, #0xfffffffffffffff8
    1578:	17fffff0 	b	1538 <kprintf.constprop.0+0x8e4>
    157c:	aa0303f3 	mov	x19, x3
    1580:	8b24c363 	add	x3, x27, w4, sxtw
    1584:	17ffffed 	b	1538 <kprintf.constprop.0+0x8e4>
    1588:	37f800c4 	tbnz	w4, #31, 15a0 <kprintf.constprop.0+0x94c>
    158c:	91002c73 	add	x19, x3, #0xb
    1590:	2a0403f4 	mov	w20, w4
    1594:	927df273 	and	x19, x19, #0xfffffffffffffff8
    1598:	b9400062 	ldr	w2, [x3]
    159c:	17ffffd3 	b	14e8 <kprintf.constprop.0+0x894>
    15a0:	11002094 	add	w20, w4, #0x8
    15a4:	7100029f 	cmp	w20, #0x0
    15a8:	5400008d 	b.le	15b8 <kprintf.constprop.0+0x964>
    15ac:	91002c73 	add	x19, x3, #0xb
    15b0:	927df273 	and	x19, x19, #0xfffffffffffffff8
    15b4:	17fffff9 	b	1598 <kprintf.constprop.0+0x944>
    15b8:	aa0303f3 	mov	x19, x3
    15bc:	8b24c363 	add	x3, x27, w4, sxtw
    15c0:	17fffff6 	b	1598 <kprintf.constprop.0+0x944>
/home/jeferson/optee/optee_os-rpi4/lib/libutils/ext/snprintk.c:297
    15c4:	b00000b7 	adrp	x23, 16000 <__text_end+0x3180>
    15c8:	9130daf7 	add	x23, x23, #0xc36
    15cc:	910046f7 	add	x23, x23, #0x11
/home/jeferson/optee/optee_os-rpi4/lib/libutils/ext/snprintk.c:481
    15d0:	363801f5 	tbz	w21, #7, 160c <kprintf.constprop.0+0x9b8>
    15d4:	37f80324 	tbnz	w4, #31, 1638 <kprintf.constprop.0+0x9e4>
    15d8:	91003c73 	add	x19, x3, #0xf
    15dc:	2a0403f4 	mov	w20, w4
    15e0:	927df273 	and	x19, x19, #0xfffffffffffffff8
    15e4:	f9400062 	ldr	x2, [x3]
/home/jeferson/optee/optee_os-rpi4/lib/libutils/ext/snprintk.c:484
    15e8:	3607f035 	tbz	w21, #0, 13ec <kprintf.constprop.0+0x798>
    15ec:	b4fff002 	cbz	x2, 13ec <kprintf.constprop.0+0x798>
/home/jeferson/optee/optee_os-rpi4/lib/libutils/ext/snprintk.c:485
    15f0:	321f02b5 	orr	w21, w21, #0x2
/home/jeferson/optee/optee_os-rpi4/lib/libutils/ext/snprintk.c:482
    15f4:	52800040 	mov	w0, #0x2                   	// #2
/home/jeferson/optee/optee_os-rpi4/lib/libutils/ext/snprintk.c:488
    15f8:	52800001 	mov	w1, #0x0                   	// #0
    15fc:	17fffe57 	b	f58 <kprintf.constprop.0+0x304>
/home/jeferson/optee/optee_os-rpi4/lib/libutils/ext/snprintk.c:480
    1600:	b00000b7 	adrp	x23, 16000 <__text_end+0x3180>
    1604:	9130daf7 	add	x23, x23, #0xc36
    1608:	17fffff2 	b	15d0 <kprintf.constprop.0+0x97c>
/home/jeferson/optee/optee_os-rpi4/lib/libutils/ext/snprintk.c:481
    160c:	3747fe55 	tbnz	w21, #8, 15d4 <kprintf.constprop.0+0x980>
    1610:	374ffe35 	tbnz	w21, #9, 15d4 <kprintf.constprop.0+0x980>
    1614:	372ffe15 	tbnz	w21, #5, 15d4 <kprintf.constprop.0+0x980>
    1618:	3727fdf5 	tbnz	w21, #4, 15d4 <kprintf.constprop.0+0x980>
    161c:	36300335 	tbz	w21, #6, 1680 <kprintf.constprop.0+0xa2c>
    1620:	37f801e4 	tbnz	w4, #31, 165c <kprintf.constprop.0+0xa08>
    1624:	91002c73 	add	x19, x3, #0xb
    1628:	2a0403f4 	mov	w20, w4
    162c:	927df273 	and	x19, x19, #0xfffffffffffffff8
    1630:	79400062 	ldrh	w2, [x3]
    1634:	17ffffed 	b	15e8 <kprintf.constprop.0+0x994>
    1638:	11002094 	add	w20, w4, #0x8
    163c:	7100029f 	cmp	w20, #0x0
    1640:	5400008d 	b.le	1650 <kprintf.constprop.0+0x9fc>
    1644:	91003c73 	add	x19, x3, #0xf
    1648:	927df273 	and	x19, x19, #0xfffffffffffffff8
    164c:	17ffffe6 	b	15e4 <kprintf.constprop.0+0x990>
    1650:	aa0303f3 	mov	x19, x3
    1654:	8b24c363 	add	x3, x27, w4, sxtw
    1658:	17ffffe3 	b	15e4 <kprintf.constprop.0+0x990>
    165c:	11002094 	add	w20, w4, #0x8
    1660:	7100029f 	cmp	w20, #0x0
    1664:	5400008d 	b.le	1674 <kprintf.constprop.0+0xa20>
    1668:	91002c73 	add	x19, x3, #0xb
    166c:	927df273 	and	x19, x19, #0xfffffffffffffff8
    1670:	17fffff0 	b	1630 <kprintf.constprop.0+0x9dc>
    1674:	aa0303f3 	mov	x19, x3
    1678:	8b24c363 	add	x3, x27, w4, sxtw
    167c:	17ffffed 	b	1630 <kprintf.constprop.0+0x9dc>
    1680:	37f800c4 	tbnz	w4, #31, 1698 <kprintf.constprop.0+0xa44>
    1684:	91002c73 	add	x19, x3, #0xb
    1688:	2a0403f4 	mov	w20, w4
    168c:	927df273 	and	x19, x19, #0xfffffffffffffff8
    1690:	b9400062 	ldr	w2, [x3]
    1694:	17ffffd5 	b	15e8 <kprintf.constprop.0+0x994>
    1698:	11002094 	add	w20, w4, #0x8
    169c:	7100029f 	cmp	w20, #0x0
    16a0:	5400008d 	b.le	16b0 <kprintf.constprop.0+0xa5c>
    16a4:	91002c73 	add	x19, x3, #0xb
    16a8:	927df273 	and	x19, x19, #0xfffffffffffffff8
    16ac:	17fffff9 	b	1690 <kprintf.constprop.0+0xa3c>
    16b0:	aa0303f3 	mov	x19, x3
    16b4:	8b24c363 	add	x3, x27, w4, sxtw
    16b8:	17fffff6 	b	1690 <kprintf.constprop.0+0xa3c>
/home/jeferson/optee/optee_os-rpi4/lib/libutils/ext/snprintk.c:494
    16bc:	52800000 	mov	w0, #0x0                   	// #0
/home/jeferson/optee/optee_os-rpi4/lib/libutils/ext/snprintk.c:503
    16c0:	f100005f 	cmp	x2, #0x0
/home/jeferson/optee/optee_os-rpi4/lib/libutils/ext/snprintk.c:495
    16c4:	12157ab5 	and	w21, w21, #0xfffffbff
/home/jeferson/optee/optee_os-rpi4/lib/libutils/ext/snprintk.c:503
    16c8:	7a4008a0 	ccmp	w5, #0x0, #0x0, eq  // eq = none
    16cc:	54ffc4a1 	b.ne	f60 <kprintf.constprop.0+0x30c>  // b.any
/home/jeferson/optee/optee_os-rpi4/lib/libutils/ext/snprintk.c:502
    16d0:	910397ed 	add	x13, sp, #0xe5
    16d4:	52800005 	mov	w5, #0x0                   	// #0
    16d8:	17fffea7 	b	1174 <kprintf.constprop.0+0x520>
/home/jeferson/optee/optee_os-rpi4/lib/libutils/ext/snprintk.c:494
    16dc:	52800020 	mov	w0, #0x1                   	// #1
    16e0:	17fffff8 	b	16c0 <kprintf.constprop.0+0xa6c>
/home/jeferson/optee/optee_os-rpi4/lib/libutils/ext/snprintk.c:523
    16e4:	9ac40846 	udiv	x6, x2, x4
    16e8:	9b0488c2 	msub	x2, x6, x4, x2
    16ec:	1100c042 	add	w2, w2, #0x30
    16f0:	381ff002 	sturb	w2, [x0, #-1]
/home/jeferson/optee/optee_os-rpi4/lib/libutils/ext/snprintk.c:524
    16f4:	aa0603e2 	mov	x2, x6
    16f8:	aa0d03e0 	mov	x0, x13
    16fc:	17ffff80 	b	14fc <kprintf.constprop.0+0x8a8>
/home/jeferson/optee/optee_os-rpi4/lib/libutils/ext/snprintk.c:547
    1700:	35ffb418 	cbnz	w24, d80 <kprintf.constprop.0+0x12c>
/home/jeferson/optee/optee_os-rpi4/lib/libutils/ext/snprintk.c:619
    1704:	b4000049 	cbz	x9, 170c <kprintf.constprop.0+0xab8>
/home/jeferson/optee/optee_os-rpi4/lib/libutils/ext/snprintk.c:620
    1708:	f9000136 	str	x22, [x9]
/home/jeferson/optee/optee_os-rpi4/lib/libutils/ext/snprintk.c:622
    170c:	900000c0 	adrp	x0, 19000 <_DYNAMIC>
    1710:	f9409800 	ldr	x0, [x0, #304]
    1714:	f94077e2 	ldr	x2, [sp, #232]
    1718:	f9400001 	ldr	x1, [x0]
    171c:	eb010042 	subs	x2, x2, x1
    1720:	d2800001 	mov	x1, #0x0                   	// #0
    1724:	54000680 	b.eq	17f4 <kprintf.constprop.0+0xba0>  // b.none
    1728:	97fffbf8 	bl	708 <__stack_chk_fail>
/home/jeferson/optee/optee_os-rpi4/lib/libutils/ext/snprintk.c:574
    172c:	360fde95 	tbz	w21, #1, 12fc <kprintf.constprop.0+0x6a8>
/home/jeferson/optee/optee_os-rpi4/lib/libutils/ext/snprintk.c:575
    1730:	11000800 	add	w0, w0, #0x2
    1734:	17fffef2 	b	12fc <kprintf.constprop.0+0x6a8>
/home/jeferson/optee/optee_os-rpi4/lib/libutils/ext/snprintk.c:584
    1738:	b40000b6 	cbz	x22, 174c <kprintf.constprop.0+0xaf8>
    173c:	f100013f 	cmp	x9, #0x0
    1740:	fa561322 	ccmp	x25, x22, #0x2, ne  // ne = any
    1744:	54000049 	b.ls	174c <kprintf.constprop.0+0xaf8>  // b.plast
    1748:	380016c7 	strb	w7, [x22], #1
    174c:	510004c6 	sub	w6, w6, #0x1
    1750:	17fffef3 	b	131c <kprintf.constprop.0+0x6c8>
/home/jeferson/optee/optee_os-rpi4/lib/libutils/ext/snprintk.c:590
    1754:	360fdf55 	tbz	w21, #1, 133c <kprintf.constprop.0+0x6e8>
/home/jeferson/optee/optee_os-rpi4/lib/libutils/ext/snprintk.c:591
    1758:	b4ffdf36 	cbz	x22, 133c <kprintf.constprop.0+0x6e8>
    175c:	f100013f 	cmp	x9, #0x0
    1760:	1a9f17e6 	cset	w6, eq  // eq = none
    1764:	710000df 	cmp	w6, #0x0
    1768:	fa560322 	ccmp	x25, x22, #0x2, eq  // eq = none
    176c:	54ffde89 	b.ls	133c <kprintf.constprop.0+0x6e8>  // b.plast
    1770:	aa1603e1 	mov	x1, x22
    1774:	52800607 	mov	w7, #0x30                  	// #48
/home/jeferson/optee/optee_os-rpi4/lib/libutils/ext/snprintk.c:592
    1778:	710000df 	cmp	w6, #0x0
/home/jeferson/optee/optee_os-rpi4/lib/libutils/ext/snprintk.c:591
    177c:	38001427 	strb	w7, [x1], #1
/home/jeferson/optee/optee_os-rpi4/lib/libutils/ext/snprintk.c:592
    1780:	fa410322 	ccmp	x25, x1, #0x2, eq  // eq = none
    1784:	54000089 	b.ls	1794 <kprintf.constprop.0+0xb40>  // b.plast
    1788:	91000ad6 	add	x22, x22, #0x2
    178c:	381ff2d8 	sturb	w24, [x22, #-1]
    1790:	17fffeeb 	b	133c <kprintf.constprop.0+0x6e8>
    1794:	aa0103f6 	mov	x22, x1
    1798:	17fffee9 	b	133c <kprintf.constprop.0+0x6e8>
/home/jeferson/optee/optee_os-rpi4/lib/libutils/ext/snprintk.c:599
    179c:	b40000b6 	cbz	x22, 17b0 <kprintf.constprop.0+0xb5c>
    17a0:	f100013f 	cmp	x9, #0x0
    17a4:	fa561322 	ccmp	x25, x22, #0x2, ne  // ne = any
    17a8:	54000049 	b.ls	17b0 <kprintf.constprop.0+0xb5c>  // b.plast
    17ac:	380016c4 	strb	w4, [x22], #1
    17b0:	51000421 	sub	w1, w1, #0x1
    17b4:	17fffee6 	b	134c <kprintf.constprop.0+0x6f8>
/home/jeferson/optee/optee_os-rpi4/lib/libutils/ext/snprintk.c:605
    17b8:	b40000b6 	cbz	x22, 17cc <kprintf.constprop.0+0xb78>
    17bc:	f100013f 	cmp	x9, #0x0
    17c0:	fa561322 	ccmp	x25, x22, #0x2, ne  // ne = any
    17c4:	54000049 	b.ls	17cc <kprintf.constprop.0+0xb78>  // b.plast
    17c8:	380016c1 	strb	w1, [x22], #1
    17cc:	51000442 	sub	w2, w2, #0x1
    17d0:	17fffee3 	b	135c <kprintf.constprop.0+0x708>
/home/jeferson/optee/optee_os-rpi4/lib/libutils/ext/snprintk.c:609
    17d4:	b40000d6 	cbz	x22, 17ec <kprintf.constprop.0+0xb98>
    17d8:	f100013f 	cmp	x9, #0x0
    17dc:	fa561322 	ccmp	x25, x22, #0x2, ne  // ne = any
    17e0:	54000069 	b.ls	17ec <kprintf.constprop.0+0xb98>  // b.plast
    17e4:	386169a2 	ldrb	w2, [x13, x1]
    17e8:	380016c2 	strb	w2, [x22], #1
/home/jeferson/optee/optee_os-rpi4/lib/libutils/ext/snprintk.c:608
    17ec:	91000421 	add	x1, x1, #0x1
    17f0:	17fffedf 	b	136c <kprintf.constprop.0+0x718>
/home/jeferson/optee/optee_os-rpi4/lib/libutils/ext/snprintk.c:622
    17f4:	2a1a03e0 	mov	w0, w26
    17f8:	a9437bfd 	ldp	x29, x30, [sp, #48]
    17fc:	a94453f3 	ldp	x19, x20, [sp, #64]
    1800:	a9455bf5 	ldp	x21, x22, [sp, #80]
    1804:	a94663f7 	ldp	x23, x24, [sp, #96]
    1808:	a9476bf9 	ldp	x25, x26, [sp, #112]
    180c:	a94873fb 	ldp	x27, x28, [sp, #128]
    1810:	9103c3ff 	add	sp, sp, #0xf0
    1814:	d65f03c0 	ret

0000000000001818 <__vsprintf>:
__vsprintf():
/home/jeferson/optee/optee_os-rpi4/lib/libutils/ext/snprintk.c:155
    1818:	a9bc7bfd 	stp	x29, x30, [sp, #-64]!
/home/jeferson/optee/optee_os-rpi4/lib/libutils/ext/snprintk.c:156
    181c:	910083e3 	add	x3, sp, #0x20
/home/jeferson/optee/optee_os-rpi4/lib/libutils/ext/snprintk.c:155
    1820:	910003fd 	mov	x29, sp
    1824:	a90153f3 	stp	x19, x20, [sp, #16]
    1828:	aa0003f4 	mov	x20, x0
    182c:	aa0103f3 	mov	x19, x1
/home/jeferson/optee/optee_os-rpi4/lib/libutils/ext/snprintk.c:156
    1830:	aa0303e0 	mov	x0, x3
/home/jeferson/optee/optee_os-rpi4/lib/libutils/ext/snprintk.c:155
    1834:	aa0203e1 	mov	x1, x2
/home/jeferson/optee/optee_os-rpi4/lib/libutils/ext/snprintk.c:156
    1838:	d2800402 	mov	x2, #0x20                  	// #32
    183c:	97fff9f9 	bl	20 <memcpy>
    1840:	aa1403e2 	mov	x2, x20
    1844:	aa0003e3 	mov	x3, x0
    1848:	52800004 	mov	w4, #0x0                   	// #0
    184c:	aa1303e0 	mov	x0, x19
    1850:	d2800001 	mov	x1, #0x0                   	// #0
    1854:	97fffd00 	bl	c54 <kprintf.constprop.0>
/home/jeferson/optee/optee_os-rpi4/lib/libutils/ext/snprintk.c:157
    1858:	a94153f3 	ldp	x19, x20, [sp, #16]
    185c:	a8c47bfd 	ldp	x29, x30, [sp], #64
    1860:	d65f03c0 	ret

0000000000001864 <memchr>:
memchr():
/home/jeferson/optee/optee_os-rpi4/lib/libutils/isoc/newlib/memchr.c:109
    1864:	12001c21 	and	w1, w1, #0xff
/home/jeferson/optee/optee_os-rpi4/lib/libutils/isoc/newlib/memchr.c:153
    1868:	8b020002 	add	x2, x0, x2
    186c:	eb02001f 	cmp	x0, x2
    1870:	54000061 	b.ne	187c <memchr+0x18>  // b.any
/home/jeferson/optee/optee_os-rpi4/lib/libutils/isoc/newlib/memchr.c:159
    1874:	d2800000 	mov	x0, #0x0                   	// #0
/home/jeferson/optee/optee_os-rpi4/lib/libutils/isoc/newlib/memchr.c:160
    1878:	d65f03c0 	ret
/home/jeferson/optee/optee_os-rpi4/lib/libutils/isoc/newlib/memchr.c:154
    187c:	39400003 	ldrb	w3, [x0]
    1880:	6b01007f 	cmp	w3, w1
    1884:	54ffffa0 	b.eq	1878 <memchr+0x14>  // b.none
/home/jeferson/optee/optee_os-rpi4/lib/libutils/isoc/newlib/memchr.c:156
    1888:	91000400 	add	x0, x0, #0x1
    188c:	17fffff8 	b	186c <memchr+0x8>

0000000000001890 <strlen>:
strlen():
/home/jeferson/optee/optee_os-rpi4/lib/libutils/isoc/newlib/strlen.c:117
    1890:	aa0003e1 	mov	x1, x0
    1894:	39400022 	ldrb	w2, [x1]
    1898:	35000062 	cbnz	w2, 18a4 <strlen+0x14>
/home/jeferson/optee/optee_os-rpi4/lib/libutils/isoc/newlib/strlen.c:120
    189c:	cb000020 	sub	x0, x1, x0
    18a0:	d65f03c0 	ret
/home/jeferson/optee/optee_os-rpi4/lib/libutils/isoc/newlib/strlen.c:118
    18a4:	91000421 	add	x1, x1, #0x1
    18a8:	17fffffb 	b	1894 <strlen+0x4>

00000000000018ac <trace_ext_puts>:
trace_ext_puts():
/home/jeferson/optee/optee_os-rpi4/lib/libutee/trace_ext.c:22
    18ac:	a9be7bfd 	stp	x29, x30, [sp, #-32]!
    18b0:	910003fd 	mov	x29, sp
    18b4:	f9000bf3 	str	x19, [sp, #16]
    18b8:	aa0003f3 	mov	x19, x0
/home/jeferson/optee/optee_os-rpi4/lib/libutee/trace_ext.c:26
    18bc:	97fffff5 	bl	1890 <strlen>
    18c0:	aa0003e1 	mov	x1, x0
    18c4:	aa1303e0 	mov	x0, x19
/home/jeferson/optee/optee_os-rpi4/lib/libutee/trace_ext.c:28
    18c8:	f9400bf3 	ldr	x19, [sp, #16]
    18cc:	a8c27bfd 	ldp	x29, x30, [sp], #32
/home/jeferson/optee/optee_os-rpi4/lib/libutee/trace_ext.c:26
    18d0:	14001d97 	b	8f2c <_utee_log>

00000000000018d4 <trace_ext_get_thread_id>:
trace_ext_get_thread_id():
/home/jeferson/optee/optee_os-rpi4/lib/libutee/trace_ext.c:33
    18d4:	12800000 	mov	w0, #0xffffffff            	// #-1
    18d8:	d65f03c0 	ret

00000000000018dc <printf>:
printf():
/home/jeferson/optee/optee_os-rpi4/lib/libutee/trace_ext.c:41
    18dc:	d108c3ff 	sub	sp, sp, #0x230
    18e0:	a9007bfd 	stp	x29, x30, [sp]
    18e4:	910003fd 	mov	x29, sp
    18e8:	a90153f3 	stp	x19, x20, [sp, #16]
    18ec:	aa0003f3 	mov	x19, x0
    18f0:	910823e0 	add	x0, sp, #0x208
    18f4:	a91f8be1 	stp	x1, x2, [sp, #504]
    18f8:	900000c1 	adrp	x1, 19000 <_DYNAMIC>
    18fc:	3d805fe0 	str	q0, [sp, #368]
    1900:	3d8063e1 	str	q1, [sp, #384]
    1904:	3d8067e2 	str	q2, [sp, #400]
    1908:	3d806be3 	str	q3, [sp, #416]
    190c:	3d806fe4 	str	q4, [sp, #432]
    1910:	3d8073e5 	str	q5, [sp, #448]
    1914:	3d8077e6 	str	q6, [sp, #464]
    1918:	3d807be7 	str	q7, [sp, #480]
    191c:	f9409821 	ldr	x1, [x1, #304]
    1920:	a9001003 	stp	x3, x4, [x0]
    1924:	a9011805 	stp	x5, x6, [x0, #16]
    1928:	f90117e7 	str	x7, [sp, #552]
    192c:	f9400020 	ldr	x0, [x1]
    1930:	f900b7e0 	str	x0, [sp, #360]
    1934:	d2800000 	mov	x0, #0x0                   	// #0
/home/jeferson/optee/optee_os-rpi4/lib/libutee/trace_ext.c:46
    1938:	97fffb87 	bl	754 <trace_get_level>
    193c:	7100001f 	cmp	w0, #0x0
    1940:	5400040d 	b.le	19c0 <printf+0xe4>
/home/jeferson/optee/optee_os-rpi4/lib/libutee/trace_ext.c:49
    1944:	9108c3e0 	add	x0, sp, #0x230
/home/jeferson/optee/optee_os-rpi4/lib/libutee/trace_ext.c:50
    1948:	910083e3 	add	x3, sp, #0x20
/home/jeferson/optee/optee_os-rpi4/lib/libutee/trace_ext.c:49
    194c:	a90483e0 	stp	x0, x0, [sp, #72]
    1950:	9107c3e0 	add	x0, sp, #0x1f0
/home/jeferson/optee/optee_os-rpi4/lib/libutee/trace_ext.c:50
    1954:	910123e1 	add	x1, sp, #0x48
/home/jeferson/optee/optee_os-rpi4/lib/libutee/trace_ext.c:49
    1958:	f9002fe0 	str	x0, [sp, #88]
    195c:	128006e0 	mov	w0, #0xffffffc8            	// #-56
    1960:	b90063e0 	str	w0, [sp, #96]
    1964:	12800fe0 	mov	w0, #0xffffff80            	// #-128
/home/jeferson/optee/optee_os-rpi4/lib/libutee/trace_ext.c:50
    1968:	d2800402 	mov	x2, #0x20                  	// #32
    196c:	9101a3f4 	add	x20, sp, #0x68
/home/jeferson/optee/optee_os-rpi4/lib/libutee/trace_ext.c:49
    1970:	b90067e0 	str	w0, [sp, #100]
/home/jeferson/optee/optee_os-rpi4/lib/libutee/trace_ext.c:50
    1974:	aa0303e0 	mov	x0, x3
    1978:	97fff9aa 	bl	20 <memcpy>
    197c:	aa0003e3 	mov	x3, x0
    1980:	aa1303e2 	mov	x2, x19
    1984:	aa1403e0 	mov	x0, x20
    1988:	d2802001 	mov	x1, #0x100                 	// #256
    198c:	94004472 	bl	12b54 <vsnprintf>
    1990:	2a0003f3 	mov	w19, w0
/home/jeferson/optee/optee_os-rpi4/lib/libutee/trace_ext.c:53
    1994:	37f80060 	tbnz	w0, #31, 19a0 <printf+0xc4>
/home/jeferson/optee/optee_os-rpi4/lib/libutee/trace_ext.c:56
    1998:	aa1403e0 	mov	x0, x20
    199c:	97ffffc4 	bl	18ac <trace_ext_puts>
/home/jeferson/optee/optee_os-rpi4/lib/libutee/trace_ext.c:59
    19a0:	900000c1 	adrp	x1, 19000 <_DYNAMIC>
    19a4:	f9409821 	ldr	x1, [x1, #304]
    19a8:	f940b7e0 	ldr	x0, [sp, #360]
    19ac:	f9400022 	ldr	x2, [x1]
    19b0:	eb020000 	subs	x0, x0, x2
    19b4:	d2800002 	mov	x2, #0x0                   	// #0
    19b8:	54000080 	b.eq	19c8 <printf+0xec>  // b.none
    19bc:	97fffb53 	bl	708 <__stack_chk_fail>
/home/jeferson/optee/optee_os-rpi4/lib/libutee/trace_ext.c:47
    19c0:	52800013 	mov	w19, #0x0                   	// #0
    19c4:	17fffff7 	b	19a0 <printf+0xc4>
/home/jeferson/optee/optee_os-rpi4/lib/libutee/trace_ext.c:59
    19c8:	2a1303e0 	mov	w0, w19
    19cc:	a9407bfd 	ldp	x29, x30, [sp]
    19d0:	a94153f3 	ldp	x19, x20, [sp, #16]
    19d4:	9108c3ff 	add	sp, sp, #0x230
    19d8:	d65f03c0 	ret

00000000000019dc <puts>:
puts():
/home/jeferson/optee/optee_os-rpi4/lib/libutee/trace_ext.c:62
    19dc:	a9be7bfd 	stp	x29, x30, [sp, #-32]!
    19e0:	910003fd 	mov	x29, sp
    19e4:	f9000bf3 	str	x19, [sp, #16]
    19e8:	aa0003f3 	mov	x19, x0
/home/jeferson/optee/optee_os-rpi4/lib/libutee/trace_ext.c:63
    19ec:	97fffb5a 	bl	754 <trace_get_level>
    19f0:	7100001f 	cmp	w0, #0x0
    19f4:	540000cd 	b.le	1a0c <puts+0x30>
/home/jeferson/optee/optee_os-rpi4/lib/libutee/trace_ext.c:64
    19f8:	aa1303e0 	mov	x0, x19
    19fc:	97ffffac 	bl	18ac <trace_ext_puts>
/home/jeferson/optee/optee_os-rpi4/lib/libutee/trace_ext.c:65
    1a00:	d00000a0 	adrp	x0, 17000 <gcd_pairs+0x50>
    1a04:	91302c00 	add	x0, x0, #0xc0b
    1a08:	97ffffa9 	bl	18ac <trace_ext_puts>
/home/jeferson/optee/optee_os-rpi4/lib/libutee/trace_ext.c:68
    1a0c:	52800020 	mov	w0, #0x1                   	// #1
    1a10:	f9400bf3 	ldr	x19, [sp, #16]
    1a14:	a8c27bfd 	ldp	x29, x30, [sp], #32
    1a18:	d65f03c0 	ret

0000000000001a1c <putchar>:
putchar():
/home/jeferson/optee/optee_os-rpi4/lib/libutee/trace_ext.c:71
    1a1c:	a9bd7bfd 	stp	x29, x30, [sp, #-48]!
    1a20:	900000c1 	adrp	x1, 19000 <_DYNAMIC>
    1a24:	910003fd 	mov	x29, sp
    1a28:	f9409821 	ldr	x1, [x1, #304]
    1a2c:	f9000bf3 	str	x19, [sp, #16]
    1a30:	2a0003f3 	mov	w19, w0
    1a34:	f9400020 	ldr	x0, [x1]
    1a38:	f90017e0 	str	x0, [sp, #40]
    1a3c:	d2800000 	mov	x0, #0x0                   	// #0
/home/jeferson/optee/optee_os-rpi4/lib/libutee/trace_ext.c:72
    1a40:	390083f3 	strb	w19, [sp, #32]
    1a44:	390087ff 	strb	wzr, [sp, #33]
/home/jeferson/optee/optee_os-rpi4/lib/libutee/trace_ext.c:74
    1a48:	97fffb43 	bl	754 <trace_get_level>
    1a4c:	7100001f 	cmp	w0, #0x0
    1a50:	5400006d 	b.le	1a5c <putchar+0x40>
/home/jeferson/optee/optee_os-rpi4/lib/libutee/trace_ext.c:75
    1a54:	910083e0 	add	x0, sp, #0x20
    1a58:	97ffff95 	bl	18ac <trace_ext_puts>
/home/jeferson/optee/optee_os-rpi4/lib/libutee/trace_ext.c:82
    1a5c:	900000c1 	adrp	x1, 19000 <_DYNAMIC>
/home/jeferson/optee/optee_os-rpi4/lib/libutee/trace_ext.c:81
    1a60:	12001e60 	and	w0, w19, #0xff
/home/jeferson/optee/optee_os-rpi4/lib/libutee/trace_ext.c:82
    1a64:	f9409821 	ldr	x1, [x1, #304]
    1a68:	f94017e3 	ldr	x3, [sp, #40]
    1a6c:	f9400022 	ldr	x2, [x1]
    1a70:	eb020063 	subs	x3, x3, x2
    1a74:	d2800002 	mov	x2, #0x0                   	// #0
    1a78:	54000040 	b.eq	1a80 <putchar+0x64>  // b.none
    1a7c:	97fffb23 	bl	708 <__stack_chk_fail>
    1a80:	f9400bf3 	ldr	x19, [sp, #16]
    1a84:	a8c37bfd 	ldp	x29, x30, [sp], #48
    1a88:	d65f03c0 	ret

0000000000001a8c <copy_param>:
copy_param():
/home/jeferson/optee/optee_os-rpi4/lib/libutee/tee_api.c:43
    1a8c:	2a0103e3 	mov	w3, w1
    1a90:	52800004 	mov	w4, #0x0                   	// #0
    1a94:	f8008403 	str	x3, [x0], #8
/home/jeferson/optee/optee_os-rpi4/lib/libutee/tee_api.c:45
    1a98:	1ac42425 	lsr	w5, w1, w4
    1a9c:	12000ca3 	and	w3, w5, #0xf
    1aa0:	71000c7f 	cmp	w3, #0x3
    1aa4:	540001a0 	b.eq	1ad8 <copy_param+0x4c>  // b.none
    1aa8:	721e04bf 	tst	w5, #0xc
    1aac:	540000c1 	b.ne	1ac4 <copy_param+0x38>  // b.any
    1ab0:	7100047f 	cmp	w3, #0x1
    1ab4:	54000120 	b.eq	1ad8 <copy_param+0x4c>  // b.none
    1ab8:	d2800003 	mov	x3, #0x0                   	// #0
    1abc:	d2800005 	mov	x5, #0x0                   	// #0
    1ac0:	14000007 	b	1adc <copy_param+0x50>
    1ac4:	51001463 	sub	w3, w3, #0x5
    1ac8:	7100087f 	cmp	w3, #0x2
    1acc:	54ffff68 	b.hi	1ab8 <copy_param+0x2c>  // b.pmore
/home/jeferson/optee/optee_os-rpi4/lib/libutee/tee_api.c:55
    1ad0:	a9400c45 	ldp	x5, x3, [x2]
/home/jeferson/optee/optee_os-rpi4/lib/libutee/tee_api.c:56
    1ad4:	14000002 	b	1adc <copy_param+0x50>
/home/jeferson/optee/optee_os-rpi4/lib/libutee/tee_api.c:49
    1ad8:	29400c45 	ldp	w5, w3, [x2]
/home/jeferson/optee/optee_os-rpi4/lib/libutee/tee_api.c:44 (discriminator 2)
    1adc:	11001084 	add	w4, w4, #0x4
/home/jeferson/optee/optee_os-rpi4/lib/libutee/tee_api.c:62 (discriminator 2)
    1ae0:	a9000c05 	stp	x5, x3, [x0]
/home/jeferson/optee/optee_os-rpi4/lib/libutee/tee_api.c:44 (discriminator 2)
    1ae4:	91004042 	add	x2, x2, #0x10
    1ae8:	91004000 	add	x0, x0, #0x10
    1aec:	7100409f 	cmp	w4, #0x10
    1af0:	54fffd41 	b.ne	1a98 <copy_param+0xc>  // b.any
/home/jeferson/optee/optee_os-rpi4/lib/libutee/tee_api.c:64
    1af4:	d65f03c0 	ret

0000000000001af8 <copy_gp11_param>:
copy_gp11_param():
/home/jeferson/optee/optee_os-rpi4/lib/libutee/tee_api.c:73
    1af8:	2a0103e3 	mov	w3, w1
    1afc:	52800004 	mov	w4, #0x0                   	// #0
    1b00:	f8008403 	str	x3, [x0], #8
/home/jeferson/optee/optee_os-rpi4/lib/libutee/tee_api.c:75
    1b04:	1ac42425 	lsr	w5, w1, w4
    1b08:	12000ca3 	and	w3, w5, #0xf
    1b0c:	71000c7f 	cmp	w3, #0x3
    1b10:	540001c0 	b.eq	1b48 <copy_gp11_param+0x50>  // b.none
    1b14:	721e04bf 	tst	w5, #0xc
    1b18:	540000c1 	b.ne	1b30 <copy_gp11_param+0x38>  // b.any
    1b1c:	7100047f 	cmp	w3, #0x1
    1b20:	54000140 	b.eq	1b48 <copy_gp11_param+0x50>  // b.none
    1b24:	d2800003 	mov	x3, #0x0                   	// #0
    1b28:	d2800005 	mov	x5, #0x0                   	// #0
    1b2c:	14000008 	b	1b4c <copy_gp11_param+0x54>
    1b30:	51001463 	sub	w3, w3, #0x5
    1b34:	7100087f 	cmp	w3, #0x2
    1b38:	54ffff68 	b.hi	1b24 <copy_gp11_param+0x2c>  // b.pmore
/home/jeferson/optee/optee_os-rpi4/lib/libutee/tee_api.c:85
    1b3c:	b9400843 	ldr	w3, [x2, #8]
/home/jeferson/optee/optee_os-rpi4/lib/libutee/tee_api.c:84
    1b40:	f9400045 	ldr	x5, [x2]
/home/jeferson/optee/optee_os-rpi4/lib/libutee/tee_api.c:86
    1b44:	14000002 	b	1b4c <copy_gp11_param+0x54>
/home/jeferson/optee/optee_os-rpi4/lib/libutee/tee_api.c:79
    1b48:	29400c45 	ldp	w5, w3, [x2]
/home/jeferson/optee/optee_os-rpi4/lib/libutee/tee_api.c:74 (discriminator 2)
    1b4c:	11001084 	add	w4, w4, #0x4
/home/jeferson/optee/optee_os-rpi4/lib/libutee/tee_api.c:92 (discriminator 2)
    1b50:	a9000c05 	stp	x5, x3, [x0]
/home/jeferson/optee/optee_os-rpi4/lib/libutee/tee_api.c:74 (discriminator 2)
    1b54:	91004042 	add	x2, x2, #0x10
    1b58:	91004000 	add	x0, x0, #0x10
    1b5c:	7100409f 	cmp	w4, #0x10
    1b60:	54fffd21 	b.ne	1b04 <copy_gp11_param+0xc>  // b.any
/home/jeferson/optee/optee_os-rpi4/lib/libutee/tee_api.c:94
    1b64:	d65f03c0 	ret

0000000000001b68 <check_mem_access_rights_params>:
check_mem_access_rights_params():
/home/jeferson/optee/optee_os-rpi4/lib/libutee/tee_api.c:261
    1b68:	900000c3 	adrp	x3, 19000 <_DYNAMIC>
bufs_intersect():
/home/jeferson/optee/optee_os-rpi4/lib/libutee/tee_api.c:241
    1b6c:	d1000447 	sub	x7, x2, #0x1
    1b70:	8b0100e7 	add	x7, x7, x1
check_mem_access_rights_params():
/home/jeferson/optee/optee_os-rpi4/lib/libutee/tee_api.c:261
    1b74:	52800005 	mov	w5, #0x0                   	// #0
    1b78:	f940d064 	ldr	x4, [x3, #416]
    1b7c:	f940e463 	ldr	x3, [x3, #456]
    1b80:	b9400089 	ldr	w9, [x4]
    1b84:	1ac52524 	lsr	w4, w9, w5
    1b88:	12000c84 	and	w4, w4, #0xf
    1b8c:	7100149f 	cmp	w4, #0x5
    1b90:	54000300 	b.eq	1bf0 <check_mem_access_rights_params+0x88>  // b.none
    1b94:	51001884 	sub	w4, w4, #0x6
    1b98:	7100049f 	cmp	w4, #0x1
    1b9c:	540001e8 	b.hi	1bd8 <check_mem_access_rights_params+0x70>  // b.pmore
    1ba0:	528000c6 	mov	w6, #0x6                   	// #6
/home/jeferson/optee/optee_os-rpi4/lib/libutee/tee_api.c:268
    1ba4:	f9400464 	ldr	x4, [x3, #8]
bufs_intersect():
/home/jeferson/optee/optee_os-rpi4/lib/libutee/tee_api.c:244
    1ba8:	f100005f 	cmp	x2, #0x0
    1bac:	fa401884 	ccmp	x4, #0x0, #0x4, ne  // ne = any
    1bb0:	54000140 	b.eq	1bd8 <check_mem_access_rights_params+0x70>  // b.none
/home/jeferson/optee/optee_os-rpi4/lib/libutee/tee_api.c:240
    1bb4:	f9400068 	ldr	x8, [x3]
/home/jeferson/optee/optee_os-rpi4/lib/libutee/tee_api.c:242
    1bb8:	d1000484 	sub	x4, x4, #0x1
    1bbc:	8b080084 	add	x4, x4, x8
/home/jeferson/optee/optee_os-rpi4/lib/libutee/tee_api.c:247
    1bc0:	eb07011f 	cmp	x8, x7
    1bc4:	fa449022 	ccmp	x1, x4, #0x2, ls  // ls = plast
    1bc8:	54000088 	b.hi	1bd8 <check_mem_access_rights_params+0x70>  // b.pmore
check_mem_access_rights_params():
/home/jeferson/optee/optee_os-rpi4/lib/libutee/tee_api.c:267
    1bcc:	320000c6 	orr	w6, w6, #0x1
/home/jeferson/optee/optee_os-rpi4/lib/libutee/tee_api.c:271
    1bd0:	6a26001f 	bics	wzr, w0, w6
    1bd4:	54000121 	b.ne	1bf8 <check_mem_access_rights_params+0x90>  // b.any
/home/jeferson/optee/optee_os-rpi4/lib/libutee/tee_api.c:258 (discriminator 2)
    1bd8:	110010a5 	add	w5, w5, #0x4
    1bdc:	91004063 	add	x3, x3, #0x10
    1be0:	710040bf 	cmp	w5, #0x10
    1be4:	54fffd01 	b.ne	1b84 <check_mem_access_rights_params+0x1c>  // b.any
/home/jeferson/optee/optee_os-rpi4/lib/libutee/tee_api.c:280
    1be8:	52800000 	mov	w0, #0x0                   	// #0
/home/jeferson/optee/optee_os-rpi4/lib/libutee/tee_api.c:281
    1bec:	d65f03c0 	ret
/home/jeferson/optee/optee_os-rpi4/lib/libutee/tee_api.c:259
    1bf0:	52800086 	mov	w6, #0x4                   	// #4
    1bf4:	17ffffec 	b	1ba4 <check_mem_access_rights_params+0x3c>
/home/jeferson/optee/optee_os-rpi4/lib/libutee/tee_api.c:272
    1bf8:	129fffc0 	mov	w0, #0xffff0001            	// #-65535
    1bfc:	17fffffc 	b	1bec <check_mem_access_rights_params+0x84>

0000000000001c00 <buf_overlaps_no_share_heap>:
buf_overlaps_no_share_heap():
/home/jeferson/optee/optee_os-rpi4/lib/libutee/tee_api.c:284
    1c00:	aa0003e3 	mov	x3, x0
/home/jeferson/optee/optee_os-rpi4/lib/libutee/tee_api.c:285
    1c04:	900000c0 	adrp	x0, 19000 <_DYNAMIC>
    1c08:	f940dc00 	ldr	x0, [x0, #440]
    1c0c:	f9400000 	ldr	x0, [x0]
/home/jeferson/optee/optee_os-rpi4/lib/libutee/tee_api.c:287
    1c10:	b4000140 	cbz	x0, 1c38 <buf_overlaps_no_share_heap+0x38>
/home/jeferson/optee/optee_os-rpi4/lib/libutee/tee_api.c:284 (discriminator 1)
    1c14:	a9bf7bfd 	stp	x29, x30, [sp, #-16]!
    1c18:	aa0103e2 	mov	x2, x1
/home/jeferson/optee/optee_os-rpi4/lib/libutee/tee_api.c:287 (discriminator 1)
    1c1c:	aa0303e1 	mov	x1, x3
/home/jeferson/optee/optee_os-rpi4/lib/libutee/tee_api.c:284 (discriminator 1)
    1c20:	910003fd 	mov	x29, sp
/home/jeferson/optee/optee_os-rpi4/lib/libutee/tee_api.c:287 (discriminator 1)
    1c24:	94004301 	bl	12828 <raw_malloc_buffer_overlaps_heap>
    1c28:	12001c00 	and	w0, w0, #0xff
/home/jeferson/optee/optee_os-rpi4/lib/libutee/tee_api.c:288 (discriminator 1)
    1c2c:	12000000 	and	w0, w0, #0x1
    1c30:	a8c17bfd 	ldp	x29, x30, [sp], #16
    1c34:	d65f03c0 	ret
/home/jeferson/optee/optee_os-rpi4/lib/libutee/tee_api.c:287
    1c38:	52800000 	mov	w0, #0x0                   	// #0
/home/jeferson/optee/optee_os-rpi4/lib/libutee/tee_api.c:288
    1c3c:	12000000 	and	w0, w0, #0x1
    1c40:	d65f03c0 	ret

0000000000001c44 <check_invoke_param>:
check_invoke_param():
/home/jeferson/optee/optee_os-rpi4/lib/libutee/tee_api.c:291
    1c44:	a9bc7bfd 	stp	x29, x30, [sp, #-64]!
    1c48:	910003fd 	mov	x29, sp
    1c4c:	a90153f3 	stp	x19, x20, [sp, #16]
    1c50:	aa0103f3 	mov	x19, x1
    1c54:	52800014 	mov	w20, #0x0                   	// #0
    1c58:	a9025bf5 	stp	x21, x22, [sp, #32]
    1c5c:	2a0003f5 	mov	w21, w0
    1c60:	f9001bf7 	str	x23, [sp, #48]
/home/jeferson/optee/optee_os-rpi4/lib/libutee/tee_api.c:299
    1c64:	1ad426a1 	lsr	w1, w21, w20
    1c68:	12000c21 	and	w1, w1, #0xf
    1c6c:	7100143f 	cmp	w1, #0x5
    1c70:	540003a0 	b.eq	1ce4 <check_invoke_param+0xa0>  // b.none
    1c74:	51001821 	sub	w1, w1, #0x6
    1c78:	7100043f 	cmp	w1, #0x1
    1c7c:	54000228 	b.hi	1cc0 <check_invoke_param+0x7c>  // b.pmore
    1c80:	528000c0 	mov	w0, #0x6                   	// #6
/home/jeferson/optee/optee_os-rpi4/lib/libutee/tee_api.c:297
    1c84:	a9405e76 	ldp	x22, x23, [x19]
/home/jeferson/optee/optee_os-rpi4/lib/libutee/tee_api.c:306
    1c88:	32000000 	orr	w0, w0, #0x1
    1c8c:	aa1703e2 	mov	x2, x23
    1c90:	aa1603e1 	mov	x1, x22
    1c94:	97ffffb5 	bl	1b68 <check_mem_access_rights_params>
    1c98:	34000060 	cbz	w0, 1ca4 <check_invoke_param+0x60>
/home/jeferson/optee/optee_os-rpi4/lib/libutee/tee_api.c:307
    1c9c:	52800000 	mov	w0, #0x0                   	// #0
    1ca0:	94001b76 	bl	8a78 <TEE_Panic>
/home/jeferson/optee/optee_os-rpi4/lib/libutee/tee_api.c:308
    1ca4:	aa1703e1 	mov	x1, x23
    1ca8:	aa1603e0 	mov	x0, x22
    1cac:	97ffffd5 	bl	1c00 <buf_overlaps_no_share_heap>
    1cb0:	72001c1f 	tst	w0, #0xff
    1cb4:	54000060 	b.eq	1cc0 <check_invoke_param+0x7c>  // b.none
/home/jeferson/optee/optee_os-rpi4/lib/libutee/tee_api.c:309
    1cb8:	52800000 	mov	w0, #0x0                   	// #0
    1cbc:	94001b6f 	bl	8a78 <TEE_Panic>
/home/jeferson/optee/optee_os-rpi4/lib/libutee/tee_api.c:294 (discriminator 2)
    1cc0:	11001294 	add	w20, w20, #0x4
    1cc4:	91004273 	add	x19, x19, #0x10
    1cc8:	7100429f 	cmp	w20, #0x10
    1ccc:	54fffcc1 	b.ne	1c64 <check_invoke_param+0x20>  // b.any
/home/jeferson/optee/optee_os-rpi4/lib/libutee/tee_api.c:315
    1cd0:	a94153f3 	ldp	x19, x20, [sp, #16]
    1cd4:	a9425bf5 	ldp	x21, x22, [sp, #32]
    1cd8:	f9401bf7 	ldr	x23, [sp, #48]
    1cdc:	a8c47bfd 	ldp	x29, x30, [sp], #64
    1ce0:	d65f03c0 	ret
/home/jeferson/optee/optee_os-rpi4/lib/libutee/tee_api.c:295
    1ce4:	52800080 	mov	w0, #0x4                   	// #4
    1ce8:	17ffffe7 	b	1c84 <check_invoke_param+0x40>

0000000000001cec <update_out_param>:
update_out_param():
/home/jeferson/optee/optee_os-rpi4/lib/libutee/tee_api.c:180
    1cec:	a9bc7bfd 	stp	x29, x30, [sp, #-64]!
    1cf0:	910003fd 	mov	x29, sp
    1cf4:	a90153f3 	stp	x19, x20, [sp, #16]
/home/jeferson/optee/optee_os-rpi4/lib/libutee/tee_api.c:182
    1cf8:	aa0203f4 	mov	x20, x2
    1cfc:	aa0003f3 	mov	x19, x0
/home/jeferson/optee/optee_os-rpi4/lib/libutee/tee_api.c:180
    1d00:	a90363f7 	stp	x23, x24, [sp, #48]
    1d04:	aa0103f8 	mov	x24, x1
/home/jeferson/optee/optee_os-rpi4/lib/libutee/tee_api.c:182
    1d08:	f8408697 	ldr	x23, [x20], #8
/home/jeferson/optee/optee_os-rpi4/lib/libutee/tee_api.c:180
    1d0c:	a9025bf5 	stp	x21, x22, [sp, #32]
/home/jeferson/optee/optee_os-rpi4/lib/libutee/tee_api.c:184
    1d10:	d2800015 	mov	x21, #0x0                   	// #0
/home/jeferson/optee/optee_os-rpi4/lib/libutee/tee_api.c:188
    1d14:	531e76a0 	lsl	w0, w21, #2
/home/jeferson/optee/optee_os-rpi4/lib/libutee/tee_api.c:186
    1d18:	a9405a82 	ldp	x2, x22, [x20]
/home/jeferson/optee/optee_os-rpi4/lib/libutee/tee_api.c:188
    1d1c:	1ac026e0 	lsr	w0, w23, w0
    1d20:	12000c01 	and	w1, w0, #0xf
    1d24:	721e041f 	tst	w0, #0xc
    1d28:	540000a1 	b.ne	1d3c <update_out_param+0x50>  // b.any
    1d2c:	721f081f 	tst	w0, #0xe
    1d30:	540000c0 	b.eq	1d48 <update_out_param+0x5c>  // b.none
/home/jeferson/optee/optee_os-rpi4/lib/libutee/tee_api.c:192
    1d34:	29005a62 	stp	w2, w22, [x19]
/home/jeferson/optee/optee_os-rpi4/lib/libutee/tee_api.c:193
    1d38:	14000004 	b	1d48 <update_out_param+0x5c>
/home/jeferson/optee/optee_os-rpi4/lib/libutee/tee_api.c:188
    1d3c:	51001820 	sub	w0, w1, #0x6
    1d40:	7100041f 	cmp	w0, #0x1
    1d44:	54000169 	b.ls	1d70 <update_out_param+0x84>  // b.plast
/home/jeferson/optee/optee_os-rpi4/lib/libutee/tee_api.c:184 (discriminator 2)
    1d48:	910006b5 	add	x21, x21, #0x1
    1d4c:	91004294 	add	x20, x20, #0x10
    1d50:	91004273 	add	x19, x19, #0x10
    1d54:	f10012bf 	cmp	x21, #0x4
    1d58:	54fffde1 	b.ne	1d14 <update_out_param+0x28>  // b.any
/home/jeferson/optee/optee_os-rpi4/lib/libutee/tee_api.c:205
    1d5c:	a94153f3 	ldp	x19, x20, [sp, #16]
    1d60:	a9425bf5 	ldp	x21, x22, [sp, #32]
    1d64:	a94363f7 	ldp	x23, x24, [sp, #48]
    1d68:	a8c47bfd 	ldp	x29, x30, [sp], #64
    1d6c:	d65f03c0 	ret
/home/jeferson/optee/optee_os-rpi4/lib/libutee/tee_api.c:196
    1d70:	f8757b01 	ldr	x1, [x24, x21, lsl #3]
    1d74:	b40000a1 	cbz	x1, 1d88 <update_out_param+0x9c>
/home/jeferson/optee/optee_os-rpi4/lib/libutee/tee_api.c:198
    1d78:	a9400a60 	ldp	x0, x2, [x19]
    1d7c:	eb16005f 	cmp	x2, x22
/home/jeferson/optee/optee_os-rpi4/lib/libutee/tee_api.c:197
    1d80:	9a969042 	csel	x2, x2, x22, ls  // ls = plast
    1d84:	97fff8a7 	bl	20 <memcpy>
/home/jeferson/optee/optee_os-rpi4/lib/libutee/tee_api.c:199
    1d88:	f9000676 	str	x22, [x19, #8]
/home/jeferson/optee/optee_os-rpi4/lib/libutee/tee_api.c:200
    1d8c:	17ffffef 	b	1d48 <update_out_param+0x5c>

0000000000001d90 <update_out_gp11_param>:
update_out_gp11_param():
/home/jeferson/optee/optee_os-rpi4/lib/libutee/tee_api.c:210
    1d90:	a9bc7bfd 	stp	x29, x30, [sp, #-64]!
    1d94:	910003fd 	mov	x29, sp
    1d98:	a90153f3 	stp	x19, x20, [sp, #16]
/home/jeferson/optee/optee_os-rpi4/lib/libutee/tee_api.c:212
    1d9c:	aa0203f4 	mov	x20, x2
    1da0:	aa0003f3 	mov	x19, x0
/home/jeferson/optee/optee_os-rpi4/lib/libutee/tee_api.c:210
    1da4:	a90363f7 	stp	x23, x24, [sp, #48]
    1da8:	aa0103f8 	mov	x24, x1
/home/jeferson/optee/optee_os-rpi4/lib/libutee/tee_api.c:212
    1dac:	f8408697 	ldr	x23, [x20], #8
/home/jeferson/optee/optee_os-rpi4/lib/libutee/tee_api.c:210
    1db0:	a9025bf5 	stp	x21, x22, [sp, #32]
/home/jeferson/optee/optee_os-rpi4/lib/libutee/tee_api.c:214
    1db4:	d2800015 	mov	x21, #0x0                   	// #0
/home/jeferson/optee/optee_os-rpi4/lib/libutee/tee_api.c:218
    1db8:	531e76a0 	lsl	w0, w21, #2
/home/jeferson/optee/optee_os-rpi4/lib/libutee/tee_api.c:216
    1dbc:	a9405a82 	ldp	x2, x22, [x20]
/home/jeferson/optee/optee_os-rpi4/lib/libutee/tee_api.c:218
    1dc0:	1ac026e0 	lsr	w0, w23, w0
    1dc4:	12000c01 	and	w1, w0, #0xf
    1dc8:	721e041f 	tst	w0, #0xc
    1dcc:	540000a1 	b.ne	1de0 <update_out_gp11_param+0x50>  // b.any
    1dd0:	721f081f 	tst	w0, #0xe
    1dd4:	540000c0 	b.eq	1dec <update_out_gp11_param+0x5c>  // b.none
/home/jeferson/optee/optee_os-rpi4/lib/libutee/tee_api.c:222
    1dd8:	29005a62 	stp	w2, w22, [x19]
/home/jeferson/optee/optee_os-rpi4/lib/libutee/tee_api.c:223
    1ddc:	14000004 	b	1dec <update_out_gp11_param+0x5c>
/home/jeferson/optee/optee_os-rpi4/lib/libutee/tee_api.c:218
    1de0:	51001820 	sub	w0, w1, #0x6
    1de4:	7100041f 	cmp	w0, #0x1
    1de8:	54000169 	b.ls	1e14 <update_out_gp11_param+0x84>  // b.plast
/home/jeferson/optee/optee_os-rpi4/lib/libutee/tee_api.c:214 (discriminator 2)
    1dec:	910006b5 	add	x21, x21, #0x1
    1df0:	91004294 	add	x20, x20, #0x10
    1df4:	91004273 	add	x19, x19, #0x10
    1df8:	f10012bf 	cmp	x21, #0x4
    1dfc:	54fffde1 	b.ne	1db8 <update_out_gp11_param+0x28>  // b.any
/home/jeferson/optee/optee_os-rpi4/lib/libutee/tee_api.c:235
    1e00:	a94153f3 	ldp	x19, x20, [sp, #16]
    1e04:	a9425bf5 	ldp	x21, x22, [sp, #32]
    1e08:	a94363f7 	ldp	x23, x24, [sp, #48]
    1e0c:	a8c47bfd 	ldp	x29, x30, [sp], #64
    1e10:	d65f03c0 	ret
/home/jeferson/optee/optee_os-rpi4/lib/libutee/tee_api.c:226
    1e14:	f8757b01 	ldr	x1, [x24, x21, lsl #3]
    1e18:	b40000c1 	cbz	x1, 1e30 <update_out_gp11_param+0xa0>
/home/jeferson/optee/optee_os-rpi4/lib/libutee/tee_api.c:228
    1e1c:	b9400a62 	ldr	w2, [x19, #8]
/home/jeferson/optee/optee_os-rpi4/lib/libutee/tee_api.c:227
    1e20:	f9400260 	ldr	x0, [x19]
/home/jeferson/optee/optee_os-rpi4/lib/libutee/tee_api.c:228
    1e24:	eb16005f 	cmp	x2, x22
/home/jeferson/optee/optee_os-rpi4/lib/libutee/tee_api.c:227
    1e28:	9a969042 	csel	x2, x2, x22, ls  // ls = plast
    1e2c:	97fff87d 	bl	20 <memcpy>
/home/jeferson/optee/optee_os-rpi4/lib/libutee/tee_api.c:229
    1e30:	b9000a76 	str	w22, [x19, #8]
/home/jeferson/optee/optee_os-rpi4/lib/libutee/tee_api.c:230
    1e34:	17ffffee 	b	1dec <update_out_gp11_param+0x5c>

0000000000001e38 <TEE_CloseTASession>:
TEE_CloseTASession():
/home/jeferson/optee/optee_os-rpi4/lib/libutee/tee_api.c:415
    1e38:	b4000120 	cbz	x0, 1e5c <TEE_CloseTASession+0x24>
/home/jeferson/optee/optee_os-rpi4/lib/libutee/tee_api.c:414
    1e3c:	a9bf7bfd 	stp	x29, x30, [sp, #-16]!
    1e40:	910003fd 	mov	x29, sp
/home/jeferson/optee/optee_os-rpi4/lib/libutee/tee_api.c:416
    1e44:	94001c49 	bl	8f68 <_utee_close_ta_session>
/home/jeferson/optee/optee_os-rpi4/lib/libutee/tee_api.c:418
    1e48:	34000060 	cbz	w0, 1e54 <TEE_CloseTASession+0x1c>
/home/jeferson/optee/optee_os-rpi4/lib/libutee/tee_api.c:421
    1e4c:	a8c17bfd 	ldp	x29, x30, [sp], #16
/home/jeferson/optee/optee_os-rpi4/lib/libutee/tee_api.c:419
    1e50:	14001b0a 	b	8a78 <TEE_Panic>
/home/jeferson/optee/optee_os-rpi4/lib/libutee/tee_api.c:421
    1e54:	a8c17bfd 	ldp	x29, x30, [sp], #16
    1e58:	d65f03c0 	ret
    1e5c:	d65f03c0 	ret

0000000000001e60 <TEE_GetCancellationFlag>:
TEE_GetCancellationFlag():
/home/jeferson/optee/optee_os-rpi4/lib/libutee/tee_api.c:530
    1e60:	a9be7bfd 	stp	x29, x30, [sp, #-32]!
    1e64:	900000c1 	adrp	x1, 19000 <_DYNAMIC>
    1e68:	910003fd 	mov	x29, sp
    1e6c:	f9409821 	ldr	x1, [x1, #304]
    1e70:	f9400020 	ldr	x0, [x1]
    1e74:	f9000fe0 	str	x0, [sp, #24]
    1e78:	d2800000 	mov	x0, #0x0                   	// #0
/home/jeferson/optee/optee_os-rpi4/lib/libutee/tee_api.c:532
    1e7c:	910053e0 	add	x0, sp, #0x14
    1e80:	94001c40 	bl	8f80 <_utee_get_cancellation_flag>
/home/jeferson/optee/optee_os-rpi4/lib/libutee/tee_api.c:534
    1e84:	34000040 	cbz	w0, 1e8c <TEE_GetCancellationFlag+0x2c>
/home/jeferson/optee/optee_os-rpi4/lib/libutee/tee_api.c:535
    1e88:	b90017ff 	str	wzr, [sp, #20]
/home/jeferson/optee/optee_os-rpi4/lib/libutee/tee_api.c:537
    1e8c:	900000c1 	adrp	x1, 19000 <_DYNAMIC>
/home/jeferson/optee/optee_os-rpi4/lib/libutee/tee_api.c:536
    1e90:	b94017e0 	ldr	w0, [sp, #20]
/home/jeferson/optee/optee_os-rpi4/lib/libutee/tee_api.c:537
    1e94:	f9409821 	ldr	x1, [x1, #304]
/home/jeferson/optee/optee_os-rpi4/lib/libutee/tee_api.c:536
    1e98:	7100001f 	cmp	w0, #0x0
    1e9c:	1a9f07e0 	cset	w0, ne  // ne = any
/home/jeferson/optee/optee_os-rpi4/lib/libutee/tee_api.c:537
    1ea0:	f9400fe3 	ldr	x3, [sp, #24]
    1ea4:	f9400022 	ldr	x2, [x1]
    1ea8:	eb020063 	subs	x3, x3, x2
    1eac:	d2800002 	mov	x2, #0x0                   	// #0
    1eb0:	54000040 	b.eq	1eb8 <TEE_GetCancellationFlag+0x58>  // b.none
    1eb4:	97fffa15 	bl	708 <__stack_chk_fail>
    1eb8:	a8c27bfd 	ldp	x29, x30, [sp], #32
    1ebc:	d65f03c0 	ret

0000000000001ec0 <TEE_UnmaskCancellation>:
TEE_UnmaskCancellation():
/home/jeferson/optee/optee_os-rpi4/lib/libutee/tee_api.c:540
    1ec0:	a9be7bfd 	stp	x29, x30, [sp, #-32]!
    1ec4:	900000c1 	adrp	x1, 19000 <_DYNAMIC>
    1ec8:	910003fd 	mov	x29, sp
    1ecc:	f9409821 	ldr	x1, [x1, #304]
    1ed0:	f9400020 	ldr	x0, [x1]
    1ed4:	f9000fe0 	str	x0, [sp, #24]
    1ed8:	d2800000 	mov	x0, #0x0                   	// #0
/home/jeferson/optee/optee_os-rpi4/lib/libutee/tee_api.c:542
    1edc:	910053e0 	add	x0, sp, #0x14
    1ee0:	94001c2e 	bl	8f98 <_utee_unmask_cancellation>
/home/jeferson/optee/optee_os-rpi4/lib/libutee/tee_api.c:544
    1ee4:	34000040 	cbz	w0, 1eec <TEE_UnmaskCancellation+0x2c>
/home/jeferson/optee/optee_os-rpi4/lib/libutee/tee_api.c:545
    1ee8:	94001ae4 	bl	8a78 <TEE_Panic>
/home/jeferson/optee/optee_os-rpi4/lib/libutee/tee_api.c:547
    1eec:	900000c1 	adrp	x1, 19000 <_DYNAMIC>
/home/jeferson/optee/optee_os-rpi4/lib/libutee/tee_api.c:546
    1ef0:	b94017e0 	ldr	w0, [sp, #20]
/home/jeferson/optee/optee_os-rpi4/lib/libutee/tee_api.c:547
    1ef4:	f9409821 	ldr	x1, [x1, #304]
/home/jeferson/optee/optee_os-rpi4/lib/libutee/tee_api.c:546
    1ef8:	7100001f 	cmp	w0, #0x0
    1efc:	1a9f07e0 	cset	w0, ne  // ne = any
/home/jeferson/optee/optee_os-rpi4/lib/libutee/tee_api.c:547
    1f00:	f9400fe3 	ldr	x3, [sp, #24]
    1f04:	f9400022 	ldr	x2, [x1]
    1f08:	eb020063 	subs	x3, x3, x2
    1f0c:	d2800002 	mov	x2, #0x0                   	// #0
    1f10:	54000040 	b.eq	1f18 <TEE_UnmaskCancellation+0x58>  // b.none
    1f14:	97fff9fd 	bl	708 <__stack_chk_fail>
    1f18:	a8c27bfd 	ldp	x29, x30, [sp], #32
    1f1c:	d65f03c0 	ret

0000000000001f20 <TEE_MaskCancellation>:
TEE_MaskCancellation():
/home/jeferson/optee/optee_os-rpi4/lib/libutee/tee_api.c:550
    1f20:	a9be7bfd 	stp	x29, x30, [sp, #-32]!
    1f24:	900000c1 	adrp	x1, 19000 <_DYNAMIC>
    1f28:	910003fd 	mov	x29, sp
    1f2c:	f9409821 	ldr	x1, [x1, #304]
    1f30:	f9400020 	ldr	x0, [x1]
    1f34:	f9000fe0 	str	x0, [sp, #24]
    1f38:	d2800000 	mov	x0, #0x0                   	// #0
/home/jeferson/optee/optee_os-rpi4/lib/libutee/tee_api.c:552
    1f3c:	910053e0 	add	x0, sp, #0x14
    1f40:	94001c19 	bl	8fa4 <_utee_mask_cancellation>
/home/jeferson/optee/optee_os-rpi4/lib/libutee/tee_api.c:554
    1f44:	34000040 	cbz	w0, 1f4c <TEE_MaskCancellation+0x2c>
/home/jeferson/optee/optee_os-rpi4/lib/libutee/tee_api.c:555
    1f48:	94001acc 	bl	8a78 <TEE_Panic>
/home/jeferson/optee/optee_os-rpi4/lib/libutee/tee_api.c:557
    1f4c:	900000c1 	adrp	x1, 19000 <_DYNAMIC>
/home/jeferson/optee/optee_os-rpi4/lib/libutee/tee_api.c:556
    1f50:	b94017e0 	ldr	w0, [sp, #20]
/home/jeferson/optee/optee_os-rpi4/lib/libutee/tee_api.c:557
    1f54:	f9409821 	ldr	x1, [x1, #304]
/home/jeferson/optee/optee_os-rpi4/lib/libutee/tee_api.c:556
    1f58:	7100001f 	cmp	w0, #0x0
    1f5c:	1a9f07e0 	cset	w0, ne  // ne = any
/home/jeferson/optee/optee_os-rpi4/lib/libutee/tee_api.c:557
    1f60:	f9400fe3 	ldr	x3, [sp, #24]
    1f64:	f9400022 	ldr	x2, [x1]
    1f68:	eb020063 	subs	x3, x3, x2
    1f6c:	d2800002 	mov	x2, #0x0                   	// #0
    1f70:	54000040 	b.eq	1f78 <TEE_MaskCancellation+0x58>  // b.none
    1f74:	97fff9e5 	bl	708 <__stack_chk_fail>
    1f78:	a8c27bfd 	ldp	x29, x30, [sp], #32
    1f7c:	d65f03c0 	ret

0000000000001f80 <TEE_CheckMemoryAccessRights>:
TEE_CheckMemoryAccessRights():
/home/jeferson/optee/optee_os-rpi4/lib/libutee/tee_api.c:566
    1f80:	b5000102 	cbnz	x2, 1fa0 <TEE_CheckMemoryAccessRights+0x20>
/home/jeferson/optee/optee_os-rpi4/lib/libutee/tee_api.c:567
    1f84:	52800000 	mov	w0, #0x0                   	// #0
/home/jeferson/optee/optee_os-rpi4/lib/libutee/tee_api.c:592
    1f88:	d65f03c0 	ret
/home/jeferson/optee/optee_os-rpi4/lib/libutee/tee_api.c:567
    1f8c:	52800000 	mov	w0, #0x0                   	// #0
/home/jeferson/optee/optee_os-rpi4/lib/libutee/tee_api.c:592
    1f90:	a94153f3 	ldp	x19, x20, [sp, #16]
    1f94:	f94013f5 	ldr	x21, [sp, #32]
    1f98:	a8c37bfd 	ldp	x29, x30, [sp], #48
    1f9c:	d65f03c0 	ret
/home/jeferson/optee/optee_os-rpi4/lib/libutee/tee_api.c:563
    1fa0:	a9bd7bfd 	stp	x29, x30, [sp, #-48]!
    1fa4:	910003fd 	mov	x29, sp
    1fa8:	a90153f3 	stp	x19, x20, [sp, #16]
    1fac:	aa0103f4 	mov	x20, x1
    1fb0:	aa0203f3 	mov	x19, x2
    1fb4:	f90013f5 	str	x21, [sp, #32]
    1fb8:	2a0003f5 	mov	w21, w0
/home/jeferson/optee/optee_os-rpi4/lib/libutee/tee_api.c:573
    1fbc:	94001bf4 	bl	8f8c <_utee_check_access_rights>
    1fc0:	35000200 	cbnz	w0, 2000 <TEE_CheckMemoryAccessRights+0x80>
/home/jeferson/optee/optee_os-rpi4/lib/libutee/tee_api.c:584
    1fc4:	aa1303e2 	mov	x2, x19
    1fc8:	aa1403e1 	mov	x1, x20
    1fcc:	12000aa0 	and	w0, w21, #0x7
    1fd0:	97fffee6 	bl	1b68 <check_mem_access_rights_params>
    1fd4:	35000160 	cbnz	w0, 2000 <TEE_CheckMemoryAccessRights+0x80>
/home/jeferson/optee/optee_os-rpi4/lib/libutee/tee_api.c:587
    1fd8:	aa1303e1 	mov	x1, x19
    1fdc:	aa1403e0 	mov	x0, x20
    1fe0:	940042a3 	bl	12a6c <malloc_buffer_overlaps_heap>
    1fe4:	72001c1f 	tst	w0, #0xff
    1fe8:	54fffd20 	b.eq	1f8c <TEE_CheckMemoryAccessRights+0xc>  // b.none
/home/jeferson/optee/optee_os-rpi4/lib/libutee/tee_api.c:588
    1fec:	aa1303e1 	mov	x1, x19
    1ff0:	aa1403e0 	mov	x0, x20
    1ff4:	94004299 	bl	12a58 <malloc_buffer_is_within_alloced>
/home/jeferson/optee/optee_os-rpi4/lib/libutee/tee_api.c:587
    1ff8:	72001c1f 	tst	w0, #0xff
    1ffc:	54fffc81 	b.ne	1f8c <TEE_CheckMemoryAccessRights+0xc>  // b.any
/home/jeferson/optee/optee_os-rpi4/lib/libutee/tee_api.c:589
    2000:	129fffc0 	mov	w0, #0xffff0001            	// #-65535
    2004:	17ffffe3 	b	1f90 <TEE_CheckMemoryAccessRights+0x10>

0000000000002008 <map_tmp_param>:
map_tmp_param():
/home/jeferson/optee/optee_os-rpi4/lib/libutee/tee_api.c:98
    2008:	a9b87bfd 	stp	x29, x30, [sp, #-128]!
    200c:	f00000a4 	adrp	x4, 19000 <_DYNAMIC>
    2010:	910003fd 	mov	x29, sp
    2014:	f9409884 	ldr	x4, [x4, #304]
    2018:	a90153f3 	stp	x19, x20, [sp, #16]
/home/jeferson/optee/optee_os-rpi4/lib/libutee/tee_api.c:116
    201c:	d2800013 	mov	x19, #0x0                   	// #0
/home/jeferson/optee/optee_os-rpi4/lib/libutee/tee_api.c:98
    2020:	a9025bf5 	stp	x21, x22, [sp, #32]
    2024:	aa0203f6 	mov	x22, x2
    2028:	aa0303f5 	mov	x21, x3
    202c:	a90363f7 	stp	x23, x24, [sp, #48]
    2030:	aa0103f7 	mov	x23, x1
/home/jeferson/optee/optee_os-rpi4/lib/libutee/tee_api.c:135
    2034:	52800023 	mov	w3, #0x1                   	// #1
/home/jeferson/optee/optee_os-rpi4/lib/libutee/tee_api.c:98
    2038:	a9046bf9 	stp	x25, x26, [sp, #64]
    203c:	aa0003f9 	mov	x25, x0
    2040:	91002338 	add	x24, x25, #0x8
    2044:	a90573fb 	stp	x27, x28, [sp, #80]
/home/jeferson/optee/optee_os-rpi4/lib/libutee/tee_api.c:115
    2048:	aa1803fb 	mov	x27, x24
/home/jeferson/optee/optee_os-rpi4/lib/libutee/tee_api.c:135
    204c:	9101c3fc 	add	x28, sp, #0x70
/home/jeferson/optee/optee_os-rpi4/lib/libutee/tee_api.c:98
    2050:	f9400080 	ldr	x0, [x4]
    2054:	f9003fe0 	str	x0, [sp, #120]
    2058:	d2800000 	mov	x0, #0x0                   	// #0
/home/jeferson/optee/optee_os-rpi4/lib/libutee/tee_api.c:114
    205c:	f900003f 	str	xzr, [x1]
/home/jeferson/optee/optee_os-rpi4/lib/libutee/tee_api.c:101
    2060:	d280001a 	mov	x26, #0x0                   	// #0
/home/jeferson/optee/optee_os-rpi4/lib/libutee/tee_api.c:115
    2064:	f900005f 	str	xzr, [x2]
/home/jeferson/optee/optee_os-rpi4/lib/libutee/tee_api.c:103
    2068:	b90073ff 	str	wzr, [sp, #112]
/home/jeferson/optee/optee_os-rpi4/lib/libutee/tee_api.c:118
    206c:	f9400321 	ldr	x1, [x25]
    2070:	531e7660 	lsl	w0, w19, #2
/home/jeferson/optee/optee_os-rpi4/lib/libutee/tee_api.c:117
    2074:	f8337abf 	str	xzr, [x21, x19, lsl #3]
/home/jeferson/optee/optee_os-rpi4/lib/libutee/tee_api.c:118
    2078:	1ac02421 	lsr	w1, w1, w0
    207c:	12000c21 	and	w1, w1, #0xf
    2080:	51001421 	sub	w1, w1, #0x5
    2084:	7100083f 	cmp	w1, #0x2
    2088:	540001e8 	b.hi	20c4 <map_tmp_param+0xbc>  // b.pmore
/home/jeferson/optee/optee_os-rpi4/lib/libutee/tee_api.c:123
    208c:	a9405361 	ldp	x1, x20, [x27]
/home/jeferson/optee/optee_os-rpi4/lib/libutee/tee_api.c:133
    2090:	f100003f 	cmp	x1, #0x0
    2094:	fa401a84 	ccmp	x20, #0x0, #0x4, ne  // ne = any
    2098:	54000160 	b.eq	20c4 <map_tmp_param+0xbc>  // b.none
/home/jeferson/optee/optee_os-rpi4/lib/libutee/tee_api.c:134 (discriminator 1)
    209c:	aa1403e2 	mov	x2, x20
    20a0:	52800020 	mov	w0, #0x1                   	// #1
    20a4:	b9006fe3 	str	w3, [sp, #108]
    20a8:	97ffffb6 	bl	1f80 <TEE_CheckMemoryAccessRights>
/home/jeferson/optee/optee_os-rpi4/lib/libutee/tee_api.c:133 (discriminator 1)
    20ac:	b9406fe3 	ldr	w3, [sp, #108]
    20b0:	350000a0 	cbnz	w0, 20c4 <map_tmp_param+0xbc>
/home/jeferson/optee/optee_os-rpi4/lib/libutee/tee_api.c:136
    20b4:	91003e94 	add	x20, x20, #0xf
/home/jeferson/optee/optee_os-rpi4/lib/libutee/tee_api.c:135
    20b8:	383c6a63 	strb	w3, [x19, x28]
/home/jeferson/optee/optee_os-rpi4/lib/libutee/tee_api.c:136
    20bc:	927cee94 	and	x20, x20, #0xfffffffffffffff0
    20c0:	8b14035a 	add	x26, x26, x20
/home/jeferson/optee/optee_os-rpi4/lib/libutee/tee_api.c:116 (discriminator 2)
    20c4:	91000673 	add	x19, x19, #0x1
    20c8:	9100437b 	add	x27, x27, #0x10
    20cc:	f100127f 	cmp	x19, #0x4
    20d0:	54fffce1 	b.ne	206c <map_tmp_param+0x64>  // b.any
/home/jeferson/optee/optee_os-rpi4/lib/libutee/tee_api.c:144
    20d4:	b400053a 	cbz	x26, 2178 <map_tmp_param+0x170>
/home/jeferson/optee/optee_os-rpi4/lib/libutee/tee_api.c:145
    20d8:	2a1303e1 	mov	w1, w19
    20dc:	aa1a03e0 	mov	x0, x26
    20e0:	94001aff 	bl	8cdc <tee_map_zi>
/home/jeferson/optee/optee_os-rpi4/lib/libutee/tee_api.c:146
    20e4:	b40004e0 	cbz	x0, 2180 <map_tmp_param+0x178>
/home/jeferson/optee/optee_os-rpi4/lib/libutee/tee_api.c:148
    20e8:	f90002e0 	str	x0, [x23]
/home/jeferson/optee/optee_os-rpi4/lib/libutee/tee_api.c:149
    20ec:	f90002da 	str	x26, [x22]
/home/jeferson/optee/optee_os-rpi4/lib/libutee/tee_api.c:157
    20f0:	9101c3f6 	add	x22, sp, #0x70
/home/jeferson/optee/optee_os-rpi4/lib/libutee/tee_api.c:100
    20f4:	d2800013 	mov	x19, #0x0                   	// #0
/home/jeferson/optee/optee_os-rpi4/lib/libutee/tee_api.c:153
    20f8:	f9400323 	ldr	x3, [x25]
    20fc:	531e7661 	lsl	w1, w19, #2
    2100:	1ac12463 	lsr	w3, w3, w1
    2104:	12000c63 	and	w3, w3, #0xf
    2108:	51001461 	sub	w1, w3, #0x5
    210c:	7100083f 	cmp	w1, #0x2
    2110:	540001a8 	b.hi	2144 <map_tmp_param+0x13c>  // b.pmore
/home/jeferson/optee/optee_os-rpi4/lib/libutee/tee_api.c:157
    2114:	38766a61 	ldrb	w1, [x19, x22]
    2118:	34000161 	cbz	w1, 2144 <map_tmp_param+0x13c>
/home/jeferson/optee/optee_os-rpi4/lib/libutee/tee_api.c:159
    211c:	a9400b01 	ldp	x1, x2, [x24]
/home/jeferson/optee/optee_os-rpi4/lib/libutee/tee_api.c:161
    2120:	f8337aa0 	str	x0, [x21, x19, lsl #3]
/home/jeferson/optee/optee_os-rpi4/lib/libutee/tee_api.c:163
    2124:	f9000300 	str	x0, [x24]
/home/jeferson/optee/optee_os-rpi4/lib/libutee/tee_api.c:162
    2128:	91003c54 	add	x20, x2, #0xf
    212c:	927cee94 	and	x20, x20, #0xfffffffffffffff0
    2130:	8b140014 	add	x20, x0, x20
/home/jeferson/optee/optee_os-rpi4/lib/libutee/tee_api.c:164
    2134:	7100187f 	cmp	w3, #0x6
    2138:	54000040 	b.eq	2140 <map_tmp_param+0x138>  // b.none
/home/jeferson/optee/optee_os-rpi4/lib/libutee/tee_api.c:166
    213c:	97fff7b9 	bl	20 <memcpy>
/home/jeferson/optee/optee_os-rpi4/lib/libutee/tee_api.c:162
    2140:	aa1403e0 	mov	x0, x20
/home/jeferson/optee/optee_os-rpi4/lib/libutee/tee_api.c:152 (discriminator 2)
    2144:	91000673 	add	x19, x19, #0x1
    2148:	91004318 	add	x24, x24, #0x10
    214c:	f100127f 	cmp	x19, #0x4
    2150:	54fffd41 	b.ne	20f8 <map_tmp_param+0xf0>  // b.any
/home/jeferson/optee/optee_os-rpi4/lib/libutee/tee_api.c:173
    2154:	52800000 	mov	w0, #0x0                   	// #0
/home/jeferson/optee/optee_os-rpi4/lib/libutee/tee_api.c:175
    2158:	f00000a4 	adrp	x4, 19000 <_DYNAMIC>
    215c:	f9409884 	ldr	x4, [x4, #304]
    2160:	f9403fe1 	ldr	x1, [sp, #120]
    2164:	f9400082 	ldr	x2, [x4]
    2168:	eb020021 	subs	x1, x1, x2
    216c:	d2800002 	mov	x2, #0x0                   	// #0
    2170:	540000c0 	b.eq	2188 <map_tmp_param+0x180>  // b.none
    2174:	97fff965 	bl	708 <__stack_chk_fail>
/home/jeferson/optee/optee_os-rpi4/lib/libutee/tee_api.c:100
    2178:	d2800000 	mov	x0, #0x0                   	// #0
    217c:	17ffffdd 	b	20f0 <map_tmp_param+0xe8>
/home/jeferson/optee/optee_os-rpi4/lib/libutee/tee_api.c:147
    2180:	129ffe60 	mov	w0, #0xffff000c            	// #-65524
    2184:	17fffff5 	b	2158 <map_tmp_param+0x150>
/home/jeferson/optee/optee_os-rpi4/lib/libutee/tee_api.c:175
    2188:	a94153f3 	ldp	x19, x20, [sp, #16]
    218c:	a9425bf5 	ldp	x21, x22, [sp, #32]
    2190:	a94363f7 	ldp	x23, x24, [sp, #48]
    2194:	a9446bf9 	ldp	x25, x26, [sp, #64]
    2198:	a94573fb 	ldp	x27, x28, [sp, #80]
    219c:	a8c87bfd 	ldp	x29, x30, [sp], #128
    21a0:	d65f03c0 	ret

00000000000021a4 <TEE_OpenTASession>:
TEE_OpenTASession():
/home/jeferson/optee/optee_os-rpi4/lib/libutee/tee_api.c:323
    21a4:	a9b27bfd 	stp	x29, x30, [sp, #-224]!
    21a8:	f00000a6 	adrp	x6, 19000 <_DYNAMIC>
    21ac:	910003fd 	mov	x29, sp
    21b0:	f94098c6 	ldr	x6, [x6, #304]
    21b4:	a90153f3 	stp	x19, x20, [sp, #16]
    21b8:	2a0203f3 	mov	w19, w2
    21bc:	a9025bf5 	stp	x21, x22, [sp, #32]
    21c0:	aa0303f4 	mov	x20, x3
    21c4:	aa0403f5 	mov	x21, x4
    21c8:	a90363f7 	stp	x23, x24, [sp, #48]
    21cc:	aa0003f7 	mov	x23, x0
    21d0:	2a0103f8 	mov	w24, w1
    21d4:	a9046bf9 	stp	x25, x26, [sp, #64]
    21d8:	aa0503f9 	mov	x25, x5
    21dc:	f94000c0 	ldr	x0, [x6]
    21e0:	f9006fe0 	str	x0, [sp, #216]
    21e4:	d2800000 	mov	x0, #0x0                   	// #0
/home/jeferson/optee/optee_os-rpi4/lib/libutee/tee_api.c:326
    21e8:	b9005fff 	str	wzr, [sp, #92]
/home/jeferson/optee/optee_os-rpi4/lib/libutee/tee_api.c:328
    21ec:	a9067fff 	stp	xzr, xzr, [sp, #96]
/home/jeferson/optee/optee_os-rpi4/lib/libutee/tee_api.c:329
    21f0:	a9077fff 	stp	xzr, xzr, [sp, #112]
    21f4:	a9087fff 	stp	xzr, xzr, [sp, #128]
/home/jeferson/optee/optee_os-rpi4/lib/libutee/tee_api.c:325
    21f8:	a9097fff 	stp	xzr, xzr, [sp, #144]
    21fc:	a90a7fff 	stp	xzr, xzr, [sp, #160]
    2200:	a90b7fff 	stp	xzr, xzr, [sp, #176]
    2204:	a90c7fff 	stp	xzr, xzr, [sp, #192]
    2208:	f9006bff 	str	xzr, [sp, #208]
/home/jeferson/optee/optee_os-rpi4/lib/libutee/tee_api.c:331
    220c:	340000e2 	cbz	w2, 2228 <TEE_OpenTASession+0x84>
/home/jeferson/optee/optee_os-rpi4/lib/libutee/tee_api.c:332
    2210:	aa0303e0 	mov	x0, x3
    2214:	d2800801 	mov	x1, #0x40                  	// #64
    2218:	94001a88 	bl	8c38 <__utee_check_inout_annotation>
/home/jeferson/optee/optee_os-rpi4/lib/libutee/tee_api.c:335
    221c:	aa1403e1 	mov	x1, x20
    2220:	2a1303e0 	mov	w0, w19
    2224:	97fffe88 	bl	1c44 <check_invoke_param>
/home/jeferson/optee/optee_os-rpi4/lib/libutee/tee_api.c:337
    2228:	aa1503e0 	mov	x0, x21
/home/jeferson/optee/optee_os-rpi4/lib/libutee/tee_api.c:339
    222c:	910243f6 	add	x22, sp, #0x90
/home/jeferson/optee/optee_os-rpi4/lib/libutee/tee_api.c:337
    2230:	d2800101 	mov	x1, #0x8                   	// #8
    2234:	94001a6f 	bl	8bf0 <__utee_check_out_annotation>
/home/jeferson/optee/optee_os-rpi4/lib/libutee/tee_api.c:339
    2238:	2a1303e1 	mov	w1, w19
    223c:	aa1403e2 	mov	x2, x20
    2240:	aa1603e0 	mov	x0, x22
/home/jeferson/optee/optee_os-rpi4/lib/libutee/tee_api.c:340
    2244:	9101c3fa 	add	x26, sp, #0x70
/home/jeferson/optee/optee_os-rpi4/lib/libutee/tee_api.c:339
    2248:	97fffe11 	bl	1a8c <copy_param>
/home/jeferson/optee/optee_os-rpi4/lib/libutee/tee_api.c:340
    224c:	910183e1 	add	x1, sp, #0x60
    2250:	aa1a03e3 	mov	x3, x26
    2254:	9101a3e2 	add	x2, sp, #0x68
    2258:	aa1603e0 	mov	x0, x22
    225c:	97ffff6b 	bl	2008 <map_tmp_param>
    2260:	2a0003f3 	mov	w19, w0
/home/jeferson/optee/optee_os-rpi4/lib/libutee/tee_api.c:341
    2264:	35000260 	cbnz	w0, 22b0 <TEE_OpenTASession+0x10c>
/home/jeferson/optee/optee_os-rpi4/lib/libutee/tee_api.c:343
    2268:	aa1903e4 	mov	x4, x25
    226c:	910173e3 	add	x3, sp, #0x5c
    2270:	aa1603e2 	mov	x2, x22
    2274:	2a1803e1 	mov	w1, w24
    2278:	aa1703e0 	mov	x0, x23
    227c:	94001b38 	bl	8f5c <_utee_open_ta_session>
/home/jeferson/optee/optee_os-rpi4/lib/libutee/tee_api.c:345
    2280:	aa1603e2 	mov	x2, x22
/home/jeferson/optee/optee_os-rpi4/lib/libutee/tee_api.c:343
    2284:	2a0003f3 	mov	w19, w0
/home/jeferson/optee/optee_os-rpi4/lib/libutee/tee_api.c:345
    2288:	aa1a03e1 	mov	x1, x26
    228c:	aa1403e0 	mov	x0, x20
    2290:	97fffe97 	bl	1cec <update_out_param>
/home/jeferson/optee/optee_os-rpi4/lib/libutee/tee_api.c:346
    2294:	f94033e0 	ldr	x0, [sp, #96]
    2298:	b40000a0 	cbz	x0, 22ac <TEE_OpenTASession+0x108>
/home/jeferson/optee/optee_os-rpi4/lib/libutee/tee_api.c:347
    229c:	f94037e1 	ldr	x1, [sp, #104]
    22a0:	94001ab4 	bl	8d70 <tee_unmap>
/home/jeferson/optee/optee_os-rpi4/lib/libutee/tee_api.c:349
    22a4:	34000040 	cbz	w0, 22ac <TEE_OpenTASession+0x108>
/home/jeferson/optee/optee_os-rpi4/lib/libutee/tee_api.c:350
    22a8:	940019f4 	bl	8a78 <TEE_Panic>
/home/jeferson/optee/optee_os-rpi4/lib/libutee/tee_api.c:359
    22ac:	34000053 	cbz	w19, 22b4 <TEE_OpenTASession+0x110>
/home/jeferson/optee/optee_os-rpi4/lib/libutee/tee_api.c:360
    22b0:	b9005fff 	str	wzr, [sp, #92]
/home/jeferson/optee/optee_os-rpi4/lib/libutee/tee_api.c:364
    22b4:	f00000a6 	adrp	x6, 19000 <_DYNAMIC>
/home/jeferson/optee/optee_os-rpi4/lib/libutee/tee_api.c:362
    22b8:	b9405fe0 	ldr	w0, [sp, #92]
    22bc:	f90002a0 	str	x0, [x21]
/home/jeferson/optee/optee_os-rpi4/lib/libutee/tee_api.c:364
    22c0:	f94098c6 	ldr	x6, [x6, #304]
    22c4:	f9406fe0 	ldr	x0, [sp, #216]
    22c8:	f94000c1 	ldr	x1, [x6]
    22cc:	eb010000 	subs	x0, x0, x1
    22d0:	d2800001 	mov	x1, #0x0                   	// #0
    22d4:	54000040 	b.eq	22dc <TEE_OpenTASession+0x138>  // b.none
    22d8:	97fff90c 	bl	708 <__stack_chk_fail>
    22dc:	2a1303e0 	mov	w0, w19
    22e0:	a94153f3 	ldp	x19, x20, [sp, #16]
    22e4:	a9425bf5 	ldp	x21, x22, [sp, #32]
    22e8:	a94363f7 	ldp	x23, x24, [sp, #48]
    22ec:	a9446bf9 	ldp	x25, x26, [sp, #64]
    22f0:	a8ce7bfd 	ldp	x29, x30, [sp], #224
    22f4:	d65f03c0 	ret

00000000000022f8 <__GP11_TEE_OpenTASession>:
__GP11_TEE_OpenTASession():
/home/jeferson/optee/optee_os-rpi4/lib/libutee/tee_api.c:372
    22f8:	a9b27bfd 	stp	x29, x30, [sp, #-224]!
    22fc:	f00000a6 	adrp	x6, 19000 <_DYNAMIC>
    2300:	910003fd 	mov	x29, sp
    2304:	f94098c6 	ldr	x6, [x6, #304]
    2308:	a90153f3 	stp	x19, x20, [sp, #16]
    230c:	2a0203f3 	mov	w19, w2
    2310:	a9025bf5 	stp	x21, x22, [sp, #32]
    2314:	aa0303f4 	mov	x20, x3
    2318:	aa0403f5 	mov	x21, x4
    231c:	a90363f7 	stp	x23, x24, [sp, #48]
    2320:	aa0003f7 	mov	x23, x0
    2324:	2a0103f8 	mov	w24, w1
    2328:	a9046bf9 	stp	x25, x26, [sp, #64]
    232c:	aa0503f9 	mov	x25, x5
    2330:	f94000c0 	ldr	x0, [x6]
    2334:	f9006fe0 	str	x0, [sp, #216]
    2338:	d2800000 	mov	x0, #0x0                   	// #0
/home/jeferson/optee/optee_os-rpi4/lib/libutee/tee_api.c:375
    233c:	b9005fff 	str	wzr, [sp, #92]
/home/jeferson/optee/optee_os-rpi4/lib/libutee/tee_api.c:377
    2340:	a9067fff 	stp	xzr, xzr, [sp, #96]
/home/jeferson/optee/optee_os-rpi4/lib/libutee/tee_api.c:378
    2344:	a9077fff 	stp	xzr, xzr, [sp, #112]
    2348:	a9087fff 	stp	xzr, xzr, [sp, #128]
/home/jeferson/optee/optee_os-rpi4/lib/libutee/tee_api.c:374
    234c:	a9097fff 	stp	xzr, xzr, [sp, #144]
    2350:	a90a7fff 	stp	xzr, xzr, [sp, #160]
    2354:	a90b7fff 	stp	xzr, xzr, [sp, #176]
    2358:	a90c7fff 	stp	xzr, xzr, [sp, #192]
    235c:	f9006bff 	str	xzr, [sp, #208]
/home/jeferson/optee/optee_os-rpi4/lib/libutee/tee_api.c:380
    2360:	34000082 	cbz	w2, 2370 <__GP11_TEE_OpenTASession+0x78>
/home/jeferson/optee/optee_os-rpi4/lib/libutee/tee_api.c:381
    2364:	aa0303e0 	mov	x0, x3
    2368:	d2800801 	mov	x1, #0x40                  	// #64
    236c:	94001a33 	bl	8c38 <__utee_check_inout_annotation>
/home/jeferson/optee/optee_os-rpi4/lib/libutee/tee_api.c:384
    2370:	aa1503e0 	mov	x0, x21
/home/jeferson/optee/optee_os-rpi4/lib/libutee/tee_api.c:386
    2374:	910243f6 	add	x22, sp, #0x90
/home/jeferson/optee/optee_os-rpi4/lib/libutee/tee_api.c:384
    2378:	d2800101 	mov	x1, #0x8                   	// #8
    237c:	94001a1d 	bl	8bf0 <__utee_check_out_annotation>
/home/jeferson/optee/optee_os-rpi4/lib/libutee/tee_api.c:386
    2380:	2a1303e1 	mov	w1, w19
    2384:	aa1403e2 	mov	x2, x20
    2388:	aa1603e0 	mov	x0, x22
/home/jeferson/optee/optee_os-rpi4/lib/libutee/tee_api.c:387
    238c:	9101c3fa 	add	x26, sp, #0x70
/home/jeferson/optee/optee_os-rpi4/lib/libutee/tee_api.c:386
    2390:	97fffdda 	bl	1af8 <copy_gp11_param>
/home/jeferson/optee/optee_os-rpi4/lib/libutee/tee_api.c:387
    2394:	910183e1 	add	x1, sp, #0x60
    2398:	aa1a03e3 	mov	x3, x26
    239c:	9101a3e2 	add	x2, sp, #0x68
    23a0:	aa1603e0 	mov	x0, x22
    23a4:	97ffff19 	bl	2008 <map_tmp_param>
    23a8:	2a0003f3 	mov	w19, w0
/home/jeferson/optee/optee_os-rpi4/lib/libutee/tee_api.c:388
    23ac:	35000260 	cbnz	w0, 23f8 <__GP11_TEE_OpenTASession+0x100>
/home/jeferson/optee/optee_os-rpi4/lib/libutee/tee_api.c:390
    23b0:	aa1903e4 	mov	x4, x25
    23b4:	910173e3 	add	x3, sp, #0x5c
    23b8:	aa1603e2 	mov	x2, x22
    23bc:	2a1803e1 	mov	w1, w24
    23c0:	aa1703e0 	mov	x0, x23
    23c4:	94001ae6 	bl	8f5c <_utee_open_ta_session>
/home/jeferson/optee/optee_os-rpi4/lib/libutee/tee_api.c:392
    23c8:	aa1603e2 	mov	x2, x22
/home/jeferson/optee/optee_os-rpi4/lib/libutee/tee_api.c:390
    23cc:	2a0003f3 	mov	w19, w0
/home/jeferson/optee/optee_os-rpi4/lib/libutee/tee_api.c:392
    23d0:	aa1a03e1 	mov	x1, x26
    23d4:	aa1403e0 	mov	x0, x20
    23d8:	97fffe6e 	bl	1d90 <update_out_gp11_param>
/home/jeferson/optee/optee_os-rpi4/lib/libutee/tee_api.c:393
    23dc:	f94033e0 	ldr	x0, [sp, #96]
    23e0:	b40000a0 	cbz	x0, 23f4 <__GP11_TEE_OpenTASession+0xfc>
/home/jeferson/optee/optee_os-rpi4/lib/libutee/tee_api.c:394
    23e4:	f94037e1 	ldr	x1, [sp, #104]
    23e8:	94001a62 	bl	8d70 <tee_unmap>
/home/jeferson/optee/optee_os-rpi4/lib/libutee/tee_api.c:396
    23ec:	34000040 	cbz	w0, 23f4 <__GP11_TEE_OpenTASession+0xfc>
/home/jeferson/optee/optee_os-rpi4/lib/libutee/tee_api.c:397
    23f0:	940019a2 	bl	8a78 <TEE_Panic>
/home/jeferson/optee/optee_os-rpi4/lib/libutee/tee_api.c:406
    23f4:	34000053 	cbz	w19, 23fc <__GP11_TEE_OpenTASession+0x104>
/home/jeferson/optee/optee_os-rpi4/lib/libutee/tee_api.c:407
    23f8:	b9005fff 	str	wzr, [sp, #92]
/home/jeferson/optee/optee_os-rpi4/lib/libutee/tee_api.c:411
    23fc:	f00000a6 	adrp	x6, 19000 <_DYNAMIC>
/home/jeferson/optee/optee_os-rpi4/lib/libutee/tee_api.c:409
    2400:	b9405fe0 	ldr	w0, [sp, #92]
    2404:	f90002a0 	str	x0, [x21]
/home/jeferson/optee/optee_os-rpi4/lib/libutee/tee_api.c:411
    2408:	f94098c6 	ldr	x6, [x6, #304]
    240c:	f9406fe0 	ldr	x0, [sp, #216]
    2410:	f94000c1 	ldr	x1, [x6]
    2414:	eb010000 	subs	x0, x0, x1
    2418:	d2800001 	mov	x1, #0x0                   	// #0
    241c:	54000040 	b.eq	2424 <__GP11_TEE_OpenTASession+0x12c>  // b.none
    2420:	97fff8ba 	bl	708 <__stack_chk_fail>
    2424:	2a1303e0 	mov	w0, w19
    2428:	a94153f3 	ldp	x19, x20, [sp, #16]
    242c:	a9425bf5 	ldp	x21, x22, [sp, #32]
    2430:	a94363f7 	ldp	x23, x24, [sp, #48]
    2434:	a9446bf9 	ldp	x25, x26, [sp, #64]
    2438:	a8ce7bfd 	ldp	x29, x30, [sp], #224
    243c:	d65f03c0 	ret

0000000000002440 <TEE_InvokeTACommand>:
TEE_InvokeTACommand():
/home/jeferson/optee/optee_os-rpi4/lib/libutee/tee_api.c:428
    2440:	a9b27bfd 	stp	x29, x30, [sp, #-224]!
    2444:	f00000a6 	adrp	x6, 19000 <_DYNAMIC>
    2448:	910003fd 	mov	x29, sp
    244c:	f94098c6 	ldr	x6, [x6, #304]
    2450:	a90153f3 	stp	x19, x20, [sp, #16]
    2454:	2a0303f3 	mov	w19, w3
    2458:	a9025bf5 	stp	x21, x22, [sp, #32]
    245c:	aa0003f6 	mov	x22, x0
    2460:	aa0403f5 	mov	x21, x4
    2464:	a90363f7 	stp	x23, x24, [sp, #48]
    2468:	aa0503f4 	mov	x20, x5
    246c:	2a0103f7 	mov	w23, w1
    2470:	a9046bf9 	stp	x25, x26, [sp, #64]
    2474:	2a0203f8 	mov	w24, w2
    2478:	f94000c0 	ldr	x0, [x6]
    247c:	f9006fe0 	str	x0, [sp, #216]
    2480:	d2800000 	mov	x0, #0x0                   	// #0
/home/jeferson/optee/optee_os-rpi4/lib/libutee/tee_api.c:433
    2484:	a9067fff 	stp	xzr, xzr, [sp, #96]
/home/jeferson/optee/optee_os-rpi4/lib/libutee/tee_api.c:430
    2488:	52800060 	mov	w0, #0x3                   	// #3
    248c:	b9005fe0 	str	w0, [sp, #92]
/home/jeferson/optee/optee_os-rpi4/lib/libutee/tee_api.c:434
    2490:	a9077fff 	stp	xzr, xzr, [sp, #112]
    2494:	a9087fff 	stp	xzr, xzr, [sp, #128]
/home/jeferson/optee/optee_os-rpi4/lib/libutee/tee_api.c:431
    2498:	a9097fff 	stp	xzr, xzr, [sp, #144]
    249c:	a90a7fff 	stp	xzr, xzr, [sp, #160]
    24a0:	a90b7fff 	stp	xzr, xzr, [sp, #176]
    24a4:	a90c7fff 	stp	xzr, xzr, [sp, #192]
    24a8:	f9006bff 	str	xzr, [sp, #208]
/home/jeferson/optee/optee_os-rpi4/lib/libutee/tee_api.c:436
    24ac:	340000e3 	cbz	w3, 24c8 <TEE_InvokeTACommand+0x88>
/home/jeferson/optee/optee_os-rpi4/lib/libutee/tee_api.c:437
    24b0:	aa0403e0 	mov	x0, x4
    24b4:	d2800801 	mov	x1, #0x40                  	// #64
    24b8:	940019e0 	bl	8c38 <__utee_check_inout_annotation>
/home/jeferson/optee/optee_os-rpi4/lib/libutee/tee_api.c:440
    24bc:	aa1503e1 	mov	x1, x21
    24c0:	2a1303e0 	mov	w0, w19
    24c4:	97fffde0 	bl	1c44 <check_invoke_param>
/home/jeferson/optee/optee_os-rpi4/lib/libutee/tee_api.c:442
    24c8:	b4000094 	cbz	x20, 24d8 <TEE_InvokeTACommand+0x98>
/home/jeferson/optee/optee_os-rpi4/lib/libutee/tee_api.c:443
    24cc:	aa1403e0 	mov	x0, x20
    24d0:	d2800081 	mov	x1, #0x4                   	// #4
    24d4:	940019c7 	bl	8bf0 <__utee_check_out_annotation>
/home/jeferson/optee/optee_os-rpi4/lib/libutee/tee_api.c:446
    24d8:	910243f9 	add	x25, sp, #0x90
    24dc:	2a1303e1 	mov	w1, w19
    24e0:	aa1503e2 	mov	x2, x21
    24e4:	aa1903e0 	mov	x0, x25
/home/jeferson/optee/optee_os-rpi4/lib/libutee/tee_api.c:447
    24e8:	9101c3fa 	add	x26, sp, #0x70
/home/jeferson/optee/optee_os-rpi4/lib/libutee/tee_api.c:446
    24ec:	97fffd68 	bl	1a8c <copy_param>
/home/jeferson/optee/optee_os-rpi4/lib/libutee/tee_api.c:447
    24f0:	aa1a03e3 	mov	x3, x26
    24f4:	9101a3e2 	add	x2, sp, #0x68
    24f8:	910183e1 	add	x1, sp, #0x60
    24fc:	aa1903e0 	mov	x0, x25
    2500:	97fffec2 	bl	2008 <map_tmp_param>
    2504:	2a0003f3 	mov	w19, w0
/home/jeferson/optee/optee_os-rpi4/lib/libutee/tee_api.c:448
    2508:	35000240 	cbnz	w0, 2550 <TEE_InvokeTACommand+0x110>
/home/jeferson/optee/optee_os-rpi4/lib/libutee/tee_api.c:450
    250c:	910173e4 	add	x4, sp, #0x5c
    2510:	aa1903e3 	mov	x3, x25
    2514:	2a1803e2 	mov	w2, w24
    2518:	2a1703e1 	mov	w1, w23
    251c:	aa1603e0 	mov	x0, x22
    2520:	94001a95 	bl	8f74 <_utee_invoke_ta_command>
/home/jeferson/optee/optee_os-rpi4/lib/libutee/tee_api.c:453
    2524:	aa1903e2 	mov	x2, x25
/home/jeferson/optee/optee_os-rpi4/lib/libutee/tee_api.c:450
    2528:	2a0003f3 	mov	w19, w0
/home/jeferson/optee/optee_os-rpi4/lib/libutee/tee_api.c:453
    252c:	aa1a03e1 	mov	x1, x26
    2530:	aa1503e0 	mov	x0, x21
    2534:	97fffdee 	bl	1cec <update_out_param>
/home/jeferson/optee/optee_os-rpi4/lib/libutee/tee_api.c:454
    2538:	f94033e0 	ldr	x0, [sp, #96]
    253c:	b40000a0 	cbz	x0, 2550 <TEE_InvokeTACommand+0x110>
/home/jeferson/optee/optee_os-rpi4/lib/libutee/tee_api.c:455
    2540:	f94037e1 	ldr	x1, [sp, #104]
    2544:	94001a0b 	bl	8d70 <tee_unmap>
/home/jeferson/optee/optee_os-rpi4/lib/libutee/tee_api.c:457
    2548:	34000040 	cbz	w0, 2550 <TEE_InvokeTACommand+0x110>
/home/jeferson/optee/optee_os-rpi4/lib/libutee/tee_api.c:458
    254c:	9400194b 	bl	8a78 <TEE_Panic>
/home/jeferson/optee/optee_os-rpi4/lib/libutee/tee_api.c:463
    2550:	b9405fe0 	ldr	w0, [sp, #92]
/home/jeferson/optee/optee_os-rpi4/lib/libutee/tee_api.c:462
    2554:	b4000054 	cbz	x20, 255c <TEE_InvokeTACommand+0x11c>
/home/jeferson/optee/optee_os-rpi4/lib/libutee/tee_api.c:463
    2558:	b9000280 	str	w0, [x20]
/home/jeferson/optee/optee_os-rpi4/lib/libutee/tee_api.c:465
    255c:	7100101f 	cmp	w0, #0x4
    2560:	54000140 	b.eq	2588 <TEE_InvokeTACommand+0x148>  // b.none
/home/jeferson/optee/optee_os-rpi4/lib/libutee/tee_api.c:468
    2564:	7100027f 	cmp	w19, #0x0
    2568:	129ffe60 	mov	w0, #0xffff000c            	// #-65524
    256c:	7a401264 	ccmp	w19, w0, #0x4, ne  // ne = any
    2570:	540000c0 	b.eq	2588 <TEE_InvokeTACommand+0x148>  // b.none
/home/jeferson/optee/optee_os-rpi4/lib/libutee/tee_api.c:469
    2574:	1299fb60 	mov	w0, #0xffff3024            	// #-53212
    2578:	6b00027f 	cmp	w19, w0
    257c:	54000060 	b.eq	2588 <TEE_InvokeTACommand+0x148>  // b.none
/home/jeferson/optee/optee_os-rpi4/lib/libutee/tee_api.c:471
    2580:	2a1303e0 	mov	w0, w19
    2584:	9400193d 	bl	8a78 <TEE_Panic>
/home/jeferson/optee/optee_os-rpi4/lib/libutee/tee_api.c:474
    2588:	f00000a6 	adrp	x6, 19000 <_DYNAMIC>
    258c:	f94098c6 	ldr	x6, [x6, #304]
    2590:	f9406fe0 	ldr	x0, [sp, #216]
    2594:	f94000c1 	ldr	x1, [x6]
    2598:	eb010000 	subs	x0, x0, x1
    259c:	d2800001 	mov	x1, #0x0                   	// #0
    25a0:	54000040 	b.eq	25a8 <TEE_InvokeTACommand+0x168>  // b.none
    25a4:	97fff859 	bl	708 <__stack_chk_fail>
    25a8:	2a1303e0 	mov	w0, w19
    25ac:	a94153f3 	ldp	x19, x20, [sp, #16]
    25b0:	a9425bf5 	ldp	x21, x22, [sp, #32]
    25b4:	a94363f7 	ldp	x23, x24, [sp, #48]
    25b8:	a9446bf9 	ldp	x25, x26, [sp, #64]
    25bc:	a8ce7bfd 	ldp	x29, x30, [sp], #224
    25c0:	d65f03c0 	ret

00000000000025c4 <__GP11_TEE_InvokeTACommand>:
__GP11_TEE_InvokeTACommand():
/home/jeferson/optee/optee_os-rpi4/lib/libutee/tee_api.c:481
    25c4:	a9b27bfd 	stp	x29, x30, [sp, #-224]!
    25c8:	f00000a6 	adrp	x6, 19000 <_DYNAMIC>
    25cc:	910003fd 	mov	x29, sp
    25d0:	f94098c6 	ldr	x6, [x6, #304]
    25d4:	a90153f3 	stp	x19, x20, [sp, #16]
    25d8:	2a0303f3 	mov	w19, w3
    25dc:	a9025bf5 	stp	x21, x22, [sp, #32]
    25e0:	aa0503f4 	mov	x20, x5
    25e4:	aa0403f5 	mov	x21, x4
    25e8:	a90363f7 	stp	x23, x24, [sp, #48]
    25ec:	aa0003f7 	mov	x23, x0
    25f0:	2a0103f8 	mov	w24, w1
    25f4:	a9046bf9 	stp	x25, x26, [sp, #64]
    25f8:	2a0203f9 	mov	w25, w2
    25fc:	f94000c0 	ldr	x0, [x6]
    2600:	f9006fe0 	str	x0, [sp, #216]
    2604:	d2800000 	mov	x0, #0x0                   	// #0
/home/jeferson/optee/optee_os-rpi4/lib/libutee/tee_api.c:486
    2608:	a9067fff 	stp	xzr, xzr, [sp, #96]
/home/jeferson/optee/optee_os-rpi4/lib/libutee/tee_api.c:483
    260c:	52800060 	mov	w0, #0x3                   	// #3
    2610:	b9005fe0 	str	w0, [sp, #92]
/home/jeferson/optee/optee_os-rpi4/lib/libutee/tee_api.c:487
    2614:	a9077fff 	stp	xzr, xzr, [sp, #112]
    2618:	a9087fff 	stp	xzr, xzr, [sp, #128]
/home/jeferson/optee/optee_os-rpi4/lib/libutee/tee_api.c:484
    261c:	a9097fff 	stp	xzr, xzr, [sp, #144]
    2620:	a90a7fff 	stp	xzr, xzr, [sp, #160]
    2624:	a90b7fff 	stp	xzr, xzr, [sp, #176]
    2628:	a90c7fff 	stp	xzr, xzr, [sp, #192]
    262c:	f9006bff 	str	xzr, [sp, #208]
/home/jeferson/optee/optee_os-rpi4/lib/libutee/tee_api.c:489
    2630:	34000083 	cbz	w3, 2640 <__GP11_TEE_InvokeTACommand+0x7c>
/home/jeferson/optee/optee_os-rpi4/lib/libutee/tee_api.c:490
    2634:	aa0403e0 	mov	x0, x4
    2638:	d2800801 	mov	x1, #0x40                  	// #64
    263c:	9400197f 	bl	8c38 <__utee_check_inout_annotation>
/home/jeferson/optee/optee_os-rpi4/lib/libutee/tee_api.c:493
    2640:	b4000094 	cbz	x20, 2650 <__GP11_TEE_InvokeTACommand+0x8c>
/home/jeferson/optee/optee_os-rpi4/lib/libutee/tee_api.c:494
    2644:	aa1403e0 	mov	x0, x20
    2648:	d2800081 	mov	x1, #0x4                   	// #4
    264c:	94001969 	bl	8bf0 <__utee_check_out_annotation>
/home/jeferson/optee/optee_os-rpi4/lib/libutee/tee_api.c:497
    2650:	910243f6 	add	x22, sp, #0x90
    2654:	2a1303e1 	mov	w1, w19
    2658:	aa1503e2 	mov	x2, x21
    265c:	aa1603e0 	mov	x0, x22
/home/jeferson/optee/optee_os-rpi4/lib/libutee/tee_api.c:498
    2660:	9101c3fa 	add	x26, sp, #0x70
/home/jeferson/optee/optee_os-rpi4/lib/libutee/tee_api.c:497
    2664:	97fffd25 	bl	1af8 <copy_gp11_param>
/home/jeferson/optee/optee_os-rpi4/lib/libutee/tee_api.c:498
    2668:	aa1a03e3 	mov	x3, x26
    266c:	9101a3e2 	add	x2, sp, #0x68
    2670:	910183e1 	add	x1, sp, #0x60
    2674:	aa1603e0 	mov	x0, x22
    2678:	97fffe64 	bl	2008 <map_tmp_param>
    267c:	2a0003f3 	mov	w19, w0
/home/jeferson/optee/optee_os-rpi4/lib/libutee/tee_api.c:499
    2680:	35000240 	cbnz	w0, 26c8 <__GP11_TEE_InvokeTACommand+0x104>
/home/jeferson/optee/optee_os-rpi4/lib/libutee/tee_api.c:501
    2684:	910173e4 	add	x4, sp, #0x5c
    2688:	aa1603e3 	mov	x3, x22
    268c:	2a1903e2 	mov	w2, w25
    2690:	2a1803e1 	mov	w1, w24
    2694:	aa1703e0 	mov	x0, x23
    2698:	94001a37 	bl	8f74 <_utee_invoke_ta_command>
/home/jeferson/optee/optee_os-rpi4/lib/libutee/tee_api.c:504
    269c:	aa1603e2 	mov	x2, x22
/home/jeferson/optee/optee_os-rpi4/lib/libutee/tee_api.c:501
    26a0:	2a0003f3 	mov	w19, w0
/home/jeferson/optee/optee_os-rpi4/lib/libutee/tee_api.c:504
    26a4:	aa1a03e1 	mov	x1, x26
    26a8:	aa1503e0 	mov	x0, x21
    26ac:	97fffdb9 	bl	1d90 <update_out_gp11_param>
/home/jeferson/optee/optee_os-rpi4/lib/libutee/tee_api.c:505
    26b0:	f94033e0 	ldr	x0, [sp, #96]
    26b4:	b40000a0 	cbz	x0, 26c8 <__GP11_TEE_InvokeTACommand+0x104>
/home/jeferson/optee/optee_os-rpi4/lib/libutee/tee_api.c:506
    26b8:	f94037e1 	ldr	x1, [sp, #104]
    26bc:	940019ad 	bl	8d70 <tee_unmap>
/home/jeferson/optee/optee_os-rpi4/lib/libutee/tee_api.c:508
    26c0:	34000040 	cbz	w0, 26c8 <__GP11_TEE_InvokeTACommand+0x104>
/home/jeferson/optee/optee_os-rpi4/lib/libutee/tee_api.c:509
    26c4:	940018ed 	bl	8a78 <TEE_Panic>
/home/jeferson/optee/optee_os-rpi4/lib/libutee/tee_api.c:514
    26c8:	b9405fe0 	ldr	w0, [sp, #92]
/home/jeferson/optee/optee_os-rpi4/lib/libutee/tee_api.c:513
    26cc:	b4000054 	cbz	x20, 26d4 <__GP11_TEE_InvokeTACommand+0x110>
/home/jeferson/optee/optee_os-rpi4/lib/libutee/tee_api.c:514
    26d0:	b9000280 	str	w0, [x20]
/home/jeferson/optee/optee_os-rpi4/lib/libutee/tee_api.c:516
    26d4:	7100101f 	cmp	w0, #0x4
    26d8:	54000140 	b.eq	2700 <__GP11_TEE_InvokeTACommand+0x13c>  // b.none
/home/jeferson/optee/optee_os-rpi4/lib/libutee/tee_api.c:519
    26dc:	7100027f 	cmp	w19, #0x0
    26e0:	129ffe60 	mov	w0, #0xffff000c            	// #-65524
    26e4:	7a401264 	ccmp	w19, w0, #0x4, ne  // ne = any
    26e8:	540000c0 	b.eq	2700 <__GP11_TEE_InvokeTACommand+0x13c>  // b.none
/home/jeferson/optee/optee_os-rpi4/lib/libutee/tee_api.c:520
    26ec:	1299fb60 	mov	w0, #0xffff3024            	// #-53212
    26f0:	6b00027f 	cmp	w19, w0
    26f4:	54000060 	b.eq	2700 <__GP11_TEE_InvokeTACommand+0x13c>  // b.none
/home/jeferson/optee/optee_os-rpi4/lib/libutee/tee_api.c:522
    26f8:	2a1303e0 	mov	w0, w19
    26fc:	940018df 	bl	8a78 <TEE_Panic>
/home/jeferson/optee/optee_os-rpi4/lib/libutee/tee_api.c:525
    2700:	f00000a6 	adrp	x6, 19000 <_DYNAMIC>
    2704:	f94098c6 	ldr	x6, [x6, #304]
    2708:	f9406fe0 	ldr	x0, [sp, #216]
    270c:	f94000c1 	ldr	x1, [x6]
    2710:	eb010000 	subs	x0, x0, x1
    2714:	d2800001 	mov	x1, #0x0                   	// #0
    2718:	54000040 	b.eq	2720 <__GP11_TEE_InvokeTACommand+0x15c>  // b.none
    271c:	97fff7fb 	bl	708 <__stack_chk_fail>
    2720:	2a1303e0 	mov	w0, w19
    2724:	a94153f3 	ldp	x19, x20, [sp, #16]
    2728:	a9425bf5 	ldp	x21, x22, [sp, #32]
    272c:	a94363f7 	ldp	x23, x24, [sp, #48]
    2730:	a9446bf9 	ldp	x25, x26, [sp, #64]
    2734:	a8ce7bfd 	ldp	x29, x30, [sp], #224
    2738:	d65f03c0 	ret

000000000000273c <__GP11_TEE_CheckMemoryAccessRights>:
__GP11_TEE_CheckMemoryAccessRights():
/home/jeferson/optee/optee_os-rpi4/lib/libutee/tee_api.c:597
    273c:	2a0203e2 	mov	w2, w2
    2740:	17fffe10 	b	1f80 <TEE_CheckMemoryAccessRights>

0000000000002744 <TEE_SetInstanceData>:
TEE_SetInstanceData():
/home/jeferson/optee/optee_os-rpi4/lib/libutee/tee_api.c:602
    2744:	f00000a1 	adrp	x1, 19000 <_DYNAMIC>
    2748:	f9032820 	str	x0, [x1, #1616]
/home/jeferson/optee/optee_os-rpi4/lib/libutee/tee_api.c:603
    274c:	d65f03c0 	ret

0000000000002750 <TEE_GetInstanceData>:
TEE_GetInstanceData():
/home/jeferson/optee/optee_os-rpi4/lib/libutee/tee_api.c:608
    2750:	f00000a0 	adrp	x0, 19000 <_DYNAMIC>
    2754:	f9432800 	ldr	x0, [x0, #1616]
    2758:	d65f03c0 	ret

000000000000275c <TEE_MemMove>:
TEE_MemMove():
/home/jeferson/optee/optee_os-rpi4/lib/libutee/tee_api.c:612
    275c:	14004114 	b	12bac <memmove>

0000000000002760 <__GP11_TEE_MemMove>:
__GP11_TEE_MemMove():
/home/jeferson/optee/optee_os-rpi4/lib/libutee/tee_api.c:617
    2760:	2a0203e2 	mov	w2, w2
    2764:	17fffffe 	b	275c <TEE_MemMove>

0000000000002768 <TEE_MemCompare>:
TEE_MemCompare():
/home/jeferson/optee/optee_os-rpi4/lib/libutee/tee_api.c:622
    2768:	140041aa 	b	12e10 <consttime_memcmp>

000000000000276c <__GP11_TEE_MemCompare>:
__GP11_TEE_MemCompare():
/home/jeferson/optee/optee_os-rpi4/lib/libutee/tee_api.c:628
    276c:	2a0203e2 	mov	w2, w2
    2770:	17fffffe 	b	2768 <TEE_MemCompare>

0000000000002774 <TEE_MemFill>:
TEE_MemFill():
/home/jeferson/optee/optee_os-rpi4/lib/libutee/tee_api.c:633
    2774:	14004125 	b	12c08 <memset>

0000000000002778 <__GP11_TEE_MemFill>:
__GP11_TEE_MemFill():
/home/jeferson/optee/optee_os-rpi4/lib/libutee/tee_api.c:638
    2778:	2a0203e2 	mov	w2, w2
    277c:	17fffffe 	b	2774 <TEE_MemFill>

0000000000002780 <TEE_GetSystemTime>:
TEE_GetSystemTime():
/home/jeferson/optee/optee_os-rpi4/lib/libutee/tee_api.c:644
    2780:	a9bf7bfd 	stp	x29, x30, [sp, #-16]!
/home/jeferson/optee/optee_os-rpi4/lib/libutee/tee_api.c:645
    2784:	aa0003e1 	mov	x1, x0
    2788:	d2800000 	mov	x0, #0x0                   	// #0
/home/jeferson/optee/optee_os-rpi4/lib/libutee/tee_api.c:644
    278c:	910003fd 	mov	x29, sp
/home/jeferson/optee/optee_os-rpi4/lib/libutee/tee_api.c:645
    2790:	94001a0b 	bl	8fbc <_utee_get_time>
/home/jeferson/optee/optee_os-rpi4/lib/libutee/tee_api.c:647
    2794:	34000060 	cbz	w0, 27a0 <TEE_GetSystemTime+0x20>
/home/jeferson/optee/optee_os-rpi4/lib/libutee/tee_api.c:649
    2798:	a8c17bfd 	ldp	x29, x30, [sp], #16
/home/jeferson/optee/optee_os-rpi4/lib/libutee/tee_api.c:648
    279c:	140018b7 	b	8a78 <TEE_Panic>
/home/jeferson/optee/optee_os-rpi4/lib/libutee/tee_api.c:649
    27a0:	a8c17bfd 	ldp	x29, x30, [sp], #16
    27a4:	d65f03c0 	ret

00000000000027a8 <TEE_Wait>:
TEE_Wait():
/home/jeferson/optee/optee_os-rpi4/lib/libutee/tee_api.c:652
    27a8:	a9be7bfd 	stp	x29, x30, [sp, #-32]!
/home/jeferson/optee/optee_os-rpi4/lib/libutee/tee_api.c:653
    27ac:	2a0003e0 	mov	w0, w0
/home/jeferson/optee/optee_os-rpi4/lib/libutee/tee_api.c:652
    27b0:	910003fd 	mov	x29, sp
    27b4:	f9000bf3 	str	x19, [sp, #16]
/home/jeferson/optee/optee_os-rpi4/lib/libutee/tee_api.c:653
    27b8:	940019fe 	bl	8fb0 <_utee_wait>
/home/jeferson/optee/optee_os-rpi4/lib/libutee/tee_api.c:655
    27bc:	7100001f 	cmp	w0, #0x0
    27c0:	129fffa1 	mov	w1, #0xffff0002            	// #-65534
/home/jeferson/optee/optee_os-rpi4/lib/libutee/tee_api.c:653
    27c4:	2a0003f3 	mov	w19, w0
/home/jeferson/optee/optee_os-rpi4/lib/libutee/tee_api.c:655
    27c8:	7a411004 	ccmp	w0, w1, #0x4, ne  // ne = any
    27cc:	54000040 	b.eq	27d4 <TEE_Wait+0x2c>  // b.none
/home/jeferson/optee/optee_os-rpi4/lib/libutee/tee_api.c:656
    27d0:	940018aa 	bl	8a78 <TEE_Panic>
/home/jeferson/optee/optee_os-rpi4/lib/libutee/tee_api.c:659
    27d4:	2a1303e0 	mov	w0, w19
    27d8:	f9400bf3 	ldr	x19, [sp, #16]
    27dc:	a8c27bfd 	ldp	x29, x30, [sp], #32
    27e0:	d65f03c0 	ret

00000000000027e4 <TEE_GetTAPersistentTime>:
TEE_GetTAPersistentTime():
/home/jeferson/optee/optee_os-rpi4/lib/libutee/tee_api.c:662
    27e4:	a9be7bfd 	stp	x29, x30, [sp, #-32]!
/home/jeferson/optee/optee_os-rpi4/lib/libutee/tee_api.c:665
    27e8:	aa0003e1 	mov	x1, x0
/home/jeferson/optee/optee_os-rpi4/lib/libutee/tee_api.c:662
    27ec:	910003fd 	mov	x29, sp
    27f0:	a90153f3 	stp	x19, x20, [sp, #16]
    27f4:	aa0003f4 	mov	x20, x0
/home/jeferson/optee/optee_os-rpi4/lib/libutee/tee_api.c:665
    27f8:	d2800020 	mov	x0, #0x1                   	// #1
    27fc:	940019f0 	bl	8fbc <_utee_get_time>
/home/jeferson/optee/optee_os-rpi4/lib/libutee/tee_api.c:667
    2800:	7100001f 	cmp	w0, #0x0
/home/jeferson/optee/optee_os-rpi4/lib/libutee/tee_api.c:665
    2804:	2a0003f3 	mov	w19, w0
/home/jeferson/optee/optee_os-rpi4/lib/libutee/tee_api.c:667
    2808:	1a9f07e2 	cset	w2, ne  // ne = any
    280c:	1299fe00 	mov	w0, #0xffff300f            	// #-53233
    2810:	6b00027f 	cmp	w19, w0
    2814:	1a9f07e0 	cset	w0, ne  // ne = any
    2818:	6a000040 	ands	w0, w2, w0
    281c:	54000040 	b.eq	2824 <TEE_GetTAPersistentTime+0x40>  // b.none
/home/jeferson/optee/optee_os-rpi4/lib/libutee/tee_api.c:669
    2820:	29007e9f 	stp	wzr, wzr, [x20]
/home/jeferson/optee/optee_os-rpi4/lib/libutee/tee_api.c:673
    2824:	11402e61 	add	w1, w19, #0xb, lsl #12
/home/jeferson/optee/optee_os-rpi4/lib/libutee/tee_api.c:672
    2828:	7100005f 	cmp	w2, #0x0
    282c:	7a411820 	ccmp	w1, #0x1, #0x0, ne  // ne = any
    2830:	540000e9 	b.ls	284c <TEE_GetTAPersistentTime+0x68>  // b.plast
/home/jeferson/optee/optee_os-rpi4/lib/libutee/tee_api.c:674
    2834:	340000c0 	cbz	w0, 284c <TEE_GetTAPersistentTime+0x68>
/home/jeferson/optee/optee_os-rpi4/lib/libutee/tee_api.c:675
    2838:	129ffe60 	mov	w0, #0xffff000c            	// #-65524
    283c:	6b00027f 	cmp	w19, w0
    2840:	54000060 	b.eq	284c <TEE_GetTAPersistentTime+0x68>  // b.none
/home/jeferson/optee/optee_os-rpi4/lib/libutee/tee_api.c:677
    2844:	2a1303e0 	mov	w0, w19
    2848:	9400188c 	bl	8a78 <TEE_Panic>
/home/jeferson/optee/optee_os-rpi4/lib/libutee/tee_api.c:680
    284c:	2a1303e0 	mov	w0, w19
    2850:	a94153f3 	ldp	x19, x20, [sp, #16]
    2854:	a8c27bfd 	ldp	x29, x30, [sp], #32
    2858:	d65f03c0 	ret

000000000000285c <TEE_SetTAPersistentTime>:
TEE_SetTAPersistentTime():
/home/jeferson/optee/optee_os-rpi4/lib/libutee/tee_api.c:683
    285c:	a9be7bfd 	stp	x29, x30, [sp, #-32]!
    2860:	910003fd 	mov	x29, sp
    2864:	f9000bf3 	str	x19, [sp, #16]
/home/jeferson/optee/optee_os-rpi4/lib/libutee/tee_api.c:686
    2868:	940019d8 	bl	8fc8 <_utee_set_ta_time>
/home/jeferson/optee/optee_os-rpi4/lib/libutee/tee_api.c:688
    286c:	7100001f 	cmp	w0, #0x0
    2870:	129ffe61 	mov	w1, #0xffff000c            	// #-65524
/home/jeferson/optee/optee_os-rpi4/lib/libutee/tee_api.c:686
    2874:	2a0003f3 	mov	w19, w0
/home/jeferson/optee/optee_os-rpi4/lib/libutee/tee_api.c:688
    2878:	7a411004 	ccmp	w0, w1, #0x4, ne  // ne = any
    287c:	540000a0 	b.eq	2890 <TEE_SetTAPersistentTime+0x34>  // b.none
/home/jeferson/optee/optee_os-rpi4/lib/libutee/tee_api.c:689
    2880:	1299f7c1 	mov	w1, #0xffff3041            	// #-53183
    2884:	6b01001f 	cmp	w0, w1
    2888:	54000040 	b.eq	2890 <TEE_SetTAPersistentTime+0x34>  // b.none
/home/jeferson/optee/optee_os-rpi4/lib/libutee/tee_api.c:691
    288c:	9400187b 	bl	8a78 <TEE_Panic>
/home/jeferson/optee/optee_os-rpi4/lib/libutee/tee_api.c:694
    2890:	2a1303e0 	mov	w0, w19
    2894:	f9400bf3 	ldr	x19, [sp, #16]
    2898:	a8c27bfd 	ldp	x29, x30, [sp], #32
    289c:	d65f03c0 	ret

00000000000028a0 <TEE_GetREETime>:
TEE_GetREETime():
/home/jeferson/optee/optee_os-rpi4/lib/libutee/tee_api.c:697
    28a0:	a9bf7bfd 	stp	x29, x30, [sp, #-16]!
/home/jeferson/optee/optee_os-rpi4/lib/libutee/tee_api.c:698
    28a4:	aa0003e1 	mov	x1, x0
    28a8:	d2800040 	mov	x0, #0x2                   	// #2
/home/jeferson/optee/optee_os-rpi4/lib/libutee/tee_api.c:697
    28ac:	910003fd 	mov	x29, sp
/home/jeferson/optee/optee_os-rpi4/lib/libutee/tee_api.c:698
    28b0:	940019c3 	bl	8fbc <_utee_get_time>
/home/jeferson/optee/optee_os-rpi4/lib/libutee/tee_api.c:700
    28b4:	34000060 	cbz	w0, 28c0 <TEE_GetREETime+0x20>
/home/jeferson/optee/optee_os-rpi4/lib/libutee/tee_api.c:702
    28b8:	a8c17bfd 	ldp	x29, x30, [sp], #16
/home/jeferson/optee/optee_os-rpi4/lib/libutee/tee_api.c:701
    28bc:	1400186f 	b	8a78 <TEE_Panic>
/home/jeferson/optee/optee_os-rpi4/lib/libutee/tee_api.c:702
    28c0:	a8c17bfd 	ldp	x29, x30, [sp], #16
    28c4:	d65f03c0 	ret

00000000000028c8 <TEE_Malloc>:
TEE_Malloc():
/home/jeferson/optee/optee_os-rpi4/lib/libutee/tee_api.c:705
    28c8:	a9be7bfd 	stp	x29, x30, [sp, #-32]!
    28cc:	aa0003e2 	mov	x2, x0
    28d0:	910003fd 	mov	x29, sp
    28d4:	f9000bf3 	str	x19, [sp, #16]
    28d8:	2a0103f3 	mov	w19, w1
/home/jeferson/optee/optee_os-rpi4/lib/libutee/tee_api.c:706
    28dc:	71000c3f 	cmp	w1, #0x3
    28e0:	54000148 	b.hi	2908 <TEE_Malloc+0x40>  // b.pmore
    28e4:	51000421 	sub	w1, w1, #0x1
    28e8:	7100083f 	cmp	w1, #0x2
    28ec:	54000308 	b.hi	294c <TEE_Malloc+0x84>  // b.pmore
    28f0:	900000a0 	adrp	x0, 16000 <__text_end+0x3180>
    28f4:	912b0000 	add	x0, x0, #0xac0
    28f8:	38614800 	ldrb	w0, [x0, w1, uxtw]
    28fc:	10000061 	adr	x1, 2908 <TEE_Malloc+0x40>
    2900:	8b208820 	add	x0, x1, w0, sxtb #2
    2904:	d61f0000 	br	x0
    2908:	52b00001 	mov	w1, #0x80000000            	// #-2147483648
    290c:	6b01027f 	cmp	w19, w1
    2910:	540005e0 	b.eq	29cc <TEE_Malloc+0x104>  // b.none
/home/jeferson/optee/optee_os-rpi4/lib/libutee/tee_api.c:739
    2914:	2a1303e5 	mov	w5, w19
    2918:	b00000a4 	adrp	x4, 17000 <gcd_pairs+0x50>
    291c:	52800023 	mov	w3, #0x1                   	// #1
    2920:	910ce084 	add	x4, x4, #0x338
    2924:	52800022 	mov	w2, #0x1                   	// #1
    2928:	52805c61 	mov	w1, #0x2e3                 	// #739
    292c:	900000a0 	adrp	x0, 16000 <__text_end+0x3180>
    2930:	912b2000 	add	x0, x0, #0xac8
    2934:	97fff813 	bl	980 <trace_printf>
/home/jeferson/optee/optee_os-rpi4/lib/libutee/tee_api.c:741
    2938:	d2800004 	mov	x4, #0x0                   	// #0
/home/jeferson/optee/optee_os-rpi4/lib/libutee/tee_api.c:742
    293c:	aa0403e0 	mov	x0, x4
    2940:	f9400bf3 	ldr	x19, [sp, #16]
    2944:	a8c27bfd 	ldp	x29, x30, [sp], #32
    2948:	d65f03c0 	ret
/home/jeferson/optee/optee_os-rpi4/lib/libutee/tee_api.c:708
    294c:	b40004c0 	cbz	x0, 29e4 <TEE_Malloc+0x11c>
/home/jeferson/optee/optee_os-rpi4/lib/libutee/tee_api.c:742
    2950:	f9400bf3 	ldr	x19, [sp, #16]
/home/jeferson/optee/optee_os-rpi4/lib/libutee/tee_api.c:710
    2954:	aa0003e1 	mov	x1, x0
/home/jeferson/optee/optee_os-rpi4/lib/libutee/tee_api.c:742
    2958:	a8c27bfd 	ldp	x29, x30, [sp], #32
/home/jeferson/optee/optee_os-rpi4/lib/libutee/tee_api.c:710
    295c:	d2800020 	mov	x0, #0x1                   	// #1
    2960:	14003f52 	b	126a8 <calloc>
/home/jeferson/optee/optee_os-rpi4/lib/libutee/tee_api.c:713
    2964:	52800000 	mov	w0, #0x0                   	// #0
    2968:	94001844 	bl	8a78 <TEE_Panic>
/home/jeferson/optee/optee_os-rpi4/lib/libutee/tee_api.c:714
    296c:	17ffffea 	b	2914 <TEE_Malloc+0x4c>
/home/jeferson/optee/optee_os-rpi4/lib/libutee/tee_api.c:717
    2970:	b4000362 	cbz	x2, 29dc <TEE_Malloc+0x114>
/home/jeferson/optee/optee_os-rpi4/lib/libutee/tee_api.c:719
    2974:	f00000a0 	adrp	x0, 19000 <_DYNAMIC>
    2978:	f940dc00 	ldr	x0, [x0, #440]
    297c:	f9400004 	ldr	x4, [x0]
    2980:	b4fffde4 	cbz	x4, 293c <TEE_Malloc+0x74>
/home/jeferson/optee/optee_os-rpi4/lib/libutee/tee_api.c:742
    2984:	f9400bf3 	ldr	x19, [sp, #16]
/home/jeferson/optee/optee_os-rpi4/lib/libutee/tee_api.c:721
    2988:	aa0203e3 	mov	x3, x2
/home/jeferson/optee/optee_os-rpi4/lib/libutee/tee_api.c:742
    298c:	a8c27bfd 	ldp	x29, x30, [sp], #32
/home/jeferson/optee/optee_os-rpi4/lib/libutee/tee_api.c:721
    2990:	d2800022 	mov	x2, #0x1                   	// #1
    2994:	d2800001 	mov	x1, #0x0                   	// #0
    2998:	d2800000 	mov	x0, #0x0                   	// #0
    299c:	14003ee4 	b	1252c <raw_calloc>
/home/jeferson/optee/optee_os-rpi4/lib/libutee/tee_api.c:724
    29a0:	b40001e2 	cbz	x2, 29dc <TEE_Malloc+0x114>
/home/jeferson/optee/optee_os-rpi4/lib/libutee/tee_api.c:726
    29a4:	f00000a0 	adrp	x0, 19000 <_DYNAMIC>
    29a8:	f940dc00 	ldr	x0, [x0, #440]
    29ac:	f9400004 	ldr	x4, [x0]
    29b0:	b4fffc64 	cbz	x4, 293c <TEE_Malloc+0x74>
/home/jeferson/optee/optee_os-rpi4/lib/libutee/tee_api.c:742
    29b4:	f9400bf3 	ldr	x19, [sp, #16]
/home/jeferson/optee/optee_os-rpi4/lib/libutee/tee_api.c:728
    29b8:	aa0403e3 	mov	x3, x4
/home/jeferson/optee/optee_os-rpi4/lib/libutee/tee_api.c:742
    29bc:	a8c27bfd 	ldp	x29, x30, [sp], #32
/home/jeferson/optee/optee_os-rpi4/lib/libutee/tee_api.c:728
    29c0:	d2800001 	mov	x1, #0x0                   	// #0
    29c4:	d2800000 	mov	x0, #0x0                   	// #0
    29c8:	14003ed1 	b	1250c <raw_malloc>
/home/jeferson/optee/optee_os-rpi4/lib/libutee/tee_api.c:731
    29cc:	b40000c0 	cbz	x0, 29e4 <TEE_Malloc+0x11c>
/home/jeferson/optee/optee_os-rpi4/lib/libutee/tee_api.c:742
    29d0:	f9400bf3 	ldr	x19, [sp, #16]
    29d4:	a8c27bfd 	ldp	x29, x30, [sp], #32
/home/jeferson/optee/optee_os-rpi4/lib/libutee/tee_api.c:733
    29d8:	14003f2e 	b	12690 <malloc>
/home/jeferson/optee/optee_os-rpi4/lib/libutee/tee_api.c:718
    29dc:	d2800044 	mov	x4, #0x2                   	// #2
    29e0:	17ffffd7 	b	293c <TEE_Malloc+0x74>
/home/jeferson/optee/optee_os-rpi4/lib/libutee/tee_api.c:709
    29e4:	d2800024 	mov	x4, #0x1                   	// #1
    29e8:	17ffffd5 	b	293c <TEE_Malloc+0x74>

00000000000029ec <__GP11_TEE_Malloc>:
__GP11_TEE_Malloc():
/home/jeferson/optee/optee_os-rpi4/lib/libutee/tee_api.c:746
    29ec:	2a0003e0 	mov	w0, w0
    29f0:	17ffffb6 	b	28c8 <TEE_Malloc>

00000000000029f4 <TEE_Free>:
TEE_Free():
/home/jeferson/optee/optee_os-rpi4/lib/libutee/tee_api.c:787
    29f4:	d1000401 	sub	x1, x0, #0x1
    29f8:	f100043f 	cmp	x1, #0x1
    29fc:	540002a9 	b.ls	2a50 <TEE_Free+0x5c>  // b.plast
/home/jeferson/optee/optee_os-rpi4/lib/libutee/tee_api.c:786
    2a00:	a9be7bfd 	stp	x29, x30, [sp, #-32]!
addr_is_in_no_share_heap():
/home/jeferson/optee/optee_os-rpi4/lib/libutee/tee_api.c:751
    2a04:	d2800021 	mov	x1, #0x1                   	// #1
TEE_Free():
/home/jeferson/optee/optee_os-rpi4/lib/libutee/tee_api.c:786
    2a08:	910003fd 	mov	x29, sp
    2a0c:	f9000bf3 	str	x19, [sp, #16]
    2a10:	aa0003f3 	mov	x19, x0
addr_is_in_no_share_heap():
/home/jeferson/optee/optee_os-rpi4/lib/libutee/tee_api.c:751
    2a14:	97fffc7b 	bl	1c00 <buf_overlaps_no_share_heap>
TEE_Free():
/home/jeferson/optee/optee_os-rpi4/lib/libutee/tee_api.c:789
    2a18:	72001c1f 	tst	w0, #0xff
    2a1c:	54000120 	b.eq	2a40 <TEE_Free+0x4c>  // b.none
/home/jeferson/optee/optee_os-rpi4/lib/libutee/tee_api.c:790
    2a20:	f00000a0 	adrp	x0, 19000 <_DYNAMIC>
    2a24:	52800002 	mov	w2, #0x0                   	// #0
    2a28:	f940dc00 	ldr	x0, [x0, #440]
    2a2c:	f9400001 	ldr	x1, [x0]
    2a30:	aa1303e0 	mov	x0, x19
/home/jeferson/optee/optee_os-rpi4/lib/libutee/tee_api.c:794
    2a34:	f9400bf3 	ldr	x19, [sp, #16]
    2a38:	a8c27bfd 	ldp	x29, x30, [sp], #32
/home/jeferson/optee/optee_os-rpi4/lib/libutee/tee_api.c:790
    2a3c:	14003eb8 	b	1251c <raw_free>
/home/jeferson/optee/optee_os-rpi4/lib/libutee/tee_api.c:792
    2a40:	aa1303e0 	mov	x0, x19
/home/jeferson/optee/optee_os-rpi4/lib/libutee/tee_api.c:794
    2a44:	f9400bf3 	ldr	x19, [sp, #16]
    2a48:	a8c27bfd 	ldp	x29, x30, [sp], #32
/home/jeferson/optee/optee_os-rpi4/lib/libutee/tee_api.c:792
    2a4c:	14003f31 	b	12710 <free>
    2a50:	d65f03c0 	ret

0000000000002a54 <TEE_Realloc>:
TEE_Realloc():
/home/jeferson/optee/optee_os-rpi4/lib/libutee/tee_api.c:755
    2a54:	a9be7bfd 	stp	x29, x30, [sp, #-32]!
    2a58:	910003fd 	mov	x29, sp
    2a5c:	a90153f3 	stp	x19, x20, [sp, #16]
    2a60:	aa0003f3 	mov	x19, x0
/home/jeferson/optee/optee_os-rpi4/lib/libutee/tee_api.c:756
    2a64:	b5000161 	cbnz	x1, 2a90 <TEE_Realloc+0x3c>
/home/jeferson/optee/optee_os-rpi4/lib/libutee/tee_api.c:757
    2a68:	97ffffe3 	bl	29f4 <TEE_Free>
addr_is_in_no_share_heap():
/home/jeferson/optee/optee_os-rpi4/lib/libutee/tee_api.c:751
    2a6c:	aa1303e0 	mov	x0, x19
    2a70:	d2800021 	mov	x1, #0x1                   	// #1
    2a74:	97fffc63 	bl	1c00 <buf_overlaps_no_share_heap>
TEE_Realloc():
/home/jeferson/optee/optee_os-rpi4/lib/libutee/tee_api.c:762
    2a78:	72001c1f 	tst	w0, #0xff
    2a7c:	9a9f07e0 	cset	x0, ne  // ne = any
    2a80:	91000400 	add	x0, x0, #0x1
/home/jeferson/optee/optee_os-rpi4/lib/libutee/tee_api.c:778
    2a84:	a94153f3 	ldp	x19, x20, [sp, #16]
    2a88:	a8c27bfd 	ldp	x29, x30, [sp], #32
    2a8c:	d65f03c0 	ret
/home/jeferson/optee/optee_os-rpi4/lib/libutee/tee_api.c:765
    2a90:	f100041f 	cmp	x0, #0x1
    2a94:	54000081 	b.ne	2aa4 <TEE_Realloc+0x50>  // b.any
/home/jeferson/optee/optee_os-rpi4/lib/libutee/tee_api.c:778
    2a98:	a94153f3 	ldp	x19, x20, [sp, #16]
    2a9c:	a8c27bfd 	ldp	x29, x30, [sp], #32
/home/jeferson/optee/optee_os-rpi4/lib/libutee/tee_api.c:766
    2aa0:	14003f02 	b	126a8 <calloc>
    2aa4:	aa0103f4 	mov	x20, x1
/home/jeferson/optee/optee_os-rpi4/lib/libutee/tee_api.c:767
    2aa8:	f100081f 	cmp	x0, #0x2
    2aac:	540001a1 	b.ne	2ae0 <TEE_Realloc+0x8c>  // b.any
/home/jeferson/optee/optee_os-rpi4/lib/libutee/tee_api.c:768
    2ab0:	f00000a0 	adrp	x0, 19000 <_DYNAMIC>
    2ab4:	f940dc00 	ldr	x0, [x0, #440]
    2ab8:	f9400000 	ldr	x0, [x0]
    2abc:	b4fffe40 	cbz	x0, 2a84 <TEE_Realloc+0x30>
/home/jeferson/optee/optee_os-rpi4/lib/libutee/tee_api.c:778
    2ac0:	a94153f3 	ldp	x19, x20, [sp, #16]
/home/jeferson/optee/optee_os-rpi4/lib/libutee/tee_api.c:770
    2ac4:	aa0003e4 	mov	x4, x0
/home/jeferson/optee/optee_os-rpi4/lib/libutee/tee_api.c:778
    2ac8:	a8c27bfd 	ldp	x29, x30, [sp], #32
/home/jeferson/optee/optee_os-rpi4/lib/libutee/tee_api.c:770
    2acc:	aa0103e3 	mov	x3, x1
    2ad0:	d2800022 	mov	x2, #0x1                   	// #1
    2ad4:	d2800001 	mov	x1, #0x0                   	// #0
    2ad8:	d2800000 	mov	x0, #0x0                   	// #0
    2adc:	14003e94 	b	1252c <raw_calloc>
addr_is_in_no_share_heap():
/home/jeferson/optee/optee_os-rpi4/lib/libutee/tee_api.c:751
    2ae0:	d2800021 	mov	x1, #0x1                   	// #1
    2ae4:	97fffc47 	bl	1c00 <buf_overlaps_no_share_heap>
TEE_Realloc():
/home/jeferson/optee/optee_os-rpi4/lib/libutee/tee_api.c:773
    2ae8:	72001c1f 	tst	w0, #0xff
    2aec:	54000160 	b.eq	2b18 <TEE_Realloc+0xc4>  // b.none
/home/jeferson/optee/optee_os-rpi4/lib/libutee/tee_api.c:774
    2af0:	f00000a0 	adrp	x0, 19000 <_DYNAMIC>
    2af4:	aa1403e3 	mov	x3, x20
    2af8:	d2800002 	mov	x2, #0x0                   	// #0
    2afc:	d2800001 	mov	x1, #0x0                   	// #0
    2b00:	f940dc00 	ldr	x0, [x0, #440]
    2b04:	f9400004 	ldr	x4, [x0]
    2b08:	aa1303e0 	mov	x0, x19
/home/jeferson/optee/optee_os-rpi4/lib/libutee/tee_api.c:778
    2b0c:	a94153f3 	ldp	x19, x20, [sp, #16]
    2b10:	a8c27bfd 	ldp	x29, x30, [sp], #32
/home/jeferson/optee/optee_os-rpi4/lib/libutee/tee_api.c:774
    2b14:	14003ea2 	b	1259c <raw_realloc>
/home/jeferson/optee/optee_os-rpi4/lib/libutee/tee_api.c:777
    2b18:	aa1403e1 	mov	x1, x20
    2b1c:	aa1303e0 	mov	x0, x19
/home/jeferson/optee/optee_os-rpi4/lib/libutee/tee_api.c:778
    2b20:	a94153f3 	ldp	x19, x20, [sp, #16]
    2b24:	a8c27bfd 	ldp	x29, x30, [sp], #32
/home/jeferson/optee/optee_os-rpi4/lib/libutee/tee_api.c:777
    2b28:	14003ee7 	b	126c4 <realloc>

0000000000002b2c <__GP11_TEE_Realloc>:
__GP11_TEE_Realloc():
/home/jeferson/optee/optee_os-rpi4/lib/libutee/tee_api.c:782
    2b2c:	2a0103e1 	mov	w1, w1
    2b30:	17ffffc9 	b	2a54 <TEE_Realloc>

0000000000002b34 <TEE_CacheClean>:
TEE_CacheClean():
/home/jeferson/optee/optee_os-rpi4/lib/libutee/tee_api.c:799
    2b34:	d2800002 	mov	x2, #0x0                   	// #0
    2b38:	1400199f 	b	91b4 <_utee_cache_operation>

0000000000002b3c <TEE_CacheFlush>:
TEE_CacheFlush():
/home/jeferson/optee/optee_os-rpi4/lib/libutee/tee_api.c:803
    2b3c:	d2800022 	mov	x2, #0x1                   	// #1
    2b40:	1400199d 	b	91b4 <_utee_cache_operation>

0000000000002b44 <TEE_CacheInvalidate>:
TEE_CacheInvalidate():
/home/jeferson/optee/optee_os-rpi4/lib/libutee/tee_api.c:808
    2b44:	d2800042 	mov	x2, #0x2                   	// #2
    2b48:	1400199b 	b	91b4 <_utee_cache_operation>

0000000000002b4c <__utee_from_attr>:
__utee_from_attr():
/home/jeferson/optee/optee_os-rpi4/lib/libutee/tee_api_objects.c:19
    2b4c:	2a0203e2 	mov	w2, w2
    2b50:	d2800003 	mov	x3, #0x0                   	// #0
/home/jeferson/optee/optee_os-rpi4/lib/libutee/tee_api_objects.c:19 (discriminator 1)
    2b54:	eb03005f 	cmp	x2, x3
    2b58:	54000048 	b.hi	2b60 <__utee_from_attr+0x14>  // b.pmore
/home/jeferson/optee/optee_os-rpi4/lib/libutee/tee_api_objects.c:29
    2b5c:	d65f03c0 	ret
/home/jeferson/optee/optee_os-rpi4/lib/libutee/tee_api_objects.c:20
    2b60:	b9400024 	ldr	w4, [x1]
    2b64:	b9001004 	str	w4, [x0, #16]
/home/jeferson/optee/optee_os-rpi4/lib/libutee/tee_api_objects.c:21
    2b68:	36e80124 	tbz	w4, #29, 2b8c <__utee_from_attr+0x40>
/home/jeferson/optee/optee_os-rpi4/lib/libutee/tee_api_objects.c:22
    2b6c:	b9400824 	ldr	w4, [x1, #8]
    2b70:	f9000004 	str	x4, [x0]
/home/jeferson/optee/optee_os-rpi4/lib/libutee/tee_api_objects.c:23
    2b74:	b9400c24 	ldr	w4, [x1, #12]
/home/jeferson/optee/optee_os-rpi4/lib/libutee/tee_api_objects.c:19 (discriminator 2)
    2b78:	91000463 	add	x3, x3, #0x1
    2b7c:	91006021 	add	x1, x1, #0x18
    2b80:	91006000 	add	x0, x0, #0x18
/home/jeferson/optee/optee_os-rpi4/lib/libutee/tee_api_objects.c:23 (discriminator 2)
    2b84:	f81f0004 	stur	x4, [x0, #-16]
/home/jeferson/optee/optee_os-rpi4/lib/libutee/tee_api_objects.c:19 (discriminator 2)
    2b88:	17fffff3 	b	2b54 <__utee_from_attr+0x8>
/home/jeferson/optee/optee_os-rpi4/lib/libutee/tee_api_objects.c:25
    2b8c:	f9400424 	ldr	x4, [x1, #8]
    2b90:	f9000004 	str	x4, [x0]
/home/jeferson/optee/optee_os-rpi4/lib/libutee/tee_api_objects.c:26
    2b94:	f9400824 	ldr	x4, [x1, #16]
    2b98:	17fffff8 	b	2b78 <__utee_from_attr+0x2c>

0000000000002b9c <__utee_from_gp11_attr>:
__utee_from_gp11_attr():
/home/jeferson/optee/optee_os-rpi4/lib/libutee/tee_api_objects.c:37
    2b9c:	2a0203e2 	mov	w2, w2
    2ba0:	d2800003 	mov	x3, #0x0                   	// #0
/home/jeferson/optee/optee_os-rpi4/lib/libutee/tee_api_objects.c:37 (discriminator 1)
    2ba4:	eb03005f 	cmp	x2, x3
    2ba8:	54000048 	b.hi	2bb0 <__utee_from_gp11_attr+0x14>  // b.pmore
/home/jeferson/optee/optee_os-rpi4/lib/libutee/tee_api_objects.c:47
    2bac:	d65f03c0 	ret
/home/jeferson/optee/optee_os-rpi4/lib/libutee/tee_api_objects.c:38
    2bb0:	b9400024 	ldr	w4, [x1]
    2bb4:	b9001004 	str	w4, [x0, #16]
/home/jeferson/optee/optee_os-rpi4/lib/libutee/tee_api_objects.c:39
    2bb8:	36e80124 	tbz	w4, #29, 2bdc <__utee_from_gp11_attr+0x40>
/home/jeferson/optee/optee_os-rpi4/lib/libutee/tee_api_objects.c:40
    2bbc:	b9400824 	ldr	w4, [x1, #8]
    2bc0:	f9000004 	str	x4, [x0]
/home/jeferson/optee/optee_os-rpi4/lib/libutee/tee_api_objects.c:41
    2bc4:	b9400c24 	ldr	w4, [x1, #12]
/home/jeferson/optee/optee_os-rpi4/lib/libutee/tee_api_objects.c:37 (discriminator 2)
    2bc8:	91000463 	add	x3, x3, #0x1
    2bcc:	91006021 	add	x1, x1, #0x18
    2bd0:	91006000 	add	x0, x0, #0x18
/home/jeferson/optee/optee_os-rpi4/lib/libutee/tee_api_objects.c:41 (discriminator 2)
    2bd4:	f81f0004 	stur	x4, [x0, #-16]
/home/jeferson/optee/optee_os-rpi4/lib/libutee/tee_api_objects.c:37 (discriminator 2)
    2bd8:	17fffff3 	b	2ba4 <__utee_from_gp11_attr+0x8>
/home/jeferson/optee/optee_os-rpi4/lib/libutee/tee_api_objects.c:43
    2bdc:	f9400424 	ldr	x4, [x1, #8]
    2be0:	f9000004 	str	x4, [x0]
/home/jeferson/optee/optee_os-rpi4/lib/libutee/tee_api_objects.c:44
    2be4:	b9401024 	ldr	w4, [x1, #16]
    2be8:	17fffff8 	b	2bc8 <__utee_from_gp11_attr+0x2c>

0000000000002bec <TEE_GetObjectInfo>:
TEE_GetObjectInfo():
/home/jeferson/optee/optee_os-rpi4/lib/libutee/tee_api_objects.c:57
    2bec:	a9bb7bfd 	stp	x29, x30, [sp, #-80]!
    2bf0:	910003fd 	mov	x29, sp
    2bf4:	f9000bf3 	str	x19, [sp, #16]
    2bf8:	aa0103f3 	mov	x19, x1
    2bfc:	f00000a1 	adrp	x1, 19000 <_DYNAMIC>
    2c00:	f9409821 	ldr	x1, [x1, #304]
    2c04:	f9400022 	ldr	x2, [x1]
    2c08:	f90027e2 	str	x2, [sp, #72]
    2c0c:	d2800002 	mov	x2, #0x0                   	// #0
/home/jeferson/optee/optee_os-rpi4/lib/libutee/tee_api_objects.c:61
    2c10:	9100a3e1 	add	x1, sp, #0x28
/home/jeferson/optee/optee_os-rpi4/lib/libutee/tee_api_objects.c:58
    2c14:	a902ffff 	stp	xzr, xzr, [sp, #40]
    2c18:	f9001fff 	str	xzr, [sp, #56]
    2c1c:	b90043ff 	str	wzr, [sp, #64]
/home/jeferson/optee/optee_os-rpi4/lib/libutee/tee_api_objects.c:61
    2c20:	94001908 	bl	9040 <_utee_cryp_obj_get_info>
/home/jeferson/optee/optee_os-rpi4/lib/libutee/tee_api_objects.c:63
    2c24:	34000040 	cbz	w0, 2c2c <TEE_GetObjectInfo+0x40>
/home/jeferson/optee/optee_os-rpi4/lib/libutee/tee_api_objects.c:64
    2c28:	94001794 	bl	8a78 <TEE_Panic>
/home/jeferson/optee/optee_os-rpi4/lib/libutee/tee_api_objects.c:66
    2c2c:	b9402be1 	ldr	w1, [sp, #40]
    2c30:	528017c0 	mov	w0, #0xbe                  	// #190
    2c34:	72b40000 	movk	w0, #0xa000, lsl #16
    2c38:	6b00003f 	cmp	w1, w0
    2c3c:	540001c1 	b.ne	2c74 <TEE_GetObjectInfo+0x88>  // b.any
/home/jeferson/optee/optee_os-rpi4/lib/libutee/tee_api_objects.c:71
    2c40:	52800000 	mov	w0, #0x0                   	// #0
/home/jeferson/optee/optee_os-rpi4/lib/libutee/tee_api_objects.c:67
    2c44:	b900067f 	str	wzr, [x19, #4]
/home/jeferson/optee/optee_os-rpi4/lib/libutee/tee_api_objects.c:70
    2c48:	a900fe7f 	stp	xzr, xzr, [x19, #8]
/home/jeferson/optee/optee_os-rpi4/lib/libutee/tee_api_objects.c:71
    2c4c:	f9000e7f 	str	xzr, [x19, #24]
/home/jeferson/optee/optee_os-rpi4/lib/libutee/tee_api_objects.c:82
    2c50:	f00000a1 	adrp	x1, 19000 <_DYNAMIC>
/home/jeferson/optee/optee_os-rpi4/lib/libutee/tee_api_objects.c:72
    2c54:	b9002260 	str	w0, [x19, #32]
/home/jeferson/optee/optee_os-rpi4/lib/libutee/tee_api_objects.c:82
    2c58:	f9409821 	ldr	x1, [x1, #304]
    2c5c:	f94027e0 	ldr	x0, [sp, #72]
    2c60:	f9400022 	ldr	x2, [x1]
    2c64:	eb020000 	subs	x0, x0, x2
    2c68:	d2800002 	mov	x2, #0x0                   	// #0
    2c6c:	54000180 	b.eq	2c9c <TEE_GetObjectInfo+0xb0>  // b.none
    2c70:	97fff6a6 	bl	708 <__stack_chk_fail>
/home/jeferson/optee/optee_os-rpi4/lib/libutee/tee_api_objects.c:74
    2c74:	f94017e0 	ldr	x0, [sp, #40]
    2c78:	f9000260 	str	x0, [x19]
/home/jeferson/optee/optee_os-rpi4/lib/libutee/tee_api_objects.c:76
    2c7c:	f9401be0 	ldr	x0, [sp, #48]
    2c80:	f9000660 	str	x0, [x19, #8]
/home/jeferson/optee/optee_os-rpi4/lib/libutee/tee_api_objects.c:78
    2c84:	b9403be0 	ldr	w0, [sp, #56]
    2c88:	f9000a60 	str	x0, [x19, #16]
/home/jeferson/optee/optee_os-rpi4/lib/libutee/tee_api_objects.c:79
    2c8c:	b9403fe0 	ldr	w0, [sp, #60]
    2c90:	f9000e60 	str	x0, [x19, #24]
/home/jeferson/optee/optee_os-rpi4/lib/libutee/tee_api_objects.c:80
    2c94:	b94043e0 	ldr	w0, [sp, #64]
    2c98:	17ffffee 	b	2c50 <TEE_GetObjectInfo+0x64>
/home/jeferson/optee/optee_os-rpi4/lib/libutee/tee_api_objects.c:82
    2c9c:	f9400bf3 	ldr	x19, [sp, #16]
    2ca0:	a8c57bfd 	ldp	x29, x30, [sp], #80
    2ca4:	d65f03c0 	ret

0000000000002ca8 <__GP11_TEE_GetObjectInfo>:
__GP11_TEE_GetObjectInfo():
/home/jeferson/optee/optee_os-rpi4/lib/libutee/tee_api_objects.c:86
    2ca8:	a9bb7bfd 	stp	x29, x30, [sp, #-80]!
    2cac:	910003fd 	mov	x29, sp
    2cb0:	f9000bf3 	str	x19, [sp, #16]
    2cb4:	aa0103f3 	mov	x19, x1
    2cb8:	f00000a1 	adrp	x1, 19000 <_DYNAMIC>
    2cbc:	f9409821 	ldr	x1, [x1, #304]
    2cc0:	f9400022 	ldr	x2, [x1]
    2cc4:	f90027e2 	str	x2, [sp, #72]
    2cc8:	d2800002 	mov	x2, #0x0                   	// #0
/home/jeferson/optee/optee_os-rpi4/lib/libutee/tee_api_objects.c:90
    2ccc:	9100a3e1 	add	x1, sp, #0x28
/home/jeferson/optee/optee_os-rpi4/lib/libutee/tee_api_objects.c:87
    2cd0:	a902ffff 	stp	xzr, xzr, [sp, #40]
    2cd4:	f9001fff 	str	xzr, [sp, #56]
    2cd8:	b90043ff 	str	wzr, [sp, #64]
/home/jeferson/optee/optee_os-rpi4/lib/libutee/tee_api_objects.c:90
    2cdc:	940018d9 	bl	9040 <_utee_cryp_obj_get_info>
/home/jeferson/optee/optee_os-rpi4/lib/libutee/tee_api_objects.c:92
    2ce0:	34000040 	cbz	w0, 2ce8 <__GP11_TEE_GetObjectInfo+0x40>
/home/jeferson/optee/optee_os-rpi4/lib/libutee/tee_api_objects.c:93
    2ce4:	94001765 	bl	8a78 <TEE_Panic>
/home/jeferson/optee/optee_os-rpi4/lib/libutee/tee_api_objects.c:95
    2ce8:	b9402be0 	ldr	w0, [sp, #40]
    2cec:	528017c1 	mov	w1, #0xbe                  	// #190
    2cf0:	72b40001 	movk	w1, #0xa000, lsl #16
    2cf4:	6b01001f 	cmp	w0, w1
    2cf8:	540001c1 	b.ne	2d30 <__GP11_TEE_GetObjectInfo+0x88>  // b.any
/home/jeferson/optee/optee_os-rpi4/lib/libutee/tee_api_objects.c:96
    2cfc:	52800000 	mov	w0, #0x0                   	// #0
/home/jeferson/optee/optee_os-rpi4/lib/libutee/tee_api_objects.c:97
    2d00:	2900fe7f 	stp	wzr, wzr, [x19, #4]
/home/jeferson/optee/optee_os-rpi4/lib/libutee/tee_api_objects.c:99
    2d04:	2901fe7f 	stp	wzr, wzr, [x19, #12]
/home/jeferson/optee/optee_os-rpi4/lib/libutee/tee_api_objects.c:100
    2d08:	b900167f 	str	wzr, [x19, #20]
/home/jeferson/optee/optee_os-rpi4/lib/libutee/tee_api_objects.c:111
    2d0c:	f00000a1 	adrp	x1, 19000 <_DYNAMIC>
/home/jeferson/optee/optee_os-rpi4/lib/libutee/tee_api_objects.c:101
    2d10:	b9001a60 	str	w0, [x19, #24]
/home/jeferson/optee/optee_os-rpi4/lib/libutee/tee_api_objects.c:111
    2d14:	f9409821 	ldr	x1, [x1, #304]
    2d18:	f94027e0 	ldr	x0, [sp, #72]
    2d1c:	f9400022 	ldr	x2, [x1]
    2d20:	eb020000 	subs	x0, x0, x2
    2d24:	d2800002 	mov	x2, #0x0                   	// #0
    2d28:	540001e0 	b.eq	2d64 <__GP11_TEE_GetObjectInfo+0xbc>  // b.none
    2d2c:	97fff677 	bl	708 <__stack_chk_fail>
/home/jeferson/optee/optee_os-rpi4/lib/libutee/tee_api_objects.c:103
    2d30:	b9000260 	str	w0, [x19]
/home/jeferson/optee/optee_os-rpi4/lib/libutee/tee_api_objects.c:104
    2d34:	b9402fe0 	ldr	w0, [sp, #44]
    2d38:	b9000660 	str	w0, [x19, #4]
/home/jeferson/optee/optee_os-rpi4/lib/libutee/tee_api_objects.c:105
    2d3c:	b94033e0 	ldr	w0, [sp, #48]
    2d40:	b9000a60 	str	w0, [x19, #8]
/home/jeferson/optee/optee_os-rpi4/lib/libutee/tee_api_objects.c:106
    2d44:	b94037e0 	ldr	w0, [sp, #52]
    2d48:	b9000e60 	str	w0, [x19, #12]
/home/jeferson/optee/optee_os-rpi4/lib/libutee/tee_api_objects.c:107
    2d4c:	b9403be0 	ldr	w0, [sp, #56]
    2d50:	b9001260 	str	w0, [x19, #16]
/home/jeferson/optee/optee_os-rpi4/lib/libutee/tee_api_objects.c:108
    2d54:	b9403fe0 	ldr	w0, [sp, #60]
    2d58:	b9001660 	str	w0, [x19, #20]
/home/jeferson/optee/optee_os-rpi4/lib/libutee/tee_api_objects.c:109
    2d5c:	b94043e0 	ldr	w0, [sp, #64]
    2d60:	17ffffeb 	b	2d0c <__GP11_TEE_GetObjectInfo+0x64>
/home/jeferson/optee/optee_os-rpi4/lib/libutee/tee_api_objects.c:111
    2d64:	f9400bf3 	ldr	x19, [sp, #16]
    2d68:	a8c57bfd 	ldp	x29, x30, [sp], #80
    2d6c:	d65f03c0 	ret

0000000000002d70 <TEE_GetObjectInfo1>:
TEE_GetObjectInfo1():
/home/jeferson/optee/optee_os-rpi4/lib/libutee/tee_api_objects.c:115
    2d70:	a9bb7bfd 	stp	x29, x30, [sp, #-80]!
    2d74:	f00000a2 	adrp	x2, 19000 <_DYNAMIC>
    2d78:	910003fd 	mov	x29, sp
    2d7c:	f9409842 	ldr	x2, [x2, #304]
    2d80:	a90153f3 	stp	x19, x20, [sp, #16]
    2d84:	aa0103f3 	mov	x19, x1
    2d88:	f9400041 	ldr	x1, [x2]
    2d8c:	f90027e1 	str	x1, [sp, #72]
    2d90:	d2800001 	mov	x1, #0x0                   	// #0
/home/jeferson/optee/optee_os-rpi4/lib/libutee/tee_api_objects.c:116
    2d94:	a902ffff 	stp	xzr, xzr, [sp, #40]
/home/jeferson/optee/optee_os-rpi4/lib/libutee/tee_api_objects.c:119
    2d98:	9100a3e1 	add	x1, sp, #0x28
/home/jeferson/optee/optee_os-rpi4/lib/libutee/tee_api_objects.c:116
    2d9c:	f9001fff 	str	xzr, [sp, #56]
    2da0:	b90043ff 	str	wzr, [sp, #64]
/home/jeferson/optee/optee_os-rpi4/lib/libutee/tee_api_objects.c:119
    2da4:	940018a7 	bl	9040 <_utee_cryp_obj_get_info>
/home/jeferson/optee/optee_os-rpi4/lib/libutee/tee_api_objects.c:121
    2da8:	52800021 	mov	w1, #0x1                   	// #1
/home/jeferson/optee/optee_os-rpi4/lib/libutee/tee_api_objects.c:122
    2dac:	121e7802 	and	w2, w0, #0xfffffffd
/home/jeferson/optee/optee_os-rpi4/lib/libutee/tee_api_objects.c:121
    2db0:	7100001f 	cmp	w0, #0x0
    2db4:	72be0201 	movk	w1, #0xf010, lsl #16
/home/jeferson/optee/optee_os-rpi4/lib/libutee/tee_api_objects.c:119
    2db8:	2a0003f4 	mov	w20, w0
/home/jeferson/optee/optee_os-rpi4/lib/libutee/tee_api_objects.c:121
    2dbc:	7a411044 	ccmp	w2, w1, #0x4, ne  // ne = any
    2dc0:	54000040 	b.eq	2dc8 <TEE_GetObjectInfo1+0x58>  // b.none
/home/jeferson/optee/optee_os-rpi4/lib/libutee/tee_api_objects.c:124
    2dc4:	9400172d 	bl	8a78 <TEE_Panic>
/home/jeferson/optee/optee_os-rpi4/lib/libutee/tee_api_objects.c:126
    2dc8:	f94017e0 	ldr	x0, [sp, #40]
    2dcc:	f9000260 	str	x0, [x19]
/home/jeferson/optee/optee_os-rpi4/lib/libutee/tee_api_objects.c:128
    2dd0:	f9401be0 	ldr	x0, [sp, #48]
/home/jeferson/optee/optee_os-rpi4/lib/libutee/tee_api_objects.c:135
    2dd4:	f00000a2 	adrp	x2, 19000 <_DYNAMIC>
/home/jeferson/optee/optee_os-rpi4/lib/libutee/tee_api_objects.c:128
    2dd8:	f9000660 	str	x0, [x19, #8]
/home/jeferson/optee/optee_os-rpi4/lib/libutee/tee_api_objects.c:130
    2ddc:	b9403be0 	ldr	w0, [sp, #56]
    2de0:	f9000a60 	str	x0, [x19, #16]
/home/jeferson/optee/optee_os-rpi4/lib/libutee/tee_api_objects.c:131
    2de4:	b9403fe0 	ldr	w0, [sp, #60]
/home/jeferson/optee/optee_os-rpi4/lib/libutee/tee_api_objects.c:135
    2de8:	f9409842 	ldr	x2, [x2, #304]
/home/jeferson/optee/optee_os-rpi4/lib/libutee/tee_api_objects.c:131
    2dec:	f9000e60 	str	x0, [x19, #24]
/home/jeferson/optee/optee_os-rpi4/lib/libutee/tee_api_objects.c:132
    2df0:	b94043e0 	ldr	w0, [sp, #64]
    2df4:	b9002260 	str	w0, [x19, #32]
/home/jeferson/optee/optee_os-rpi4/lib/libutee/tee_api_objects.c:135
    2df8:	f94027e0 	ldr	x0, [sp, #72]
    2dfc:	f9400041 	ldr	x1, [x2]
    2e00:	eb010000 	subs	x0, x0, x1
    2e04:	d2800001 	mov	x1, #0x0                   	// #0
    2e08:	54000040 	b.eq	2e10 <TEE_GetObjectInfo1+0xa0>  // b.none
    2e0c:	97fff63f 	bl	708 <__stack_chk_fail>
    2e10:	2a1403e0 	mov	w0, w20
    2e14:	a94153f3 	ldp	x19, x20, [sp, #16]
    2e18:	a8c57bfd 	ldp	x29, x30, [sp], #80
    2e1c:	d65f03c0 	ret

0000000000002e20 <__GP11_TEE_GetObjectInfo1>:
__GP11_TEE_GetObjectInfo1():
/home/jeferson/optee/optee_os-rpi4/lib/libutee/tee_api_objects.c:139
    2e20:	a9bb7bfd 	stp	x29, x30, [sp, #-80]!
    2e24:	910003fd 	mov	x29, sp
    2e28:	a90153f3 	stp	x19, x20, [sp, #16]
    2e2c:	aa0103f3 	mov	x19, x1
    2e30:	f00000a1 	adrp	x1, 19000 <_DYNAMIC>
    2e34:	f9409821 	ldr	x1, [x1, #304]
    2e38:	f9400022 	ldr	x2, [x1]
    2e3c:	f90027e2 	str	x2, [sp, #72]
    2e40:	d2800002 	mov	x2, #0x0                   	// #0
/home/jeferson/optee/optee_os-rpi4/lib/libutee/tee_api_objects.c:143
    2e44:	9100a3e1 	add	x1, sp, #0x28
/home/jeferson/optee/optee_os-rpi4/lib/libutee/tee_api_objects.c:140
    2e48:	a902ffff 	stp	xzr, xzr, [sp, #40]
    2e4c:	f9001fff 	str	xzr, [sp, #56]
    2e50:	b90043ff 	str	wzr, [sp, #64]
/home/jeferson/optee/optee_os-rpi4/lib/libutee/tee_api_objects.c:143
    2e54:	9400187b 	bl	9040 <_utee_cryp_obj_get_info>
/home/jeferson/optee/optee_os-rpi4/lib/libutee/tee_api_objects.c:145
    2e58:	52800021 	mov	w1, #0x1                   	// #1
/home/jeferson/optee/optee_os-rpi4/lib/libutee/tee_api_objects.c:146
    2e5c:	121e7802 	and	w2, w0, #0xfffffffd
/home/jeferson/optee/optee_os-rpi4/lib/libutee/tee_api_objects.c:145
    2e60:	7100001f 	cmp	w0, #0x0
    2e64:	72be0201 	movk	w1, #0xf010, lsl #16
/home/jeferson/optee/optee_os-rpi4/lib/libutee/tee_api_objects.c:143
    2e68:	2a0003f4 	mov	w20, w0
/home/jeferson/optee/optee_os-rpi4/lib/libutee/tee_api_objects.c:145
    2e6c:	7a411044 	ccmp	w2, w1, #0x4, ne  // ne = any
    2e70:	54000040 	b.eq	2e78 <__GP11_TEE_GetObjectInfo1+0x58>  // b.none
/home/jeferson/optee/optee_os-rpi4/lib/libutee/tee_api_objects.c:148
    2e74:	94001701 	bl	8a78 <TEE_Panic>
/home/jeferson/optee/optee_os-rpi4/lib/libutee/tee_api_objects.c:150
    2e78:	b9402be0 	ldr	w0, [sp, #40]
/home/jeferson/optee/optee_os-rpi4/lib/libutee/tee_api_objects.c:159
    2e7c:	f00000a1 	adrp	x1, 19000 <_DYNAMIC>
/home/jeferson/optee/optee_os-rpi4/lib/libutee/tee_api_objects.c:150
    2e80:	b9000260 	str	w0, [x19]
/home/jeferson/optee/optee_os-rpi4/lib/libutee/tee_api_objects.c:151
    2e84:	b9402fe0 	ldr	w0, [sp, #44]
    2e88:	b9000660 	str	w0, [x19, #4]
