
b6c53aba-9669-4668-a7f2-205629d00f86.elf:     file format elf64-littleaarch64
b6c53aba-9669-4668-a7f2-205629d00f86.elf
architecture: aarch64, flags 0x00000150:
HAS_SYMS, DYNAMIC, D_PAGED
start address 0x00000000000001f4

Program Header:
    LOAD off    0x0000000000001000 vaddr 0x0000000000000000 paddr 0x0000000000000000 align 2**12
         filesz 0x0000000000017c38 memsz 0x0000000000017c38 flags r-x
    LOAD off    0x0000000000019000 vaddr 0x0000000000018000 paddr 0x0000000000018000 align 2**12
         filesz 0x000000000000061c memsz 0x000000000000bec0 flags rw-
 DYNAMIC off    0x0000000000019000 vaddr 0x0000000000018000 paddr 0x0000000000018000 align 2**3
         filesz 0x0000000000000110 memsz 0x0000000000000110 flags rw-
   STACK off    0x0000000000000000 vaddr 0x0000000000000000 paddr 0x0000000000000000 align 2**4
         filesz 0x0000000000000000 memsz 0x0000000000000000 flags rw-

Dynamic Section:
  HASH                 0x0000000000017920
  GNU_HASH             0x0000000000017830
  STRTAB               0x00000000000178f0
  SYMTAB               0x0000000000017860
  STRSZ                0x000000000000002e
  SYMENT               0x0000000000000018
  DEBUG                0x0000000000000000
  RELA                 0x0000000000017950
  RELASZ               0x0000000000000528
  RELAENT              0x0000000000000018
  FLAGS_1              0x0000000008000000
  RELACOUNT            0x000000000000001f
private flags = 0x0:

Sections:
Idx Name          Size      VMA               LMA               File off  Algn
  0 .ta_head      00000020  0000000000000000  0000000000000000  00001000  2**3
                  CONTENTS, ALLOC, LOAD, READONLY, DATA
  1 .text         00012980  0000000000000020  0000000000000020  00001020  2**4
                  CONTENTS, ALLOC, LOAD, READONLY, CODE
  2 .eh_frame     00003bcc  00000000000129a0  00000000000129a0  000139a0  2**3
                  CONTENTS, ALLOC, LOAD, READONLY, DATA
  3 .rodata       000012bf  0000000000016570  0000000000016570  00017570  2**3
                  CONTENTS, ALLOC, LOAD, READONLY, DATA
  4 .gnu.hash     00000030  0000000000017830  0000000000017830  00018830  2**3
                  CONTENTS, ALLOC, LOAD, READONLY, DATA
  5 .dynsym       00000090  0000000000017860  0000000000017860  00018860  2**3
                  CONTENTS, ALLOC, LOAD, READONLY, DATA
  6 .dynstr       0000002e  00000000000178f0  00000000000178f0  000188f0  2**0
                  CONTENTS, ALLOC, LOAD, READONLY, DATA
  7 .hash         0000002c  0000000000017920  0000000000017920  00018920  2**3
                  CONTENTS, ALLOC, LOAD, READONLY, DATA
  8 .rela.dyn     000002e8  0000000000017950  0000000000017950  00018950  2**3
                  CONTENTS, ALLOC, LOAD, READONLY, DATA
  9 .dynamic      00000110  0000000000018000  0000000000018000  00019000  2**3
                  CONTENTS, ALLOC, LOAD, DATA
 10 .got          000000e0  0000000000018110  0000000000018110  00019110  2**3
                  CONTENTS, ALLOC, LOAD, DATA
 11 .rela.got     00000240  00000000000181f0  00000000000181f0  000191f0  2**3
                  CONTENTS, ALLOC, LOAD, READONLY, DATA
 12 .data         000001ec  0000000000018430  0000000000018430  00019430  2**3
                  CONTENTS, ALLOC, LOAD, DATA
 13 .bss          0000b8a0  0000000000018620  0000000000018620  0001961c  2**3
                  ALLOC
 14 .debug_info   00021e7b  0000000000000000  0000000000000000  0001961c  2**0
                  CONTENTS, READONLY, DEBUGGING, OCTETS
 15 .debug_abbrev 00004d41  0000000000000000  0000000000000000  0003b497  2**0
                  CONTENTS, READONLY, DEBUGGING, OCTETS
 16 .debug_loclists 00014170  0000000000000000  0000000000000000  000401d8  2**0
                  CONTENTS, READONLY, DEBUGGING, OCTETS
 17 .debug_aranges 000009e0  0000000000000000  0000000000000000  00054350  2**4
                  CONTENTS, READONLY, DEBUGGING, OCTETS
 18 .debug_rnglists 000008db  0000000000000000  0000000000000000  00054d30  2**0
                  CONTENTS, READONLY, DEBUGGING, OCTETS
 19 .debug_macro  0001b499  0000000000000000  0000000000000000  0005560b  2**0
                  CONTENTS, READONLY, DEBUGGING, OCTETS
 20 .debug_line   0000f0c6  0000000000000000  0000000000000000  00070aa4  2**0
                  CONTENTS, READONLY, DEBUGGING, OCTETS
 21 .debug_str    0001be14  0000000000000000  0000000000000000  0007fb6a  2**0
                  CONTENTS, READONLY, DEBUGGING, OCTETS
 22 .debug_line_str 00000ac1  0000000000000000  0000000000000000  0009b97e  2**0
                  CONTENTS, READONLY, DEBUGGING, OCTETS
 23 .comment      00000055  0000000000000000  0000000000000000  0009c43f  2**0
                  CONTENTS, READONLY
SYMBOL TABLE:
0000000000000000 l    d  .ta_head	0000000000000000 .ta_head
0000000000000020 l    d  .text	0000000000000000 .text
00000000000129a0 l    d  .eh_frame	0000000000000000 .eh_frame
0000000000016570 l    d  .rodata	0000000000000000 .rodata
0000000000017830 l    d  .gnu.hash	0000000000000000 .gnu.hash
0000000000017860 l    d  .dynsym	0000000000000000 .dynsym
00000000000178f0 l    d  .dynstr	0000000000000000 .dynstr
0000000000017920 l    d  .hash	0000000000000000 .hash
0000000000017950 l    d  .rela.dyn	0000000000000000 .rela.dyn
0000000000018000 l    d  .dynamic	0000000000000000 .dynamic
0000000000018110 l    d  .got	0000000000000000 .got
00000000000181f0 l    d  .rela.got	0000000000000000 .rela.got
0000000000018430 l    d  .data	0000000000000000 .data
0000000000018620 l    d  .bss	0000000000000000 .bss
0000000000000000 l    d  .debug_info	0000000000000000 .debug_info
0000000000000000 l    d  .debug_abbrev	0000000000000000 .debug_abbrev
0000000000000000 l    d  .debug_loclists	0000000000000000 .debug_loclists
0000000000000000 l    d  .debug_aranges	0000000000000000 .debug_aranges
0000000000000000 l    d  .debug_rnglists	0000000000000000 .debug_rnglists
0000000000000000 l    d  .debug_macro	0000000000000000 .debug_macro
0000000000000000 l    d  .debug_line	0000000000000000 .debug_line
0000000000000000 l    d  .debug_str	0000000000000000 .debug_str
0000000000000000 l    d  .debug_line_str	0000000000000000 .debug_line_str
0000000000000000 l    d  .comment	0000000000000000 .comment
0000000000000000 l    df *ABS*	0000000000000000 user_ta_header.c
0000000000016578 l     O .rodata	0000000000000001 __compound_literal.6
000000000001657c l     O .rodata	0000000000000004 __compound_literal.5
0000000000016580 l     O .rodata	0000000000000004 __compound_literal.4
0000000000016584 l     O .rodata	0000000000000004 __compound_literal.3
0000000000016588 l     O .rodata	0000000000000001 __compound_literal.2
0000000000016589 l     O .rodata	0000000000000001 __compound_literal.1
000000000001658a l     O .rodata	0000000000000001 __compound_literal.0
0000000000000000 l    df *ABS*	0000000000000000 memcpy.c
0000000000000000 l    df *ABS*	0000000000000000 random_example_ta.c
0000000000016a26 l     O .rodata	0000000000000017 __func__.0
0000000000000000 l    df *ABS*	0000000000000000 trace.c
0000000000016b3c l     O .rodata	0000000000000005 lvl_strs.0
0000000000000000 l    df *ABS*	0000000000000000 stack_check.c
0000000000000000 l    df *ABS*	0000000000000000 snprintk.c
0000000000000774 l     F .text	0000000000000bc4 kprintf.constprop.0
0000000000016652 l     O .rodata	0000000000000011 hexdigits
0000000000016663 l     O .rodata	0000000000000011 HEXDIGITS
0000000000000000 l    df *ABS*	0000000000000000 memchr.c
0000000000000000 l    df *ABS*	0000000000000000 strlen.c
0000000000000000 l    df *ABS*	0000000000000000 trace_ext.c
0000000000000000 l    df *ABS*	0000000000000000 tee_api.c
00000000000015ac l     F .text	000000000000006c copy_param
0000000000001618 l     F .text	0000000000000070 copy_gp11_param
0000000000001688 l     F .text	0000000000000098 check_mem_access_rights_params
0000000000001720 l     F .text	0000000000000044 buf_overlaps_no_share_heap
0000000000001764 l     F .text	00000000000000a8 check_invoke_param
000000000000180c l     F .text	00000000000000a4 update_out_param
00000000000018b0 l     F .text	00000000000000a8 update_out_gp11_param
0000000000001b28 l     F .text	000000000000019c map_tmp_param
0000000000018620 l     O .bss	0000000000000008 tee_api_instance_data
00000000000165b0 l     O .rodata	000000000000000b __func__.0
0000000000000000 l    df *ABS*	0000000000000000 tee_api_operations.c
000000000000266c l     F .text	0000000000000108 __tee_alg_get_main_alg
0000000000002774 l     F .text	0000000000000250 tee_buffer_update
00000000000029c4 l     F .text	000000000000009c __tee_alg_get_class
0000000000002a60 l     F .text	00000000000000ec ae_update_helper
0000000000002b4c l     F .text	000000000000005c reset_operation_state
0000000000002ba8 l     F .text	00000000000001e4 set_operation_key2
000000000001667e l     O .rodata	0000000000000012 __func__.0
0000000000000000 l    df *ABS*	0000000000000000 tee_api_panic.c
0000000000006b38 l     F .text	000000000000001c check_access
0000000000006b5c l     F .text	0000000000000010 check_res.constprop.0
0000000000006cec l     F .text	0000000000000024 __utee_check_attr_in_annotation.localalias
0000000000000000 l    df *ABS*	0000000000000000 tee_system_pta.c
0000000000006d34 l     F .text	0000000000000084 invoke_system_pta
0000000000016690 l     O .rodata	0000000000000010 uuid.2
00000000000166a0 l     O .rodata	000000000000000a __func__.1
00000000000166aa l     O .rodata	0000000000000017 __func__.0
0000000000018630 l     O .bss	0000000000000008 sess.3
0000000000000000 l    df *ABS*	0000000000000000 utee_syscalls_a64.o
0000000000000000 l    df *ABS*	0000000000000000 user_ta_entry.c
000000000000729c l     F .text	00000000000000b0 _get_fn_array
000000000000734c l     F .text	0000000000000090 _fini_iterate_phdr_cb
00000000000073dc l     F .text	0000000000000028 ta_header_get_session
0000000000007404 l     F .text	0000000000000070 to_utee_params
0000000000007474 l     F .text	000000000000005c from_utee_params
00000000000074d0 l     F .text	0000000000000094 _init_iterate_phdr_cb
00000000000076c0 l     F .text	0000000000000094 ta_header_remove_session
0000000000016c7f l     O .rodata	0000000000000016 __func__.0
0000000000018638 l     O .bss	0000000000000008 _num_mod_init
0000000000018640 l     O .bss	0000000000000001 init_done
0000000000018510 l     O .data	0000000000000010 ta_sessions
0000000000018520 l     O .data	0000000000000010 __phdr_info_head
0000000000000000 l    df *ABS*	0000000000000000 user_ta_entry_compat.c
00000000000079dc l     F .text	0000000000000064 to_gp11_param
0000000000007a40 l     F .text	0000000000000064 from_gp11_param
0000000000000000 l    df *ABS*	0000000000000000 abort.c
0000000000000000 l    df *ABS*	0000000000000000 assert.c
0000000000000000 l    df *ABS*	0000000000000000 tee_api_arith_mpi.c
0000000000007c68 l     F .text	0000000000000030 api_panic
0000000000007c98 l     F .text	0000000000000030 mpi_panic
0000000000007cc8 l     F .text	0000000000000098 get_mpi
0000000000007d60 l     F .text	0000000000000064 copy_mpi_to_bigint
0000000000007dc4 l     F .text	000000000000014c bigint_binary
0000000000007f10 l     F .text	0000000000000020 mpi_is_odd
0000000000007f30 l     F .text	0000000000000028 rng_read
0000000000007f58 l     F .text	0000000000000574 mpi_egcd
00000000000186a8 l     O .bss	0000000000003800 data.18
0000000000008a08 l     F .text	00000000000001d0 bigint_binary_mod
0000000000016d8c l     O .rodata	0000000000000008 __func__.15
0000000000016d94 l     O .rodata	000000000000000e __func__.11
0000000000016da2 l     O .rodata	0000000000000009 __func__.2
0000000000016dab l     O .rodata	0000000000000012 __func__.17
0000000000016dbd l     O .rodata	000000000000000f __func__.16
0000000000016dcc l     O .rodata	000000000000001f __func__.14
0000000000016deb l     O .rodata	0000000000000019 __func__.13
0000000000016e04 l     O .rodata	0000000000000012 __func__.7
0000000000016e16 l     O .rodata	0000000000000015 __func__.12
0000000000016e2b l     O .rodata	000000000000000e __func__.10
0000000000016e39 l     O .rodata	000000000000000e __func__.9
0000000000016e47 l     O .rodata	000000000000000e __func__.8
0000000000016e55 l     O .rodata	0000000000000011 __func__.6
0000000000016e66 l     O .rodata	0000000000000018 __func__.5
0000000000016e7e l     O .rodata	0000000000000011 __func__.4
0000000000016e8f l     O .rodata	000000000000001d __func__.3
0000000000016eac l     O .rodata	0000000000000019 __func__.1
0000000000016ec5 l     O .rodata	0000000000000015 __func__.0
0000000000000000 l    df *ABS*	0000000000000000 tee_api_objects.c
0000000000000000 l    df *ABS*	0000000000000000 tee_api_property.c
000000000000b7fc l     F .text	000000000000006c propset_get
000000000000b868 l     F .text	000000000000002c is_propset_pseudo_handle
000000000000b894 l     F .text	0000000000000140 propget_get_ext_prop
000000000000b9d4 l     F .text	00000000000001f8 propget_get_property
00000000000166d4 l     O .rodata	0000000000000004 __compound_literal.3
00000000000166d8 l     O .rodata	0000000000000004 __compound_literal.2
00000000000166dc l     O .rodata	0000000000000004 __compound_literal.1
00000000000166e0 l     O .rodata	0000000000000004 __compound_literal.0
0000000000000000 l    df *ABS*	0000000000000000 tcb.c
0000000000016ff3 l     O .rodata	0000000000000010 __func__.1
0000000000017003 l     O .rodata	0000000000000010 __func__.0
000000000001bea8 l     O .bss	0000000000000008 _tls_size
000000000001beb0 l     O .bss	0000000000000008 _tcb
0000000000000000 l    df *ABS*	0000000000000000 base64.c
00000000000166e8 l     O .rodata	0000000000000041 base64_table
0000000000000000 l    df *ABS*	0000000000000000 bignum.c
000000000000cd5c l     F .text	0000000000000064 mpi_get_digit
000000000000cdc0 l     F .text	000000000000040c mpi_mul_hlp
000000000000d1cc l     F .text	0000000000000148 mpi_montmul
000000000000d314 l     F .text	0000000000000078 mpi_montred
000000000000d38c l     F .text	0000000000000038 mpi_montg_init.isra.0
000000000000d3c4 l     F .text	00000000000000ac mpi_bigendian_to_host.part.0
000000000000d470 l     F .text	00000000000000c0 mpi_fill_random_internal
000000000000d6bc l     F .text	000000000000006c mbedtls_mpi_resize_clear
000000000000f3ec l     F .text	00000000000000c4 mpi_check_small_factors
000000000000fdd0 l     F .text	00000000000002a4 mpi_miller_rabin
000000000001672c l     O .rodata	00000000000002a0 small_prime
00000000000169cc l     O .rodata	0000000000000024 gcd_pairs
0000000000000000 l    df *ABS*	0000000000000000 constant_time.c
0000000000010edc l     F .text	0000000000000020 mbedtls_ct_uchar_mask_of_range
0000000000000000 l    df *ABS*	0000000000000000 platform_util.c
0000000000018590 l     O .data	0000000000000008 memset_func
0000000000000000 l    df *ABS*	0000000000000000 bget_malloc.c
00000000000116c0 l     F .text	0000000000000010 _assert_trap
00000000000116d0 l     F .text	0000000000000028 bget_buf_size.part.0
00000000000116f8 l     F .text	0000000000000038 raw_malloc_return_hook.constprop.0
0000000000017722 l     O .rodata	000000000000000e __func__.2
0000000000017730 l     O .rodata	0000000000000005 __func__.8
0000000000017735 l     O .rodata	0000000000000006 __func__.7
000000000001773b l     O .rodata	0000000000000005 __func__.5
0000000000017740 l     O .rodata	0000000000000006 __func__.6
0000000000017746 l     O .rodata	0000000000000006 __func__.4
000000000001774c l     O .rodata	0000000000000007 __func__.3
0000000000017753 l     O .rodata	0000000000000014 __func__.1
0000000000017767 l     O .rodata	0000000000000013 __func__.0
0000000000018598 l     O .data	0000000000000080 malloc_ctx
0000000000000000 l    df *ABS*	0000000000000000 snprintf.c
0000000000000000 l    df *ABS*	0000000000000000 memmove.c
0000000000000000 l    df *ABS*	0000000000000000 memset.c
0000000000000000 l    df *ABS*	0000000000000000 strcmp.c
0000000000000000 l    df *ABS*	0000000000000000 strlcpy.c
0000000000000000 l    df *ABS*	0000000000000000 mempool.c
0000000000017803 l     O .rodata	0000000000000013 __func__.2
0000000000017816 l     O .rodata	000000000000000b __func__.1
0000000000017821 l     O .rodata	000000000000000e __func__.0
0000000000000000 l    df *ABS*	0000000000000000 consttime_memcmp.c
0000000000000000 l    df *ABS*	0000000000000000 
0000000000018000 l     O *ABS*	0000000000000000 _DYNAMIC
0000000000018128 l     O *ABS*	0000000000000000 _GLOBAL_OFFSET_TABLE_
000000000000153c g     F .text	0000000000000070 putchar
000000000000864c g     F .text	0000000000000008 __GP11_TEE_BigIntConvertFromOctetString
000000000000a710 g     F .text	0000000000000110 TEE_PopulateTransientObject
0000000000004f58 g     F .text	0000000000000010 __GP11_TEE_AEInit
0000000000009b94 g     F .text	0000000000000004 TEE_BigIntConvertToFMM
0000000000009404 g     F .text	000000000000000c TEE_BigIntSquareMod
0000000000008bd8 g     F .text	00000000000001a0 TEE_BigIntShiftRight
0000000000012274 g     F .text	00000000000000d4 raw_malloc_add_pool
0000000000006f08 g     F .text	00000000000000e8 tee_invoke_supp_plugin
000000000000d5d4 g     F .text	00000000000000e8 mbedtls_mpi_grow
0000000000004068 g     F .text	0000000000000070 TEE_DigestUpdate
000000000000c524 g     F .text	0000000000000130 __GP11_TEE_GetPropertyName
0000000000002574 g     F .text	00000000000000d8 TEE_Realloc
0000000000003ea0 g     F .text	0000000000000020 TEE_SetOperationKey2
0000000000004ce0 g     F .text	00000000000000a4 __GP11_TEE_MACComputeFinal
0000000000006d14 g     F .text	0000000000000020 __utee_check_inout_annotation
000000000001203c g     F .text	0000000000000010 raw_free
00000000000013fc g     F .text	0000000000000100 printf
0000000000008f7c g     F .text	000000000000002c TEE_BigIntAbs
0000000000004710 g     F .text	00000000000000a4 __GP11_TEE_CipherUpdate
000000000000a930 g     F .text	000000000000004c TEE_InitRefAttribute
0000000000007008 g     F .text	000000000000000c _utee_log
0000000000001f60 g     F .text	0000000000000184 TEE_InvokeTACommand
000000000000aa18 g     F .text	000000000000004c __GP11_TEE_InitValueAttribute
0000000000006b6c g     F .text	000000000000004c __utee_check_outbuf_annotation
000000000000d540 g     F .text	0000000000000028 mbedtls_mpi_init_mempool
0000000000007188 g     F .text	000000000000000c _utee_cryp_random_number_generate
000000000000dd38 g     F .text	00000000000000c4 mbedtls_mpi_write_binary
0000000000005264 g     F .text	0000000000000200 TEE_AEEncryptFinal
000000000000064c g     F .text	0000000000000058 vsnprintk
000000000000e5b8 g     F .text	0000000000000078 mbedtls_mpi_sub_int
0000000000005c5c g     F .text	0000000000000178 __GP11_TEE_AsymmetricDecrypt
00000000000126cc g     F .text	000000000000005c memmove
00000000000125a0 g     F .text	00000000000000d4 snprintf
0000000000008988 g     F .text	0000000000000080 TEE_BigIntCmpS32
0000000000002280 g     F .text	0000000000000008 __GP11_TEE_MemMove
0000000000018508 g     O .data	0000000000000008 __stack_chk_guard
0000000000011424 g     F .text	000000000000027c mbedtls_ct_rsaes_pkcs1_v15_unpadding
000000000000a9cc g     F .text	000000000000004c TEE_InitValueAttribute
000000000000d728 g     F .text	0000000000000118 mbedtls_mpi_shrink
0000000000002298 g     F .text	0000000000000008 __GP11_TEE_MemFill
0000000000008fa8 g     F .text	000000000000000c TEE_BigIntAdd
0000000000007128 g     F .text	000000000000000c _utee_cryp_obj_restrict_usage
000000000000a97c g     F .text	0000000000000050 __GP11_TEE_InitRefAttribute
0000000000016598 g     O .rodata	0000000000000008 ta_heap_size
000000000000a680 g     F .text	0000000000000090 TEE_ResetTransientObject
00000000000071d0 g     F .text	000000000000000c _utee_asymm_operate
000000000000cb0c g     F .text	0000000000000018 _base64_enc_len
000000000000e884 g     F .text	000000000000020c mbedtls_mpi_read_string
000000000000acc4 g     F .text	00000000000000d4 __GP11_TEE_GenerateKey
0000000000004494 g     F .text	00000000000000e0 TEE_CipherInit
0000000000008fc0 g     F .text	00000000000000e4 TEE_BigIntNeg
0000000000007224 g     F .text	000000000000000c _utee_storage_free_enum
0000000000000020 g       .text	0000000000000000 __text_start
000000000000c6e0 g     F .text	00000000000000e0 TEE_GetNextProperty
000000000000b1fc g     F .text	0000000000000050 TEE_StartPersistentObjectEnumerator
000000000000df0c g     F .text	00000000000000c0 mbedtls_mpi_shift_r
000000000001258c g     F .text	0000000000000014 malloc_buffer_overlaps_heap
00000000000070d4 g     F .text	000000000000000c _utee_hash_init
00000000000093ec g     F .text	000000000000000c TEE_BigIntSubMod
0000000000010770 g     F .text	000000000000034c mbedtls_mpi_gen_prime
000000000000c250 g     F .text	000000000000009c TEE_GetPropertyAsBinaryBlock
000000000000da00 g     F .text	000000000000002c mbedtls_mpi_get_bit
0000000000016590 g     O .rodata	0000000000000008 __ta_no_share_heap_size
000000000000dbfc g     F .text	0000000000000084 mbedtls_mpi_read_binary
0000000000004e94 g     F .text	00000000000000c4 TEE_AEInit
0000000000000470 g     F .text	00000000000000e4 trace_printf
000000000000f4b8 g     F .text	0000000000000004 mbedtls_mpi_montmul
0000000000007290 g     F .text	000000000000000c _utee_cache_operation
0000000000000020 g     F .text	00000000000000ec memcpy
0000000000009b98 g     F .text	00000000000000d4 TEE_BigIntConvertFromFMM
0000000000006b54 g     F .text	0000000000000008 TEE_Panic
0000000000003f0c g     F .text	000000000000015c TEE_CopyOperation
00000000000014fc g     F .text	0000000000000040 puts
0000000000009c6c g     F .text	000000000000014c TEE_BigIntComputeFMM
0000000000012554 g     F .text	0000000000000010 malloc_get_stats
00000000000023c0 g     F .text	0000000000000028 TEE_GetREETime
0000000000012518 g     F .text	000000000000003c raw_malloc_get_stats
000000000000b11c g     F .text	0000000000000090 TEE_AllocatePersistentObjectEnumerator
0000000000018430 g     O .data	00000000000000d8 ta_props
00000000000057cc g     F .text	000000000000018c TEE_AsymmetricEncrypt
000000000000250c g     F .text	0000000000000008 __GP11_TEE_Malloc
0000000000001e18 g     F .text	0000000000000148 __GP11_TEE_OpenTASession
0000000000006c04 g     F .text	0000000000000030 __utee_check_instring_annotation
00000000000121b0 g     F .text	0000000000000018 malloc
000000000000c510 g     F .text	0000000000000004 TEE_FreePropertyEnumerator
0000000000010f54 g     F .text	0000000000000010 mbedtls_ct_mpi_uint_mask
0000000000004574 g     F .text	0000000000000008 __GP11_TEE_CipherInit
000000000000abf0 g     F .text	00000000000000d4 TEE_GenerateKey
0000000000012674 g     F .text	0000000000000058 vsnprintf
0000000000018618 g     O .data	0000000000000004 trace_level
000000000000ae7c g     F .text	0000000000000008 __GP11_TEE_OpenPersistentObject
00000000000088f0 g     F .text	0000000000000098 TEE_BigIntCmp
0000000000016570 g     O .rodata	0000000000000008 ta_num_props
0000000000011d5c g     F .text	00000000000000d0 bgetr
00000000000071e8 g     F .text	000000000000000c _utee_storage_obj_open
000000000000228c g     F .text	0000000000000008 __GP11_TEE_MemCompare
000000000001291c g     F .text	0000000000000014 mempool_free
000000000000457c g     F .text	0000000000000194 TEE_CipherUpdate
00000000000070e0 g     F .text	000000000000000c _utee_hash_update
0000000000008654 g     F .text	00000000000000c8 TEE_BigIntConvertToOctetString
0000000000003aa0 g     F .text	00000000000001b0 TEE_GetOperationInfoMultiple
000000000000db0c g     F .text	000000000000005c mbedtls_mpi_bitlen
0000000000008d80 g     F .text	0000000000000084 TEE_BigIntGetBit
00000000000165a0 g     O .rodata	0000000000000003 trace_ext_prefix
0000000000007248 g     F .text	000000000000000c _utee_storage_next_enum
000000000001202c g     F .text	0000000000000010 raw_malloc
0000000000011a10 g     F .text	0000000000000088 bgetz
0000000000010f64 g     F .text	0000000000000018 mbedtls_ct_size_bool_eq
0000000000002270 g     F .text	000000000000000c TEE_GetInstanceData
00000000000022c8 g     F .text	000000000000003c TEE_Wait
000000000000e630 g     F .text	00000000000001ac mbedtls_mpi_mul_mpi
0000000000008d78 g     F .text	0000000000000008 __GP11_TEE_BigIntShiftRight
000000000000265c g     F .text	0000000000000008 TEE_CacheFlush
0000000000000254 g     F .text	000000000000021c trace_vprintf
0000000000000114 g     F .text	0000000000000004 TA_DestroyEntryPoint
000000000000d530 g     F .text	0000000000000010 mbedtls_mpi_init
0000000000007200 g     F .text	000000000000000c _utee_storage_obj_del
000000000000dab8 g     F .text	0000000000000054 mbedtls_mpi_lsb
00000000000049cc g     F .text	00000000000000b0 __GP11_TEE_CipherDoFinal
0000000000007c10 g     F .text	0000000000000044 _assert_log
0000000000005164 g     F .text	0000000000000100 __GP11_TEE_AEUpdate
00000000000070bc g     F .text	000000000000000c _utee_cryp_state_copy
0000000000009b74 g     F .text	0000000000000008 TEE_BigIntFMMContextSizeInU32
0000000000006e4c g     F .text	00000000000000bc tee_unmap
0000000000004d84 g     F .text	0000000000000104 TEE_MACCompareFinal
0000000000010f98 g     F .text	0000000000000030 mbedtls_ct_uint_if
000000000000b0b8 g     F .text	000000000000005c TEE_RenamePersistentObject
00000000000040e0 g     F .text	000000000000016c TEE_DigestDoFinal
000000000000a820 g     F .text	0000000000000110 __GP11_TEE_PopulateTransientObject
00000000000084cc g     F .text	0000000000000050 _TEE_MathAPI_Init
000000000000c7c0 g     F .text	0000000000000240 __utee_tcb_init
000000000000e42c g     F .text	0000000000000088 mbedtls_mpi_add_mpi
0000000000007bf0 g     F .text	0000000000000020 abort
0000000000010074 g     F .text	00000000000001b8 mbedtls_mpi_random
0000000000000558 g     F .text	0000000000000030 __stack_chk_fail
0000000000006ccc g     F .text	0000000000000020 __utee_check_out_annotation
000000000001bec0 g     O .bss	0000000000008000 ta_heap
0000000000009410 g     F .text	0000000000000150 TEE_BigIntInvMod
00000000000040d8 g     F .text	0000000000000008 __GP11_TEE_DigestUpdate
0000000000007564 g     F .text	000000000000014c __utee_call_elf_init_fn
0000000000009f14 g     F .text	00000000000000c8 __GP11_TEE_GetObjectInfo
0000000000000128 g     F .text	0000000000000004 TA_CloseSessionEntryPoint
000000000000012c g     F .text	00000000000000c8 __GP11_TA_InvokeCommandEntryPoint
0000000000007044 g     F .text	000000000000000c _utee_close_ta_session
000000000000a08c g     F .text	00000000000000c0 __GP11_TEE_GetObjectInfo1
0000000000009b3c g     F .text	0000000000000008 __GP11_TEE_BigIntInitFMMContext
0000000000005acc g     F .text	0000000000000190 TEE_AsymmetricDecrypt
000000000000ad98 g     F .text	00000000000000e4 TEE_OpenPersistentObject
000000000000e4b4 g     F .text	000000000000008c mbedtls_mpi_sub_mpi
0000000000012930 g     F .text	0000000000000070 consttime_memcmp
0000000000006ffc g     F .text	000000000000000c _utee_return
0000000000007014 g     F .text	000000000000000c __utee_panic
0000000000010efc g     F .text	0000000000000048 mbedtls_ct_memcmp
000000000000ca00 g     F .text	000000000000001c __tls_get_addr
000000000000021c g     F .text	000000000000000c TA_InvokeCommandEntryPoint
00000000000076b0 g     F .text	0000000000000010 __utee_call_elf_fini_fn
0000000000012240 g     F .text	0000000000000010 free_wipe
0000000000012868 g     F .text	0000000000000064 mempool_alloc
0000000000006ff0 g     F .text	000000000000000c _utee_panic
0000000000012258 g     F .text	000000000000001c raw_malloc_init_ctx
00000000000128cc g     F .text	0000000000000050 mempool_calloc
0000000000007284 g     F .text	000000000000000c _utee_cryp_obj_generate_key
000000000000ab5c g     F .text	0000000000000094 TEE_CopyObjectAttributes
000000000000726c g     F .text	000000000000000c _utee_storage_obj_trunc
0000000000018530 g     O .data	0000000000000060 tee_props
0000000000007074 g     F .text	000000000000000c _utee_unmask_cancellation
000000000000c4bc g     F .text	000000000000000c TEE_ResetPropertyEnumerator
00000000000121c8 g     F .text	000000000000001c calloc
00000000000023e8 g     F .text	0000000000000124 TEE_Malloc
0000000000001aa0 g     F .text	0000000000000088 TEE_CheckMemoryAccessRights
000000000000c2ec g     F .text	00000000000000e8 TEE_GetPropertyAsUUID
0000000000007020 g     F .text	000000000000000c _utee_get_property
000000000000424c g     F .text	00000000000000a4 __GP11_TEE_DigestDoFinal
0000000000008e7c g     F .text	00000000000000b0 TEE_BigIntSetBit
000000000000d998 g     F .text	0000000000000068 mbedtls_mpi_lset
0000000000003ec0 g     F .text	000000000000004c __GP11_TEE_SetOperationKey2
000000000000b494 g     F .text	00000000000000c8 TEE_ReadObjectData
000000000000a220 g     F .text	0000000000000104 TEE_GetObjectBufferAttribute
0000000000000210 g     F .text	000000000000000c TA_OpenSessionEntryPoint
0000000000000118 g     F .text	0000000000000010 __GP11_TA_OpenSessionEntryPoint
0000000000002d8c g     F .text	0000000000000040 TEE_FreeOperation
000000000000ca1c g     F .text	00000000000000f0 dl_iterate_phdr
0000000000023ec0 g       .bss	0000000000000000 __ftrace_buf_end
00000000000186a0 g     O .bss	0000000000000004 ta_param_types
000000000000efb0 g     F .text	0000000000000078 mbedtls_mpi_div_int
0000000000009db8 g     F .text	0000000000000050 __utee_from_attr
0000000000010684 g     F .text	00000000000000dc mbedtls_mpi_is_prime_ext
0000000000009aa4 g     F .text	0000000000000088 TEE_BigIntIsProbablePrime
000000000000e7dc g     F .text	00000000000000a8 mbedtls_mpi_mul_int
000000000000b044 g     F .text	0000000000000048 TEE_CloseAndDeletePersistentObject1
000000000000f4c0 g     F .text	00000000000006d0 mbedtls_mpi_exp_mod
0000000000011174 g     F .text	00000000000000bc mbedtls_mpi_safe_cond_assign
000000000000bbcc g     F .text	0000000000000258 TEE_GetPropertyAsString
000000000001132c g     F .text	00000000000000f8 mbedtls_mpi_lt_mpi_ct
000000000000553c g     F .text	00000000000001d4 TEE_AEDecryptFinal
000000000000851c g     F .text	0000000000000060 TEE_BigIntInit
000000000000871c g     F .text	0000000000000064 __GP11_TEE_BigIntConvertToOctetString
0000000000008f2c g     F .text	0000000000000050 TEE_BigIntAssign
0000000000006c34 g     F .text	000000000000004c __utee_check_outstring_annotation
000000000000227c g     F .text	0000000000000004 TEE_MemMove
00000000000116a0 g     F .text	0000000000000020 mbedtls_platform_zeroize
0000000000008584 g     F .text	00000000000000c8 TEE_BigIntConvertFromOctetString
00000000000071c4 g     F .text	000000000000000c _utee_authenc_dec_final
000000000000dfcc g     F .text	000000000000009c mbedtls_mpi_cmp_abs
0000000000007254 g     F .text	000000000000000c _utee_storage_obj_read
0000000000004a7c g     F .text	00000000000000a4 TEE_MACInit
0000000000005dd4 g     F .text	000000000000016c TEE_AsymmetricSignDigest
0000000000001384 g     F .text	000000000000002c memchr
00000000000019e0 g     F .text	0000000000000060 TEE_UnmaskCancellation
0000000000009e58 g     F .text	00000000000000bc TEE_GetObjectInfo
0000000000010abc g     F .text	0000000000000420 mbedtls_mpi_self_test
0000000000007278 g     F .text	000000000000000c _utee_storage_obj_seek
0000000000006bb8 g     F .text	000000000000004c __utee_check_gp11_outbuf_annotation
0000000000005098 g     F .text	00000000000000cc TEE_AEUpdate
000000000000a5f0 g     F .text	0000000000000090 TEE_FreeTransientObject
0000000000007068 g     F .text	000000000000000c _utee_check_access_rights
00000000000020e4 g     F .text	0000000000000178 __GP11_TEE_InvokeTACommand
000000000000e138 g     F .text	0000000000000078 mbedtls_mpi_cmp_int
000000000000cc38 g     F .text	0000000000000124 _base64_dec
0000000000007230 g     F .text	000000000000000c _utee_storage_reset_enum
0000000000003a20 g     F .text	000000000000002c __GP11_TEE_FreeOperation
00000000000110b8 g     F .text	00000000000000bc mbedtls_ct_base64_dec_value
0000000000006674 g     F .text	000000000000005c rand
0000000000006cec g     F .text	0000000000000024 __utee_check_attr_in_annotation
00000000000071ac g     F .text	000000000000000c _utee_authenc_update_payload
0000000000003a4c g     F .text	0000000000000054 TEE_GetOperationInfo
0000000000009374 g     F .text	000000000000006c TEE_BigIntMod
000000000000f0dc g     F .text	000000000000009c mbedtls_mpi_mod_int
0000000000005f40 g     F .text	000000000000016c __GP11_TEE_AsymmetricSignDigest
000000000000db84 g     F .text	0000000000000078 mbedtls_mpi_read_binary_le
00000000000091c0 g     F .text	00000000000001b4 TEE_BigIntDiv
0000000000007140 g     F .text	000000000000000c _utee_cryp_obj_alloc
0000000000023ec0 g       .bss	0000000000000000 __ftrace_buf_start
0000000000012768 g     F .text	0000000000000038 strlcpy
0000000000011004 g     F .text	00000000000000b4 mbedtls_ct_base64_enc_char
000000000000d840 g     F .text	00000000000000cc mbedtls_mpi_copy
00000000000066d0 g     F .text	0000000000000468 TEE_IsAlgorithmSupported
0000000000011f90 g     F .text	0000000000000018 malloc_reset_stats
000000000000c3d4 g     F .text	00000000000000e8 TEE_GetPropertyAsIdentity
0000000000001338 g     F .text	000000000000004c __vsprintf
000000000000c080 g     F .text	00000000000000e8 TEE_GetPropertyAsU64
00000000000070a4 g     F .text	000000000000000c _utee_set_ta_time
0000000000007050 g     F .text	000000000000000c _utee_invoke_ta_command
000000000000a14c g     F .text	0000000000000044 TEE_RestrictObjectUsage1
00000000000121e4 g     F .text	0000000000000018 realloc
000000000000d90c g     F .text	000000000000008c mbedtls_mpi_swap
00000000000127a0 g     F .text	00000000000000c8 mempool_alloc_pool
00000000000090a4 g     F .text	0000000000000114 TEE_BigIntMul
0000000000003cdc g     F .text	000000000000003c TEE_ResetOperation
0000000000012250 g     F .text	0000000000000008 raw_malloc_get_ctx_size
000000000000ddfc g     F .text	0000000000000110 mbedtls_mpi_shift_l
000000000000e068 g     F .text	00000000000000d0 mbedtls_mpi_cmp_mpi
0000000000002294 g     F .text	0000000000000004 TEE_MemFill
0000000000012564 g     F .text	0000000000000014 malloc_add_pool
0000000000004b28 g     F .text	00000000000000a0 TEE_MACUpdate
0000000000000244 g     F .text	0000000000000010 trace_get_level
000000000000e1b0 g     F .text	0000000000000120 mbedtls_mpi_add_abs
000000000000a190 g     F .text	0000000000000090 TEE_RestrictObjectUsage
0000000000009b4c g     F .text	0000000000000010 TEE_BigIntFMMSizeInU32
000000000000bec0 g     F .text	00000000000000d8 TEE_GetPropertyAsBool
00000000000120bc g     F .text	00000000000000f4 raw_realloc
0000000000009b2c g     F .text	0000000000000004 TEE_BigIntInitFMM
000000000000a4f8 g     F .text	0000000000000028 TEE_CloseObject
00000000000070f8 g     F .text	000000000000000c _utee_cipher_init
0000000000007754 g     F .text	0000000000000288 __utee_entry
000000000000bf98 g     F .text	00000000000000e8 TEE_GetPropertyAsU32
00000000000129a0 g       .text	0000000000000000 __text_end
0000000000009560 g     F .text	0000000000000108 TEE_BigIntRelativePrime
000000000000f028 g     F .text	00000000000000b4 mbedtls_mpi_mod_mpi
000000000000711c g     F .text	000000000000000c _utee_cryp_obj_get_info
0000000000011e2c g     F .text	00000000000000d0 bpool
000000000000c4c8 g     F .text	0000000000000048 TEE_AllocatePropertyEnumerator
00000000000070b0 g     F .text	000000000000000c _utee_cryp_state_alloc
0000000000001980 g     F .text	0000000000000060 TEE_GetCancellationFlag
000000000000afc8 g     F .text	000000000000007c __GP11_TEE_CreatePersistentObject
000000000000fb90 g     F .text	00000000000001d8 mbedtls_mpi_gcd
000000000000237c g     F .text	0000000000000044 TEE_SetTAPersistentTime
000000000000dc80 g     F .text	00000000000000b8 mbedtls_mpi_write_binary_le
0000000000012728 g     F .text	000000000000001c memset
0000000000011fa8 g     F .text	0000000000000084 raw_memalign
0000000000002304 g     F .text	0000000000000078 TEE_GetTAPersistentTime
0000000000003e64 g     F .text	000000000000003c __GP11_TEE_SetOperationKey
0000000000005464 g     F .text	00000000000000d8 __GP11_TEE_AEEncryptFinal
0000000000000554 g     F .text	0000000000000004 dhex_dump
000000000000ae84 g     F .text	0000000000000144 TEE_CreatePersistentObject
0000000000001a40 g     F .text	0000000000000060 TEE_MaskCancellation
0000000000004f68 g     F .text	000000000000009c TEE_AEUpdateAAD
000000000000b678 g     F .text	000000000000005c TEE_TruncateObjectData
0000000000007134 g     F .text	000000000000000c _utee_cryp_obj_get_attr
0000000000009fdc g     F .text	00000000000000b0 TEE_GetObjectInfo1
0000000000007110 g     F .text	000000000000000c _utee_cipher_final
0000000000000228 g     F .text	000000000000001c trace_set_level
000000000000a3c0 g     F .text	0000000000000138 TEE_GetObjectValueAttribute
0000000000003d18 g     F .text	000000000000014c TEE_SetOperationKey
0000000000010f7c g     F .text	000000000000001c mbedtls_ct_mpi_uint_lt
000000000000a324 g     F .text	000000000000009c __GP11_TEE_GetObjectBufferAttribute
00000000000070c8 g     F .text	000000000000000c _utee_cryp_state_free
0000000000012744 g     F .text	0000000000000024 strcmp
0000000000007038 g     F .text	000000000000000c _utee_open_ta_session
0000000000008834 g     F .text	00000000000000bc TEE_BigIntConvertToS32
0000000000008fb4 g     F .text	000000000000000c TEE_BigIntSub
000000000000b7f4 g     F .text	0000000000000008 __GP11_TEE_SeekObjectData
0000000000000208 g     F .text	0000000000000008 tahead_get_trace_level
000000000000723c g     F .text	000000000000000c _utee_storage_start_enum
000000000000b6dc g     F .text	0000000000000118 TEE_SeekObjectData
0000000000006db8 g     F .text	0000000000000094 tee_map_zi
000000000000b6d4 g     F .text	0000000000000008 __GP11_TEE_TruncateObjectData
000000000000f4bc g     F .text	0000000000000004 mbedtls_mpi_montred
00000000000121fc g     F .text	000000000000001c memalign
0000000000010f44 g     F .text	0000000000000010 mbedtls_ct_uint_mask
00000000000047b4 g     F .text	0000000000000218 TEE_CipherDoFinal
000000000000857c g     F .text	0000000000000008 __GP11_TEE_BigIntInit
0000000000008780 g     F .text	00000000000000b4 TEE_BigIntConvertFromS32
000000000000e540 g     F .text	0000000000000078 mbedtls_mpi_add_int
00000000000071b8 g     F .text	000000000000000c _utee_authenc_enc_final
0000000000012578 g     F .text	0000000000000014 malloc_buffer_is_within_alloced
000000000000714c g     F .text	000000000000000c _utee_cryp_obj_close
000000000000666c g     F .text	0000000000000008 __GP11_TEE_GenerateRandom
0000000000009b38 g     F .text	0000000000000004 TEE_BigIntInitFMMContext
0000000000007080 g     F .text	000000000000000c _utee_mask_cancellation
0000000000018658 g     O .bss	0000000000000008 __ta_no_share_malloc_ctx
000000000000720c g     F .text	000000000000000c _utee_storage_obj_rename
000000000000b368 g     F .text	000000000000012c __GP11_TEE_GetNextPersistentObject
000000000000b5f8 g     F .text	0000000000000078 TEE_WriteObjectData
000000000000b1d4 g     F .text	0000000000000028 TEE_ResetPersistentObjectEnumerator
000000000000225c g     F .text	0000000000000008 __GP11_TEE_CheckMemoryAccessRights
00000000000091b8 g     F .text	0000000000000008 TEE_BigIntSquare
0000000000007260 g     F .text	000000000000000c _utee_storage_obj_write
000000000000010c g     F .text	0000000000000008 TA_CreateEntryPoint
00000000000001f4 g     F .text	0000000000000014 __ta_entry
000000000001bec0 g     O .bss	0000000000000000 __ta_no_share_heap
00000000000071a0 g     F .text	000000000000000c _utee_authenc_update_aad
000000000000f4b0 g     F .text	0000000000000008 mbedtls_mpi_montg_init
00000000000006a4 g     F .text	00000000000000d0 snprintk
0000000000008e04 g     F .text	0000000000000078 TEE_BigIntGetBitCount
0000000000007170 g     F .text	000000000000000c _utee_cryp_obj_copy
0000000000005004 g     F .text	0000000000000094 __GP11_TEE_AEUpdateAAD
00000000000093f8 g     F .text	000000000000000c TEE_BigIntMulMod
000000000001022c g     F .text	0000000000000458 mbedtls_mpi_inv_mod
0000000000006d10 g     F .text	0000000000000004 __utee_check_gp11_attr_in_annotation
000000000000635c g     F .text	0000000000000178 TEE_DeriveKey
0000000000018660 g     O .bss	0000000000000040 ta_params
000000000000ea90 g     F .text	0000000000000520 mbedtls_mpi_div_mpi
0000000000006c80 g     F .text	000000000000004c __utee_check_gp11_outstring_annotation
000000000000db68 g     F .text	000000000000001c mbedtls_mpi_size
0000000000011730 g     F .text	00000000000002e0 bget
000000000000b55c g     F .text	000000000000009c __GP11_TEE_ReadObjectData
000000000000a5d4 g     F .text	000000000000001c TEE_AllocateTransientObject
0000000000004bc8 g     F .text	0000000000000008 __GP11_TEE_MACUpdate
0000000000009b7c g     F .text	0000000000000018 __GP11_TEE_BigIntFMMContextSizeInU32
000000000000c514 g     F .text	0000000000000010 TEE_StartPropertyEnumerator
000000000000708c g     F .text	000000000000000c _utee_wait
000000000000da2c g     F .text	000000000000008c mbedtls_mpi_set_bit
0000000000002514 g     F .text	0000000000000060 TEE_Free
0000000000010760 g     F .text	0000000000000010 mbedtls_mpi_is_prime
0000000000002664 g     F .text	0000000000000008 TEE_CacheInvalidate
0000000000007c54 g     F .text	0000000000000014 _assert_break
00000000000093e0 g     F .text	000000000000000c TEE_BigIntAddMod
0000000000010fc8 g     F .text	000000000000003c mbedtls_ct_mpi_uint_cond_assign
0000000000009b30 g     F .text	0000000000000008 __GP11_TEE_BigIntInitFMM
0000000000007098 g     F .text	000000000000000c _utee_get_time
000000000000c654 g     F .text	000000000000008c TEE_GetPropertyName
000000000000264c g     F .text	0000000000000008 __GP11_TEE_Realloc
0000000000002dcc g     F .text	0000000000000c54 TEE_AllocateOperation
0000000000007164 g     F .text	000000000000000c _utee_cryp_obj_populate
0000000000003c50 g     F .text	000000000000008c __GP11_TEE_GetOperationInfoMultiple
0000000000009e08 g     F .text	0000000000000050 __utee_from_gp11_attr
000000000000664c g     F .text	0000000000000020 TEE_GenerateRandom
00000000000042f0 g     F .text	00000000000001a4 TEE_DigestExtract
0000000000002288 g     F .text	0000000000000004 TEE_MemCompare
0000000000007104 g     F .text	000000000000000c _utee_cipher_update
0000000000000588 g     F .text	00000000000000c4 __vsnprintf
0000000000018648 g     O .bss	0000000000000010 __elf_phdr_info
000000000000b1ac g     F .text	0000000000000028 TEE_FreePersistentObjectEnumerator
0000000000001cc4 g     F .text	0000000000000154 TEE_OpenTASession
00000000000064d4 g     F .text	0000000000000178 __GP11_TEE_DeriveKey
0000000000005710 g     F .text	00000000000000bc __GP11_TEE_AEDecryptFinal
00000000000013cc g     F .text	0000000000000028 trace_ext_puts
000000000000be24 g     F .text	000000000000009c __GP11_TEE_GetPropertyAsString
00000000000123c8 g     F .text	0000000000000150 raw_malloc_buffer_is_within_alloced
00000000000013f4 g     F .text	0000000000000008 trace_ext_get_thread_id
0000000000012348 g     F .text	0000000000000080 raw_malloc_buffer_overlaps_heap
000000000000b08c g     F .text	000000000000002c TEE_CloseAndDeletePersistentObject
000000000000717c g     F .text	000000000000000c _utee_cryp_derive_key
000000000000d568 g     F .text	000000000000006c mbedtls_mpi_free
0000000000004b20 g     F .text	0000000000000008 __GP11_TEE_MACInit
0000000000006204 g     F .text	0000000000000158 __GP11_TEE_AsymmetricVerifyDigest
0000000000007158 g     F .text	000000000000000c _utee_cryp_obj_reset
0000000000002654 g     F .text	0000000000000008 TEE_CacheClean
000000000000702c g     F .text	000000000000000c _utee_get_property_name_to_index
000000000001204c g     F .text	0000000000000070 raw_calloc
000000000000cb24 g     F .text	0000000000000114 _base64_enc
0000000000011230 g     F .text	00000000000000fc mbedtls_mpi_safe_cond_swap
0000000000007194 g     F .text	000000000000000c _utee_authenc_init
000000000000aa64 g     F .text	00000000000000f8 TEE_CopyObjectAttributes1
000000000000b114 g     F .text	0000000000000008 __GP11_TEE_RenamePersistentObject
00000000000013b0 g     F .text	000000000000001c strlen
000000000000983c g     F .text	0000000000000268 TEE_BigIntComputeExtendedGcd
0000000000007218 g     F .text	000000000000000c _utee_storage_alloc_enum
0000000000009668 g     F .text	00000000000001d4 TEE_BigIntExpMod
00000000000022a0 g     F .text	0000000000000028 TEE_GetSystemTime
00000000000071dc g     F .text	000000000000000c _utee_asymm_verify
0000000000000000 g     O .ta_head	0000000000000020 ta_head
0000000000011a98 g     F .text	00000000000002c4 brel
0000000000007b40 g     F .text	00000000000000b0 __ta_invoke_cmd
000000000000c168 g     F .text	00000000000000e8 __GP11_TEE_GetPropertyAsBinaryBlock
000000000000e2d0 g     F .text	000000000000015c mbedtls_mpi_sub_abs
000000000000fd68 g     F .text	0000000000000068 mbedtls_mpi_fill_random
000000000000a520 g     F .text	00000000000000b4 __GP11_TEE_AllocateTransientObject
0000000000007aa4 g     F .text	000000000000009c __ta_open_sess
0000000000002264 g     F .text	000000000000000c TEE_SetInstanceData
0000000000005958 g     F .text	0000000000000174 __GP11_TEE_AsymmetricEncrypt
000000000000705c g     F .text	000000000000000c _utee_get_cancellation_flag
000000000000f178 g     F .text	0000000000000274 mbedtls_mpi_write_string
0000000000012218 g     F .text	0000000000000018 aligned_alloc
000000000000b24c g     F .text	000000000000011c TEE_GetNextPersistentObject
0000000000009b44 g     F .text	0000000000000008 TEE_BigIntInitFMMContext1
0000000000004e88 g     F .text	000000000000000c __GP11_TEE_MACCompareFinal
000000000000b670 g     F .text	0000000000000008 __GP11_TEE_WriteObjectData
0000000000001958 g     F .text	0000000000000028 TEE_CloseTASession
00000000000060ac g     F .text	0000000000000158 TEE_AsymmetricVerifyDigest
00000000000071f4 g     F .text	000000000000000c _utee_storage_obj_create
0000000000009b5c g     F .text	0000000000000018 __GP11_TEE_BigIntFMMSizeInU32
0000000000012230 g     F .text	0000000000000010 free
0000000000011efc g     F .text	0000000000000094 bstats
0000000000004bd0 g     F .text	0000000000000110 TEE_MACComputeFinal
000000000001beb8 g     O .bss	0000000000000008 mbedtls_mpi_mempool
00000000000070ec g     F .text	000000000000000c _utee_hash_final



Disassembly of section .text:

0000000000000020 <memcpy>:
memcpy():
/home/jeferson/optee/optee_os-rpi4/lib/libutils/isoc/newlib/memcpy.c:106
      20:	f1007c5f 	cmp	x2, #0x1f
      24:	54000629 	b.ls	e8 <memcpy+0xc8>  // b.plast
/home/jeferson/optee/optee_os-rpi4/lib/libutils/isoc/newlib/memcpy.c:106 (discriminator 1)
      28:	aa010005 	orr	x5, x0, x1
      2c:	f24008a5 	ands	x5, x5, #0x7
      30:	54000641 	b.ne	f8 <memcpy+0xd8>  // b.any
      34:	d1008048 	sub	x8, x2, #0x20
/home/jeferson/optee/optee_os-rpi4/lib/libutils/isoc/newlib/memcpy.c:108
      38:	aa0103e3 	mov	x3, x1
      3c:	927be908 	and	x8, x8, #0xffffffffffffffe0
/home/jeferson/optee/optee_os-rpi4/lib/libutils/isoc/newlib/memcpy.c:107
      40:	aa0003e4 	mov	x4, x0
      44:	91008108 	add	x8, x8, #0x20
      48:	8b080007 	add	x7, x0, x8
      4c:	d503201f 	nop
/home/jeferson/optee/optee_os-rpi4/lib/libutils/isoc/newlib/memcpy.c:112
      50:	f9400066 	ldr	x6, [x3]
      54:	f9000086 	str	x6, [x4]
/home/jeferson/optee/optee_os-rpi4/lib/libutils/isoc/newlib/memcpy.c:113
      58:	91008063 	add	x3, x3, #0x20
      5c:	91008084 	add	x4, x4, #0x20
      60:	f85e8066 	ldur	x6, [x3, #-24]
      64:	f81e8086 	stur	x6, [x4, #-24]
/home/jeferson/optee/optee_os-rpi4/lib/libutils/isoc/newlib/memcpy.c:114
      68:	f85f0066 	ldur	x6, [x3, #-16]
      6c:	f81f0086 	stur	x6, [x4, #-16]
/home/jeferson/optee/optee_os-rpi4/lib/libutils/isoc/newlib/memcpy.c:115
      70:	f85f8066 	ldur	x6, [x3, #-8]
      74:	f81f8086 	stur	x6, [x4, #-8]
/home/jeferson/optee/optee_os-rpi4/lib/libutils/isoc/newlib/memcpy.c:111
      78:	eb0400ff 	cmp	x7, x4
      7c:	54fffea1 	b.ne	50 <memcpy+0x30>  // b.any
/home/jeferson/optee/optee_os-rpi4/lib/libutils/isoc/newlib/memcpy.c:115
      80:	8b080021 	add	x1, x1, x8
/home/jeferson/optee/optee_os-rpi4/lib/libutils/isoc/newlib/memcpy.c:116
      84:	92401043 	and	x3, x2, #0x1f
/home/jeferson/optee/optee_os-rpi4/lib/libutils/isoc/newlib/memcpy.c:120
      88:	f27d045f 	tst	x2, #0x18
      8c:	540003c0 	b.eq	104 <memcpy+0xe4>  // b.none
/home/jeferson/optee/optee_os-rpi4/lib/libutils/isoc/newlib/memcpy.c:121
      90:	f8656826 	ldr	x6, [x1, x5]
      94:	f8256886 	str	x6, [x4, x5]
/home/jeferson/optee/optee_os-rpi4/lib/libutils/isoc/newlib/memcpy.c:120
      98:	910020a5 	add	x5, x5, #0x8
      9c:	cb050066 	sub	x6, x3, x5
      a0:	f1001cdf 	cmp	x6, #0x7
      a4:	54ffff68 	b.hi	90 <memcpy+0x70>  // b.pmore
      a8:	d1002063 	sub	x3, x3, #0x8
/home/jeferson/optee/optee_os-rpi4/lib/libutils/isoc/newlib/memcpy.c:122
      ac:	92400842 	and	x2, x2, #0x7
      b0:	927df063 	and	x3, x3, #0xfffffffffffffff8
/home/jeferson/optee/optee_os-rpi4/lib/libutils/isoc/newlib/memcpy.c:130
      b4:	d1000446 	sub	x6, x2, #0x1
      b8:	91002063 	add	x3, x3, #0x8
/home/jeferson/optee/optee_os-rpi4/lib/libutils/isoc/newlib/memcpy.c:121
      bc:	8b030084 	add	x4, x4, x3
      c0:	8b030021 	add	x1, x1, x3
/home/jeferson/optee/optee_os-rpi4/lib/libutils/isoc/newlib/memcpy.c:130
      c4:	b4000102 	cbz	x2, e4 <memcpy+0xc4>
/home/jeferson/optee/optee_os-rpi4/lib/libutils/isoc/newlib/memcpy.c:99
      c8:	d2800002 	mov	x2, #0x0                   	// #0
      cc:	d503201f 	nop
/home/jeferson/optee/optee_os-rpi4/lib/libutils/isoc/newlib/memcpy.c:131
      d0:	38626825 	ldrb	w5, [x1, x2]
/home/jeferson/optee/optee_os-rpi4/lib/libutils/isoc/newlib/memcpy.c:130
      d4:	eb0200df 	cmp	x6, x2
/home/jeferson/optee/optee_os-rpi4/lib/libutils/isoc/newlib/memcpy.c:131
      d8:	38226885 	strb	w5, [x4, x2]
/home/jeferson/optee/optee_os-rpi4/lib/libutils/isoc/newlib/memcpy.c:130
      dc:	91000442 	add	x2, x2, #0x1
      e0:	54ffff81 	b.ne	d0 <memcpy+0xb0>  // b.any
/home/jeferson/optee/optee_os-rpi4/lib/libutils/isoc/newlib/memcpy.c:135
      e4:	d65f03c0 	ret
/home/jeferson/optee/optee_os-rpi4/lib/libutils/isoc/newlib/memcpy.c:99
      e8:	aa0003e4 	mov	x4, x0
/home/jeferson/optee/optee_os-rpi4/lib/libutils/isoc/newlib/memcpy.c:130
      ec:	d1000446 	sub	x6, x2, #0x1
      f0:	b5fffec2 	cbnz	x2, c8 <memcpy+0xa8>
/home/jeferson/optee/optee_os-rpi4/lib/libutils/isoc/newlib/memcpy.c:135
      f4:	d65f03c0 	ret
/home/jeferson/optee/optee_os-rpi4/lib/libutils/isoc/newlib/memcpy.c:130
      f8:	d1000446 	sub	x6, x2, #0x1
/home/jeferson/optee/optee_os-rpi4/lib/libutils/isoc/newlib/memcpy.c:99
      fc:	aa0003e4 	mov	x4, x0
     100:	17fffff2 	b	c8 <memcpy+0xa8>
/home/jeferson/optee/optee_os-rpi4/lib/libutils/isoc/newlib/memcpy.c:120
     104:	aa0303e2 	mov	x2, x3
     108:	17fffff9 	b	ec <memcpy+0xcc>

000000000000010c <TA_CreateEntryPoint>:
TA_CreateEntryPoint():
/home/jeferson/optee/optee_examples/random/ta/random_example_ta.c:36
     10c:	52800000 	mov	w0, #0x0                   	// #0
     110:	d65f03c0 	ret

0000000000000114 <TA_DestroyEntryPoint>:
TA_DestroyEntryPoint():
/home/jeferson/optee/optee_examples/random/ta/random_example_ta.c:40
     114:	d65f03c0 	ret

0000000000000118 <__GP11_TA_OpenSessionEntryPoint>:
__GP11_TA_OpenSessionEntryPoint():
/home/jeferson/optee/optee_examples/random/ta/random_example_ta.c:51
     118:	7100001f 	cmp	w0, #0x0
/home/jeferson/optee/optee_examples/random/ta/random_example_ta.c:57
     11c:	129fff21 	mov	w1, #0xffff0006            	// #-65530
     120:	1a810000 	csel	w0, w0, w1, eq  // eq = none
     124:	d65f03c0 	ret

0000000000000128 <TA_CloseSessionEntryPoint>:
TA_CloseSessionEntryPoint():
/home/jeferson/optee/optee_examples/random/ta/random_example_ta.c:62
     128:	d65f03c0 	ret

000000000000012c <__GP11_TA_InvokeCommandEntryPoint>:
__GP11_TA_InvokeCommandEntryPoint():
/home/jeferson/optee/optee_examples/random/ta/random_example_ta.c:100
     12c:	a9bd7bfd 	stp	x29, x30, [sp, #-48]!
     130:	910003fd 	mov	x29, sp
     134:	a90153f3 	stp	x19, x20, [sp, #16]
     138:	a9025bf5 	stp	x21, x22, [sp, #32]
/home/jeferson/optee/optee_examples/random/ta/random_example_ta.c:103
     13c:	340000e1 	cbz	w1, 158 <__GP11_TA_InvokeCommandEntryPoint+0x2c>
/home/jeferson/optee/optee_examples/random/ta/random_example_ta.c:107
     140:	129fff34 	mov	w20, #0xffff0006            	// #-65530
/home/jeferson/optee/optee_examples/random/ta/random_example_ta.c:109
     144:	2a1403e0 	mov	w0, w20
     148:	a94153f3 	ldp	x19, x20, [sp, #16]
     14c:	a9425bf5 	ldp	x21, x22, [sp, #32]
     150:	a8c37bfd 	ldp	x29, x30, [sp], #48
     154:	d65f03c0 	ret
random_number_generate():
/home/jeferson/optee/optee_examples/random/ta/random_example_ta.c:74
     158:	d00000b6 	adrp	x22, 16000 <__text_end+0x3660>
     15c:	91289ad6 	add	x22, x22, #0xa26
     160:	2a0203f5 	mov	w21, w2
     164:	2a0103f4 	mov	w20, w1
     168:	aa0303f3 	mov	x19, x3
     16c:	d00000a4 	adrp	x4, 16000 <__text_end+0x3660>
     170:	9127c084 	add	x4, x4, #0x9f0
     174:	52800023 	mov	w3, #0x1                   	// #1
     178:	52800062 	mov	w2, #0x3                   	// #3
     17c:	52800941 	mov	w1, #0x4a                  	// #74
     180:	aa1603e0 	mov	x0, x22
     184:	940000bb 	bl	470 <trace_printf>
/home/jeferson/optee/optee_examples/random/ta/random_example_ta.c:75
     188:	71001abf 	cmp	w21, #0x6
     18c:	54fffda1 	b.ne	140 <__GP11_TA_InvokeCommandEntryPoint+0x14>  // b.any
/home/jeferson/optee/optee_examples/random/ta/random_example_ta.c:78
     190:	b9400a60 	ldr	w0, [x19, #8]
     194:	52800001 	mov	w1, #0x0                   	// #0
     198:	940008dd 	bl	250c <__GP11_TEE_Malloc>
     19c:	aa0003f5 	mov	x21, x0
/home/jeferson/optee/optee_examples/random/ta/random_example_ta.c:79
     1a0:	b4000260 	cbz	x0, 1ec <__GP11_TA_InvokeCommandEntryPoint+0xc0>
/home/jeferson/optee/optee_examples/random/ta/random_example_ta.c:81
     1a4:	b9400a65 	ldr	w5, [x19, #8]
     1a8:	52800023 	mov	w3, #0x1                   	// #1
     1ac:	52800042 	mov	w2, #0x2                   	// #2
     1b0:	aa1603e0 	mov	x0, x22
     1b4:	52800a21 	mov	w1, #0x51                  	// #81
     1b8:	d00000a4 	adrp	x4, 16000 <__text_end+0x3660>
     1bc:	91280084 	add	x4, x4, #0xa00
     1c0:	940000ac 	bl	470 <trace_printf>
/home/jeferson/optee/optee_examples/random/ta/random_example_ta.c:90
     1c4:	b9400a61 	ldr	w1, [x19, #8]
     1c8:	aa1503e0 	mov	x0, x21
     1cc:	94001928 	bl	666c <__GP11_TEE_GenerateRandom>
/home/jeferson/optee/optee_examples/random/ta/random_example_ta.c:91
     1d0:	b9400a62 	ldr	w2, [x19, #8]
     1d4:	aa1503e1 	mov	x1, x21
     1d8:	f9400260 	ldr	x0, [x19]
     1dc:	94000829 	bl	2280 <__GP11_TEE_MemMove>
/home/jeferson/optee/optee_examples/random/ta/random_example_ta.c:92
     1e0:	aa1503e0 	mov	x0, x21
     1e4:	940008cc 	bl	2514 <TEE_Free>
/home/jeferson/optee/optee_examples/random/ta/random_example_ta.c:94
     1e8:	17ffffd7 	b	144 <__GP11_TA_InvokeCommandEntryPoint+0x18>
/home/jeferson/optee/optee_examples/random/ta/random_example_ta.c:80
     1ec:	129ffe74 	mov	w20, #0xffff000c            	// #-65524
     1f0:	17ffffd5 	b	144 <__GP11_TA_InvokeCommandEntryPoint+0x18>

00000000000001f4 <__ta_entry>:
__ta_entry():
/home/jeferson/optee/optee_os-rpi4/out/arm-plat-rpi4/export-ta_arm64/src/user_ta_header.c:51
     1f4:	a9bf7bfd 	stp	x29, x30, [sp, #-16]!
     1f8:	910003fd 	mov	x29, sp
/home/jeferson/optee/optee_os-rpi4/out/arm-plat-rpi4/export-ta_arm64/src/user_ta_header.c:70
     1fc:	94001d56 	bl	7754 <__utee_entry>
/home/jeferson/optee/optee_os-rpi4/out/arm-plat-rpi4/export-ta_arm64/src/user_ta_header.c:81
     200:	2a0003e0 	mov	w0, w0
     204:	94001b7e 	bl	6ffc <_utee_return>

0000000000000208 <tahead_get_trace_level>:
tahead_get_trace_level():
/home/jeferson/optee/optee_os-rpi4/out/arm-plat-rpi4/export-ta_arm64/src/user_ta_header.c:193
     208:	52800080 	mov	w0, #0x4                   	// #4
     20c:	d65f03c0 	ret

0000000000000210 <TA_OpenSessionEntryPoint>:
TA_OpenSessionEntryPoint():
/home/jeferson/optee/optee_os-rpi4/out/arm-plat-rpi4/export-ta_arm64/src/user_ta_header.c:203
     210:	900000c3 	adrp	x3, 18000 <_DYNAMIC>
     214:	f940cc63 	ldr	x3, [x3, #408]
     218:	14001e23 	b	7aa4 <__ta_open_sess>

000000000000021c <TA_InvokeCommandEntryPoint>:
TA_InvokeCommandEntryPoint():
/home/jeferson/optee/optee_os-rpi4/out/arm-plat-rpi4/export-ta_arm64/src/user_ta_header.c:211
     21c:	900000c4 	adrp	x4, 18000 <_DYNAMIC>
     220:	f940c084 	ldr	x4, [x4, #384]
     224:	14001e47 	b	7b40 <__ta_invoke_cmd>

0000000000000228 <trace_set_level>:
trace_set_level():
/home/jeferson/optee/optee_os-rpi4/lib/libutils/ext/trace.c:28
     228:	7100141f 	cmp	w0, #0x5
     22c:	52800081 	mov	w1, #0x4                   	// #4
     230:	1a813000 	csel	w0, w0, w1, cc  // cc = lo, ul, last
     234:	900000c1 	adrp	x1, 18000 <_DYNAMIC>
     238:	f940a821 	ldr	x1, [x1, #336]
     23c:	b9000020 	str	w0, [x1]
/home/jeferson/optee/optee_os-rpi4/lib/libutils/ext/trace.c:29
     240:	d65f03c0 	ret

0000000000000244 <trace_get_level>:
trace_get_level():
/home/jeferson/optee/optee_os-rpi4/lib/libutils/ext/trace.c:33
     244:	900000c0 	adrp	x0, 18000 <_DYNAMIC>
/home/jeferson/optee/optee_os-rpi4/lib/libutils/ext/trace.c:34
     248:	f940a800 	ldr	x0, [x0, #336]
     24c:	b9400000 	ldr	w0, [x0]
     250:	d65f03c0 	ret

0000000000000254 <trace_vprintf>:
trace_vprintf():
/home/jeferson/optee/optee_os-rpi4/lib/libutils/ext/trace.c:113
     254:	a9a77bfd 	stp	x29, x30, [sp, #-400]!
     258:	910003fd 	mov	x29, sp
     25c:	a9046bf9 	stp	x25, x26, [sp, #64]
     260:	2a0103f9 	mov	w25, w1
     264:	900000c1 	adrp	x1, 18000 <_DYNAMIC>
     268:	a9025bf5 	stp	x21, x22, [sp, #32]
     26c:	aa0003f6 	mov	x22, x0
     270:	aa0103f5 	mov	x21, x1
     274:	f9409820 	ldr	x0, [x1, #304]
     278:	a90153f3 	stp	x19, x20, [sp, #16]
     27c:	2a0203f3 	mov	w19, w2
     280:	a90363f7 	stp	x23, x24, [sp, #48]
     284:	aa0403f7 	mov	x23, x4
     288:	aa0503f8 	mov	x24, x5
     28c:	a90573fb 	stp	x27, x28, [sp, #80]
/home/jeferson/optee/optee_os-rpi4/lib/libutils/ext/trace.c:118
     290:	72001c7b 	ands	w27, w3, #0xff
/home/jeferson/optee/optee_os-rpi4/lib/libutils/ext/trace.c:113
     294:	f9400002 	ldr	x2, [x0]
     298:	f900c7e2 	str	x2, [sp, #392]
     29c:	d2800002 	mov	x2, #0x0                   	// #0
/home/jeferson/optee/optee_os-rpi4/lib/libutils/ext/trace.c:118
     2a0:	54000b20 	b.eq	404 <trace_vprintf+0x1b0>  // b.none
/home/jeferson/optee/optee_os-rpi4/lib/libutils/ext/trace.c:118 (discriminator 1)
     2a4:	f940a820 	ldr	x0, [x1, #336]
     2a8:	b9400000 	ldr	w0, [x0]
     2ac:	6b13001f 	cmp	w0, w19
     2b0:	540009cb 	b.lt	3e8 <trace_vprintf+0x194>  // b.tstop
trace_level_to_string():
/home/jeferson/optee/optee_os-rpi4/lib/libutils/ext/trace.c:51
     2b4:	7100127f 	cmp	w19, #0x4
/home/jeferson/optee/optee_os-rpi4/lib/libutils/ext/trace.c:54
     2b8:	d00000a0 	adrp	x0, 16000 <__text_end+0x3660>
/home/jeferson/optee/optee_os-rpi4/lib/libutils/ext/trace.c:51
     2bc:	1a9f9261 	csel	w1, w19, wzr, ls  // ls = plast
/home/jeferson/optee/optee_os-rpi4/lib/libutils/ext/trace.c:54
     2c0:	912cf000 	add	x0, x0, #0xb3c
     2c4:	3861c803 	ldrb	w3, [x0, w1, sxtw]
trace_vprintf():
/home/jeferson/optee/optee_os-rpi4/lib/libutils/ext/trace.c:122
     2c8:	910223f4 	add	x20, sp, #0x88
     2cc:	d00000a2 	adrp	x2, 16000 <__text_end+0x3660>
     2d0:	aa1403e0 	mov	x0, x20
     2d4:	912c8842 	add	x2, x2, #0xb22
     2d8:	d2802001 	mov	x1, #0x100                 	// #256
     2dc:	940000f2 	bl	6a4 <snprintk>
/home/jeferson/optee/optee_os-rpi4/lib/libutils/ext/trace.c:124
     2e0:	37f80840 	tbnz	w0, #31, 3e8 <trace_vprintf+0x194>
/home/jeferson/optee/optee_os-rpi4/lib/libutils/ext/trace.c:129
     2e4:	f940b2a3 	ldr	x3, [x21, #352]
     2e8:	d280201c 	mov	x28, #0x100                 	// #256
/home/jeferson/optee/optee_os-rpi4/lib/libutils/ext/trace.c:126
     2ec:	93407c1a 	sxtw	x26, w0
/home/jeferson/optee/optee_os-rpi4/lib/libutils/ext/trace.c:129
     2f0:	cb20c381 	sub	x1, x28, w0, sxtw
     2f4:	d00000a2 	adrp	x2, 16000 <__text_end+0x3660>
     2f8:	8b20c280 	add	x0, x20, w0, sxtw
     2fc:	912c9842 	add	x2, x2, #0xb26
     300:	940000e9 	bl	6a4 <snprintk>
/home/jeferson/optee/optee_os-rpi4/lib/libutils/ext/trace.c:131
     304:	37f80720 	tbnz	w0, #31, 3e8 <trace_vprintf+0x194>
/home/jeferson/optee/optee_os-rpi4/lib/libutils/ext/trace.c:133
     308:	8b20c35a 	add	x26, x26, w0, sxtw
/home/jeferson/optee/optee_os-rpi4/lib/libutils/ext/trace.c:135
     30c:	3400093b 	cbz	w27, 430 <trace_vprintf+0x1dc>
/home/jeferson/optee/optee_os-rpi4/lib/libutils/ext/trace.c:135 (discriminator 1)
     310:	52800340 	mov	w0, #0x1a                  	// #26
     314:	1ad32400 	lsr	w0, w0, w19
     318:	360008c0 	tbz	w0, #0, 430 <trace_vprintf+0x1dc>
print_thread_id():
/home/jeferson/optee/optee_os-rpi4/lib/libutils/ext/trace.c:66
     31c:	94000436 	bl	13f4 <trace_ext_get_thread_id>
trace_vprintf():
/home/jeferson/optee/optee_os-rpi4/lib/libutils/ext/trace.c:137
     320:	8b1a029b 	add	x27, x20, x26
     324:	cb1a039c 	sub	x28, x28, x26
print_thread_id():
/home/jeferson/optee/optee_os-rpi4/lib/libutils/ext/trace.c:66
     328:	2a0003e4 	mov	w4, w0
/home/jeferson/optee/optee_os-rpi4/lib/libutils/ext/trace.c:68
     32c:	37f80700 	tbnz	w0, #31, 40c <trace_vprintf+0x1b8>
/home/jeferson/optee/optee_os-rpi4/lib/libutils/ext/trace.c:69
     330:	d00000a2 	adrp	x2, 16000 <__text_end+0x3660>
     334:	aa1c03e1 	mov	x1, x28
     338:	912ca842 	add	x2, x2, #0xb2a
     33c:	aa1b03e0 	mov	x0, x27
     340:	52800023 	mov	w3, #0x1                   	// #1
     344:	940000d8 	bl	6a4 <snprintk>
trace_vprintf():
/home/jeferson/optee/optee_os-rpi4/lib/libutils/ext/trace.c:144
     348:	37f80500 	tbnz	w0, #31, 3e8 <trace_vprintf+0x194>
/home/jeferson/optee/optee_os-rpi4/lib/libutils/ext/trace.c:146
     34c:	8b20c353 	add	x19, x26, w0, sxtw
/home/jeferson/optee/optee_os-rpi4/lib/libutils/ext/trace.c:148
     350:	b4000176 	cbz	x22, 37c <trace_vprintf+0x128>
/home/jeferson/optee/optee_os-rpi4/lib/libutils/ext/trace.c:149
     354:	d00000a2 	adrp	x2, 16000 <__text_end+0x3660>
     358:	d2802001 	mov	x1, #0x100                 	// #256
     35c:	2a1903e4 	mov	w4, w25
     360:	aa1603e3 	mov	x3, x22
     364:	912cd442 	add	x2, x2, #0xb35
     368:	cb130021 	sub	x1, x1, x19
     36c:	8b130280 	add	x0, x20, x19
     370:	940000cd 	bl	6a4 <snprintk>
/home/jeferson/optee/optee_os-rpi4/lib/libutils/ext/trace.c:151
     374:	37f803a0 	tbnz	w0, #31, 3e8 <trace_vprintf+0x194>
/home/jeferson/optee/optee_os-rpi4/lib/libutils/ext/trace.c:153
     378:	8b20c273 	add	x19, x19, w0, sxtw
/home/jeferson/optee/optee_os-rpi4/lib/libutils/ext/trace.c:163
     37c:	910183e3 	add	x3, sp, #0x60
     380:	aa1803e1 	mov	x1, x24
     384:	aa0303e0 	mov	x0, x3
     388:	d2800402 	mov	x2, #0x20                  	// #32
     38c:	97ffff25 	bl	20 <memcpy>
     390:	aa0003e3 	mov	x3, x0
     394:	d2802001 	mov	x1, #0x100                 	// #256
     398:	aa1703e2 	mov	x2, x23
     39c:	cb130021 	sub	x1, x1, x19
     3a0:	8b130280 	add	x0, x20, x19
     3a4:	940000aa 	bl	64c <vsnprintk>
/home/jeferson/optee/optee_os-rpi4/lib/libutils/ext/trace.c:164
     3a8:	7100001f 	cmp	w0, #0x0
     3ac:	5400004d 	b.le	3b4 <trace_vprintf+0x160>
/home/jeferson/optee/optee_os-rpi4/lib/libutils/ext/trace.c:165
     3b0:	8b20c273 	add	x19, x19, w0, sxtw
/home/jeferson/optee/optee_os-rpi4/lib/libutils/ext/trace.c:167
     3b4:	f103fa7f 	cmp	x19, #0xfe
     3b8:	d2801fc0 	mov	x0, #0xfe                  	// #254
     3bc:	9a809273 	csel	x19, x19, x0, ls  // ls = plast
/home/jeferson/optee/optee_os-rpi4/lib/libutils/ext/trace.c:170
     3c0:	52800140 	mov	w0, #0xa                   	// #10
     3c4:	38336a80 	strb	w0, [x20, x19]
/home/jeferson/optee/optee_os-rpi4/lib/libutils/ext/trace.c:171
     3c8:	b4000093 	cbz	x19, 3d8 <trace_vprintf+0x184>
/home/jeferson/optee/optee_os-rpi4/lib/libutils/ext/trace.c:171 (discriminator 1)
     3cc:	38736a80 	ldrb	w0, [x20, x19]
     3d0:	7100281f 	cmp	w0, #0xa
     3d4:	540003c0 	b.eq	44c <trace_vprintf+0x1f8>  // b.none
/home/jeferson/optee/optee_os-rpi4/lib/libutils/ext/trace.c:174
     3d8:	91022be0 	add	x0, sp, #0x8a
     3dc:	3833681f 	strb	wzr, [x0, x19]
/home/jeferson/optee/optee_os-rpi4/lib/libutils/ext/trace.c:176
     3e0:	aa1403e0 	mov	x0, x20
     3e4:	940003fa 	bl	13cc <trace_ext_puts>
/home/jeferson/optee/optee_os-rpi4/lib/libutils/ext/trace.c:177
     3e8:	f9409ab5 	ldr	x21, [x21, #304]
     3ec:	f940c7e0 	ldr	x0, [sp, #392]
     3f0:	f94002a1 	ldr	x1, [x21]
     3f4:	eb010000 	subs	x0, x0, x1
     3f8:	d2800001 	mov	x1, #0x0                   	// #0
     3fc:	540002c0 	b.eq	454 <trace_vprintf+0x200>  // b.none
     400:	94000056 	bl	558 <__stack_chk_fail>
trace_level_to_string():
/home/jeferson/optee/optee_os-rpi4/lib/libutils/ext/trace.c:49
     404:	528009a3 	mov	w3, #0x4d                  	// #77
     408:	17ffffb0 	b	2c8 <trace_vprintf+0x74>
print_thread_id():
/home/jeferson/optee/optee_os-rpi4/lib/libutils/ext/trace.c:71
     40c:	aa1c03e1 	mov	x1, x28
     410:	aa1b03e0 	mov	x0, x27
     414:	f00000a4 	adrp	x4, 17000 <__func__.1+0xd>
     418:	52800023 	mov	w3, #0x1                   	// #1
     41c:	9111a084 	add	x4, x4, #0x468
     420:	d00000a2 	adrp	x2, 16000 <__text_end+0x3660>
     424:	912cc042 	add	x2, x2, #0xb30
     428:	9400009f 	bl	6a4 <snprintk>
     42c:	17ffffc7 	b	348 <trace_vprintf+0xf4>
trace_vprintf():
/home/jeferson/optee/optee_os-rpi4/lib/libutils/ext/trace.c:157
     430:	f103fb5f 	cmp	x26, #0xfe
     434:	54fffda8 	b.hi	3e8 <trace_vprintf+0x194>  // b.pmore
/home/jeferson/optee/optee_os-rpi4/lib/libutils/ext/trace.c:159
     438:	91000753 	add	x19, x26, #0x1
     43c:	52800400 	mov	w0, #0x20                  	// #32
     440:	383a6a80 	strb	w0, [x20, x26]
/home/jeferson/optee/optee_os-rpi4/lib/libutils/ext/trace.c:160
     444:	38336a9f 	strb	wzr, [x20, x19]
     448:	17ffffcd 	b	37c <trace_vprintf+0x128>
/home/jeferson/optee/optee_os-rpi4/lib/libutils/ext/trace.c:172
     44c:	d1000673 	sub	x19, x19, #0x1
     450:	17ffffde 	b	3c8 <trace_vprintf+0x174>
/home/jeferson/optee/optee_os-rpi4/lib/libutils/ext/trace.c:177
     454:	a94153f3 	ldp	x19, x20, [sp, #16]
     458:	a9425bf5 	ldp	x21, x22, [sp, #32]
     45c:	a94363f7 	ldp	x23, x24, [sp, #48]
     460:	a9446bf9 	ldp	x25, x26, [sp, #64]
     464:	a94573fb 	ldp	x27, x28, [sp, #80]
     468:	a8d97bfd 	ldp	x29, x30, [sp], #400
     46c:	d65f03c0 	ret

0000000000000470 <trace_printf>:
trace_printf():
/home/jeferson/optee/optee_os-rpi4/lib/libutils/ext/trace.c:104
     470:	a9ad7bfd 	stp	x29, x30, [sp, #-304]!
     474:	910003fd 	mov	x29, sp
     478:	a90153f3 	stp	x19, x20, [sp, #16]
     47c:	900000d3 	adrp	x19, 18000 <_DYNAMIC>
     480:	aa0003f4 	mov	x20, x0
     484:	f9409a60 	ldr	x0, [x19, #304]
     488:	a9025bf5 	stp	x21, x22, [sp, #32]
     48c:	2a0103f5 	mov	w21, w1
     490:	a90363f7 	stp	x23, x24, [sp, #48]
     494:	2a0203f6 	mov	w22, w2
     498:	12001c78 	and	w24, w3, #0xff
     49c:	3d8027e0 	str	q0, [sp, #144]
     4a0:	aa0403f7 	mov	x23, x4
/home/jeferson/optee/optee_os-rpi4/lib/libutils/ext/trace.c:108
     4a4:	d2800402 	mov	x2, #0x20                  	// #32
/home/jeferson/optee/optee_os-rpi4/lib/libutils/ext/trace.c:104
     4a8:	3d802be1 	str	q1, [sp, #160]
     4ac:	3d802fe2 	str	q2, [sp, #176]
     4b0:	3d8033e3 	str	q3, [sp, #192]
     4b4:	3d8037e4 	str	q4, [sp, #208]
     4b8:	3d803be5 	str	q5, [sp, #224]
     4bc:	3d803fe6 	str	q6, [sp, #240]
     4c0:	3d8043e7 	str	q7, [sp, #256]
     4c4:	a9119be5 	stp	x5, x6, [sp, #280]
/home/jeferson/optee/optee_os-rpi4/lib/libutils/ext/trace.c:108
     4c8:	910103e5 	add	x5, sp, #0x40
/home/jeferson/optee/optee_os-rpi4/lib/libutils/ext/trace.c:104
     4cc:	f90097e7 	str	x7, [sp, #296]
     4d0:	f9400001 	ldr	x1, [x0]
     4d4:	f90047e1 	str	x1, [sp, #136]
     4d8:	d2800001 	mov	x1, #0x0                   	// #0
/home/jeferson/optee/optee_os-rpi4/lib/libutils/ext/trace.c:107
     4dc:	9104c3e0 	add	x0, sp, #0x130
     4e0:	a90683e0 	stp	x0, x0, [sp, #104]
     4e4:	910443e0 	add	x0, sp, #0x110
/home/jeferson/optee/optee_os-rpi4/lib/libutils/ext/trace.c:108
     4e8:	9101a3e1 	add	x1, sp, #0x68
/home/jeferson/optee/optee_os-rpi4/lib/libutils/ext/trace.c:107
     4ec:	f9003fe0 	str	x0, [sp, #120]
     4f0:	128002e0 	mov	w0, #0xffffffe8            	// #-24
     4f4:	b90083e0 	str	w0, [sp, #128]
     4f8:	12800fe0 	mov	w0, #0xffffff80            	// #-128
     4fc:	b90087e0 	str	w0, [sp, #132]
/home/jeferson/optee/optee_os-rpi4/lib/libutils/ext/trace.c:108
     500:	aa0503e0 	mov	x0, x5
     504:	97fffec7 	bl	20 <memcpy>
     508:	aa0003e5 	mov	x5, x0
     50c:	2a1503e1 	mov	w1, w21
     510:	aa1403e0 	mov	x0, x20
     514:	aa1703e4 	mov	x4, x23
     518:	2a1803e3 	mov	w3, w24
     51c:	2a1603e2 	mov	w2, w22
     520:	97ffff4d 	bl	254 <trace_vprintf>
/home/jeferson/optee/optee_os-rpi4/lib/libutils/ext/trace.c:110
     524:	f9409a73 	ldr	x19, [x19, #304]
     528:	f94047e0 	ldr	x0, [sp, #136]
     52c:	f9400261 	ldr	x1, [x19]
     530:	eb010000 	subs	x0, x0, x1
     534:	d2800001 	mov	x1, #0x0                   	// #0
     538:	54000040 	b.eq	540 <trace_printf+0xd0>  // b.none
     53c:	94000007 	bl	558 <__stack_chk_fail>
     540:	a94153f3 	ldp	x19, x20, [sp, #16]
     544:	a9425bf5 	ldp	x21, x22, [sp, #32]
     548:	a94363f7 	ldp	x23, x24, [sp, #48]
     54c:	a8d37bfd 	ldp	x29, x30, [sp], #304
     550:	d65f03c0 	ret

0000000000000554 <dhex_dump>:
dhex_dump():
/home/jeferson/optee/optee_os-rpi4/lib/libutils/ext/trace.c:287
     554:	d65f03c0 	ret

0000000000000558 <__stack_chk_fail>:
__stack_chk_fail():
/home/jeferson/optee/optee_os-rpi4/lib/libutils/isoc/stack_check.c:24
     558:	a9bf7bfd 	stp	x29, x30, [sp, #-16]!
/home/jeferson/optee/optee_os-rpi4/lib/libutils/isoc/stack_check.c:25
     55c:	d00000a4 	adrp	x4, 16000 <__text_end+0x3660>
     560:	52800023 	mov	w3, #0x1                   	// #1
/home/jeferson/optee/optee_os-rpi4/lib/libutils/isoc/stack_check.c:24
     564:	910003fd 	mov	x29, sp
/home/jeferson/optee/optee_os-rpi4/lib/libutils/isoc/stack_check.c:25
     568:	912d0484 	add	x4, x4, #0xb41
     56c:	52800022 	mov	w2, #0x1                   	// #1
     570:	52800001 	mov	w1, #0x0                   	// #0
     574:	d2800000 	mov	x0, #0x0                   	// #0
     578:	97ffffbe 	bl	470 <trace_printf>
/home/jeferson/optee/optee_os-rpi4/lib/libutils/isoc/stack_check.c:27 (discriminator 1)
     57c:	1299fe00 	mov	w0, #0xffff300f            	// #-53233
     580:	94001a9c 	bl	6ff0 <_utee_panic>
/home/jeferson/optee/optee_os-rpi4/lib/libutils/isoc/stack_check.c:26 (discriminator 1)
     584:	17fffffe 	b	57c <__stack_chk_fail+0x24>

0000000000000588 <__vsnprintf>:
__vsnprintf():
/home/jeferson/optee/optee_os-rpi4/lib/libutils/ext/snprintk.c:138
     588:	a9b97bfd 	stp	x29, x30, [sp, #-112]!
     58c:	900000c5 	adrp	x5, 18000 <_DYNAMIC>
     590:	910003fd 	mov	x29, sp
     594:	f94098a5 	ldr	x5, [x5, #304]
     598:	a90153f3 	stp	x19, x20, [sp, #16]
     59c:	aa0103f4 	mov	x20, x1
     5a0:	a9025bf5 	stp	x21, x22, [sp, #32]
     5a4:	aa0003f3 	mov	x19, x0
/home/jeferson/optee/optee_os-rpi4/lib/libutils/ext/snprintk.c:142
     5a8:	8b140016 	add	x22, x0, x20
/home/jeferson/optee/optee_os-rpi4/lib/libutils/ext/snprintk.c:138
     5ac:	f9001bf7 	str	x23, [sp, #48]
     5b0:	aa0303e1 	mov	x1, x3
     5b4:	aa0203f5 	mov	x21, x2
     5b8:	12001c97 	and	w23, w4, #0xff
     5bc:	f94000a0 	ldr	x0, [x5]
     5c0:	f90037e0 	str	x0, [sp, #104]
     5c4:	d2800000 	mov	x0, #0x0                   	// #0
/home/jeferson/optee/optee_os-rpi4/lib/libutils/ext/snprintk.c:143
     5c8:	910103e5 	add	x5, sp, #0x40
     5cc:	aa0503e0 	mov	x0, x5
     5d0:	d2800402 	mov	x2, #0x20                  	// #32
/home/jeferson/optee/optee_os-rpi4/lib/libutils/ext/snprintk.c:142
     5d4:	f90033f6 	str	x22, [sp, #96]
/home/jeferson/optee/optee_os-rpi4/lib/libutils/ext/snprintk.c:143
     5d8:	97fffe92 	bl	20 <memcpy>
     5dc:	aa0003e3 	mov	x3, x0
     5e0:	2a1703e4 	mov	w4, w23
     5e4:	aa1303e2 	mov	x2, x19
     5e8:	910183e1 	add	x1, sp, #0x60
     5ec:	aa1503e0 	mov	x0, x21
     5f0:	94000061 	bl	774 <kprintf.constprop.0>
/home/jeferson/optee/optee_os-rpi4/lib/libutils/ext/snprintk.c:144
     5f4:	f100027f 	cmp	x19, #0x0
     5f8:	fa401a84 	ccmp	x20, #0x0, #0x4, ne  // ne = any
     5fc:	540000a0 	b.eq	610 <__vsnprintf+0x88>  // b.none
/home/jeferson/optee/optee_os-rpi4/lib/libutils/ext/snprintk.c:146
     600:	93407c01 	sxtw	x1, w0
     604:	eb20c29f 	cmp	x20, w0, sxtw
     608:	54000148 	b.hi	630 <__vsnprintf+0xa8>  // b.pmore
/home/jeferson/optee/optee_os-rpi4/lib/libutils/ext/snprintk.c:147
     60c:	381ff2df 	sturb	wzr, [x22, #-1]
/home/jeferson/optee/optee_os-rpi4/lib/libutils/ext/snprintk.c:152
     610:	900000c5 	adrp	x5, 18000 <_DYNAMIC>
     614:	f94098a5 	ldr	x5, [x5, #304]
     618:	f94037e1 	ldr	x1, [sp, #104]
     61c:	f94000a2 	ldr	x2, [x5]
     620:	eb020021 	subs	x1, x1, x2
     624:	d2800002 	mov	x2, #0x0                   	// #0
     628:	54000080 	b.eq	638 <__vsnprintf+0xb0>  // b.none
     62c:	97ffffcb 	bl	558 <__stack_chk_fail>
/home/jeferson/optee/optee_os-rpi4/lib/libutils/ext/snprintk.c:149
     630:	38216a7f 	strb	wzr, [x19, x1]
/home/jeferson/optee/optee_os-rpi4/lib/libutils/ext/snprintk.c:151
     634:	17fffff7 	b	610 <__vsnprintf+0x88>
/home/jeferson/optee/optee_os-rpi4/lib/libutils/ext/snprintk.c:152
     638:	a94153f3 	ldp	x19, x20, [sp, #16]
     63c:	a9425bf5 	ldp	x21, x22, [sp, #32]
     640:	f9401bf7 	ldr	x23, [sp, #48]
     644:	a8c77bfd 	ldp	x29, x30, [sp], #112
     648:	d65f03c0 	ret

000000000000064c <vsnprintk>:
vsnprintk():
/home/jeferson/optee/optee_os-rpi4/lib/libutils/ext/snprintk.c:130
     64c:	a9bb7bfd 	stp	x29, x30, [sp, #-80]!
/home/jeferson/optee/optee_os-rpi4/lib/libutils/ext/snprintk.c:131
     650:	9100c3e4 	add	x4, sp, #0x30
/home/jeferson/optee/optee_os-rpi4/lib/libutils/ext/snprintk.c:130
     654:	910003fd 	mov	x29, sp
     658:	a90153f3 	stp	x19, x20, [sp, #16]
     65c:	aa0003f3 	mov	x19, x0
     660:	aa0103f4 	mov	x20, x1
/home/jeferson/optee/optee_os-rpi4/lib/libutils/ext/snprintk.c:131
     664:	aa0403e0 	mov	x0, x4
/home/jeferson/optee/optee_os-rpi4/lib/libutils/ext/snprintk.c:130
     668:	aa0303e1 	mov	x1, x3
     66c:	f90013f5 	str	x21, [sp, #32]
     670:	aa0203f5 	mov	x21, x2
/home/jeferson/optee/optee_os-rpi4/lib/libutils/ext/snprintk.c:131
     674:	d2800402 	mov	x2, #0x20                  	// #32
     678:	97fffe6a 	bl	20 <memcpy>
     67c:	aa1503e2 	mov	x2, x21
     680:	aa0003e3 	mov	x3, x0
     684:	aa1403e1 	mov	x1, x20
     688:	aa1303e0 	mov	x0, x19
     68c:	52800024 	mov	w4, #0x1                   	// #1
     690:	97ffffbe 	bl	588 <__vsnprintf>
/home/jeferson/optee/optee_os-rpi4/lib/libutils/ext/snprintk.c:132
     694:	a94153f3 	ldp	x19, x20, [sp, #16]
     698:	f94013f5 	ldr	x21, [sp, #32]
     69c:	a8c57bfd 	ldp	x29, x30, [sp], #80
     6a0:	d65f03c0 	ret

00000000000006a4 <snprintk>:
snprintk():
/home/jeferson/optee/optee_os-rpi4/lib/libutils/ext/snprintk.c:113
     6a4:	a9ad7bfd 	stp	x29, x30, [sp, #-304]!
     6a8:	910003fd 	mov	x29, sp
     6ac:	a90153f3 	stp	x19, x20, [sp, #16]
     6b0:	900000d3 	adrp	x19, 18000 <_DYNAMIC>
     6b4:	aa0003f4 	mov	x20, x0
     6b8:	f9409a60 	ldr	x0, [x19, #304]
     6bc:	a9025bf5 	stp	x21, x22, [sp, #32]
     6c0:	aa0103f5 	mov	x21, x1
     6c4:	3d8023e0 	str	q0, [sp, #128]
     6c8:	aa0203f6 	mov	x22, x2
/home/jeferson/optee/optee_os-rpi4/lib/libutils/ext/snprintk.c:118
     6cc:	d2800402 	mov	x2, #0x20                  	// #32
/home/jeferson/optee/optee_os-rpi4/lib/libutils/ext/snprintk.c:113
     6d0:	3d8027e1 	str	q1, [sp, #144]
     6d4:	3d802be2 	str	q2, [sp, #160]
     6d8:	3d802fe3 	str	q3, [sp, #176]
     6dc:	3d8033e4 	str	q4, [sp, #192]
     6e0:	3d8037e5 	str	q5, [sp, #208]
     6e4:	3d803be6 	str	q6, [sp, #224]
     6e8:	3d803fe7 	str	q7, [sp, #240]
     6ec:	a91093e3 	stp	x3, x4, [sp, #264]
/home/jeferson/optee/optee_os-rpi4/lib/libutils/ext/snprintk.c:118
     6f0:	9100c3e3 	add	x3, sp, #0x30
/home/jeferson/optee/optee_os-rpi4/lib/libutils/ext/snprintk.c:113
     6f4:	a9119be5 	stp	x5, x6, [sp, #280]
     6f8:	f90097e7 	str	x7, [sp, #296]
     6fc:	f9400001 	ldr	x1, [x0]
     700:	f9003fe1 	str	x1, [sp, #120]
     704:	d2800001 	mov	x1, #0x0                   	// #0
/home/jeferson/optee/optee_os-rpi4/lib/libutils/ext/snprintk.c:117
     708:	9104c3e0 	add	x0, sp, #0x130
     70c:	a90583e0 	stp	x0, x0, [sp, #88]
     710:	910403e0 	add	x0, sp, #0x100
/home/jeferson/optee/optee_os-rpi4/lib/libutils/ext/snprintk.c:118
     714:	910163e1 	add	x1, sp, #0x58
/home/jeferson/optee/optee_os-rpi4/lib/libutils/ext/snprintk.c:117
     718:	f90037e0 	str	x0, [sp, #104]
     71c:	128004e0 	mov	w0, #0xffffffd8            	// #-40
     720:	b90073e0 	str	w0, [sp, #112]
     724:	12800fe0 	mov	w0, #0xffffff80            	// #-128
     728:	b90077e0 	str	w0, [sp, #116]
/home/jeferson/optee/optee_os-rpi4/lib/libutils/ext/snprintk.c:118
     72c:	aa0303e0 	mov	x0, x3
     730:	97fffe3c 	bl	20 <memcpy>
     734:	aa0003e3 	mov	x3, x0
     738:	aa1603e2 	mov	x2, x22
     73c:	aa1503e1 	mov	x1, x21
     740:	aa1403e0 	mov	x0, x20
     744:	97ffffc2 	bl	64c <vsnprintk>
/home/jeferson/optee/optee_os-rpi4/lib/libutils/ext/snprintk.c:122
     748:	f9409a73 	ldr	x19, [x19, #304]
     74c:	f9403fe1 	ldr	x1, [sp, #120]
     750:	f9400262 	ldr	x2, [x19]
     754:	eb020021 	subs	x1, x1, x2
     758:	d2800002 	mov	x2, #0x0                   	// #0
     75c:	54000040 	b.eq	764 <snprintk+0xc0>  // b.none
     760:	97ffff7e 	bl	558 <__stack_chk_fail>
     764:	a94153f3 	ldp	x19, x20, [sp, #16]
     768:	a9425bf5 	ldp	x21, x22, [sp, #32]
     76c:	a8d37bfd 	ldp	x29, x30, [sp], #304
     770:	d65f03c0 	ret

0000000000000774 <kprintf.constprop.0>:
kprintf():
/home/jeferson/optee/optee_os-rpi4/lib/libutils/ext/snprintk.c:242
     774:	d103c3ff 	sub	sp, sp, #0xf0
     778:	aa0103e9 	mov	x9, x1
     77c:	a9037bfd 	stp	x29, x30, [sp, #48]
     780:	9100c3fd 	add	x29, sp, #0x30
     784:	a90873fb 	stp	x27, x28, [sp, #128]
     788:	aa0003fc 	mov	x28, x0
     78c:	12001c80 	and	w0, w4, #0xff
     790:	b900abe0 	str	w0, [sp, #168]
     794:	900000c0 	adrp	x0, 18000 <_DYNAMIC>
     798:	a90453f3 	stp	x19, x20, [sp, #64]
     79c:	b9401874 	ldr	w20, [x3, #24]
     7a0:	f9409800 	ldr	x0, [x0, #304]
     7a4:	a9055bf5 	stp	x21, x22, [sp, #80]
     7a8:	aa0203f6 	mov	x22, x2
     7ac:	a90663f7 	stp	x23, x24, [sp, #96]
     7b0:	a9076bf9 	stp	x25, x26, [sp, #112]
     7b4:	f9400001 	ldr	x1, [x0]
     7b8:	f90077e1 	str	x1, [sp, #232]
     7bc:	d2800001 	mov	x1, #0x0                   	// #0
     7c0:	a9406c73 	ldp	x19, x27, [x3]
/home/jeferson/optee/optee_os-rpi4/lib/libutils/ext/snprintk.c:264
     7c4:	b4000489 	cbz	x9, 854 <kprintf.constprop.0+0xe0>
/home/jeferson/optee/optee_os-rpi4/lib/libutils/ext/snprintk.c:265
     7c8:	f9400139 	ldr	x25, [x9]
/home/jeferson/optee/optee_os-rpi4/lib/libutils/ext/snprintk.c:297
     7cc:	d00000b8 	adrp	x24, 16000 <__text_end+0x3660>
/home/jeferson/optee/optee_os-rpi4/lib/libutils/ext/snprintk.c:275
     7d0:	d2800017 	mov	x23, #0x0                   	// #0
/home/jeferson/optee/optee_os-rpi4/lib/libutils/ext/snprintk.c:297
     7d4:	91172300 	add	x0, x24, #0x5c8
/home/jeferson/optee/optee_os-rpi4/lib/libutils/ext/snprintk.c:273
     7d8:	5280001a 	mov	w26, #0x0                   	// #0
/home/jeferson/optee/optee_os-rpi4/lib/libutils/ext/snprintk.c:297
     7dc:	f9004fe0 	str	x0, [sp, #152]
/home/jeferson/optee/optee_os-rpi4/lib/libutils/ext/snprintk.c:281
     7e0:	39400380 	ldrb	w0, [x28]
     7e4:	7100941f 	cmp	w0, #0x25
     7e8:	7a401804 	ccmp	w0, #0x0, #0x4, ne  // ne = any
     7ec:	54000381 	b.ne	85c <kprintf.constprop.0+0xe8>  // b.any
/home/jeferson/optee/optee_os-rpi4/lib/libutils/ext/snprintk.c:285
     7f0:	340051a0 	cbz	w0, 1224 <kprintf.constprop.0+0xab0>
/home/jeferson/optee/optee_os-rpi4/lib/libutils/ext/snprintk.c:293
     7f4:	12800005 	mov	w5, #0xffffffff            	// #-1
/home/jeferson/optee/optee_os-rpi4/lib/libutils/ext/snprintk.c:297
     7f8:	d00000a2 	adrp	x2, 16000 <__text_end+0x3660>
/home/jeferson/optee/optee_os-rpi4/lib/libutils/ext/snprintk.c:288
     7fc:	9100079c 	add	x28, x28, #0x1
     800:	2a1403e4 	mov	w4, w20
     804:	aa1303e3 	mov	x3, x19
/home/jeferson/optee/optee_os-rpi4/lib/libutils/ext/snprintk.c:297
     808:	91179042 	add	x2, x2, #0x5e4
/home/jeferson/optee/optee_os-rpi4/lib/libutils/ext/snprintk.c:330
     80c:	2a0503e7 	mov	w7, w5
/home/jeferson/optee/optee_os-rpi4/lib/libutils/ext/snprintk.c:294
     810:	52800001 	mov	w1, #0x0                   	// #0
/home/jeferson/optee/optee_os-rpi4/lib/libutils/ext/snprintk.c:292
     814:	5280000b 	mov	w11, #0x0                   	// #0
/home/jeferson/optee/optee_os-rpi4/lib/libutils/ext/snprintk.c:290
     818:	52800015 	mov	w21, #0x0                   	// #0
/home/jeferson/optee/optee_os-rpi4/lib/libutils/ext/snprintk.c:305
     81c:	5280040d 	mov	w13, #0x20                  	// #32
/home/jeferson/optee/optee_os-rpi4/lib/libutils/ext/snprintk.c:296
     820:	38401798 	ldrb	w24, [x28], #1
/home/jeferson/optee/optee_os-rpi4/lib/libutils/ext/snprintk.c:297
     824:	7100e71f 	cmp	w24, #0x39
     828:	5400036c 	b.gt	894 <kprintf.constprop.0+0x120>
     82c:	71007f1f 	cmp	w24, #0x1f
     830:	54004f8d 	b.le	1220 <kprintf.constprop.0+0xaac>
     834:	51008300 	sub	w0, w24, #0x20
     838:	7100641f 	cmp	w0, #0x19
     83c:	54000328 	b.hi	8a0 <kprintf.constprop.0+0x12c>  // b.pmore
     840:	f9404fe6 	ldr	x6, [sp, #152]
     844:	386048c0 	ldrb	w0, [x6, w0, uxtw]
     848:	10000066 	adr	x6, 854 <kprintf.constprop.0+0xe0>
     84c:	8b2088c0 	add	x0, x6, w0, sxtb #2
     850:	d61f0000 	br	x0
/home/jeferson/optee/optee_os-rpi4/lib/libutils/ext/snprintk.c:267
     854:	d2800019 	mov	x25, #0x0                   	// #0
     858:	17ffffdd 	b	7cc <kprintf.constprop.0+0x58>
/home/jeferson/optee/optee_os-rpi4/lib/libutils/ext/snprintk.c:282
     85c:	1100075a 	add	w26, w26, #0x1
/home/jeferson/optee/optee_os-rpi4/lib/libutils/ext/snprintk.c:283
     860:	b40000b6 	cbz	x22, 874 <kprintf.constprop.0+0x100>
     864:	f100013f 	cmp	x9, #0x0
     868:	fa5912c0 	ccmp	x22, x25, #0x0, ne  // ne = any
     86c:	54000042 	b.cs	874 <kprintf.constprop.0+0x100>  // b.hs, b.nlast
     870:	380016c0 	strb	w0, [x22], #1
/home/jeferson/optee/optee_os-rpi4/lib/libutils/ext/snprintk.c:281
     874:	9100079c 	add	x28, x28, #0x1
     878:	17ffffda 	b	7e0 <kprintf.constprop.0+0x6c>
/home/jeferson/optee/optee_os-rpi4/lib/libutils/ext/snprintk.c:297
     87c:	52800561 	mov	w1, #0x2b                  	// #43
     880:	17ffffe8 	b	820 <kprintf.constprop.0+0xac>
     884:	78605840 	ldrh	w0, [x2, w0, uxtw #1]
     888:	10000066 	adr	x6, 894 <kprintf.constprop.0+0x120>
     88c:	8b20a8c0 	add	x0, x6, w0, sxth #2
     890:	d61f0000 	br	x0
     894:	51011300 	sub	w0, w24, #0x44
     898:	7100d81f 	cmp	w0, #0x36
     89c:	54ffff49 	b.ls	884 <kprintf.constprop.0+0x110>  // b.plast
/home/jeferson/optee/optee_os-rpi4/lib/libutils/ext/snprintk.c:554
     8a0:	2a0403f4 	mov	w20, w4
     8a4:	aa0303f3 	mov	x19, x3
/home/jeferson/optee/optee_os-rpi4/lib/libutils/ext/snprintk.c:551
     8a8:	390303f8 	strb	w24, [sp, #192]
/home/jeferson/optee/optee_os-rpi4/lib/libutils/ext/snprintk.c:554
     8ac:	1400005a 	b	a14 <kprintf.constprop.0+0x2a0>
/home/jeferson/optee/optee_os-rpi4/lib/libutils/ext/snprintk.c:305
     8b0:	7100003f 	cmp	w1, #0x0
     8b4:	1a8d1021 	csel	w1, w1, w13, ne  // ne = any
     8b8:	17ffffda 	b	820 <kprintf.constprop.0+0xac>
/home/jeferson/optee/optee_os-rpi4/lib/libutils/ext/snprintk.c:308
     8bc:	320002b5 	orr	w21, w21, #0x1
/home/jeferson/optee/optee_os-rpi4/lib/libutils/ext/snprintk.c:309
     8c0:	17ffffd8 	b	820 <kprintf.constprop.0+0xac>
/home/jeferson/optee/optee_os-rpi4/lib/libutils/ext/snprintk.c:317
     8c4:	37f80124 	tbnz	w4, #31, 8e8 <kprintf.constprop.0+0x174>
     8c8:	91002c66 	add	x6, x3, #0xb
     8cc:	aa0303e0 	mov	x0, x3
     8d0:	927df0c3 	and	x3, x6, #0xfffffffffffffff8
     8d4:	b940000b 	ldr	w11, [x0]
     8d8:	36fffa4b 	tbz	w11, #31, 820 <kprintf.constprop.0+0xac>
/home/jeferson/optee/optee_os-rpi4/lib/libutils/ext/snprintk.c:319
     8dc:	4b0b03eb 	neg	w11, w11
/home/jeferson/optee/optee_os-rpi4/lib/libutils/ext/snprintk.c:322
     8e0:	321e02b5 	orr	w21, w21, #0x4
/home/jeferson/optee/optee_os-rpi4/lib/libutils/ext/snprintk.c:323
     8e4:	17ffffcf 	b	820 <kprintf.constprop.0+0xac>
/home/jeferson/optee/optee_os-rpi4/lib/libutils/ext/snprintk.c:317
     8e8:	11002086 	add	w6, w4, #0x8
     8ec:	710000df 	cmp	w6, #0x0
     8f0:	540000cd 	b.le	908 <kprintf.constprop.0+0x194>
     8f4:	91002c68 	add	x8, x3, #0xb
     8f8:	aa0303e0 	mov	x0, x3
     8fc:	2a0603e4 	mov	w4, w6
     900:	927df103 	and	x3, x8, #0xfffffffffffffff8
     904:	17fffff4 	b	8d4 <kprintf.constprop.0+0x160>
     908:	8b24c360 	add	x0, x27, w4, sxtw
     90c:	2a0603e4 	mov	w4, w6
     910:	17fffff1 	b	8d4 <kprintf.constprop.0+0x160>
/home/jeferson/optee/optee_os-rpi4/lib/libutils/ext/snprintk.c:328
     914:	38401798 	ldrb	w24, [x28], #1
     918:	7100ab1f 	cmp	w24, #0x2a
     91c:	54000361 	b.ne	988 <kprintf.constprop.0+0x214>  // b.any
/home/jeferson/optee/optee_os-rpi4/lib/libutils/ext/snprintk.c:329
     920:	37f80144 	tbnz	w4, #31, 948 <kprintf.constprop.0+0x1d4>
     924:	91002c60 	add	x0, x3, #0xb
     928:	2a0403e6 	mov	w6, w4
     92c:	927df000 	and	x0, x0, #0xfffffffffffffff8
/home/jeferson/optee/optee_os-rpi4/lib/libutils/ext/snprintk.c:330
     930:	b9400065 	ldr	w5, [x3]
/home/jeferson/optee/optee_os-rpi4/lib/libutils/ext/snprintk.c:331
     934:	2a0603e4 	mov	w4, w6
     938:	aa0003e3 	mov	x3, x0
/home/jeferson/optee/optee_os-rpi4/lib/libutils/ext/snprintk.c:330
     93c:	710000bf 	cmp	w5, #0x0
     940:	1a87a0a5 	csel	w5, w5, w7, ge  // ge = tcont
/home/jeferson/optee/optee_os-rpi4/lib/libutils/ext/snprintk.c:331
     944:	17ffffb7 	b	820 <kprintf.constprop.0+0xac>
/home/jeferson/optee/optee_os-rpi4/lib/libutils/ext/snprintk.c:329
     948:	11002086 	add	w6, w4, #0x8
     94c:	710000df 	cmp	w6, #0x0
     950:	5400008d 	b.le	960 <kprintf.constprop.0+0x1ec>
     954:	91002c60 	add	x0, x3, #0xb
     958:	927df000 	and	x0, x0, #0xfffffffffffffff8
     95c:	17fffff5 	b	930 <kprintf.constprop.0+0x1bc>
     960:	aa0303e0 	mov	x0, x3
     964:	8b24c363 	add	x3, x27, w4, sxtw
     968:	17fffff2 	b	930 <kprintf.constprop.0+0x1bc>
/home/jeferson/optee/optee_os-rpi4/lib/libutils/ext/snprintk.c:335
     96c:	52800146 	mov	w6, #0xa                   	// #10
/home/jeferson/optee/optee_os-rpi4/lib/libutils/ext/snprintk.c:336
     970:	38401798 	ldrb	w24, [x28], #1
/home/jeferson/optee/optee_os-rpi4/lib/libutils/ext/snprintk.c:335
     974:	1b0600a5 	madd	w5, w5, w6, w0
/home/jeferson/optee/optee_os-rpi4/lib/libutils/ext/snprintk.c:334
     978:	5100c300 	sub	w0, w24, #0x30
     97c:	7100241f 	cmp	w0, #0x9
     980:	54ffff69 	b.ls	96c <kprintf.constprop.0+0x1f8>  // b.plast
     984:	17ffffa8 	b	824 <kprintf.constprop.0+0xb0>
/home/jeferson/optee/optee_os-rpi4/lib/libutils/ext/snprintk.c:333
     988:	52800005 	mov	w5, #0x0                   	// #0
     98c:	17fffffb 	b	978 <kprintf.constprop.0+0x204>
/home/jeferson/optee/optee_os-rpi4/lib/libutils/ext/snprintk.c:346
     990:	321602b5 	orr	w21, w21, #0x400
/home/jeferson/optee/optee_os-rpi4/lib/libutils/ext/snprintk.c:347
     994:	17ffffa3 	b	820 <kprintf.constprop.0+0xac>
/home/jeferson/optee/optee_os-rpi4/lib/libutils/ext/snprintk.c:297
     998:	5280000b 	mov	w11, #0x0                   	// #0
/home/jeferson/optee/optee_os-rpi4/lib/libutils/ext/snprintk.c:352
     99c:	5100c308 	sub	w8, w24, #0x30
     9a0:	52800140 	mov	w0, #0xa                   	// #10
/home/jeferson/optee/optee_os-rpi4/lib/libutils/ext/snprintk.c:353
     9a4:	38401798 	ldrb	w24, [x28], #1
/home/jeferson/optee/optee_os-rpi4/lib/libutils/ext/snprintk.c:352
     9a8:	1b00216b 	madd	w11, w11, w0, w8
/home/jeferson/optee/optee_os-rpi4/lib/libutils/ext/snprintk.c:354
     9ac:	5100c300 	sub	w0, w24, #0x30
     9b0:	7100241f 	cmp	w0, #0x9
     9b4:	54ffff49 	b.ls	99c <kprintf.constprop.0+0x228>  // b.plast
     9b8:	17ffff9b 	b	824 <kprintf.constprop.0+0xb0>
/home/jeferson/optee/optee_os-rpi4/lib/libutils/ext/snprintk.c:358
     9bc:	321a02b5 	orr	w21, w21, #0x40
/home/jeferson/optee/optee_os-rpi4/lib/libutils/ext/snprintk.c:359
     9c0:	17ffff98 	b	820 <kprintf.constprop.0+0xac>
/home/jeferson/optee/optee_os-rpi4/lib/libutils/ext/snprintk.c:361
     9c4:	321902b5 	orr	w21, w21, #0x80
/home/jeferson/optee/optee_os-rpi4/lib/libutils/ext/snprintk.c:362
     9c8:	17ffff96 	b	820 <kprintf.constprop.0+0xac>
/home/jeferson/optee/optee_os-rpi4/lib/libutils/ext/snprintk.c:364
     9cc:	39400380 	ldrb	w0, [x28]
     9d0:	7101b01f 	cmp	w0, #0x6c
     9d4:	54000081 	b.ne	9e4 <kprintf.constprop.0+0x270>  // b.any
/home/jeferson/optee/optee_os-rpi4/lib/libutils/ext/snprintk.c:328
     9d8:	9100079c 	add	x28, x28, #0x1
/home/jeferson/optee/optee_os-rpi4/lib/libutils/ext/snprintk.c:372
     9dc:	321b02b5 	orr	w21, w21, #0x20
/home/jeferson/optee/optee_os-rpi4/lib/libutils/ext/snprintk.c:373
     9e0:	17ffff90 	b	820 <kprintf.constprop.0+0xac>
/home/jeferson/optee/optee_os-rpi4/lib/libutils/ext/snprintk.c:368
     9e4:	321c02b5 	orr	w21, w21, #0x10
     9e8:	17ffff8e 	b	820 <kprintf.constprop.0+0xac>
/home/jeferson/optee/optee_os-rpi4/lib/libutils/ext/snprintk.c:375
     9ec:	321802b5 	orr	w21, w21, #0x100
/home/jeferson/optee/optee_os-rpi4/lib/libutils/ext/snprintk.c:376
     9f0:	17ffff8c 	b	820 <kprintf.constprop.0+0xac>
/home/jeferson/optee/optee_os-rpi4/lib/libutils/ext/snprintk.c:378
     9f4:	321702b5 	orr	w21, w21, #0x200
/home/jeferson/optee/optee_os-rpi4/lib/libutils/ext/snprintk.c:379
     9f8:	17ffff8a 	b	820 <kprintf.constprop.0+0xac>
/home/jeferson/optee/optee_os-rpi4/lib/libutils/ext/snprintk.c:381
     9fc:	37f80164 	tbnz	w4, #31, a28 <kprintf.constprop.0+0x2b4>
     a00:	91002c73 	add	x19, x3, #0xb
     a04:	2a0403f4 	mov	w20, w4
     a08:	927df273 	and	x19, x19, #0xfffffffffffffff8
     a0c:	b9400060 	ldr	w0, [x3]
     a10:	390303e0 	strb	w0, [sp, #192]
/home/jeferson/optee/optee_os-rpi4/lib/libutils/ext/snprintk.c:550
     a14:	910303ed 	add	x13, sp, #0xc0
/home/jeferson/optee/optee_os-rpi4/lib/libutils/ext/snprintk.c:552
     a18:	52800025 	mov	w5, #0x1                   	// #1
/home/jeferson/optee/optee_os-rpi4/lib/libutils/ext/snprintk.c:291
     a1c:	52800002 	mov	w2, #0x0                   	// #0
/home/jeferson/optee/optee_os-rpi4/lib/libutils/ext/snprintk.c:553
     a20:	52800001 	mov	w1, #0x0                   	// #0
/home/jeferson/optee/optee_os-rpi4/lib/libutils/ext/snprintk.c:554
     a24:	140000fa 	b	e0c <kprintf.constprop.0+0x698>
/home/jeferson/optee/optee_os-rpi4/lib/libutils/ext/snprintk.c:381
     a28:	11002094 	add	w20, w4, #0x8
     a2c:	7100029f 	cmp	w20, #0x0
     a30:	5400008d 	b.le	a40 <kprintf.constprop.0+0x2cc>
     a34:	91002c73 	add	x19, x3, #0xb
     a38:	927df273 	and	x19, x19, #0xfffffffffffffff8
     a3c:	17fffff4 	b	a0c <kprintf.constprop.0+0x298>
     a40:	aa0303f3 	mov	x19, x3
     a44:	8b24c363 	add	x3, x27, w4, sxtw
     a48:	17fffff1 	b	a0c <kprintf.constprop.0+0x298>
/home/jeferson/optee/optee_os-rpi4/lib/libutils/ext/snprintk.c:386
     a4c:	321c02b5 	orr	w21, w21, #0x10
/home/jeferson/optee/optee_os-rpi4/lib/libutils/ext/snprintk.c:390
     a50:	363802f5 	tbz	w21, #7, aac <kprintf.constprop.0+0x338>
     a54:	37f80424 	tbnz	w4, #31, ad8 <kprintf.constprop.0+0x364>
     a58:	91003c73 	add	x19, x3, #0xf
     a5c:	2a0403f4 	mov	w20, w4
     a60:	927df273 	and	x19, x19, #0xfffffffffffffff8
     a64:	f9400062 	ldr	x2, [x3]
/home/jeferson/optee/optee_os-rpi4/lib/libutils/ext/snprintk.c:391
     a68:	b6f82d22 	tbz	x2, #63, 100c <kprintf.constprop.0+0x898>
/home/jeferson/optee/optee_os-rpi4/lib/libutils/ext/snprintk.c:392
     a6c:	cb0203e2 	neg	x2, x2
/home/jeferson/optee/optee_os-rpi4/lib/libutils/ext/snprintk.c:395
     a70:	52800020 	mov	w0, #0x1                   	// #1
/home/jeferson/optee/optee_os-rpi4/lib/libutils/ext/snprintk.c:393
     a74:	528005a1 	mov	w1, #0x2d                  	// #45
/home/jeferson/optee/optee_os-rpi4/lib/libutils/ext/snprintk.c:494
     a78:	310004bf 	cmn	w5, #0x1
     a7c:	54003b21 	b.ne	11e0 <kprintf.constprop.0+0xa6c>  // b.any
/home/jeferson/optee/optee_os-rpi4/lib/libutils/ext/snprintk.c:509
     a80:	7100041f 	cmp	w0, #0x1
     a84:	54002c80 	b.eq	1014 <kprintf.constprop.0+0x8a0>  // b.none
     a88:	7100081f 	cmp	w0, #0x2
     a8c:	54000ea1 	b.ne	c60 <kprintf.constprop.0+0x4ec>  // b.any
/home/jeferson/optee/optee_os-rpi4/lib/libutils/ext/snprintk.c:502
     a90:	910397ed 	add	x13, sp, #0xe5
/home/jeferson/optee/optee_os-rpi4/lib/libutils/ext/snprintk.c:531
     a94:	92400c40 	and	x0, x2, #0xf
/home/jeferson/optee/optee_os-rpi4/lib/libutils/ext/snprintk.c:532
     a98:	d344fc42 	lsr	x2, x2, #4
/home/jeferson/optee/optee_os-rpi4/lib/libutils/ext/snprintk.c:531
     a9c:	38606ae0 	ldrb	w0, [x23, x0]
     aa0:	381ffda0 	strb	w0, [x13, #-1]!
/home/jeferson/optee/optee_os-rpi4/lib/libutils/ext/snprintk.c:533
     aa4:	b5ffff82 	cbnz	x2, a94 <kprintf.constprop.0+0x320>
     aa8:	1400007b 	b	c94 <kprintf.constprop.0+0x520>
/home/jeferson/optee/optee_os-rpi4/lib/libutils/ext/snprintk.c:390
     aac:	3747fd55 	tbnz	w21, #8, a54 <kprintf.constprop.0+0x2e0>
     ab0:	374ffd35 	tbnz	w21, #9, a54 <kprintf.constprop.0+0x2e0>
     ab4:	372ffd15 	tbnz	w21, #5, a54 <kprintf.constprop.0+0x2e0>
     ab8:	3727fcf5 	tbnz	w21, #4, a54 <kprintf.constprop.0+0x2e0>
     abc:	36300335 	tbz	w21, #6, b20 <kprintf.constprop.0+0x3ac>
     ac0:	37f801e4 	tbnz	w4, #31, afc <kprintf.constprop.0+0x388>
     ac4:	91002c73 	add	x19, x3, #0xb
     ac8:	2a0403f4 	mov	w20, w4
     acc:	927df273 	and	x19, x19, #0xfffffffffffffff8
     ad0:	79800062 	ldrsh	x2, [x3]
     ad4:	17ffffe5 	b	a68 <kprintf.constprop.0+0x2f4>
     ad8:	11002094 	add	w20, w4, #0x8
     adc:	7100029f 	cmp	w20, #0x0
     ae0:	5400008d 	b.le	af0 <kprintf.constprop.0+0x37c>
     ae4:	91003c73 	add	x19, x3, #0xf
     ae8:	927df273 	and	x19, x19, #0xfffffffffffffff8
     aec:	17ffffde 	b	a64 <kprintf.constprop.0+0x2f0>
     af0:	aa0303f3 	mov	x19, x3
     af4:	8b24c363 	add	x3, x27, w4, sxtw
     af8:	17ffffdb 	b	a64 <kprintf.constprop.0+0x2f0>
     afc:	11002094 	add	w20, w4, #0x8
     b00:	7100029f 	cmp	w20, #0x0
     b04:	5400008d 	b.le	b14 <kprintf.constprop.0+0x3a0>
     b08:	91002c73 	add	x19, x3, #0xb
     b0c:	927df273 	and	x19, x19, #0xfffffffffffffff8
     b10:	17fffff0 	b	ad0 <kprintf.constprop.0+0x35c>
     b14:	aa0303f3 	mov	x19, x3
     b18:	8b24c363 	add	x3, x27, w4, sxtw
     b1c:	17ffffed 	b	ad0 <kprintf.constprop.0+0x35c>
     b20:	37f800c4 	tbnz	w4, #31, b38 <kprintf.constprop.0+0x3c4>
     b24:	91002c73 	add	x19, x3, #0xb
     b28:	2a0403f4 	mov	w20, w4
     b2c:	927df273 	and	x19, x19, #0xfffffffffffffff8
     b30:	b9800062 	ldrsw	x2, [x3]
     b34:	17ffffcd 	b	a68 <kprintf.constprop.0+0x2f4>
     b38:	11002094 	add	w20, w4, #0x8
     b3c:	7100029f 	cmp	w20, #0x0
     b40:	5400008d 	b.le	b50 <kprintf.constprop.0+0x3dc>
     b44:	91002c73 	add	x19, x3, #0xb
     b48:	927df273 	and	x19, x19, #0xfffffffffffffff8
     b4c:	17fffff9 	b	b30 <kprintf.constprop.0+0x3bc>
     b50:	aa0303f3 	mov	x19, x3
     b54:	8b24c363 	add	x3, x27, w4, sxtw
     b58:	17fffff6 	b	b30 <kprintf.constprop.0+0x3bc>
/home/jeferson/optee/optee_os-rpi4/lib/libutils/ext/snprintk.c:398
     b5c:	36380135 	tbz	w21, #7, b80 <kprintf.constprop.0+0x40c>
/home/jeferson/optee/optee_os-rpi4/lib/libutils/ext/snprintk.c:407
     b60:	37f80284 	tbnz	w4, #31, bb0 <kprintf.constprop.0+0x43c>
     b64:	91003c73 	add	x19, x3, #0xf
     b68:	2a0403f4 	mov	w20, w4
     b6c:	927df273 	and	x19, x19, #0xfffffffffffffff8
     b70:	f9400060 	ldr	x0, [x3]
     b74:	93407f41 	sxtw	x1, w26
     b78:	f9000001 	str	x1, [x0]
     b7c:	17ffff19 	b	7e0 <kprintf.constprop.0+0x6c>
/home/jeferson/optee/optee_os-rpi4/lib/libutils/ext/snprintk.c:400
     b80:	3747ff15 	tbnz	w21, #8, b60 <kprintf.constprop.0+0x3ec>
/home/jeferson/optee/optee_os-rpi4/lib/libutils/ext/snprintk.c:402
     b84:	374ffef5 	tbnz	w21, #9, b60 <kprintf.constprop.0+0x3ec>
/home/jeferson/optee/optee_os-rpi4/lib/libutils/ext/snprintk.c:404
     b88:	372ffed5 	tbnz	w21, #5, b60 <kprintf.constprop.0+0x3ec>
/home/jeferson/optee/optee_os-rpi4/lib/libutils/ext/snprintk.c:406
     b8c:	3727feb5 	tbnz	w21, #4, b60 <kprintf.constprop.0+0x3ec>
/home/jeferson/optee/optee_os-rpi4/lib/libutils/ext/snprintk.c:408
     b90:	36300355 	tbz	w21, #6, bf8 <kprintf.constprop.0+0x484>
/home/jeferson/optee/optee_os-rpi4/lib/libutils/ext/snprintk.c:409
     b94:	37f80204 	tbnz	w4, #31, bd4 <kprintf.constprop.0+0x460>
     b98:	91003c73 	add	x19, x3, #0xf
     b9c:	2a0403f4 	mov	w20, w4
     ba0:	927df273 	and	x19, x19, #0xfffffffffffffff8
     ba4:	f9400060 	ldr	x0, [x3]
     ba8:	7900001a 	strh	w26, [x0]
     bac:	17ffff0d 	b	7e0 <kprintf.constprop.0+0x6c>
/home/jeferson/optee/optee_os-rpi4/lib/libutils/ext/snprintk.c:407
     bb0:	11002094 	add	w20, w4, #0x8
     bb4:	7100029f 	cmp	w20, #0x0
     bb8:	5400008d 	b.le	bc8 <kprintf.constprop.0+0x454>
     bbc:	91003c73 	add	x19, x3, #0xf
     bc0:	927df273 	and	x19, x19, #0xfffffffffffffff8
     bc4:	17ffffeb 	b	b70 <kprintf.constprop.0+0x3fc>
     bc8:	aa0303f3 	mov	x19, x3
     bcc:	8b24c363 	add	x3, x27, w4, sxtw
     bd0:	17ffffe8 	b	b70 <kprintf.constprop.0+0x3fc>
/home/jeferson/optee/optee_os-rpi4/lib/libutils/ext/snprintk.c:409
     bd4:	11002094 	add	w20, w4, #0x8
     bd8:	7100029f 	cmp	w20, #0x0
     bdc:	5400008d 	b.le	bec <kprintf.constprop.0+0x478>
     be0:	91003c73 	add	x19, x3, #0xf
     be4:	927df273 	and	x19, x19, #0xfffffffffffffff8
     be8:	17ffffef 	b	ba4 <kprintf.constprop.0+0x430>
     bec:	aa0303f3 	mov	x19, x3
     bf0:	8b24c363 	add	x3, x27, w4, sxtw
     bf4:	17ffffec 	b	ba4 <kprintf.constprop.0+0x430>
/home/jeferson/optee/optee_os-rpi4/lib/libutils/ext/snprintk.c:411
     bf8:	37f800e4 	tbnz	w4, #31, c14 <kprintf.constprop.0+0x4a0>
     bfc:	91003c73 	add	x19, x3, #0xf
     c00:	2a0403f4 	mov	w20, w4
     c04:	927df273 	and	x19, x19, #0xfffffffffffffff8
     c08:	f9400060 	ldr	x0, [x3]
     c0c:	b900001a 	str	w26, [x0]
     c10:	17fffef4 	b	7e0 <kprintf.constprop.0+0x6c>
     c14:	11002094 	add	w20, w4, #0x8
     c18:	7100029f 	cmp	w20, #0x0
     c1c:	5400008d 	b.le	c2c <kprintf.constprop.0+0x4b8>
     c20:	91003c73 	add	x19, x3, #0xf
     c24:	927df273 	and	x19, x19, #0xfffffffffffffff8
     c28:	17fffff8 	b	c08 <kprintf.constprop.0+0x494>
     c2c:	aa0303f3 	mov	x19, x3
     c30:	8b24c363 	add	x3, x27, w4, sxtw
     c34:	17fffff5 	b	c08 <kprintf.constprop.0+0x494>
/home/jeferson/optee/optee_os-rpi4/lib/libutils/ext/snprintk.c:414
     c38:	321c02b5 	orr	w21, w21, #0x10
/home/jeferson/optee/optee_os-rpi4/lib/libutils/ext/snprintk.c:417
     c3c:	36380355 	tbz	w21, #7, ca4 <kprintf.constprop.0+0x530>
     c40:	37f80484 	tbnz	w4, #31, cd0 <kprintf.constprop.0+0x55c>
     c44:	91003c73 	add	x19, x3, #0xf
     c48:	2a0403f4 	mov	w20, w4
     c4c:	927df273 	and	x19, x19, #0xfffffffffffffff8
     c50:	f9400062 	ldr	x2, [x3]
/home/jeferson/optee/optee_os-rpi4/lib/libutils/ext/snprintk.c:494
     c54:	52800001 	mov	w1, #0x0                   	// #0
     c58:	310004bf 	cmn	w5, #0x1
     c5c:	54002c01 	b.ne	11dc <kprintf.constprop.0+0xa68>  // b.any
/home/jeferson/optee/optee_os-rpi4/lib/libutils/ext/snprintk.c:502
     c60:	910397ed 	add	x13, sp, #0xe5
/home/jeferson/optee/optee_os-rpi4/lib/libutils/ext/snprintk.c:512
     c64:	12000840 	and	w0, w2, #0x7
     c68:	aa0d03e4 	mov	x4, x13
     c6c:	1100c000 	add	w0, w0, #0x30
     c70:	381ffda0 	strb	w0, [x13, #-1]!
/home/jeferson/optee/optee_os-rpi4/lib/libutils/ext/snprintk.c:513
     c74:	d343fc42 	lsr	x2, x2, #3
/home/jeferson/optee/optee_os-rpi4/lib/libutils/ext/snprintk.c:514
     c78:	b5ffff62 	cbnz	x2, c64 <kprintf.constprop.0+0x4f0>
/home/jeferson/optee/optee_os-rpi4/lib/libutils/ext/snprintk.c:516
     c7c:	360000d5 	tbz	w21, #0, c94 <kprintf.constprop.0+0x520>
     c80:	7100c01f 	cmp	w0, #0x30
     c84:	54000080 	b.eq	c94 <kprintf.constprop.0+0x520>  // b.none
/home/jeferson/optee/optee_os-rpi4/lib/libutils/ext/snprintk.c:517
     c88:	52800600 	mov	w0, #0x30                  	// #48
     c8c:	381ff1a0 	sturb	w0, [x13, #-1]
     c90:	d100088d 	sub	x13, x4, #0x2
/home/jeferson/optee/optee_os-rpi4/lib/libutils/ext/snprintk.c:543
     c94:	2a0503e2 	mov	w2, w5
     c98:	910397e5 	add	x5, sp, #0xe5
     c9c:	4b0d00a5 	sub	w5, w5, w13
     ca0:	1400005b 	b	e0c <kprintf.constprop.0+0x698>
/home/jeferson/optee/optee_os-rpi4/lib/libutils/ext/snprintk.c:417
     ca4:	3747fcf5 	tbnz	w21, #8, c40 <kprintf.constprop.0+0x4cc>
     ca8:	374ffcd5 	tbnz	w21, #9, c40 <kprintf.constprop.0+0x4cc>
     cac:	372ffcb5 	tbnz	w21, #5, c40 <kprintf.constprop.0+0x4cc>
     cb0:	3727fc95 	tbnz	w21, #4, c40 <kprintf.constprop.0+0x4cc>
     cb4:	36300335 	tbz	w21, #6, d18 <kprintf.constprop.0+0x5a4>
     cb8:	37f801e4 	tbnz	w4, #31, cf4 <kprintf.constprop.0+0x580>
     cbc:	91002c73 	add	x19, x3, #0xb
     cc0:	2a0403f4 	mov	w20, w4
     cc4:	927df273 	and	x19, x19, #0xfffffffffffffff8
     cc8:	79400062 	ldrh	w2, [x3]
     ccc:	17ffffe2 	b	c54 <kprintf.constprop.0+0x4e0>
     cd0:	11002094 	add	w20, w4, #0x8
     cd4:	7100029f 	cmp	w20, #0x0
     cd8:	5400008d 	b.le	ce8 <kprintf.constprop.0+0x574>
     cdc:	91003c73 	add	x19, x3, #0xf
     ce0:	927df273 	and	x19, x19, #0xfffffffffffffff8
     ce4:	17ffffdb 	b	c50 <kprintf.constprop.0+0x4dc>
     ce8:	aa0303f3 	mov	x19, x3
     cec:	8b24c363 	add	x3, x27, w4, sxtw
     cf0:	17ffffd8 	b	c50 <kprintf.constprop.0+0x4dc>
     cf4:	11002094 	add	w20, w4, #0x8
     cf8:	7100029f 	cmp	w20, #0x0
     cfc:	5400008d 	b.le	d0c <kprintf.constprop.0+0x598>
     d00:	91002c73 	add	x19, x3, #0xb
     d04:	927df273 	and	x19, x19, #0xfffffffffffffff8
     d08:	17fffff0 	b	cc8 <kprintf.constprop.0+0x554>
     d0c:	aa0303f3 	mov	x19, x3
     d10:	8b24c363 	add	x3, x27, w4, sxtw
     d14:	17ffffed 	b	cc8 <kprintf.constprop.0+0x554>
     d18:	37f800c4 	tbnz	w4, #31, d30 <kprintf.constprop.0+0x5bc>
     d1c:	91002c73 	add	x19, x3, #0xb
     d20:	2a0403f4 	mov	w20, w4
     d24:	927df273 	and	x19, x19, #0xfffffffffffffff8
     d28:	b9400062 	ldr	w2, [x3]
     d2c:	17ffffca 	b	c54 <kprintf.constprop.0+0x4e0>
     d30:	11002094 	add	w20, w4, #0x8
     d34:	7100029f 	cmp	w20, #0x0
     d38:	5400008d 	b.le	d48 <kprintf.constprop.0+0x5d4>
     d3c:	91002c73 	add	x19, x3, #0xb
     d40:	927df273 	and	x19, x19, #0xfffffffffffffff8
     d44:	17fffff9 	b	d28 <kprintf.constprop.0+0x5b4>
     d48:	aa0303f3 	mov	x19, x3
     d4c:	8b24c363 	add	x3, x27, w4, sxtw
     d50:	17fffff6 	b	d28 <kprintf.constprop.0+0x5b4>
/home/jeferson/optee/optee_os-rpi4/lib/libutils/ext/snprintk.c:421
     d54:	b940abe0 	ldr	w0, [sp, #168]
     d58:	34000c80 	cbz	w0, ee8 <kprintf.constprop.0+0x774>
     d5c:	39400380 	ldrb	w0, [x28]
     d60:	7101541f 	cmp	w0, #0x55
     d64:	54000c21 	b.ne	ee8 <kprintf.constprop.0+0x774>  // b.any
     d68:	39400780 	ldrb	w0, [x28, #1]
     d6c:	7101b01f 	cmp	w0, #0x6c
     d70:	54000bc1 	b.ne	ee8 <kprintf.constprop.0+0x774>  // b.any
/home/jeferson/optee/optee_os-rpi4/lib/libutils/ext/snprintk.c:426
     d74:	91000b9c 	add	x28, x28, #0x2
/home/jeferson/optee/optee_os-rpi4/lib/libutils/ext/snprintk.c:427
     d78:	37f80a64 	tbnz	w4, #31, ec4 <kprintf.constprop.0+0x750>
     d7c:	91003c73 	add	x19, x3, #0xf
     d80:	2a0403f4 	mov	w20, w4
     d84:	927df273 	and	x19, x19, #0xfffffffffffffff8
     d88:	f9400061 	ldr	x1, [x3]
uuid2str():
/home/jeferson/optee/optee_os-rpi4/lib/libutils/ext/snprintk.c:229
     d8c:	910303ed 	add	x13, sp, #0xc0
     d90:	d00000a2 	adrp	x2, 16000 <__text_end+0x3660>
     d94:	912d8042 	add	x2, x2, #0xb60
     d98:	f90053ed 	str	x13, [sp, #160]
     d9c:	39403c20 	ldrb	w0, [x1, #15]
     da0:	39402427 	ldrb	w7, [x1, #9]
     da4:	39402026 	ldrb	w6, [x1, #8]
     da8:	79400c25 	ldrh	w5, [x1, #6]
     dac:	79400824 	ldrh	w4, [x1, #4]
     db0:	b9002be0 	str	w0, [sp, #40]
     db4:	b900afeb 	str	w11, [sp, #172]
     db8:	39403820 	ldrb	w0, [x1, #14]
     dbc:	b90023e0 	str	w0, [sp, #32]
     dc0:	f9005be9 	str	x9, [sp, #176]
     dc4:	39403420 	ldrb	w0, [x1, #13]
     dc8:	b9001be0 	str	w0, [sp, #24]
     dcc:	39403020 	ldrb	w0, [x1, #12]
     dd0:	b90013e0 	str	w0, [sp, #16]
     dd4:	39402c20 	ldrb	w0, [x1, #11]
     dd8:	b9000be0 	str	w0, [sp, #8]
     ddc:	39402820 	ldrb	w0, [x1, #10]
     de0:	b90003e0 	str	w0, [sp]
     de4:	aa0d03e0 	mov	x0, x13
     de8:	b9400023 	ldr	w3, [x1]
     dec:	d28004a1 	mov	x1, #0x25                  	// #37
     df0:	97fffe2d 	bl	6a4 <snprintk>
     df4:	b940afeb 	ldr	w11, [sp, #172]
kprintf():
/home/jeferson/optee/optee_os-rpi4/lib/libutils/ext/snprintk.c:466
     df8:	2a0003e5 	mov	w5, w0
     dfc:	f94053ed 	ldr	x13, [sp, #160]
/home/jeferson/optee/optee_os-rpi4/lib/libutils/ext/snprintk.c:291
     e00:	52800002 	mov	w2, #0x0                   	// #0
     e04:	f9405be9 	ldr	x9, [sp, #176]
/home/jeferson/optee/optee_os-rpi4/lib/libutils/ext/snprintk.c:467
     e08:	52800001 	mov	w1, #0x0                   	// #0
/home/jeferson/optee/optee_os-rpi4/lib/libutils/ext/snprintk.c:571
     e0c:	6b05005f 	cmp	w2, w5
     e10:	1a85a040 	csel	w0, w2, w5, ge  // ge = tcont
/home/jeferson/optee/optee_os-rpi4/lib/libutils/ext/snprintk.c:572
     e14:	340021c1 	cbz	w1, 124c <kprintf.constprop.0+0xad8>
/home/jeferson/optee/optee_os-rpi4/lib/libutils/ext/snprintk.c:573
     e18:	11000400 	add	w0, w0, #0x1
/home/jeferson/optee/optee_os-rpi4/lib/libutils/ext/snprintk.c:578
     e1c:	6b0b001f 	cmp	w0, w11
     e20:	1a8ba004 	csel	w4, w0, w11, ge  // ge = tcont
     e24:	0b04035a 	add	w26, w26, w4
/home/jeferson/optee/optee_os-rpi4/lib/libutils/ext/snprintk.c:581
     e28:	52808084 	mov	w4, #0x404                 	// #1028
     e2c:	6a0402a4 	ands	w4, w21, w4
     e30:	540000a1 	b.ne	e44 <kprintf.constprop.0+0x6d0>  // b.any
/home/jeferson/optee/optee_os-rpi4/lib/libutils/ext/snprintk.c:582
     e34:	4b000166 	sub	w6, w11, w0
/home/jeferson/optee/optee_os-rpi4/lib/libutils/ext/snprintk.c:584
     e38:	52800407 	mov	w7, #0x20                  	// #32
/home/jeferson/optee/optee_os-rpi4/lib/libutils/ext/snprintk.c:583
     e3c:	710000df 	cmp	w6, #0x0
     e40:	540020cc 	b.gt	1258 <kprintf.constprop.0+0xae4>
/home/jeferson/optee/optee_os-rpi4/lib/libutils/ext/snprintk.c:588
     e44:	34002181 	cbz	w1, 1274 <kprintf.constprop.0+0xb00>
/home/jeferson/optee/optee_os-rpi4/lib/libutils/ext/snprintk.c:589
     e48:	b40000b6 	cbz	x22, e5c <kprintf.constprop.0+0x6e8>
     e4c:	f100013f 	cmp	x9, #0x0
     e50:	fa561322 	ccmp	x25, x22, #0x2, ne  // ne = any
     e54:	54000049 	b.ls	e5c <kprintf.constprop.0+0x6e8>  // b.plast
     e58:	380016c1 	strb	w1, [x22], #1
/home/jeferson/optee/optee_os-rpi4/lib/libutils/ext/snprintk.c:596
     e5c:	7110009f 	cmp	w4, #0x400
     e60:	540000a1 	b.ne	e74 <kprintf.constprop.0+0x700>  // b.any
/home/jeferson/optee/optee_os-rpi4/lib/libutils/ext/snprintk.c:597
     e64:	4b000161 	sub	w1, w11, w0
/home/jeferson/optee/optee_os-rpi4/lib/libutils/ext/snprintk.c:599
     e68:	52800604 	mov	w4, #0x30                  	// #48
/home/jeferson/optee/optee_os-rpi4/lib/libutils/ext/snprintk.c:598
     e6c:	7100003f 	cmp	w1, #0x0
     e70:	5400226c 	b.gt	12bc <kprintf.constprop.0+0xb48>
/home/jeferson/optee/optee_os-rpi4/lib/libutils/ext/snprintk.c:603
     e74:	4b050042 	sub	w2, w2, w5
/home/jeferson/optee/optee_os-rpi4/lib/libutils/ext/snprintk.c:605
     e78:	52800601 	mov	w1, #0x30                  	// #48
/home/jeferson/optee/optee_os-rpi4/lib/libutils/ext/snprintk.c:604
     e7c:	7100005f 	cmp	w2, #0x0
     e80:	540022cc 	b.gt	12d8 <kprintf.constprop.0+0xb64>
     e84:	2a0503e5 	mov	w5, w5
     e88:	d2800001 	mov	x1, #0x0                   	// #0
/home/jeferson/optee/optee_os-rpi4/lib/libutils/ext/snprintk.c:608
     e8c:	eb05003f 	cmp	x1, x5
     e90:	54002321 	b.ne	12f4 <kprintf.constprop.0+0xb80>  // b.any
/home/jeferson/optee/optee_os-rpi4/lib/libutils/ext/snprintk.c:611
     e94:	3617ca75 	tbz	w21, #2, 7e0 <kprintf.constprop.0+0x6c>
/home/jeferson/optee/optee_os-rpi4/lib/libutils/ext/snprintk.c:612
     e98:	4b000160 	sub	w0, w11, w0
/home/jeferson/optee/optee_os-rpi4/lib/libutils/ext/snprintk.c:614
     e9c:	52800401 	mov	w1, #0x20                  	// #32
/home/jeferson/optee/optee_os-rpi4/lib/libutils/ext/snprintk.c:613
     ea0:	7100001f 	cmp	w0, #0x0
     ea4:	54ffc9ed 	b.le	7e0 <kprintf.constprop.0+0x6c>
/home/jeferson/optee/optee_os-rpi4/lib/libutils/ext/snprintk.c:614
     ea8:	b40000b6 	cbz	x22, ebc <kprintf.constprop.0+0x748>
     eac:	f100013f 	cmp	x9, #0x0
     eb0:	fa561322 	ccmp	x25, x22, #0x2, ne  // ne = any
     eb4:	54000049 	b.ls	ebc <kprintf.constprop.0+0x748>  // b.plast
     eb8:	380016c1 	strb	w1, [x22], #1
     ebc:	51000400 	sub	w0, w0, #0x1
     ec0:	17fffff8 	b	ea0 <kprintf.constprop.0+0x72c>
/home/jeferson/optee/optee_os-rpi4/lib/libutils/ext/snprintk.c:427
     ec4:	11002094 	add	w20, w4, #0x8
     ec8:	7100029f 	cmp	w20, #0x0
     ecc:	5400008d 	b.le	edc <kprintf.constprop.0+0x768>
     ed0:	91003c73 	add	x19, x3, #0xf
     ed4:	927df273 	and	x19, x19, #0xfffffffffffffff8
     ed8:	17ffffac 	b	d88 <kprintf.constprop.0+0x614>
     edc:	aa0303f3 	mov	x19, x3
     ee0:	8b24c363 	add	x3, x27, w4, sxtw
     ee4:	17ffffa9 	b	d88 <kprintf.constprop.0+0x614>
/home/jeferson/optee/optee_os-rpi4/lib/libutils/ext/snprintk.c:441
     ee8:	37f801c4 	tbnz	w4, #31, f20 <kprintf.constprop.0+0x7ac>
     eec:	91003c73 	add	x19, x3, #0xf
     ef0:	2a0403f4 	mov	w20, w4
     ef4:	927df273 	and	x19, x19, #0xfffffffffffffff8
     ef8:	f9400062 	ldr	x2, [x3]
/home/jeferson/optee/optee_os-rpi4/lib/libutils/ext/snprintk.c:443
     efc:	d00000b7 	adrp	x23, 16000 <__text_end+0x3660>
/home/jeferson/optee/optee_os-rpi4/lib/libutils/ext/snprintk.c:444
     f00:	321f02b5 	orr	w21, w21, #0x2
/home/jeferson/optee/optee_os-rpi4/lib/libutils/ext/snprintk.c:443
     f04:	91194af7 	add	x23, x23, #0x652
/home/jeferson/optee/optee_os-rpi4/lib/libutils/ext/snprintk.c:445
     f08:	52800f18 	mov	w24, #0x78                  	// #120
/home/jeferson/optee/optee_os-rpi4/lib/libutils/ext/snprintk.c:494
     f0c:	52800001 	mov	w1, #0x0                   	// #0
     f10:	310004bf 	cmn	w5, #0x1
     f14:	54ffdbe0 	b.eq	a90 <kprintf.constprop.0+0x31c>  // b.none
     f18:	52800040 	mov	w0, #0x2                   	// #2
     f1c:	140000b1 	b	11e0 <kprintf.constprop.0+0xa6c>
/home/jeferson/optee/optee_os-rpi4/lib/libutils/ext/snprintk.c:441
     f20:	11002094 	add	w20, w4, #0x8
     f24:	7100029f 	cmp	w20, #0x0
     f28:	5400008d 	b.le	f38 <kprintf.constprop.0+0x7c4>
     f2c:	91003c73 	add	x19, x3, #0xf
     f30:	927df273 	and	x19, x19, #0xfffffffffffffff8
     f34:	17fffff1 	b	ef8 <kprintf.constprop.0+0x784>
     f38:	aa0303f3 	mov	x19, x3
     f3c:	8b24c363 	add	x3, x27, w4, sxtw
     f40:	17ffffee 	b	ef8 <kprintf.constprop.0+0x784>
/home/jeferson/optee/optee_os-rpi4/lib/libutils/ext/snprintk.c:448
     f44:	37f80364 	tbnz	w4, #31, fb0 <kprintf.constprop.0+0x83c>
     f48:	91003c73 	add	x19, x3, #0xf
     f4c:	2a0403f4 	mov	w20, w4
     f50:	927df273 	and	x19, x19, #0xfffffffffffffff8
     f54:	f940006d 	ldr	x13, [x3]
     f58:	b500006d 	cbnz	x13, f64 <kprintf.constprop.0+0x7f0>
/home/jeferson/optee/optee_os-rpi4/lib/libutils/ext/snprintk.c:450
     f5c:	d00000a3 	adrp	x3, 16000 <__text_end+0x3660>
     f60:	912d646d 	add	x13, x3, #0xb59
/home/jeferson/optee/optee_os-rpi4/lib/libutils/ext/snprintk.c:451
     f64:	310004bf 	cmn	w5, #0x1
     f68:	54000360 	b.eq	fd4 <kprintf.constprop.0+0x860>  // b.none
/home/jeferson/optee/optee_os-rpi4/lib/libutils/ext/snprintk.c:457
     f6c:	93407ca2 	sxtw	x2, w5
     f70:	aa0d03e0 	mov	x0, x13
     f74:	52800001 	mov	w1, #0x0                   	// #0
     f78:	f90053ed 	str	x13, [sp, #160]
     f7c:	2915afe5 	stp	w5, w11, [sp, #172]
     f80:	f9005fe9 	str	x9, [sp, #184]
     f84:	94000100 	bl	1384 <memchr>
/home/jeferson/optee/optee_os-rpi4/lib/libutils/ext/snprintk.c:459
     f88:	2955afe5 	ldp	w5, w11, [sp, #172]
     f8c:	f94053ed 	ldr	x13, [sp, #160]
     f90:	f9405fe9 	ldr	x9, [sp, #184]
     f94:	b4000080 	cbz	x0, fa4 <kprintf.constprop.0+0x830>
/home/jeferson/optee/optee_os-rpi4/lib/libutils/ext/snprintk.c:460
     f98:	cb0d0000 	sub	x0, x0, x13
     f9c:	6b0000bf 	cmp	w5, w0
     fa0:	1a80d0a5 	csel	w5, w5, w0, le
/home/jeferson/optee/optee_os-rpi4/lib/libutils/ext/snprintk.c:291
     fa4:	52800002 	mov	w2, #0x0                   	// #0
/home/jeferson/optee/optee_os-rpi4/lib/libutils/ext/snprintk.c:467
     fa8:	52800001 	mov	w1, #0x0                   	// #0
     fac:	17ffff98 	b	e0c <kprintf.constprop.0+0x698>
/home/jeferson/optee/optee_os-rpi4/lib/libutils/ext/snprintk.c:448
     fb0:	11002094 	add	w20, w4, #0x8
     fb4:	7100029f 	cmp	w20, #0x0
     fb8:	5400008d 	b.le	fc8 <kprintf.constprop.0+0x854>
     fbc:	91003c73 	add	x19, x3, #0xf
     fc0:	927df273 	and	x19, x19, #0xfffffffffffffff8
     fc4:	17ffffe4 	b	f54 <kprintf.constprop.0+0x7e0>
     fc8:	aa0303f3 	mov	x19, x3
     fcc:	8b24c363 	add	x3, x27, w4, sxtw
     fd0:	17ffffe1 	b	f54 <kprintf.constprop.0+0x7e0>
/home/jeferson/optee/optee_os-rpi4/lib/libutils/ext/snprintk.c:466
     fd4:	aa0d03e0 	mov	x0, x13
     fd8:	f90053ed 	str	x13, [sp, #160]
     fdc:	b900afeb 	str	w11, [sp, #172]
     fe0:	f9005be9 	str	x9, [sp, #176]
     fe4:	940000f3 	bl	13b0 <strlen>
     fe8:	17ffff83 	b	df4 <kprintf.constprop.0+0x680>
/home/jeferson/optee/optee_os-rpi4/lib/libutils/ext/snprintk.c:470
     fec:	321c02b5 	orr	w21, w21, #0x10
/home/jeferson/optee/optee_os-rpi4/lib/libutils/ext/snprintk.c:473
     ff0:	36380235 	tbz	w21, #7, 1034 <kprintf.constprop.0+0x8c0>
     ff4:	37f80364 	tbnz	w4, #31, 1060 <kprintf.constprop.0+0x8ec>
     ff8:	91003c73 	add	x19, x3, #0xf
     ffc:	2a0403f4 	mov	w20, w4
    1000:	927df273 	and	x19, x19, #0xfffffffffffffff8
    1004:	f9400062 	ldr	x2, [x3]
/home/jeferson/optee/optee_os-rpi4/lib/libutils/ext/snprintk.c:488
    1008:	52800001 	mov	w1, #0x0                   	// #0
/home/jeferson/optee/optee_os-rpi4/lib/libutils/ext/snprintk.c:494
    100c:	310004bf 	cmn	w5, #0x1
    1010:	54000f61 	b.ne	11fc <kprintf.constprop.0+0xa88>  // b.any
/home/jeferson/optee/optee_os-rpi4/lib/libutils/ext/snprintk.c:502
    1014:	910397e0 	add	x0, sp, #0xe5
/home/jeferson/optee/optee_os-rpi4/lib/libutils/ext/snprintk.c:523
    1018:	d2800144 	mov	x4, #0xa                   	// #10
    101c:	d100040d 	sub	x13, x0, #0x1
/home/jeferson/optee/optee_os-rpi4/lib/libutils/ext/snprintk.c:522
    1020:	f100245f 	cmp	x2, #0x9
    1024:	54000f08 	b.hi	1204 <kprintf.constprop.0+0xa90>  // b.pmore
/home/jeferson/optee/optee_os-rpi4/lib/libutils/ext/snprintk.c:526
    1028:	1100c042 	add	w2, w2, #0x30
    102c:	381ff002 	sturb	w2, [x0, #-1]
/home/jeferson/optee/optee_os-rpi4/lib/libutils/ext/snprintk.c:527
    1030:	17ffff19 	b	c94 <kprintf.constprop.0+0x520>
/home/jeferson/optee/optee_os-rpi4/lib/libutils/ext/snprintk.c:473
    1034:	3747fe15 	tbnz	w21, #8, ff4 <kprintf.constprop.0+0x880>
    1038:	374ffdf5 	tbnz	w21, #9, ff4 <kprintf.constprop.0+0x880>
    103c:	372ffdd5 	tbnz	w21, #5, ff4 <kprintf.constprop.0+0x880>
    1040:	3727fdb5 	tbnz	w21, #4, ff4 <kprintf.constprop.0+0x880>
    1044:	36300335 	tbz	w21, #6, 10a8 <kprintf.constprop.0+0x934>
    1048:	37f801e4 	tbnz	w4, #31, 1084 <kprintf.constprop.0+0x910>
    104c:	91002c73 	add	x19, x3, #0xb
    1050:	2a0403f4 	mov	w20, w4
    1054:	927df273 	and	x19, x19, #0xfffffffffffffff8
    1058:	79400062 	ldrh	w2, [x3]
    105c:	17ffffeb 	b	1008 <kprintf.constprop.0+0x894>
    1060:	11002094 	add	w20, w4, #0x8
    1064:	7100029f 	cmp	w20, #0x0
    1068:	5400008d 	b.le	1078 <kprintf.constprop.0+0x904>
    106c:	91003c73 	add	x19, x3, #0xf
    1070:	927df273 	and	x19, x19, #0xfffffffffffffff8
    1074:	17ffffe4 	b	1004 <kprintf.constprop.0+0x890>
    1078:	aa0303f3 	mov	x19, x3
    107c:	8b24c363 	add	x3, x27, w4, sxtw
    1080:	17ffffe1 	b	1004 <kprintf.constprop.0+0x890>
    1084:	11002094 	add	w20, w4, #0x8
    1088:	7100029f 	cmp	w20, #0x0
    108c:	5400008d 	b.le	109c <kprintf.constprop.0+0x928>
    1090:	91002c73 	add	x19, x3, #0xb
    1094:	927df273 	and	x19, x19, #0xfffffffffffffff8
    1098:	17fffff0 	b	1058 <kprintf.constprop.0+0x8e4>
    109c:	aa0303f3 	mov	x19, x3
    10a0:	8b24c363 	add	x3, x27, w4, sxtw
    10a4:	17ffffed 	b	1058 <kprintf.constprop.0+0x8e4>
    10a8:	37f800c4 	tbnz	w4, #31, 10c0 <kprintf.constprop.0+0x94c>
    10ac:	91002c73 	add	x19, x3, #0xb
    10b0:	2a0403f4 	mov	w20, w4
    10b4:	927df273 	and	x19, x19, #0xfffffffffffffff8
    10b8:	b9400062 	ldr	w2, [x3]
    10bc:	17ffffd3 	b	1008 <kprintf.constprop.0+0x894>
    10c0:	11002094 	add	w20, w4, #0x8
    10c4:	7100029f 	cmp	w20, #0x0
    10c8:	5400008d 	b.le	10d8 <kprintf.constprop.0+0x964>
    10cc:	91002c73 	add	x19, x3, #0xb
    10d0:	927df273 	and	x19, x19, #0xfffffffffffffff8
    10d4:	17fffff9 	b	10b8 <kprintf.constprop.0+0x944>
    10d8:	aa0303f3 	mov	x19, x3
    10dc:	8b24c363 	add	x3, x27, w4, sxtw
    10e0:	17fffff6 	b	10b8 <kprintf.constprop.0+0x944>
/home/jeferson/optee/optee_os-rpi4/lib/libutils/ext/snprintk.c:297
    10e4:	b00000b7 	adrp	x23, 16000 <__text_end+0x3660>
    10e8:	91194af7 	add	x23, x23, #0x652
    10ec:	910046f7 	add	x23, x23, #0x11
/home/jeferson/optee/optee_os-rpi4/lib/libutils/ext/snprintk.c:481
    10f0:	363801f5 	tbz	w21, #7, 112c <kprintf.constprop.0+0x9b8>
    10f4:	37f80324 	tbnz	w4, #31, 1158 <kprintf.constprop.0+0x9e4>
    10f8:	91003c73 	add	x19, x3, #0xf
    10fc:	2a0403f4 	mov	w20, w4
    1100:	927df273 	and	x19, x19, #0xfffffffffffffff8
    1104:	f9400062 	ldr	x2, [x3]
/home/jeferson/optee/optee_os-rpi4/lib/libutils/ext/snprintk.c:484
    1108:	3607f035 	tbz	w21, #0, f0c <kprintf.constprop.0+0x798>
    110c:	b4fff002 	cbz	x2, f0c <kprintf.constprop.0+0x798>
/home/jeferson/optee/optee_os-rpi4/lib/libutils/ext/snprintk.c:485
    1110:	321f02b5 	orr	w21, w21, #0x2
/home/jeferson/optee/optee_os-rpi4/lib/libutils/ext/snprintk.c:482
    1114:	52800040 	mov	w0, #0x2                   	// #2
/home/jeferson/optee/optee_os-rpi4/lib/libutils/ext/snprintk.c:488
    1118:	52800001 	mov	w1, #0x0                   	// #0
    111c:	17fffe57 	b	a78 <kprintf.constprop.0+0x304>
/home/jeferson/optee/optee_os-rpi4/lib/libutils/ext/snprintk.c:480
    1120:	b00000b7 	adrp	x23, 16000 <__text_end+0x3660>
    1124:	91194af7 	add	x23, x23, #0x652
    1128:	17fffff2 	b	10f0 <kprintf.constprop.0+0x97c>
/home/jeferson/optee/optee_os-rpi4/lib/libutils/ext/snprintk.c:481
    112c:	3747fe55 	tbnz	w21, #8, 10f4 <kprintf.constprop.0+0x980>
    1130:	374ffe35 	tbnz	w21, #9, 10f4 <kprintf.constprop.0+0x980>
    1134:	372ffe15 	tbnz	w21, #5, 10f4 <kprintf.constprop.0+0x980>
    1138:	3727fdf5 	tbnz	w21, #4, 10f4 <kprintf.constprop.0+0x980>
    113c:	36300335 	tbz	w21, #6, 11a0 <kprintf.constprop.0+0xa2c>
    1140:	37f801e4 	tbnz	w4, #31, 117c <kprintf.constprop.0+0xa08>
    1144:	91002c73 	add	x19, x3, #0xb
    1148:	2a0403f4 	mov	w20, w4
    114c:	927df273 	and	x19, x19, #0xfffffffffffffff8
    1150:	79400062 	ldrh	w2, [x3]
    1154:	17ffffed 	b	1108 <kprintf.constprop.0+0x994>
    1158:	11002094 	add	w20, w4, #0x8
    115c:	7100029f 	cmp	w20, #0x0
    1160:	5400008d 	b.le	1170 <kprintf.constprop.0+0x9fc>
    1164:	91003c73 	add	x19, x3, #0xf
    1168:	927df273 	and	x19, x19, #0xfffffffffffffff8
    116c:	17ffffe6 	b	1104 <kprintf.constprop.0+0x990>
    1170:	aa0303f3 	mov	x19, x3
    1174:	8b24c363 	add	x3, x27, w4, sxtw
    1178:	17ffffe3 	b	1104 <kprintf.constprop.0+0x990>
    117c:	11002094 	add	w20, w4, #0x8
    1180:	7100029f 	cmp	w20, #0x0
    1184:	5400008d 	b.le	1194 <kprintf.constprop.0+0xa20>
    1188:	91002c73 	add	x19, x3, #0xb
    118c:	927df273 	and	x19, x19, #0xfffffffffffffff8
    1190:	17fffff0 	b	1150 <kprintf.constprop.0+0x9dc>
    1194:	aa0303f3 	mov	x19, x3
    1198:	8b24c363 	add	x3, x27, w4, sxtw
    119c:	17ffffed 	b	1150 <kprintf.constprop.0+0x9dc>
    11a0:	37f800c4 	tbnz	w4, #31, 11b8 <kprintf.constprop.0+0xa44>
    11a4:	91002c73 	add	x19, x3, #0xb
    11a8:	2a0403f4 	mov	w20, w4
    11ac:	927df273 	and	x19, x19, #0xfffffffffffffff8
    11b0:	b9400062 	ldr	w2, [x3]
    11b4:	17ffffd5 	b	1108 <kprintf.constprop.0+0x994>
    11b8:	11002094 	add	w20, w4, #0x8
    11bc:	7100029f 	cmp	w20, #0x0
    11c0:	5400008d 	b.le	11d0 <kprintf.constprop.0+0xa5c>
    11c4:	91002c73 	add	x19, x3, #0xb
    11c8:	927df273 	and	x19, x19, #0xfffffffffffffff8
    11cc:	17fffff9 	b	11b0 <kprintf.constprop.0+0xa3c>
    11d0:	aa0303f3 	mov	x19, x3
    11d4:	8b24c363 	add	x3, x27, w4, sxtw
    11d8:	17fffff6 	b	11b0 <kprintf.constprop.0+0xa3c>
/home/jeferson/optee/optee_os-rpi4/lib/libutils/ext/snprintk.c:494
    11dc:	52800000 	mov	w0, #0x0                   	// #0
/home/jeferson/optee/optee_os-rpi4/lib/libutils/ext/snprintk.c:503
    11e0:	f100005f 	cmp	x2, #0x0
/home/jeferson/optee/optee_os-rpi4/lib/libutils/ext/snprintk.c:495
    11e4:	12157ab5 	and	w21, w21, #0xfffffbff
/home/jeferson/optee/optee_os-rpi4/lib/libutils/ext/snprintk.c:503
    11e8:	7a4008a0 	ccmp	w5, #0x0, #0x0, eq  // eq = none
    11ec:	54ffc4a1 	b.ne	a80 <kprintf.constprop.0+0x30c>  // b.any
/home/jeferson/optee/optee_os-rpi4/lib/libutils/ext/snprintk.c:502
    11f0:	910397ed 	add	x13, sp, #0xe5
    11f4:	52800005 	mov	w5, #0x0                   	// #0
    11f8:	17fffea7 	b	c94 <kprintf.constprop.0+0x520>
/home/jeferson/optee/optee_os-rpi4/lib/libutils/ext/snprintk.c:494
    11fc:	52800020 	mov	w0, #0x1                   	// #1
    1200:	17fffff8 	b	11e0 <kprintf.constprop.0+0xa6c>
/home/jeferson/optee/optee_os-rpi4/lib/libutils/ext/snprintk.c:523
    1204:	9ac40846 	udiv	x6, x2, x4
    1208:	9b0488c2 	msub	x2, x6, x4, x2
    120c:	1100c042 	add	w2, w2, #0x30
    1210:	381ff002 	sturb	w2, [x0, #-1]
/home/jeferson/optee/optee_os-rpi4/lib/libutils/ext/snprintk.c:524
    1214:	aa0603e2 	mov	x2, x6
    1218:	aa0d03e0 	mov	x0, x13
    121c:	17ffff80 	b	101c <kprintf.constprop.0+0x8a8>
/home/jeferson/optee/optee_os-rpi4/lib/libutils/ext/snprintk.c:547
    1220:	35ffb418 	cbnz	w24, 8a0 <kprintf.constprop.0+0x12c>
/home/jeferson/optee/optee_os-rpi4/lib/libutils/ext/snprintk.c:619
    1224:	b4000049 	cbz	x9, 122c <kprintf.constprop.0+0xab8>
/home/jeferson/optee/optee_os-rpi4/lib/libutils/ext/snprintk.c:620
    1228:	f9000136 	str	x22, [x9]
/home/jeferson/optee/optee_os-rpi4/lib/libutils/ext/snprintk.c:622
    122c:	f00000a0 	adrp	x0, 18000 <_DYNAMIC>
    1230:	f9409800 	ldr	x0, [x0, #304]
    1234:	f94077e2 	ldr	x2, [sp, #232]
    1238:	f9400001 	ldr	x1, [x0]
    123c:	eb010042 	subs	x2, x2, x1
    1240:	d2800001 	mov	x1, #0x0                   	// #0
    1244:	54000680 	b.eq	1314 <kprintf.constprop.0+0xba0>  // b.none
    1248:	97fffcc4 	bl	558 <__stack_chk_fail>
/home/jeferson/optee/optee_os-rpi4/lib/libutils/ext/snprintk.c:574
    124c:	360fde95 	tbz	w21, #1, e1c <kprintf.constprop.0+0x6a8>
/home/jeferson/optee/optee_os-rpi4/lib/libutils/ext/snprintk.c:575
    1250:	11000800 	add	w0, w0, #0x2
    1254:	17fffef2 	b	e1c <kprintf.constprop.0+0x6a8>
/home/jeferson/optee/optee_os-rpi4/lib/libutils/ext/snprintk.c:584
    1258:	b40000b6 	cbz	x22, 126c <kprintf.constprop.0+0xaf8>
    125c:	f100013f 	cmp	x9, #0x0
    1260:	fa561322 	ccmp	x25, x22, #0x2, ne  // ne = any
    1264:	54000049 	b.ls	126c <kprintf.constprop.0+0xaf8>  // b.plast
    1268:	380016c7 	strb	w7, [x22], #1
    126c:	510004c6 	sub	w6, w6, #0x1
    1270:	17fffef3 	b	e3c <kprintf.constprop.0+0x6c8>
/home/jeferson/optee/optee_os-rpi4/lib/libutils/ext/snprintk.c:590
    1274:	360fdf55 	tbz	w21, #1, e5c <kprintf.constprop.0+0x6e8>
/home/jeferson/optee/optee_os-rpi4/lib/libutils/ext/snprintk.c:591
    1278:	b4ffdf36 	cbz	x22, e5c <kprintf.constprop.0+0x6e8>
    127c:	f100013f 	cmp	x9, #0x0
    1280:	1a9f17e6 	cset	w6, eq  // eq = none
    1284:	710000df 	cmp	w6, #0x0
    1288:	fa560322 	ccmp	x25, x22, #0x2, eq  // eq = none
    128c:	54ffde89 	b.ls	e5c <kprintf.constprop.0+0x6e8>  // b.plast
    1290:	aa1603e1 	mov	x1, x22
    1294:	52800607 	mov	w7, #0x30                  	// #48
/home/jeferson/optee/optee_os-rpi4/lib/libutils/ext/snprintk.c:592
    1298:	710000df 	cmp	w6, #0x0
/home/jeferson/optee/optee_os-rpi4/lib/libutils/ext/snprintk.c:591
    129c:	38001427 	strb	w7, [x1], #1
/home/jeferson/optee/optee_os-rpi4/lib/libutils/ext/snprintk.c:592
    12a0:	fa410322 	ccmp	x25, x1, #0x2, eq  // eq = none
    12a4:	54000089 	b.ls	12b4 <kprintf.constprop.0+0xb40>  // b.plast
    12a8:	91000ad6 	add	x22, x22, #0x2
    12ac:	381ff2d8 	sturb	w24, [x22, #-1]
    12b0:	17fffeeb 	b	e5c <kprintf.constprop.0+0x6e8>
    12b4:	aa0103f6 	mov	x22, x1
    12b8:	17fffee9 	b	e5c <kprintf.constprop.0+0x6e8>
/home/jeferson/optee/optee_os-rpi4/lib/libutils/ext/snprintk.c:599
    12bc:	b40000b6 	cbz	x22, 12d0 <kprintf.constprop.0+0xb5c>
    12c0:	f100013f 	cmp	x9, #0x0
    12c4:	fa561322 	ccmp	x25, x22, #0x2, ne  // ne = any
    12c8:	54000049 	b.ls	12d0 <kprintf.constprop.0+0xb5c>  // b.plast
    12cc:	380016c4 	strb	w4, [x22], #1
    12d0:	51000421 	sub	w1, w1, #0x1
    12d4:	17fffee6 	b	e6c <kprintf.constprop.0+0x6f8>
/home/jeferson/optee/optee_os-rpi4/lib/libutils/ext/snprintk.c:605
    12d8:	b40000b6 	cbz	x22, 12ec <kprintf.constprop.0+0xb78>
    12dc:	f100013f 	cmp	x9, #0x0
    12e0:	fa561322 	ccmp	x25, x22, #0x2, ne  // ne = any
    12e4:	54000049 	b.ls	12ec <kprintf.constprop.0+0xb78>  // b.plast
    12e8:	380016c1 	strb	w1, [x22], #1
    12ec:	51000442 	sub	w2, w2, #0x1
    12f0:	17fffee3 	b	e7c <kprintf.constprop.0+0x708>
/home/jeferson/optee/optee_os-rpi4/lib/libutils/ext/snprintk.c:609
    12f4:	b40000d6 	cbz	x22, 130c <kprintf.constprop.0+0xb98>
    12f8:	f100013f 	cmp	x9, #0x0
    12fc:	fa561322 	ccmp	x25, x22, #0x2, ne  // ne = any
    1300:	54000069 	b.ls	130c <kprintf.constprop.0+0xb98>  // b.plast
    1304:	386169a2 	ldrb	w2, [x13, x1]
    1308:	380016c2 	strb	w2, [x22], #1
/home/jeferson/optee/optee_os-rpi4/lib/libutils/ext/snprintk.c:608
    130c:	91000421 	add	x1, x1, #0x1
    1310:	17fffedf 	b	e8c <kprintf.constprop.0+0x718>
/home/jeferson/optee/optee_os-rpi4/lib/libutils/ext/snprintk.c:622
    1314:	2a1a03e0 	mov	w0, w26
    1318:	a9437bfd 	ldp	x29, x30, [sp, #48]
    131c:	a94453f3 	ldp	x19, x20, [sp, #64]
    1320:	a9455bf5 	ldp	x21, x22, [sp, #80]
    1324:	a94663f7 	ldp	x23, x24, [sp, #96]
    1328:	a9476bf9 	ldp	x25, x26, [sp, #112]
    132c:	a94873fb 	ldp	x27, x28, [sp, #128]
    1330:	9103c3ff 	add	sp, sp, #0xf0
    1334:	d65f03c0 	ret

0000000000001338 <__vsprintf>:
__vsprintf():
/home/jeferson/optee/optee_os-rpi4/lib/libutils/ext/snprintk.c:155
    1338:	a9bc7bfd 	stp	x29, x30, [sp, #-64]!
/home/jeferson/optee/optee_os-rpi4/lib/libutils/ext/snprintk.c:156
    133c:	910083e3 	add	x3, sp, #0x20
/home/jeferson/optee/optee_os-rpi4/lib/libutils/ext/snprintk.c:155
    1340:	910003fd 	mov	x29, sp
    1344:	a90153f3 	stp	x19, x20, [sp, #16]
    1348:	aa0003f4 	mov	x20, x0
    134c:	aa0103f3 	mov	x19, x1
/home/jeferson/optee/optee_os-rpi4/lib/libutils/ext/snprintk.c:156
    1350:	aa0303e0 	mov	x0, x3
/home/jeferson/optee/optee_os-rpi4/lib/libutils/ext/snprintk.c:155
    1354:	aa0203e1 	mov	x1, x2
/home/jeferson/optee/optee_os-rpi4/lib/libutils/ext/snprintk.c:156
    1358:	d2800402 	mov	x2, #0x20                  	// #32
    135c:	97fffb31 	bl	20 <memcpy>
    1360:	aa1403e2 	mov	x2, x20
    1364:	aa0003e3 	mov	x3, x0
    1368:	52800004 	mov	w4, #0x0                   	// #0
    136c:	aa1303e0 	mov	x0, x19
    1370:	d2800001 	mov	x1, #0x0                   	// #0
    1374:	97fffd00 	bl	774 <kprintf.constprop.0>
/home/jeferson/optee/optee_os-rpi4/lib/libutils/ext/snprintk.c:157
    1378:	a94153f3 	ldp	x19, x20, [sp, #16]
    137c:	a8c47bfd 	ldp	x29, x30, [sp], #64
    1380:	d65f03c0 	ret

0000000000001384 <memchr>:
memchr():
/home/jeferson/optee/optee_os-rpi4/lib/libutils/isoc/newlib/memchr.c:109
    1384:	12001c21 	and	w1, w1, #0xff
/home/jeferson/optee/optee_os-rpi4/lib/libutils/isoc/newlib/memchr.c:153
    1388:	8b020002 	add	x2, x0, x2
    138c:	eb02001f 	cmp	x0, x2
    1390:	54000061 	b.ne	139c <memchr+0x18>  // b.any
/home/jeferson/optee/optee_os-rpi4/lib/libutils/isoc/newlib/memchr.c:159
    1394:	d2800000 	mov	x0, #0x0                   	// #0
/home/jeferson/optee/optee_os-rpi4/lib/libutils/isoc/newlib/memchr.c:160
    1398:	d65f03c0 	ret
/home/jeferson/optee/optee_os-rpi4/lib/libutils/isoc/newlib/memchr.c:154
    139c:	39400003 	ldrb	w3, [x0]
    13a0:	6b01007f 	cmp	w3, w1
    13a4:	54ffffa0 	b.eq	1398 <memchr+0x14>  // b.none
/home/jeferson/optee/optee_os-rpi4/lib/libutils/isoc/newlib/memchr.c:156
    13a8:	91000400 	add	x0, x0, #0x1
    13ac:	17fffff8 	b	138c <memchr+0x8>

00000000000013b0 <strlen>:
strlen():
/home/jeferson/optee/optee_os-rpi4/lib/libutils/isoc/newlib/strlen.c:117
    13b0:	aa0003e1 	mov	x1, x0
    13b4:	39400022 	ldrb	w2, [x1]
    13b8:	35000062 	cbnz	w2, 13c4 <strlen+0x14>
/home/jeferson/optee/optee_os-rpi4/lib/libutils/isoc/newlib/strlen.c:120
    13bc:	cb000020 	sub	x0, x1, x0
    13c0:	d65f03c0 	ret
/home/jeferson/optee/optee_os-rpi4/lib/libutils/isoc/newlib/strlen.c:118
    13c4:	91000421 	add	x1, x1, #0x1
    13c8:	17fffffb 	b	13b4 <strlen+0x4>

00000000000013cc <trace_ext_puts>:
trace_ext_puts():
/home/jeferson/optee/optee_os-rpi4/lib/libutee/trace_ext.c:22
    13cc:	a9be7bfd 	stp	x29, x30, [sp, #-32]!
    13d0:	910003fd 	mov	x29, sp
    13d4:	f9000bf3 	str	x19, [sp, #16]
    13d8:	aa0003f3 	mov	x19, x0
/home/jeferson/optee/optee_os-rpi4/lib/libutee/trace_ext.c:26
    13dc:	97fffff5 	bl	13b0 <strlen>
    13e0:	aa0003e1 	mov	x1, x0
    13e4:	aa1303e0 	mov	x0, x19
/home/jeferson/optee/optee_os-rpi4/lib/libutee/trace_ext.c:28
    13e8:	f9400bf3 	ldr	x19, [sp, #16]
    13ec:	a8c27bfd 	ldp	x29, x30, [sp], #32
/home/jeferson/optee/optee_os-rpi4/lib/libutee/trace_ext.c:26
    13f0:	14001706 	b	7008 <_utee_log>

00000000000013f4 <trace_ext_get_thread_id>:
trace_ext_get_thread_id():
/home/jeferson/optee/optee_os-rpi4/lib/libutee/trace_ext.c:33
    13f4:	12800000 	mov	w0, #0xffffffff            	// #-1
    13f8:	d65f03c0 	ret

00000000000013fc <printf>:
printf():
/home/jeferson/optee/optee_os-rpi4/lib/libutee/trace_ext.c:41
    13fc:	d108c3ff 	sub	sp, sp, #0x230
    1400:	a9007bfd 	stp	x29, x30, [sp]
    1404:	910003fd 	mov	x29, sp
    1408:	a90153f3 	stp	x19, x20, [sp, #16]
    140c:	aa0003f3 	mov	x19, x0
    1410:	910823e0 	add	x0, sp, #0x208
    1414:	a91f8be1 	stp	x1, x2, [sp, #504]
    1418:	f00000a1 	adrp	x1, 18000 <_DYNAMIC>
    141c:	3d805fe0 	str	q0, [sp, #368]
    1420:	3d8063e1 	str	q1, [sp, #384]
    1424:	3d8067e2 	str	q2, [sp, #400]
    1428:	3d806be3 	str	q3, [sp, #416]
    142c:	3d806fe4 	str	q4, [sp, #432]
    1430:	3d8073e5 	str	q5, [sp, #448]
    1434:	3d8077e6 	str	q6, [sp, #464]
    1438:	3d807be7 	str	q7, [sp, #480]
    143c:	f9409821 	ldr	x1, [x1, #304]
    1440:	a9001003 	stp	x3, x4, [x0]
    1444:	a9011805 	stp	x5, x6, [x0, #16]
    1448:	f90117e7 	str	x7, [sp, #552]
    144c:	f9400020 	ldr	x0, [x1]
    1450:	f900b7e0 	str	x0, [sp, #360]
    1454:	d2800000 	mov	x0, #0x0                   	// #0
/home/jeferson/optee/optee_os-rpi4/lib/libutee/trace_ext.c:46
    1458:	97fffb7b 	bl	244 <trace_get_level>
    145c:	7100001f 	cmp	w0, #0x0
    1460:	5400040d 	b.le	14e0 <printf+0xe4>
/home/jeferson/optee/optee_os-rpi4/lib/libutee/trace_ext.c:49
    1464:	9108c3e0 	add	x0, sp, #0x230
/home/jeferson/optee/optee_os-rpi4/lib/libutee/trace_ext.c:50
    1468:	910083e3 	add	x3, sp, #0x20
/home/jeferson/optee/optee_os-rpi4/lib/libutee/trace_ext.c:49
    146c:	a90483e0 	stp	x0, x0, [sp, #72]
    1470:	9107c3e0 	add	x0, sp, #0x1f0
/home/jeferson/optee/optee_os-rpi4/lib/libutee/trace_ext.c:50
    1474:	910123e1 	add	x1, sp, #0x48
/home/jeferson/optee/optee_os-rpi4/lib/libutee/trace_ext.c:49
    1478:	f9002fe0 	str	x0, [sp, #88]
    147c:	128006e0 	mov	w0, #0xffffffc8            	// #-56
    1480:	b90063e0 	str	w0, [sp, #96]
    1484:	12800fe0 	mov	w0, #0xffffff80            	// #-128
/home/jeferson/optee/optee_os-rpi4/lib/libutee/trace_ext.c:50
    1488:	d2800402 	mov	x2, #0x20                  	// #32
    148c:	9101a3f4 	add	x20, sp, #0x68
/home/jeferson/optee/optee_os-rpi4/lib/libutee/trace_ext.c:49
    1490:	b90067e0 	str	w0, [sp, #100]
/home/jeferson/optee/optee_os-rpi4/lib/libutee/trace_ext.c:50
    1494:	aa0303e0 	mov	x0, x3
    1498:	97fffae2 	bl	20 <memcpy>
    149c:	aa0003e3 	mov	x3, x0
    14a0:	aa1303e2 	mov	x2, x19
    14a4:	aa1403e0 	mov	x0, x20
    14a8:	d2802001 	mov	x1, #0x100                 	// #256
    14ac:	94004472 	bl	12674 <vsnprintf>
    14b0:	2a0003f3 	mov	w19, w0
/home/jeferson/optee/optee_os-rpi4/lib/libutee/trace_ext.c:53
    14b4:	37f80060 	tbnz	w0, #31, 14c0 <printf+0xc4>
/home/jeferson/optee/optee_os-rpi4/lib/libutee/trace_ext.c:56
    14b8:	aa1403e0 	mov	x0, x20
    14bc:	97ffffc4 	bl	13cc <trace_ext_puts>
/home/jeferson/optee/optee_os-rpi4/lib/libutee/trace_ext.c:59
    14c0:	f00000a1 	adrp	x1, 18000 <_DYNAMIC>
    14c4:	f9409821 	ldr	x1, [x1, #304]
    14c8:	f940b7e0 	ldr	x0, [sp, #360]
    14cc:	f9400022 	ldr	x2, [x1]
    14d0:	eb020000 	subs	x0, x0, x2
    14d4:	d2800002 	mov	x2, #0x0                   	// #0
    14d8:	54000080 	b.eq	14e8 <printf+0xec>  // b.none
    14dc:	97fffc1f 	bl	558 <__stack_chk_fail>
/home/jeferson/optee/optee_os-rpi4/lib/libutee/trace_ext.c:47
    14e0:	52800013 	mov	w19, #0x0                   	// #0
    14e4:	17fffff7 	b	14c0 <printf+0xc4>
/home/jeferson/optee/optee_os-rpi4/lib/libutee/trace_ext.c:59
    14e8:	2a1303e0 	mov	w0, w19
    14ec:	a9407bfd 	ldp	x29, x30, [sp]
    14f0:	a94153f3 	ldp	x19, x20, [sp, #16]
    14f4:	9108c3ff 	add	sp, sp, #0x230
    14f8:	d65f03c0 	ret

00000000000014fc <puts>:
puts():
/home/jeferson/optee/optee_os-rpi4/lib/libutee/trace_ext.c:62
    14fc:	a9be7bfd 	stp	x29, x30, [sp, #-32]!
    1500:	910003fd 	mov	x29, sp
    1504:	f9000bf3 	str	x19, [sp, #16]
    1508:	aa0003f3 	mov	x19, x0
/home/jeferson/optee/optee_os-rpi4/lib/libutee/trace_ext.c:63
    150c:	97fffb4e 	bl	244 <trace_get_level>
    1510:	7100001f 	cmp	w0, #0x0
    1514:	540000cd 	b.le	152c <puts+0x30>
/home/jeferson/optee/optee_os-rpi4/lib/libutee/trace_ext.c:64
    1518:	aa1303e0 	mov	x0, x19
    151c:	97ffffac 	bl	13cc <trace_ext_puts>
/home/jeferson/optee/optee_os-rpi4/lib/libutee/trace_ext.c:65
    1520:	d00000a0 	adrp	x0, 17000 <__func__.1+0xd>
    1524:	91119c00 	add	x0, x0, #0x467
    1528:	97ffffa9 	bl	13cc <trace_ext_puts>
/home/jeferson/optee/optee_os-rpi4/lib/libutee/trace_ext.c:68
    152c:	52800020 	mov	w0, #0x1                   	// #1
    1530:	f9400bf3 	ldr	x19, [sp, #16]
    1534:	a8c27bfd 	ldp	x29, x30, [sp], #32
    1538:	d65f03c0 	ret

000000000000153c <putchar>:
putchar():
/home/jeferson/optee/optee_os-rpi4/lib/libutee/trace_ext.c:71
    153c:	a9bd7bfd 	stp	x29, x30, [sp, #-48]!
    1540:	f00000a1 	adrp	x1, 18000 <_DYNAMIC>
    1544:	910003fd 	mov	x29, sp
    1548:	f9409821 	ldr	x1, [x1, #304]
    154c:	f9000bf3 	str	x19, [sp, #16]
    1550:	2a0003f3 	mov	w19, w0
    1554:	f9400020 	ldr	x0, [x1]
    1558:	f90017e0 	str	x0, [sp, #40]
    155c:	d2800000 	mov	x0, #0x0                   	// #0
/home/jeferson/optee/optee_os-rpi4/lib/libutee/trace_ext.c:72
    1560:	390083f3 	strb	w19, [sp, #32]
    1564:	390087ff 	strb	wzr, [sp, #33]
/home/jeferson/optee/optee_os-rpi4/lib/libutee/trace_ext.c:74
    1568:	97fffb37 	bl	244 <trace_get_level>
    156c:	7100001f 	cmp	w0, #0x0
    1570:	5400006d 	b.le	157c <putchar+0x40>
/home/jeferson/optee/optee_os-rpi4/lib/libutee/trace_ext.c:75
    1574:	910083e0 	add	x0, sp, #0x20
    1578:	97ffff95 	bl	13cc <trace_ext_puts>
/home/jeferson/optee/optee_os-rpi4/lib/libutee/trace_ext.c:82
    157c:	f00000a1 	adrp	x1, 18000 <_DYNAMIC>
/home/jeferson/optee/optee_os-rpi4/lib/libutee/trace_ext.c:81
    1580:	12001e60 	and	w0, w19, #0xff
/home/jeferson/optee/optee_os-rpi4/lib/libutee/trace_ext.c:82
    1584:	f9409821 	ldr	x1, [x1, #304]
    1588:	f94017e3 	ldr	x3, [sp, #40]
    158c:	f9400022 	ldr	x2, [x1]
    1590:	eb020063 	subs	x3, x3, x2
    1594:	d2800002 	mov	x2, #0x0                   	// #0
    1598:	54000040 	b.eq	15a0 <putchar+0x64>  // b.none
    159c:	97fffbef 	bl	558 <__stack_chk_fail>
    15a0:	f9400bf3 	ldr	x19, [sp, #16]
    15a4:	a8c37bfd 	ldp	x29, x30, [sp], #48
    15a8:	d65f03c0 	ret

00000000000015ac <copy_param>:
copy_param():
/home/jeferson/optee/optee_os-rpi4/lib/libutee/tee_api.c:43
    15ac:	2a0103e3 	mov	w3, w1
    15b0:	52800004 	mov	w4, #0x0                   	// #0
    15b4:	f8008403 	str	x3, [x0], #8
/home/jeferson/optee/optee_os-rpi4/lib/libutee/tee_api.c:45
    15b8:	1ac42425 	lsr	w5, w1, w4
    15bc:	12000ca3 	and	w3, w5, #0xf
    15c0:	71000c7f 	cmp	w3, #0x3
    15c4:	540001a0 	b.eq	15f8 <copy_param+0x4c>  // b.none
    15c8:	721e04bf 	tst	w5, #0xc
    15cc:	540000c1 	b.ne	15e4 <copy_param+0x38>  // b.any
    15d0:	7100047f 	cmp	w3, #0x1
    15d4:	54000120 	b.eq	15f8 <copy_param+0x4c>  // b.none
    15d8:	d2800003 	mov	x3, #0x0                   	// #0
    15dc:	d2800005 	mov	x5, #0x0                   	// #0
    15e0:	14000007 	b	15fc <copy_param+0x50>
    15e4:	51001463 	sub	w3, w3, #0x5
    15e8:	7100087f 	cmp	w3, #0x2
    15ec:	54ffff68 	b.hi	15d8 <copy_param+0x2c>  // b.pmore
/home/jeferson/optee/optee_os-rpi4/lib/libutee/tee_api.c:55
    15f0:	a9400c45 	ldp	x5, x3, [x2]
/home/jeferson/optee/optee_os-rpi4/lib/libutee/tee_api.c:56
    15f4:	14000002 	b	15fc <copy_param+0x50>
/home/jeferson/optee/optee_os-rpi4/lib/libutee/tee_api.c:49
    15f8:	29400c45 	ldp	w5, w3, [x2]
/home/jeferson/optee/optee_os-rpi4/lib/libutee/tee_api.c:44 (discriminator 2)
    15fc:	11001084 	add	w4, w4, #0x4
/home/jeferson/optee/optee_os-rpi4/lib/libutee/tee_api.c:62 (discriminator 2)
    1600:	a9000c05 	stp	x5, x3, [x0]
/home/jeferson/optee/optee_os-rpi4/lib/libutee/tee_api.c:44 (discriminator 2)
    1604:	91004042 	add	x2, x2, #0x10
    1608:	91004000 	add	x0, x0, #0x10
    160c:	7100409f 	cmp	w4, #0x10
    1610:	54fffd41 	b.ne	15b8 <copy_param+0xc>  // b.any
/home/jeferson/optee/optee_os-rpi4/lib/libutee/tee_api.c:64
    1614:	d65f03c0 	ret

0000000000001618 <copy_gp11_param>:
copy_gp11_param():
/home/jeferson/optee/optee_os-rpi4/lib/libutee/tee_api.c:73
    1618:	2a0103e3 	mov	w3, w1
    161c:	52800004 	mov	w4, #0x0                   	// #0
    1620:	f8008403 	str	x3, [x0], #8
/home/jeferson/optee/optee_os-rpi4/lib/libutee/tee_api.c:75
    1624:	1ac42425 	lsr	w5, w1, w4
    1628:	12000ca3 	and	w3, w5, #0xf
    162c:	71000c7f 	cmp	w3, #0x3
    1630:	540001c0 	b.eq	1668 <copy_gp11_param+0x50>  // b.none
    1634:	721e04bf 	tst	w5, #0xc
    1638:	540000c1 	b.ne	1650 <copy_gp11_param+0x38>  // b.any
    163c:	7100047f 	cmp	w3, #0x1
    1640:	54000140 	b.eq	1668 <copy_gp11_param+0x50>  // b.none
    1644:	d2800003 	mov	x3, #0x0                   	// #0
    1648:	d2800005 	mov	x5, #0x0                   	// #0
    164c:	14000008 	b	166c <copy_gp11_param+0x54>
    1650:	51001463 	sub	w3, w3, #0x5
    1654:	7100087f 	cmp	w3, #0x2
    1658:	54ffff68 	b.hi	1644 <copy_gp11_param+0x2c>  // b.pmore
/home/jeferson/optee/optee_os-rpi4/lib/libutee/tee_api.c:85
    165c:	b9400843 	ldr	w3, [x2, #8]
/home/jeferson/optee/optee_os-rpi4/lib/libutee/tee_api.c:84
    1660:	f9400045 	ldr	x5, [x2]
/home/jeferson/optee/optee_os-rpi4/lib/libutee/tee_api.c:86
    1664:	14000002 	b	166c <copy_gp11_param+0x54>
/home/jeferson/optee/optee_os-rpi4/lib/libutee/tee_api.c:79
    1668:	29400c45 	ldp	w5, w3, [x2]
/home/jeferson/optee/optee_os-rpi4/lib/libutee/tee_api.c:74 (discriminator 2)
    166c:	11001084 	add	w4, w4, #0x4
/home/jeferson/optee/optee_os-rpi4/lib/libutee/tee_api.c:92 (discriminator 2)
    1670:	a9000c05 	stp	x5, x3, [x0]
/home/jeferson/optee/optee_os-rpi4/lib/libutee/tee_api.c:74 (discriminator 2)
    1674:	91004042 	add	x2, x2, #0x10
    1678:	91004000 	add	x0, x0, #0x10
    167c:	7100409f 	cmp	w4, #0x10
    1680:	54fffd21 	b.ne	1624 <copy_gp11_param+0xc>  // b.any
/home/jeferson/optee/optee_os-rpi4/lib/libutee/tee_api.c:94
    1684:	d65f03c0 	ret

0000000000001688 <check_mem_access_rights_params>:
check_mem_access_rights_params():
/home/jeferson/optee/optee_os-rpi4/lib/libutee/tee_api.c:261
    1688:	f00000a3 	adrp	x3, 18000 <_DYNAMIC>
bufs_intersect():
/home/jeferson/optee/optee_os-rpi4/lib/libutee/tee_api.c:241
    168c:	d1000447 	sub	x7, x2, #0x1
    1690:	8b0100e7 	add	x7, x7, x1
check_mem_access_rights_params():
/home/jeferson/optee/optee_os-rpi4/lib/libutee/tee_api.c:261
    1694:	52800005 	mov	w5, #0x0                   	// #0
    1698:	f940d064 	ldr	x4, [x3, #416]
    169c:	f940e463 	ldr	x3, [x3, #456]
    16a0:	b9400089 	ldr	w9, [x4]
    16a4:	1ac52524 	lsr	w4, w9, w5
    16a8:	12000c84 	and	w4, w4, #0xf
    16ac:	7100149f 	cmp	w4, #0x5
    16b0:	54000300 	b.eq	1710 <check_mem_access_rights_params+0x88>  // b.none
    16b4:	51001884 	sub	w4, w4, #0x6
    16b8:	7100049f 	cmp	w4, #0x1
    16bc:	540001e8 	b.hi	16f8 <check_mem_access_rights_params+0x70>  // b.pmore
    16c0:	528000c6 	mov	w6, #0x6                   	// #6
/home/jeferson/optee/optee_os-rpi4/lib/libutee/tee_api.c:268
    16c4:	f9400464 	ldr	x4, [x3, #8]
bufs_intersect():
/home/jeferson/optee/optee_os-rpi4/lib/libutee/tee_api.c:244
    16c8:	f100005f 	cmp	x2, #0x0
    16cc:	fa401884 	ccmp	x4, #0x0, #0x4, ne  // ne = any
    16d0:	54000140 	b.eq	16f8 <check_mem_access_rights_params+0x70>  // b.none
/home/jeferson/optee/optee_os-rpi4/lib/libutee/tee_api.c:240
    16d4:	f9400068 	ldr	x8, [x3]
/home/jeferson/optee/optee_os-rpi4/lib/libutee/tee_api.c:242
    16d8:	d1000484 	sub	x4, x4, #0x1
    16dc:	8b080084 	add	x4, x4, x8
/home/jeferson/optee/optee_os-rpi4/lib/libutee/tee_api.c:247
    16e0:	eb07011f 	cmp	x8, x7
    16e4:	fa449022 	ccmp	x1, x4, #0x2, ls  // ls = plast
    16e8:	54000088 	b.hi	16f8 <check_mem_access_rights_params+0x70>  // b.pmore
check_mem_access_rights_params():
/home/jeferson/optee/optee_os-rpi4/lib/libutee/tee_api.c:267
    16ec:	320000c6 	orr	w6, w6, #0x1
/home/jeferson/optee/optee_os-rpi4/lib/libutee/tee_api.c:271
    16f0:	6a26001f 	bics	wzr, w0, w6
    16f4:	54000121 	b.ne	1718 <check_mem_access_rights_params+0x90>  // b.any
/home/jeferson/optee/optee_os-rpi4/lib/libutee/tee_api.c:258 (discriminator 2)
    16f8:	110010a5 	add	w5, w5, #0x4
    16fc:	91004063 	add	x3, x3, #0x10
    1700:	710040bf 	cmp	w5, #0x10
    1704:	54fffd01 	b.ne	16a4 <check_mem_access_rights_params+0x1c>  // b.any
/home/jeferson/optee/optee_os-rpi4/lib/libutee/tee_api.c:280
    1708:	52800000 	mov	w0, #0x0                   	// #0
/home/jeferson/optee/optee_os-rpi4/lib/libutee/tee_api.c:281
    170c:	d65f03c0 	ret
/home/jeferson/optee/optee_os-rpi4/lib/libutee/tee_api.c:259
    1710:	52800086 	mov	w6, #0x4                   	// #4
    1714:	17ffffec 	b	16c4 <check_mem_access_rights_params+0x3c>
/home/jeferson/optee/optee_os-rpi4/lib/libutee/tee_api.c:272
    1718:	129fffc0 	mov	w0, #0xffff0001            	// #-65535
    171c:	17fffffc 	b	170c <check_mem_access_rights_params+0x84>

0000000000001720 <buf_overlaps_no_share_heap>:
buf_overlaps_no_share_heap():
/home/jeferson/optee/optee_os-rpi4/lib/libutee/tee_api.c:284
    1720:	aa0003e3 	mov	x3, x0
/home/jeferson/optee/optee_os-rpi4/lib/libutee/tee_api.c:285
    1724:	f00000a0 	adrp	x0, 18000 <_DYNAMIC>
    1728:	f940dc00 	ldr	x0, [x0, #440]
    172c:	f9400000 	ldr	x0, [x0]
/home/jeferson/optee/optee_os-rpi4/lib/libutee/tee_api.c:287
    1730:	b4000140 	cbz	x0, 1758 <buf_overlaps_no_share_heap+0x38>
/home/jeferson/optee/optee_os-rpi4/lib/libutee/tee_api.c:284 (discriminator 1)
    1734:	a9bf7bfd 	stp	x29, x30, [sp, #-16]!
    1738:	aa0103e2 	mov	x2, x1
/home/jeferson/optee/optee_os-rpi4/lib/libutee/tee_api.c:287 (discriminator 1)
    173c:	aa0303e1 	mov	x1, x3
/home/jeferson/optee/optee_os-rpi4/lib/libutee/tee_api.c:284 (discriminator 1)
    1740:	910003fd 	mov	x29, sp
/home/jeferson/optee/optee_os-rpi4/lib/libutee/tee_api.c:287 (discriminator 1)
    1744:	94004301 	bl	12348 <raw_malloc_buffer_overlaps_heap>
    1748:	12001c00 	and	w0, w0, #0xff
/home/jeferson/optee/optee_os-rpi4/lib/libutee/tee_api.c:288 (discriminator 1)
    174c:	12000000 	and	w0, w0, #0x1
    1750:	a8c17bfd 	ldp	x29, x30, [sp], #16
    1754:	d65f03c0 	ret
/home/jeferson/optee/optee_os-rpi4/lib/libutee/tee_api.c:287
    1758:	52800000 	mov	w0, #0x0                   	// #0
/home/jeferson/optee/optee_os-rpi4/lib/libutee/tee_api.c:288
    175c:	12000000 	and	w0, w0, #0x1
    1760:	d65f03c0 	ret

0000000000001764 <check_invoke_param>:
check_invoke_param():
/home/jeferson/optee/optee_os-rpi4/lib/libutee/tee_api.c:291
    1764:	a9bc7bfd 	stp	x29, x30, [sp, #-64]!
    1768:	910003fd 	mov	x29, sp
    176c:	a90153f3 	stp	x19, x20, [sp, #16]
    1770:	aa0103f3 	mov	x19, x1
    1774:	52800014 	mov	w20, #0x0                   	// #0
    1778:	a9025bf5 	stp	x21, x22, [sp, #32]
    177c:	2a0003f5 	mov	w21, w0
    1780:	f9001bf7 	str	x23, [sp, #48]
/home/jeferson/optee/optee_os-rpi4/lib/libutee/tee_api.c:299
    1784:	1ad426a1 	lsr	w1, w21, w20
    1788:	12000c21 	and	w1, w1, #0xf
    178c:	7100143f 	cmp	w1, #0x5
    1790:	540003a0 	b.eq	1804 <check_invoke_param+0xa0>  // b.none
    1794:	51001821 	sub	w1, w1, #0x6
    1798:	7100043f 	cmp	w1, #0x1
    179c:	54000228 	b.hi	17e0 <check_invoke_param+0x7c>  // b.pmore
    17a0:	528000c0 	mov	w0, #0x6                   	// #6
/home/jeferson/optee/optee_os-rpi4/lib/libutee/tee_api.c:297
    17a4:	a9405e76 	ldp	x22, x23, [x19]
/home/jeferson/optee/optee_os-rpi4/lib/libutee/tee_api.c:306
    17a8:	32000000 	orr	w0, w0, #0x1
    17ac:	aa1703e2 	mov	x2, x23
    17b0:	aa1603e1 	mov	x1, x22
    17b4:	97ffffb5 	bl	1688 <check_mem_access_rights_params>
    17b8:	34000060 	cbz	w0, 17c4 <check_invoke_param+0x60>
/home/jeferson/optee/optee_os-rpi4/lib/libutee/tee_api.c:307
    17bc:	52800000 	mov	w0, #0x0                   	// #0
    17c0:	940014e5 	bl	6b54 <TEE_Panic>
/home/jeferson/optee/optee_os-rpi4/lib/libutee/tee_api.c:308
    17c4:	aa1703e1 	mov	x1, x23
    17c8:	aa1603e0 	mov	x0, x22
    17cc:	97ffffd5 	bl	1720 <buf_overlaps_no_share_heap>
    17d0:	72001c1f 	tst	w0, #0xff
    17d4:	54000060 	b.eq	17e0 <check_invoke_param+0x7c>  // b.none
/home/jeferson/optee/optee_os-rpi4/lib/libutee/tee_api.c:309
    17d8:	52800000 	mov	w0, #0x0                   	// #0
    17dc:	940014de 	bl	6b54 <TEE_Panic>
/home/jeferson/optee/optee_os-rpi4/lib/libutee/tee_api.c:294 (discriminator 2)
    17e0:	11001294 	add	w20, w20, #0x4
    17e4:	91004273 	add	x19, x19, #0x10
    17e8:	7100429f 	cmp	w20, #0x10
    17ec:	54fffcc1 	b.ne	1784 <check_invoke_param+0x20>  // b.any
/home/jeferson/optee/optee_os-rpi4/lib/libutee/tee_api.c:315
    17f0:	a94153f3 	ldp	x19, x20, [sp, #16]
    17f4:	a9425bf5 	ldp	x21, x22, [sp, #32]
    17f8:	f9401bf7 	ldr	x23, [sp, #48]
    17fc:	a8c47bfd 	ldp	x29, x30, [sp], #64
    1800:	d65f03c0 	ret
/home/jeferson/optee/optee_os-rpi4/lib/libutee/tee_api.c:295
    1804:	52800080 	mov	w0, #0x4                   	// #4
    1808:	17ffffe7 	b	17a4 <check_invoke_param+0x40>

000000000000180c <update_out_param>:
update_out_param():
/home/jeferson/optee/optee_os-rpi4/lib/libutee/tee_api.c:180
    180c:	a9bc7bfd 	stp	x29, x30, [sp, #-64]!
    1810:	910003fd 	mov	x29, sp
    1814:	a90153f3 	stp	x19, x20, [sp, #16]
/home/jeferson/optee/optee_os-rpi4/lib/libutee/tee_api.c:182
    1818:	aa0203f4 	mov	x20, x2
    181c:	aa0003f3 	mov	x19, x0
/home/jeferson/optee/optee_os-rpi4/lib/libutee/tee_api.c:180
    1820:	a90363f7 	stp	x23, x24, [sp, #48]
    1824:	aa0103f8 	mov	x24, x1
/home/jeferson/optee/optee_os-rpi4/lib/libutee/tee_api.c:182
    1828:	f8408697 	ldr	x23, [x20], #8
/home/jeferson/optee/optee_os-rpi4/lib/libutee/tee_api.c:180
    182c:	a9025bf5 	stp	x21, x22, [sp, #32]
/home/jeferson/optee/optee_os-rpi4/lib/libutee/tee_api.c:184
    1830:	d2800015 	mov	x21, #0x0                   	// #0
/home/jeferson/optee/optee_os-rpi4/lib/libutee/tee_api.c:188
    1834:	531e76a0 	lsl	w0, w21, #2
/home/jeferson/optee/optee_os-rpi4/lib/libutee/tee_api.c:186
    1838:	a9405a82 	ldp	x2, x22, [x20]
/home/jeferson/optee/optee_os-rpi4/lib/libutee/tee_api.c:188
    183c:	1ac026e0 	lsr	w0, w23, w0
    1840:	12000c01 	and	w1, w0, #0xf
    1844:	721e041f 	tst	w0, #0xc
    1848:	540000a1 	b.ne	185c <update_out_param+0x50>  // b.any
    184c:	721f081f 	tst	w0, #0xe
    1850:	540000c0 	b.eq	1868 <update_out_param+0x5c>  // b.none
/home/jeferson/optee/optee_os-rpi4/lib/libutee/tee_api.c:192
    1854:	29005a62 	stp	w2, w22, [x19]
/home/jeferson/optee/optee_os-rpi4/lib/libutee/tee_api.c:193
    1858:	14000004 	b	1868 <update_out_param+0x5c>
/home/jeferson/optee/optee_os-rpi4/lib/libutee/tee_api.c:188
    185c:	51001820 	sub	w0, w1, #0x6
    1860:	7100041f 	cmp	w0, #0x1
    1864:	54000169 	b.ls	1890 <update_out_param+0x84>  // b.plast
/home/jeferson/optee/optee_os-rpi4/lib/libutee/tee_api.c:184 (discriminator 2)
    1868:	910006b5 	add	x21, x21, #0x1
    186c:	91004294 	add	x20, x20, #0x10
    1870:	91004273 	add	x19, x19, #0x10
    1874:	f10012bf 	cmp	x21, #0x4
    1878:	54fffde1 	b.ne	1834 <update_out_param+0x28>  // b.any
/home/jeferson/optee/optee_os-rpi4/lib/libutee/tee_api.c:205
    187c:	a94153f3 	ldp	x19, x20, [sp, #16]
    1880:	a9425bf5 	ldp	x21, x22, [sp, #32]
    1884:	a94363f7 	ldp	x23, x24, [sp, #48]
    1888:	a8c47bfd 	ldp	x29, x30, [sp], #64
    188c:	d65f03c0 	ret
/home/jeferson/optee/optee_os-rpi4/lib/libutee/tee_api.c:196
    1890:	f8757b01 	ldr	x1, [x24, x21, lsl #3]
    1894:	b40000a1 	cbz	x1, 18a8 <update_out_param+0x9c>
/home/jeferson/optee/optee_os-rpi4/lib/libutee/tee_api.c:198
    1898:	a9400a60 	ldp	x0, x2, [x19]
    189c:	eb16005f 	cmp	x2, x22
/home/jeferson/optee/optee_os-rpi4/lib/libutee/tee_api.c:197
    18a0:	9a969042 	csel	x2, x2, x22, ls  // ls = plast
    18a4:	97fff9df 	bl	20 <memcpy>
/home/jeferson/optee/optee_os-rpi4/lib/libutee/tee_api.c:199
    18a8:	f9000676 	str	x22, [x19, #8]
/home/jeferson/optee/optee_os-rpi4/lib/libutee/tee_api.c:200
    18ac:	17ffffef 	b	1868 <update_out_param+0x5c>

00000000000018b0 <update_out_gp11_param>:
update_out_gp11_param():
/home/jeferson/optee/optee_os-rpi4/lib/libutee/tee_api.c:210
    18b0:	a9bc7bfd 	stp	x29, x30, [sp, #-64]!
    18b4:	910003fd 	mov	x29, sp
    18b8:	a90153f3 	stp	x19, x20, [sp, #16]
/home/jeferson/optee/optee_os-rpi4/lib/libutee/tee_api.c:212
    18bc:	aa0203f4 	mov	x20, x2
    18c0:	aa0003f3 	mov	x19, x0
/home/jeferson/optee/optee_os-rpi4/lib/libutee/tee_api.c:210
    18c4:	a90363f7 	stp	x23, x24, [sp, #48]
    18c8:	aa0103f8 	mov	x24, x1
/home/jeferson/optee/optee_os-rpi4/lib/libutee/tee_api.c:212
    18cc:	f8408697 	ldr	x23, [x20], #8
/home/jeferson/optee/optee_os-rpi4/lib/libutee/tee_api.c:210
    18d0:	a9025bf5 	stp	x21, x22, [sp, #32]
/home/jeferson/optee/optee_os-rpi4/lib/libutee/tee_api.c:214
    18d4:	d2800015 	mov	x21, #0x0                   	// #0
/home/jeferson/optee/optee_os-rpi4/lib/libutee/tee_api.c:218
    18d8:	531e76a0 	lsl	w0, w21, #2
/home/jeferson/optee/optee_os-rpi4/lib/libutee/tee_api.c:216
    18dc:	a9405a82 	ldp	x2, x22, [x20]
/home/jeferson/optee/optee_os-rpi4/lib/libutee/tee_api.c:218
    18e0:	1ac026e0 	lsr	w0, w23, w0
    18e4:	12000c01 	and	w1, w0, #0xf
    18e8:	721e041f 	tst	w0, #0xc
    18ec:	540000a1 	b.ne	1900 <update_out_gp11_param+0x50>  // b.any
    18f0:	721f081f 	tst	w0, #0xe
    18f4:	540000c0 	b.eq	190c <update_out_gp11_param+0x5c>  // b.none
/home/jeferson/optee/optee_os-rpi4/lib/libutee/tee_api.c:222
    18f8:	29005a62 	stp	w2, w22, [x19]
/home/jeferson/optee/optee_os-rpi4/lib/libutee/tee_api.c:223
    18fc:	14000004 	b	190c <update_out_gp11_param+0x5c>
/home/jeferson/optee/optee_os-rpi4/lib/libutee/tee_api.c:218
    1900:	51001820 	sub	w0, w1, #0x6
    1904:	7100041f 	cmp	w0, #0x1
    1908:	54000169 	b.ls	1934 <update_out_gp11_param+0x84>  // b.plast
/home/jeferson/optee/optee_os-rpi4/lib/libutee/tee_api.c:214 (discriminator 2)
    190c:	910006b5 	add	x21, x21, #0x1
    1910:	91004294 	add	x20, x20, #0x10
    1914:	91004273 	add	x19, x19, #0x10
    1918:	f10012bf 	cmp	x21, #0x4
    191c:	54fffde1 	b.ne	18d8 <update_out_gp11_param+0x28>  // b.any
/home/jeferson/optee/optee_os-rpi4/lib/libutee/tee_api.c:235
    1920:	a94153f3 	ldp	x19, x20, [sp, #16]
    1924:	a9425bf5 	ldp	x21, x22, [sp, #32]
    1928:	a94363f7 	ldp	x23, x24, [sp, #48]
    192c:	a8c47bfd 	ldp	x29, x30, [sp], #64
    1930:	d65f03c0 	ret
/home/jeferson/optee/optee_os-rpi4/lib/libutee/tee_api.c:226
    1934:	f8757b01 	ldr	x1, [x24, x21, lsl #3]
    1938:	b40000c1 	cbz	x1, 1950 <update_out_gp11_param+0xa0>
/home/jeferson/optee/optee_os-rpi4/lib/libutee/tee_api.c:228
    193c:	b9400a62 	ldr	w2, [x19, #8]
/home/jeferson/optee/optee_os-rpi4/lib/libutee/tee_api.c:227
    1940:	f9400260 	ldr	x0, [x19]
/home/jeferson/optee/optee_os-rpi4/lib/libutee/tee_api.c:228
    1944:	eb16005f 	cmp	x2, x22
/home/jeferson/optee/optee_os-rpi4/lib/libutee/tee_api.c:227
    1948:	9a969042 	csel	x2, x2, x22, ls  // ls = plast
    194c:	97fff9b5 	bl	20 <memcpy>
/home/jeferson/optee/optee_os-rpi4/lib/libutee/tee_api.c:229
    1950:	b9000a76 	str	w22, [x19, #8]
/home/jeferson/optee/optee_os-rpi4/lib/libutee/tee_api.c:230
    1954:	17ffffee 	b	190c <update_out_gp11_param+0x5c>

0000000000001958 <TEE_CloseTASession>:
TEE_CloseTASession():
/home/jeferson/optee/optee_os-rpi4/lib/libutee/tee_api.c:415
    1958:	b4000120 	cbz	x0, 197c <TEE_CloseTASession+0x24>
/home/jeferson/optee/optee_os-rpi4/lib/libutee/tee_api.c:414
    195c:	a9bf7bfd 	stp	x29, x30, [sp, #-16]!
    1960:	910003fd 	mov	x29, sp
/home/jeferson/optee/optee_os-rpi4/lib/libutee/tee_api.c:416
    1964:	940015b8 	bl	7044 <_utee_close_ta_session>
/home/jeferson/optee/optee_os-rpi4/lib/libutee/tee_api.c:418
    1968:	34000060 	cbz	w0, 1974 <TEE_CloseTASession+0x1c>
/home/jeferson/optee/optee_os-rpi4/lib/libutee/tee_api.c:421
    196c:	a8c17bfd 	ldp	x29, x30, [sp], #16
/home/jeferson/optee/optee_os-rpi4/lib/libutee/tee_api.c:419
    1970:	14001479 	b	6b54 <TEE_Panic>
/home/jeferson/optee/optee_os-rpi4/lib/libutee/tee_api.c:421
    1974:	a8c17bfd 	ldp	x29, x30, [sp], #16
    1978:	d65f03c0 	ret
    197c:	d65f03c0 	ret

0000000000001980 <TEE_GetCancellationFlag>:
TEE_GetCancellationFlag():
/home/jeferson/optee/optee_os-rpi4/lib/libutee/tee_api.c:530
    1980:	a9be7bfd 	stp	x29, x30, [sp, #-32]!
    1984:	f00000a1 	adrp	x1, 18000 <_DYNAMIC>
    1988:	910003fd 	mov	x29, sp
    198c:	f9409821 	ldr	x1, [x1, #304]
    1990:	f9400020 	ldr	x0, [x1]
    1994:	f9000fe0 	str	x0, [sp, #24]
    1998:	d2800000 	mov	x0, #0x0                   	// #0
/home/jeferson/optee/optee_os-rpi4/lib/libutee/tee_api.c:532
    199c:	910053e0 	add	x0, sp, #0x14
    19a0:	940015af 	bl	705c <_utee_get_cancellation_flag>
/home/jeferson/optee/optee_os-rpi4/lib/libutee/tee_api.c:534
    19a4:	34000040 	cbz	w0, 19ac <TEE_GetCancellationFlag+0x2c>
/home/jeferson/optee/optee_os-rpi4/lib/libutee/tee_api.c:535
    19a8:	b90017ff 	str	wzr, [sp, #20]
/home/jeferson/optee/optee_os-rpi4/lib/libutee/tee_api.c:537
    19ac:	f00000a1 	adrp	x1, 18000 <_DYNAMIC>
/home/jeferson/optee/optee_os-rpi4/lib/libutee/tee_api.c:536
    19b0:	b94017e0 	ldr	w0, [sp, #20]
/home/jeferson/optee/optee_os-rpi4/lib/libutee/tee_api.c:537
    19b4:	f9409821 	ldr	x1, [x1, #304]
/home/jeferson/optee/optee_os-rpi4/lib/libutee/tee_api.c:536
    19b8:	7100001f 	cmp	w0, #0x0
    19bc:	1a9f07e0 	cset	w0, ne  // ne = any
/home/jeferson/optee/optee_os-rpi4/lib/libutee/tee_api.c:537
    19c0:	f9400fe3 	ldr	x3, [sp, #24]
    19c4:	f9400022 	ldr	x2, [x1]
    19c8:	eb020063 	subs	x3, x3, x2
    19cc:	d2800002 	mov	x2, #0x0                   	// #0
    19d0:	54000040 	b.eq	19d8 <TEE_GetCancellationFlag+0x58>  // b.none
    19d4:	97fffae1 	bl	558 <__stack_chk_fail>
    19d8:	a8c27bfd 	ldp	x29, x30, [sp], #32
    19dc:	d65f03c0 	ret

00000000000019e0 <TEE_UnmaskCancellation>:
TEE_UnmaskCancellation():
/home/jeferson/optee/optee_os-rpi4/lib/libutee/tee_api.c:540
    19e0:	a9be7bfd 	stp	x29, x30, [sp, #-32]!
    19e4:	f00000a1 	adrp	x1, 18000 <_DYNAMIC>
    19e8:	910003fd 	mov	x29, sp
    19ec:	f9409821 	ldr	x1, [x1, #304]
    19f0:	f9400020 	ldr	x0, [x1]
    19f4:	f9000fe0 	str	x0, [sp, #24]
    19f8:	d2800000 	mov	x0, #0x0                   	// #0
/home/jeferson/optee/optee_os-rpi4/lib/libutee/tee_api.c:542
    19fc:	910053e0 	add	x0, sp, #0x14
    1a00:	9400159d 	bl	7074 <_utee_unmask_cancellation>
/home/jeferson/optee/optee_os-rpi4/lib/libutee/tee_api.c:544
    1a04:	34000040 	cbz	w0, 1a0c <TEE_UnmaskCancellation+0x2c>
/home/jeferson/optee/optee_os-rpi4/lib/libutee/tee_api.c:545
    1a08:	94001453 	bl	6b54 <TEE_Panic>
/home/jeferson/optee/optee_os-rpi4/lib/libutee/tee_api.c:547
    1a0c:	f00000a1 	adrp	x1, 18000 <_DYNAMIC>
/home/jeferson/optee/optee_os-rpi4/lib/libutee/tee_api.c:546
    1a10:	b94017e0 	ldr	w0, [sp, #20]
/home/jeferson/optee/optee_os-rpi4/lib/libutee/tee_api.c:547
    1a14:	f9409821 	ldr	x1, [x1, #304]
/home/jeferson/optee/optee_os-rpi4/lib/libutee/tee_api.c:546
    1a18:	7100001f 	cmp	w0, #0x0
    1a1c:	1a9f07e0 	cset	w0, ne  // ne = any
/home/jeferson/optee/optee_os-rpi4/lib/libutee/tee_api.c:547
    1a20:	f9400fe3 	ldr	x3, [sp, #24]
    1a24:	f9400022 	ldr	x2, [x1]
    1a28:	eb020063 	subs	x3, x3, x2
    1a2c:	d2800002 	mov	x2, #0x0                   	// #0
    1a30:	54000040 	b.eq	1a38 <TEE_UnmaskCancellation+0x58>  // b.none
    1a34:	97fffac9 	bl	558 <__stack_chk_fail>
    1a38:	a8c27bfd 	ldp	x29, x30, [sp], #32
    1a3c:	d65f03c0 	ret

0000000000001a40 <TEE_MaskCancellation>:
TEE_MaskCancellation():
/home/jeferson/optee/optee_os-rpi4/lib/libutee/tee_api.c:550
    1a40:	a9be7bfd 	stp	x29, x30, [sp, #-32]!
    1a44:	f00000a1 	adrp	x1, 18000 <_DYNAMIC>
    1a48:	910003fd 	mov	x29, sp
    1a4c:	f9409821 	ldr	x1, [x1, #304]
    1a50:	f9400020 	ldr	x0, [x1]
    1a54:	f9000fe0 	str	x0, [sp, #24]
    1a58:	d2800000 	mov	x0, #0x0                   	// #0
/home/jeferson/optee/optee_os-rpi4/lib/libutee/tee_api.c:552
    1a5c:	910053e0 	add	x0, sp, #0x14
    1a60:	94001588 	bl	7080 <_utee_mask_cancellation>
/home/jeferson/optee/optee_os-rpi4/lib/libutee/tee_api.c:554
    1a64:	34000040 	cbz	w0, 1a6c <TEE_MaskCancellation+0x2c>
/home/jeferson/optee/optee_os-rpi4/lib/libutee/tee_api.c:555
    1a68:	9400143b 	bl	6b54 <TEE_Panic>
/home/jeferson/optee/optee_os-rpi4/lib/libutee/tee_api.c:557
    1a6c:	f00000a1 	adrp	x1, 18000 <_DYNAMIC>
/home/jeferson/optee/optee_os-rpi4/lib/libutee/tee_api.c:556
    1a70:	b94017e0 	ldr	w0, [sp, #20]
/home/jeferson/optee/optee_os-rpi4/lib/libutee/tee_api.c:557
    1a74:	f9409821 	ldr	x1, [x1, #304]
/home/jeferson/optee/optee_os-rpi4/lib/libutee/tee_api.c:556
    1a78:	7100001f 	cmp	w0, #0x0
    1a7c:	1a9f07e0 	cset	w0, ne  // ne = any
/home/jeferson/optee/optee_os-rpi4/lib/libutee/tee_api.c:557
    1a80:	f9400fe3 	ldr	x3, [sp, #24]
    1a84:	f9400022 	ldr	x2, [x1]
    1a88:	eb020063 	subs	x3, x3, x2
    1a8c:	d2800002 	mov	x2, #0x0                   	// #0
    1a90:	54000040 	b.eq	1a98 <TEE_MaskCancellation+0x58>  // b.none
    1a94:	97fffab1 	bl	558 <__stack_chk_fail>
    1a98:	a8c27bfd 	ldp	x29, x30, [sp], #32
    1a9c:	d65f03c0 	ret

0000000000001aa0 <TEE_CheckMemoryAccessRights>:
TEE_CheckMemoryAccessRights():
/home/jeferson/optee/optee_os-rpi4/lib/libutee/tee_api.c:566
    1aa0:	b5000102 	cbnz	x2, 1ac0 <TEE_CheckMemoryAccessRights+0x20>
/home/jeferson/optee/optee_os-rpi4/lib/libutee/tee_api.c:567
    1aa4:	52800000 	mov	w0, #0x0                   	// #0
/home/jeferson/optee/optee_os-rpi4/lib/libutee/tee_api.c:592
    1aa8:	d65f03c0 	ret
/home/jeferson/optee/optee_os-rpi4/lib/libutee/tee_api.c:567
    1aac:	52800000 	mov	w0, #0x0                   	// #0
/home/jeferson/optee/optee_os-rpi4/lib/libutee/tee_api.c:592
    1ab0:	a94153f3 	ldp	x19, x20, [sp, #16]
    1ab4:	f94013f5 	ldr	x21, [sp, #32]
    1ab8:	a8c37bfd 	ldp	x29, x30, [sp], #48
    1abc:	d65f03c0 	ret
/home/jeferson/optee/optee_os-rpi4/lib/libutee/tee_api.c:563
    1ac0:	a9bd7bfd 	stp	x29, x30, [sp, #-48]!
    1ac4:	910003fd 	mov	x29, sp
    1ac8:	a90153f3 	stp	x19, x20, [sp, #16]
    1acc:	aa0103f4 	mov	x20, x1
    1ad0:	aa0203f3 	mov	x19, x2
    1ad4:	f90013f5 	str	x21, [sp, #32]
    1ad8:	2a0003f5 	mov	w21, w0
/home/jeferson/optee/optee_os-rpi4/lib/libutee/tee_api.c:573
    1adc:	94001563 	bl	7068 <_utee_check_access_rights>
    1ae0:	35000200 	cbnz	w0, 1b20 <TEE_CheckMemoryAccessRights+0x80>
/home/jeferson/optee/optee_os-rpi4/lib/libutee/tee_api.c:584
    1ae4:	aa1303e2 	mov	x2, x19
    1ae8:	aa1403e1 	mov	x1, x20
    1aec:	12000aa0 	and	w0, w21, #0x7
    1af0:	97fffee6 	bl	1688 <check_mem_access_rights_params>
    1af4:	35000160 	cbnz	w0, 1b20 <TEE_CheckMemoryAccessRights+0x80>
/home/jeferson/optee/optee_os-rpi4/lib/libutee/tee_api.c:587
    1af8:	aa1303e1 	mov	x1, x19
    1afc:	aa1403e0 	mov	x0, x20
    1b00:	940042a3 	bl	1258c <malloc_buffer_overlaps_heap>
    1b04:	72001c1f 	tst	w0, #0xff
    1b08:	54fffd20 	b.eq	1aac <TEE_CheckMemoryAccessRights+0xc>  // b.none
/home/jeferson/optee/optee_os-rpi4/lib/libutee/tee_api.c:588
    1b0c:	aa1303e1 	mov	x1, x19
    1b10:	aa1403e0 	mov	x0, x20
    1b14:	94004299 	bl	12578 <malloc_buffer_is_within_alloced>
/home/jeferson/optee/optee_os-rpi4/lib/libutee/tee_api.c:587
    1b18:	72001c1f 	tst	w0, #0xff
    1b1c:	54fffc81 	b.ne	1aac <TEE_CheckMemoryAccessRights+0xc>  // b.any
/home/jeferson/optee/optee_os-rpi4/lib/libutee/tee_api.c:589
    1b20:	129fffc0 	mov	w0, #0xffff0001            	// #-65535
    1b24:	17ffffe3 	b	1ab0 <TEE_CheckMemoryAccessRights+0x10>

0000000000001b28 <map_tmp_param>:
map_tmp_param():
/home/jeferson/optee/optee_os-rpi4/lib/libutee/tee_api.c:98
    1b28:	a9b87bfd 	stp	x29, x30, [sp, #-128]!
    1b2c:	f00000a4 	adrp	x4, 18000 <_DYNAMIC>
    1b30:	910003fd 	mov	x29, sp
    1b34:	f9409884 	ldr	x4, [x4, #304]
    1b38:	a90153f3 	stp	x19, x20, [sp, #16]
/home/jeferson/optee/optee_os-rpi4/lib/libutee/tee_api.c:116
    1b3c:	d2800013 	mov	x19, #0x0                   	// #0
/home/jeferson/optee/optee_os-rpi4/lib/libutee/tee_api.c:98
    1b40:	a9025bf5 	stp	x21, x22, [sp, #32]
    1b44:	aa0203f6 	mov	x22, x2
    1b48:	aa0303f5 	mov	x21, x3
    1b4c:	a90363f7 	stp	x23, x24, [sp, #48]
    1b50:	aa0103f7 	mov	x23, x1
/home/jeferson/optee/optee_os-rpi4/lib/libutee/tee_api.c:135
    1b54:	52800023 	mov	w3, #0x1                   	// #1
/home/jeferson/optee/optee_os-rpi4/lib/libutee/tee_api.c:98
    1b58:	a9046bf9 	stp	x25, x26, [sp, #64]
    1b5c:	aa0003f9 	mov	x25, x0
    1b60:	91002338 	add	x24, x25, #0x8
    1b64:	a90573fb 	stp	x27, x28, [sp, #80]
/home/jeferson/optee/optee_os-rpi4/lib/libutee/tee_api.c:115
    1b68:	aa1803fb 	mov	x27, x24
/home/jeferson/optee/optee_os-rpi4/lib/libutee/tee_api.c:135
    1b6c:	9101c3fc 	add	x28, sp, #0x70
/home/jeferson/optee/optee_os-rpi4/lib/libutee/tee_api.c:98
    1b70:	f9400080 	ldr	x0, [x4]
    1b74:	f9003fe0 	str	x0, [sp, #120]
    1b78:	d2800000 	mov	x0, #0x0                   	// #0
/home/jeferson/optee/optee_os-rpi4/lib/libutee/tee_api.c:114
    1b7c:	f900003f 	str	xzr, [x1]
/home/jeferson/optee/optee_os-rpi4/lib/libutee/tee_api.c:101
    1b80:	d280001a 	mov	x26, #0x0                   	// #0
/home/jeferson/optee/optee_os-rpi4/lib/libutee/tee_api.c:115
    1b84:	f900005f 	str	xzr, [x2]
/home/jeferson/optee/optee_os-rpi4/lib/libutee/tee_api.c:103
    1b88:	b90073ff 	str	wzr, [sp, #112]
/home/jeferson/optee/optee_os-rpi4/lib/libutee/tee_api.c:118
    1b8c:	f9400321 	ldr	x1, [x25]
    1b90:	531e7660 	lsl	w0, w19, #2
/home/jeferson/optee/optee_os-rpi4/lib/libutee/tee_api.c:117
    1b94:	f8337abf 	str	xzr, [x21, x19, lsl #3]
/home/jeferson/optee/optee_os-rpi4/lib/libutee/tee_api.c:118
    1b98:	1ac02421 	lsr	w1, w1, w0
    1b9c:	12000c21 	and	w1, w1, #0xf
    1ba0:	51001421 	sub	w1, w1, #0x5
    1ba4:	7100083f 	cmp	w1, #0x2
    1ba8:	540001e8 	b.hi	1be4 <map_tmp_param+0xbc>  // b.pmore
/home/jeferson/optee/optee_os-rpi4/lib/libutee/tee_api.c:123
    1bac:	a9405361 	ldp	x1, x20, [x27]
/home/jeferson/optee/optee_os-rpi4/lib/libutee/tee_api.c:133
    1bb0:	f100003f 	cmp	x1, #0x0
    1bb4:	fa401a84 	ccmp	x20, #0x0, #0x4, ne  // ne = any
    1bb8:	54000160 	b.eq	1be4 <map_tmp_param+0xbc>  // b.none
/home/jeferson/optee/optee_os-rpi4/lib/libutee/tee_api.c:134 (discriminator 1)
    1bbc:	aa1403e2 	mov	x2, x20
    1bc0:	52800020 	mov	w0, #0x1                   	// #1
    1bc4:	b9006fe3 	str	w3, [sp, #108]
    1bc8:	97ffffb6 	bl	1aa0 <TEE_CheckMemoryAccessRights>
/home/jeferson/optee/optee_os-rpi4/lib/libutee/tee_api.c:133 (discriminator 1)
    1bcc:	b9406fe3 	ldr	w3, [sp, #108]
    1bd0:	350000a0 	cbnz	w0, 1be4 <map_tmp_param+0xbc>
/home/jeferson/optee/optee_os-rpi4/lib/libutee/tee_api.c:136
    1bd4:	91003e94 	add	x20, x20, #0xf
/home/jeferson/optee/optee_os-rpi4/lib/libutee/tee_api.c:135
    1bd8:	383c6a63 	strb	w3, [x19, x28]
/home/jeferson/optee/optee_os-rpi4/lib/libutee/tee_api.c:136
    1bdc:	927cee94 	and	x20, x20, #0xfffffffffffffff0
    1be0:	8b14035a 	add	x26, x26, x20
/home/jeferson/optee/optee_os-rpi4/lib/libutee/tee_api.c:116 (discriminator 2)
    1be4:	91000673 	add	x19, x19, #0x1
    1be8:	9100437b 	add	x27, x27, #0x10
    1bec:	f100127f 	cmp	x19, #0x4
    1bf0:	54fffce1 	b.ne	1b8c <map_tmp_param+0x64>  // b.any
/home/jeferson/optee/optee_os-rpi4/lib/libutee/tee_api.c:144
    1bf4:	b400053a 	cbz	x26, 1c98 <map_tmp_param+0x170>
/home/jeferson/optee/optee_os-rpi4/lib/libutee/tee_api.c:145
    1bf8:	2a1303e1 	mov	w1, w19
    1bfc:	aa1a03e0 	mov	x0, x26
    1c00:	9400146e 	bl	6db8 <tee_map_zi>
/home/jeferson/optee/optee_os-rpi4/lib/libutee/tee_api.c:146
    1c04:	b40004e0 	cbz	x0, 1ca0 <map_tmp_param+0x178>
/home/jeferson/optee/optee_os-rpi4/lib/libutee/tee_api.c:148
    1c08:	f90002e0 	str	x0, [x23]
/home/jeferson/optee/optee_os-rpi4/lib/libutee/tee_api.c:149
    1c0c:	f90002da 	str	x26, [x22]
/home/jeferson/optee/optee_os-rpi4/lib/libutee/tee_api.c:157
    1c10:	9101c3f6 	add	x22, sp, #0x70
/home/jeferson/optee/optee_os-rpi4/lib/libutee/tee_api.c:100
    1c14:	d2800013 	mov	x19, #0x0                   	// #0
/home/jeferson/optee/optee_os-rpi4/lib/libutee/tee_api.c:153
    1c18:	f9400323 	ldr	x3, [x25]
    1c1c:	531e7661 	lsl	w1, w19, #2
    1c20:	1ac12463 	lsr	w3, w3, w1
    1c24:	12000c63 	and	w3, w3, #0xf
    1c28:	51001461 	sub	w1, w3, #0x5
    1c2c:	7100083f 	cmp	w1, #0x2
    1c30:	540001a8 	b.hi	1c64 <map_tmp_param+0x13c>  // b.pmore
/home/jeferson/optee/optee_os-rpi4/lib/libutee/tee_api.c:157
    1c34:	38766a61 	ldrb	w1, [x19, x22]
    1c38:	34000161 	cbz	w1, 1c64 <map_tmp_param+0x13c>
/home/jeferson/optee/optee_os-rpi4/lib/libutee/tee_api.c:159
    1c3c:	a9400b01 	ldp	x1, x2, [x24]
/home/jeferson/optee/optee_os-rpi4/lib/libutee/tee_api.c:161
    1c40:	f8337aa0 	str	x0, [x21, x19, lsl #3]
/home/jeferson/optee/optee_os-rpi4/lib/libutee/tee_api.c:163
    1c44:	f9000300 	str	x0, [x24]
/home/jeferson/optee/optee_os-rpi4/lib/libutee/tee_api.c:162
    1c48:	91003c54 	add	x20, x2, #0xf
    1c4c:	927cee94 	and	x20, x20, #0xfffffffffffffff0
    1c50:	8b140014 	add	x20, x0, x20
/home/jeferson/optee/optee_os-rpi4/lib/libutee/tee_api.c:164
    1c54:	7100187f 	cmp	w3, #0x6
    1c58:	54000040 	b.eq	1c60 <map_tmp_param+0x138>  // b.none
/home/jeferson/optee/optee_os-rpi4/lib/libutee/tee_api.c:166
    1c5c:	97fff8f1 	bl	20 <memcpy>
/home/jeferson/optee/optee_os-rpi4/lib/libutee/tee_api.c:162
    1c60:	aa1403e0 	mov	x0, x20
/home/jeferson/optee/optee_os-rpi4/lib/libutee/tee_api.c:152 (discriminator 2)
    1c64:	91000673 	add	x19, x19, #0x1
    1c68:	91004318 	add	x24, x24, #0x10
    1c6c:	f100127f 	cmp	x19, #0x4
    1c70:	54fffd41 	b.ne	1c18 <map_tmp_param+0xf0>  // b.any
/home/jeferson/optee/optee_os-rpi4/lib/libutee/tee_api.c:173
    1c74:	52800000 	mov	w0, #0x0                   	// #0
/home/jeferson/optee/optee_os-rpi4/lib/libutee/tee_api.c:175
    1c78:	f00000a4 	adrp	x4, 18000 <_DYNAMIC>
    1c7c:	f9409884 	ldr	x4, [x4, #304]
    1c80:	f9403fe1 	ldr	x1, [sp, #120]
    1c84:	f9400082 	ldr	x2, [x4]
    1c88:	eb020021 	subs	x1, x1, x2
    1c8c:	d2800002 	mov	x2, #0x0                   	// #0
    1c90:	540000c0 	b.eq	1ca8 <map_tmp_param+0x180>  // b.none
    1c94:	97fffa31 	bl	558 <__stack_chk_fail>
/home/jeferson/optee/optee_os-rpi4/lib/libutee/tee_api.c:100
    1c98:	d2800000 	mov	x0, #0x0                   	// #0
    1c9c:	17ffffdd 	b	1c10 <map_tmp_param+0xe8>
/home/jeferson/optee/optee_os-rpi4/lib/libutee/tee_api.c:147
    1ca0:	129ffe60 	mov	w0, #0xffff000c            	// #-65524
    1ca4:	17fffff5 	b	1c78 <map_tmp_param+0x150>
/home/jeferson/optee/optee_os-rpi4/lib/libutee/tee_api.c:175
    1ca8:	a94153f3 	ldp	x19, x20, [sp, #16]
    1cac:	a9425bf5 	ldp	x21, x22, [sp, #32]
    1cb0:	a94363f7 	ldp	x23, x24, [sp, #48]
    1cb4:	a9446bf9 	ldp	x25, x26, [sp, #64]
    1cb8:	a94573fb 	ldp	x27, x28, [sp, #80]
    1cbc:	a8c87bfd 	ldp	x29, x30, [sp], #128
    1cc0:	d65f03c0 	ret

0000000000001cc4 <TEE_OpenTASession>:
TEE_OpenTASession():
/home/jeferson/optee/optee_os-rpi4/lib/libutee/tee_api.c:323
    1cc4:	a9b27bfd 	stp	x29, x30, [sp, #-224]!
    1cc8:	f00000a6 	adrp	x6, 18000 <_DYNAMIC>
    1ccc:	910003fd 	mov	x29, sp
    1cd0:	f94098c6 	ldr	x6, [x6, #304]
    1cd4:	a90153f3 	stp	x19, x20, [sp, #16]
    1cd8:	2a0203f3 	mov	w19, w2
    1cdc:	a9025bf5 	stp	x21, x22, [sp, #32]
    1ce0:	aa0303f4 	mov	x20, x3
    1ce4:	aa0403f5 	mov	x21, x4
    1ce8:	a90363f7 	stp	x23, x24, [sp, #48]
    1cec:	aa0003f7 	mov	x23, x0
    1cf0:	2a0103f8 	mov	w24, w1
    1cf4:	a9046bf9 	stp	x25, x26, [sp, #64]
    1cf8:	aa0503f9 	mov	x25, x5
    1cfc:	f94000c0 	ldr	x0, [x6]
    1d00:	f9006fe0 	str	x0, [sp, #216]
    1d04:	d2800000 	mov	x0, #0x0                   	// #0
/home/jeferson/optee/optee_os-rpi4/lib/libutee/tee_api.c:326
    1d08:	b9005fff 	str	wzr, [sp, #92]
/home/jeferson/optee/optee_os-rpi4/lib/libutee/tee_api.c:328
    1d0c:	a9067fff 	stp	xzr, xzr, [sp, #96]
/home/jeferson/optee/optee_os-rpi4/lib/libutee/tee_api.c:329
    1d10:	a9077fff 	stp	xzr, xzr, [sp, #112]
    1d14:	a9087fff 	stp	xzr, xzr, [sp, #128]
/home/jeferson/optee/optee_os-rpi4/lib/libutee/tee_api.c:325
    1d18:	a9097fff 	stp	xzr, xzr, [sp, #144]
    1d1c:	a90a7fff 	stp	xzr, xzr, [sp, #160]
    1d20:	a90b7fff 	stp	xzr, xzr, [sp, #176]
    1d24:	a90c7fff 	stp	xzr, xzr, [sp, #192]
    1d28:	f9006bff 	str	xzr, [sp, #208]
/home/jeferson/optee/optee_os-rpi4/lib/libutee/tee_api.c:331
    1d2c:	340000e2 	cbz	w2, 1d48 <TEE_OpenTASession+0x84>
/home/jeferson/optee/optee_os-rpi4/lib/libutee/tee_api.c:332
    1d30:	aa0303e0 	mov	x0, x3
    1d34:	d2800801 	mov	x1, #0x40                  	// #64
    1d38:	940013f7 	bl	6d14 <__utee_check_inout_annotation>
/home/jeferson/optee/optee_os-rpi4/lib/libutee/tee_api.c:335
    1d3c:	aa1403e1 	mov	x1, x20
    1d40:	2a1303e0 	mov	w0, w19
    1d44:	97fffe88 	bl	1764 <check_invoke_param>
/home/jeferson/optee/optee_os-rpi4/lib/libutee/tee_api.c:337
    1d48:	aa1503e0 	mov	x0, x21
/home/jeferson/optee/optee_os-rpi4/lib/libutee/tee_api.c:339
    1d4c:	910243f6 	add	x22, sp, #0x90
/home/jeferson/optee/optee_os-rpi4/lib/libutee/tee_api.c:337
    1d50:	d2800101 	mov	x1, #0x8                   	// #8
    1d54:	940013de 	bl	6ccc <__utee_check_out_annotation>
/home/jeferson/optee/optee_os-rpi4/lib/libutee/tee_api.c:339
    1d58:	2a1303e1 	mov	w1, w19
    1d5c:	aa1403e2 	mov	x2, x20
    1d60:	aa1603e0 	mov	x0, x22
/home/jeferson/optee/optee_os-rpi4/lib/libutee/tee_api.c:340
    1d64:	9101c3fa 	add	x26, sp, #0x70
/home/jeferson/optee/optee_os-rpi4/lib/libutee/tee_api.c:339
    1d68:	97fffe11 	bl	15ac <copy_param>
/home/jeferson/optee/optee_os-rpi4/lib/libutee/tee_api.c:340
    1d6c:	910183e1 	add	x1, sp, #0x60
    1d70:	aa1a03e3 	mov	x3, x26
    1d74:	9101a3e2 	add	x2, sp, #0x68
    1d78:	aa1603e0 	mov	x0, x22
    1d7c:	97ffff6b 	bl	1b28 <map_tmp_param>
    1d80:	2a0003f3 	mov	w19, w0
/home/jeferson/optee/optee_os-rpi4/lib/libutee/tee_api.c:341
    1d84:	35000260 	cbnz	w0, 1dd0 <TEE_OpenTASession+0x10c>
/home/jeferson/optee/optee_os-rpi4/lib/libutee/tee_api.c:343
    1d88:	aa1903e4 	mov	x4, x25
    1d8c:	910173e3 	add	x3, sp, #0x5c
    1d90:	aa1603e2 	mov	x2, x22
    1d94:	2a1803e1 	mov	w1, w24
    1d98:	aa1703e0 	mov	x0, x23
    1d9c:	940014a7 	bl	7038 <_utee_open_ta_session>
/home/jeferson/optee/optee_os-rpi4/lib/libutee/tee_api.c:345
    1da0:	aa1603e2 	mov	x2, x22
/home/jeferson/optee/optee_os-rpi4/lib/libutee/tee_api.c:343
    1da4:	2a0003f3 	mov	w19, w0
/home/jeferson/optee/optee_os-rpi4/lib/libutee/tee_api.c:345
    1da8:	aa1a03e1 	mov	x1, x26
    1dac:	aa1403e0 	mov	x0, x20
    1db0:	97fffe97 	bl	180c <update_out_param>
/home/jeferson/optee/optee_os-rpi4/lib/libutee/tee_api.c:346
    1db4:	f94033e0 	ldr	x0, [sp, #96]
    1db8:	b40000a0 	cbz	x0, 1dcc <TEE_OpenTASession+0x108>
/home/jeferson/optee/optee_os-rpi4/lib/libutee/tee_api.c:347
    1dbc:	f94037e1 	ldr	x1, [sp, #104]
    1dc0:	94001423 	bl	6e4c <tee_unmap>
/home/jeferson/optee/optee_os-rpi4/lib/libutee/tee_api.c:349
    1dc4:	34000040 	cbz	w0, 1dcc <TEE_OpenTASession+0x108>
/home/jeferson/optee/optee_os-rpi4/lib/libutee/tee_api.c:350
    1dc8:	94001363 	bl	6b54 <TEE_Panic>
/home/jeferson/optee/optee_os-rpi4/lib/libutee/tee_api.c:359
    1dcc:	34000053 	cbz	w19, 1dd4 <TEE_OpenTASession+0x110>
/home/jeferson/optee/optee_os-rpi4/lib/libutee/tee_api.c:360
    1dd0:	b9005fff 	str	wzr, [sp, #92]
/home/jeferson/optee/optee_os-rpi4/lib/libutee/tee_api.c:364
    1dd4:	f00000a6 	adrp	x6, 18000 <_DYNAMIC>
/home/jeferson/optee/optee_os-rpi4/lib/libutee/tee_api.c:362
    1dd8:	b9405fe0 	ldr	w0, [sp, #92]
    1ddc:	f90002a0 	str	x0, [x21]
/home/jeferson/optee/optee_os-rpi4/lib/libutee/tee_api.c:364
    1de0:	f94098c6 	ldr	x6, [x6, #304]
    1de4:	f9406fe0 	ldr	x0, [sp, #216]
    1de8:	f94000c1 	ldr	x1, [x6]
    1dec:	eb010000 	subs	x0, x0, x1
    1df0:	d2800001 	mov	x1, #0x0                   	// #0
    1df4:	54000040 	b.eq	1dfc <TEE_OpenTASession+0x138>  // b.none
    1df8:	97fff9d8 	bl	558 <__stack_chk_fail>
    1dfc:	2a1303e0 	mov	w0, w19
    1e00:	a94153f3 	ldp	x19, x20, [sp, #16]
    1e04:	a9425bf5 	ldp	x21, x22, [sp, #32]
    1e08:	a94363f7 	ldp	x23, x24, [sp, #48]
    1e0c:	a9446bf9 	ldp	x25, x26, [sp, #64]
    1e10:	a8ce7bfd 	ldp	x29, x30, [sp], #224
    1e14:	d65f03c0 	ret

0000000000001e18 <__GP11_TEE_OpenTASession>:
__GP11_TEE_OpenTASession():
/home/jeferson/optee/optee_os-rpi4/lib/libutee/tee_api.c:372
    1e18:	a9b27bfd 	stp	x29, x30, [sp, #-224]!
    1e1c:	f00000a6 	adrp	x6, 18000 <_DYNAMIC>
    1e20:	910003fd 	mov	x29, sp
    1e24:	f94098c6 	ldr	x6, [x6, #304]
    1e28:	a90153f3 	stp	x19, x20, [sp, #16]
    1e2c:	2a0203f3 	mov	w19, w2
    1e30:	a9025bf5 	stp	x21, x22, [sp, #32]
    1e34:	aa0303f4 	mov	x20, x3
    1e38:	aa0403f5 	mov	x21, x4
    1e3c:	a90363f7 	stp	x23, x24, [sp, #48]
    1e40:	aa0003f7 	mov	x23, x0
    1e44:	2a0103f8 	mov	w24, w1
    1e48:	a9046bf9 	stp	x25, x26, [sp, #64]
    1e4c:	aa0503f9 	mov	x25, x5
    1e50:	f94000c0 	ldr	x0, [x6]
    1e54:	f9006fe0 	str	x0, [sp, #216]
    1e58:	d2800000 	mov	x0, #0x0                   	// #0
/home/jeferson/optee/optee_os-rpi4/lib/libutee/tee_api.c:375
    1e5c:	b9005fff 	str	wzr, [sp, #92]
/home/jeferson/optee/optee_os-rpi4/lib/libutee/tee_api.c:377
    1e60:	a9067fff 	stp	xzr, xzr, [sp, #96]
/home/jeferson/optee/optee_os-rpi4/lib/libutee/tee_api.c:378
    1e64:	a9077fff 	stp	xzr, xzr, [sp, #112]
    1e68:	a9087fff 	stp	xzr, xzr, [sp, #128]
/home/jeferson/optee/optee_os-rpi4/lib/libutee/tee_api.c:374
    1e6c:	a9097fff 	stp	xzr, xzr, [sp, #144]
    1e70:	a90a7fff 	stp	xzr, xzr, [sp, #160]
    1e74:	a90b7fff 	stp	xzr, xzr, [sp, #176]
    1e78:	a90c7fff 	stp	xzr, xzr, [sp, #192]
    1e7c:	f9006bff 	str	xzr, [sp, #208]
/home/jeferson/optee/optee_os-rpi4/lib/libutee/tee_api.c:380
    1e80:	34000082 	cbz	w2, 1e90 <__GP11_TEE_OpenTASession+0x78>
/home/jeferson/optee/optee_os-rpi4/lib/libutee/tee_api.c:381
    1e84:	aa0303e0 	mov	x0, x3
    1e88:	d2800801 	mov	x1, #0x40                  	// #64
    1e8c:	940013a2 	bl	6d14 <__utee_check_inout_annotation>
/home/jeferson/optee/optee_os-rpi4/lib/libutee/tee_api.c:384
    1e90:	aa1503e0 	mov	x0, x21
/home/jeferson/optee/optee_os-rpi4/lib/libutee/tee_api.c:386
    1e94:	910243f6 	add	x22, sp, #0x90
/home/jeferson/optee/optee_os-rpi4/lib/libutee/tee_api.c:384
    1e98:	d2800101 	mov	x1, #0x8                   	// #8
    1e9c:	9400138c 	bl	6ccc <__utee_check_out_annotation>
/home/jeferson/optee/optee_os-rpi4/lib/libutee/tee_api.c:386
    1ea0:	2a1303e1 	mov	w1, w19
    1ea4:	aa1403e2 	mov	x2, x20
    1ea8:	aa1603e0 	mov	x0, x22
/home/jeferson/optee/optee_os-rpi4/lib/libutee/tee_api.c:387
    1eac:	9101c3fa 	add	x26, sp, #0x70
/home/jeferson/optee/optee_os-rpi4/lib/libutee/tee_api.c:386
    1eb0:	97fffdda 	bl	1618 <copy_gp11_param>
/home/jeferson/optee/optee_os-rpi4/lib/libutee/tee_api.c:387
    1eb4:	910183e1 	add	x1, sp, #0x60
    1eb8:	aa1a03e3 	mov	x3, x26
    1ebc:	9101a3e2 	add	x2, sp, #0x68
    1ec0:	aa1603e0 	mov	x0, x22
    1ec4:	97ffff19 	bl	1b28 <map_tmp_param>
    1ec8:	2a0003f3 	mov	w19, w0
/home/jeferson/optee/optee_os-rpi4/lib/libutee/tee_api.c:388
    1ecc:	35000260 	cbnz	w0, 1f18 <__GP11_TEE_OpenTASession+0x100>
/home/jeferson/optee/optee_os-rpi4/lib/libutee/tee_api.c:390
    1ed0:	aa1903e4 	mov	x4, x25
    1ed4:	910173e3 	add	x3, sp, #0x5c
    1ed8:	aa1603e2 	mov	x2, x22
    1edc:	2a1803e1 	mov	w1, w24
    1ee0:	aa1703e0 	mov	x0, x23
    1ee4:	94001455 	bl	7038 <_utee_open_ta_session>
/home/jeferson/optee/optee_os-rpi4/lib/libutee/tee_api.c:392
    1ee8:	aa1603e2 	mov	x2, x22
/home/jeferson/optee/optee_os-rpi4/lib/libutee/tee_api.c:390
    1eec:	2a0003f3 	mov	w19, w0
/home/jeferson/optee/optee_os-rpi4/lib/libutee/tee_api.c:392
    1ef0:	aa1a03e1 	mov	x1, x26
    1ef4:	aa1403e0 	mov	x0, x20
    1ef8:	97fffe6e 	bl	18b0 <update_out_gp11_param>
/home/jeferson/optee/optee_os-rpi4/lib/libutee/tee_api.c:393
    1efc:	f94033e0 	ldr	x0, [sp, #96]
    1f00:	b40000a0 	cbz	x0, 1f14 <__GP11_TEE_OpenTASession+0xfc>
/home/jeferson/optee/optee_os-rpi4/lib/libutee/tee_api.c:394
    1f04:	f94037e1 	ldr	x1, [sp, #104]
    1f08:	940013d1 	bl	6e4c <tee_unmap>
/home/jeferson/optee/optee_os-rpi4/lib/libutee/tee_api.c:396
    1f0c:	34000040 	cbz	w0, 1f14 <__GP11_TEE_OpenTASession+0xfc>
/home/jeferson/optee/optee_os-rpi4/lib/libutee/tee_api.c:397
    1f10:	94001311 	bl	6b54 <TEE_Panic>
/home/jeferson/optee/optee_os-rpi4/lib/libutee/tee_api.c:406
    1f14:	34000053 	cbz	w19, 1f1c <__GP11_TEE_OpenTASession+0x104>
/home/jeferson/optee/optee_os-rpi4/lib/libutee/tee_api.c:407
    1f18:	b9005fff 	str	wzr, [sp, #92]
/home/jeferson/optee/optee_os-rpi4/lib/libutee/tee_api.c:411
    1f1c:	f00000a6 	adrp	x6, 18000 <_DYNAMIC>
/home/jeferson/optee/optee_os-rpi4/lib/libutee/tee_api.c:409
    1f20:	b9405fe0 	ldr	w0, [sp, #92]
    1f24:	f90002a0 	str	x0, [x21]
/home/jeferson/optee/optee_os-rpi4/lib/libutee/tee_api.c:411
    1f28:	f94098c6 	ldr	x6, [x6, #304]
    1f2c:	f9406fe0 	ldr	x0, [sp, #216]
    1f30:	f94000c1 	ldr	x1, [x6]
    1f34:	eb010000 	subs	x0, x0, x1
    1f38:	d2800001 	mov	x1, #0x0                   	// #0
    1f3c:	54000040 	b.eq	1f44 <__GP11_TEE_OpenTASession+0x12c>  // b.none
    1f40:	97fff986 	bl	558 <__stack_chk_fail>
    1f44:	2a1303e0 	mov	w0, w19
    1f48:	a94153f3 	ldp	x19, x20, [sp, #16]
    1f4c:	a9425bf5 	ldp	x21, x22, [sp, #32]
    1f50:	a94363f7 	ldp	x23, x24, [sp, #48]
    1f54:	a9446bf9 	ldp	x25, x26, [sp, #64]
    1f58:	a8ce7bfd 	ldp	x29, x30, [sp], #224
    1f5c:	d65f03c0 	ret

0000000000001f60 <TEE_InvokeTACommand>:
TEE_InvokeTACommand():
/home/jeferson/optee/optee_os-rpi4/lib/libutee/tee_api.c:428
    1f60:	a9b27bfd 	stp	x29, x30, [sp, #-224]!
    1f64:	f00000a6 	adrp	x6, 18000 <_DYNAMIC>
    1f68:	910003fd 	mov	x29, sp
    1f6c:	f94098c6 	ldr	x6, [x6, #304]
    1f70:	a90153f3 	stp	x19, x20, [sp, #16]
    1f74:	2a0303f3 	mov	w19, w3
    1f78:	a9025bf5 	stp	x21, x22, [sp, #32]
    1f7c:	aa0003f6 	mov	x22, x0
    1f80:	aa0403f5 	mov	x21, x4
    1f84:	a90363f7 	stp	x23, x24, [sp, #48]
    1f88:	aa0503f4 	mov	x20, x5
    1f8c:	2a0103f7 	mov	w23, w1
    1f90:	a9046bf9 	stp	x25, x26, [sp, #64]
    1f94:	2a0203f8 	mov	w24, w2
    1f98:	f94000c0 	ldr	x0, [x6]
    1f9c:	f9006fe0 	str	x0, [sp, #216]
    1fa0:	d2800000 	mov	x0, #0x0                   	// #0
/home/jeferson/optee/optee_os-rpi4/lib/libutee/tee_api.c:433
    1fa4:	a9067fff 	stp	xzr, xzr, [sp, #96]
/home/jeferson/optee/optee_os-rpi4/lib/libutee/tee_api.c:430
    1fa8:	52800060 	mov	w0, #0x3                   	// #3
    1fac:	b9005fe0 	str	w0, [sp, #92]
/home/jeferson/optee/optee_os-rpi4/lib/libutee/tee_api.c:434
    1fb0:	a9077fff 	stp	xzr, xzr, [sp, #112]
    1fb4:	a9087fff 	stp	xzr, xzr, [sp, #128]
/home/jeferson/optee/optee_os-rpi4/lib/libutee/tee_api.c:431
    1fb8:	a9097fff 	stp	xzr, xzr, [sp, #144]
    1fbc:	a90a7fff 	stp	xzr, xzr, [sp, #160]
    1fc0:	a90b7fff 	stp	xzr, xzr, [sp, #176]
    1fc4:	a90c7fff 	stp	xzr, xzr, [sp, #192]
    1fc8:	f9006bff 	str	xzr, [sp, #208]
/home/jeferson/optee/optee_os-rpi4/lib/libutee/tee_api.c:436
    1fcc:	340000e3 	cbz	w3, 1fe8 <TEE_InvokeTACommand+0x88>
/home/jeferson/optee/optee_os-rpi4/lib/libutee/tee_api.c:437
    1fd0:	aa0403e0 	mov	x0, x4
    1fd4:	d2800801 	mov	x1, #0x40                  	// #64
    1fd8:	9400134f 	bl	6d14 <__utee_check_inout_annotation>
/home/jeferson/optee/optee_os-rpi4/lib/libutee/tee_api.c:440
    1fdc:	aa1503e1 	mov	x1, x21
    1fe0:	2a1303e0 	mov	w0, w19
    1fe4:	97fffde0 	bl	1764 <check_invoke_param>
/home/jeferson/optee/optee_os-rpi4/lib/libutee/tee_api.c:442
    1fe8:	b4000094 	cbz	x20, 1ff8 <TEE_InvokeTACommand+0x98>
/home/jeferson/optee/optee_os-rpi4/lib/libutee/tee_api.c:443
    1fec:	aa1403e0 	mov	x0, x20
    1ff0:	d2800081 	mov	x1, #0x4                   	// #4
    1ff4:	94001336 	bl	6ccc <__utee_check_out_annotation>
/home/jeferson/optee/optee_os-rpi4/lib/libutee/tee_api.c:446
    1ff8:	910243f9 	add	x25, sp, #0x90
    1ffc:	2a1303e1 	mov	w1, w19
    2000:	aa1503e2 	mov	x2, x21
    2004:	aa1903e0 	mov	x0, x25
/home/jeferson/optee/optee_os-rpi4/lib/libutee/tee_api.c:447
    2008:	9101c3fa 	add	x26, sp, #0x70
/home/jeferson/optee/optee_os-rpi4/lib/libutee/tee_api.c:446
    200c:	97fffd68 	bl	15ac <copy_param>
/home/jeferson/optee/optee_os-rpi4/lib/libutee/tee_api.c:447
    2010:	aa1a03e3 	mov	x3, x26
    2014:	9101a3e2 	add	x2, sp, #0x68
    2018:	910183e1 	add	x1, sp, #0x60
    201c:	aa1903e0 	mov	x0, x25
    2020:	97fffec2 	bl	1b28 <map_tmp_param>
    2024:	2a0003f3 	mov	w19, w0
/home/jeferson/optee/optee_os-rpi4/lib/libutee/tee_api.c:448
    2028:	35000240 	cbnz	w0, 2070 <TEE_InvokeTACommand+0x110>
/home/jeferson/optee/optee_os-rpi4/lib/libutee/tee_api.c:450
    202c:	910173e4 	add	x4, sp, #0x5c
    2030:	aa1903e3 	mov	x3, x25
    2034:	2a1803e2 	mov	w2, w24
    2038:	2a1703e1 	mov	w1, w23
    203c:	aa1603e0 	mov	x0, x22
    2040:	94001404 	bl	7050 <_utee_invoke_ta_command>
/home/jeferson/optee/optee_os-rpi4/lib/libutee/tee_api.c:453
    2044:	aa1903e2 	mov	x2, x25
/home/jeferson/optee/optee_os-rpi4/lib/libutee/tee_api.c:450
    2048:	2a0003f3 	mov	w19, w0
/home/jeferson/optee/optee_os-rpi4/lib/libutee/tee_api.c:453
    204c:	aa1a03e1 	mov	x1, x26
    2050:	aa1503e0 	mov	x0, x21
    2054:	97fffdee 	bl	180c <update_out_param>
/home/jeferson/optee/optee_os-rpi4/lib/libutee/tee_api.c:454
    2058:	f94033e0 	ldr	x0, [sp, #96]
    205c:	b40000a0 	cbz	x0, 2070 <TEE_InvokeTACommand+0x110>
/home/jeferson/optee/optee_os-rpi4/lib/libutee/tee_api.c:455
    2060:	f94037e1 	ldr	x1, [sp, #104]
    2064:	9400137a 	bl	6e4c <tee_unmap>
/home/jeferson/optee/optee_os-rpi4/lib/libutee/tee_api.c:457
    2068:	34000040 	cbz	w0, 2070 <TEE_InvokeTACommand+0x110>
/home/jeferson/optee/optee_os-rpi4/lib/libutee/tee_api.c:458
    206c:	940012ba 	bl	6b54 <TEE_Panic>
/home/jeferson/optee/optee_os-rpi4/lib/libutee/tee_api.c:463
    2070:	b9405fe0 	ldr	w0, [sp, #92]
/home/jeferson/optee/optee_os-rpi4/lib/libutee/tee_api.c:462
    2074:	b4000054 	cbz	x20, 207c <TEE_InvokeTACommand+0x11c>
/home/jeferson/optee/optee_os-rpi4/lib/libutee/tee_api.c:463
    2078:	b9000280 	str	w0, [x20]
/home/jeferson/optee/optee_os-rpi4/lib/libutee/tee_api.c:465
    207c:	7100101f 	cmp	w0, #0x4
    2080:	54000140 	b.eq	20a8 <TEE_InvokeTACommand+0x148>  // b.none
/home/jeferson/optee/optee_os-rpi4/lib/libutee/tee_api.c:468
    2084:	7100027f 	cmp	w19, #0x0
    2088:	129ffe60 	mov	w0, #0xffff000c            	// #-65524
    208c:	7a401264 	ccmp	w19, w0, #0x4, ne  // ne = any
    2090:	540000c0 	b.eq	20a8 <TEE_InvokeTACommand+0x148>  // b.none
/home/jeferson/optee/optee_os-rpi4/lib/libutee/tee_api.c:469
    2094:	1299fb60 	mov	w0, #0xffff3024            	// #-53212
    2098:	6b00027f 	cmp	w19, w0
    209c:	54000060 	b.eq	20a8 <TEE_InvokeTACommand+0x148>  // b.none
/home/jeferson/optee/optee_os-rpi4/lib/libutee/tee_api.c:471
    20a0:	2a1303e0 	mov	w0, w19
    20a4:	940012ac 	bl	6b54 <TEE_Panic>
/home/jeferson/optee/optee_os-rpi4/lib/libutee/tee_api.c:474
    20a8:	d00000a6 	adrp	x6, 18000 <_DYNAMIC>
    20ac:	f94098c6 	ldr	x6, [x6, #304]
    20b0:	f9406fe0 	ldr	x0, [sp, #216]
    20b4:	f94000c1 	ldr	x1, [x6]
    20b8:	eb010000 	subs	x0, x0, x1
    20bc:	d2800001 	mov	x1, #0x0                   	// #0
    20c0:	54000040 	b.eq	20c8 <TEE_InvokeTACommand+0x168>  // b.none
    20c4:	97fff925 	bl	558 <__stack_chk_fail>
    20c8:	2a1303e0 	mov	w0, w19
    20cc:	a94153f3 	ldp	x19, x20, [sp, #16]
    20d0:	a9425bf5 	ldp	x21, x22, [sp, #32]
    20d4:	a94363f7 	ldp	x23, x24, [sp, #48]
    20d8:	a9446bf9 	ldp	x25, x26, [sp, #64]
    20dc:	a8ce7bfd 	ldp	x29, x30, [sp], #224
    20e0:	d65f03c0 	ret

00000000000020e4 <__GP11_TEE_InvokeTACommand>:
__GP11_TEE_InvokeTACommand():
/home/jeferson/optee/optee_os-rpi4/lib/libutee/tee_api.c:481
    20e4:	a9b27bfd 	stp	x29, x30, [sp, #-224]!
    20e8:	d00000a6 	adrp	x6, 18000 <_DYNAMIC>
    20ec:	910003fd 	mov	x29, sp
    20f0:	f94098c6 	ldr	x6, [x6, #304]
    20f4:	a90153f3 	stp	x19, x20, [sp, #16]
    20f8:	2a0303f3 	mov	w19, w3
    20fc:	a9025bf5 	stp	x21, x22, [sp, #32]
    2100:	aa0503f4 	mov	x20, x5
    2104:	aa0403f5 	mov	x21, x4
    2108:	a90363f7 	stp	x23, x24, [sp, #48]
    210c:	aa0003f7 	mov	x23, x0
    2110:	2a0103f8 	mov	w24, w1
    2114:	a9046bf9 	stp	x25, x26, [sp, #64]
    2118:	2a0203f9 	mov	w25, w2
    211c:	f94000c0 	ldr	x0, [x6]
    2120:	f9006fe0 	str	x0, [sp, #216]
    2124:	d2800000 	mov	x0, #0x0                   	// #0
/home/jeferson/optee/optee_os-rpi4/lib/libutee/tee_api.c:486
    2128:	a9067fff 	stp	xzr, xzr, [sp, #96]
/home/jeferson/optee/optee_os-rpi4/lib/libutee/tee_api.c:483
    212c:	52800060 	mov	w0, #0x3                   	// #3
    2130:	b9005fe0 	str	w0, [sp, #92]
/home/jeferson/optee/optee_os-rpi4/lib/libutee/tee_api.c:487
    2134:	a9077fff 	stp	xzr, xzr, [sp, #112]
    2138:	a9087fff 	stp	xzr, xzr, [sp, #128]
/home/jeferson/optee/optee_os-rpi4/lib/libutee/tee_api.c:484
    213c:	a9097fff 	stp	xzr, xzr, [sp, #144]
    2140:	a90a7fff 	stp	xzr, xzr, [sp, #160]
    2144:	a90b7fff 	stp	xzr, xzr, [sp, #176]
    2148:	a90c7fff 	stp	xzr, xzr, [sp, #192]
    214c:	f9006bff 	str	xzr, [sp, #208]
/home/jeferson/optee/optee_os-rpi4/lib/libutee/tee_api.c:489
    2150:	34000083 	cbz	w3, 2160 <__GP11_TEE_InvokeTACommand+0x7c>
/home/jeferson/optee/optee_os-rpi4/lib/libutee/tee_api.c:490
    2154:	aa0403e0 	mov	x0, x4
    2158:	d2800801 	mov	x1, #0x40                  	// #64
    215c:	940012ee 	bl	6d14 <__utee_check_inout_annotation>
/home/jeferson/optee/optee_os-rpi4/lib/libutee/tee_api.c:493
    2160:	b4000094 	cbz	x20, 2170 <__GP11_TEE_InvokeTACommand+0x8c>
/home/jeferson/optee/optee_os-rpi4/lib/libutee/tee_api.c:494
    2164:	aa1403e0 	mov	x0, x20
    2168:	d2800081 	mov	x1, #0x4                   	// #4
    216c:	940012d8 	bl	6ccc <__utee_check_out_annotation>
/home/jeferson/optee/optee_os-rpi4/lib/libutee/tee_api.c:497
    2170:	910243f6 	add	x22, sp, #0x90
    2174:	2a1303e1 	mov	w1, w19
    2178:	aa1503e2 	mov	x2, x21
    217c:	aa1603e0 	mov	x0, x22
/home/jeferson/optee/optee_os-rpi4/lib/libutee/tee_api.c:498
    2180:	9101c3fa 	add	x26, sp, #0x70
/home/jeferson/optee/optee_os-rpi4/lib/libutee/tee_api.c:497
    2184:	97fffd25 	bl	1618 <copy_gp11_param>
/home/jeferson/optee/optee_os-rpi4/lib/libutee/tee_api.c:498
    2188:	aa1a03e3 	mov	x3, x26
    218c:	9101a3e2 	add	x2, sp, #0x68
    2190:	910183e1 	add	x1, sp, #0x60
    2194:	aa1603e0 	mov	x0, x22
    2198:	97fffe64 	bl	1b28 <map_tmp_param>
    219c:	2a0003f3 	mov	w19, w0
/home/jeferson/optee/optee_os-rpi4/lib/libutee/tee_api.c:499
    21a0:	35000240 	cbnz	w0, 21e8 <__GP11_TEE_InvokeTACommand+0x104>
/home/jeferson/optee/optee_os-rpi4/lib/libutee/tee_api.c:501
    21a4:	910173e4 	add	x4, sp, #0x5c
    21a8:	aa1603e3 	mov	x3, x22
    21ac:	2a1903e2 	mov	w2, w25
    21b0:	2a1803e1 	mov	w1, w24
    21b4:	aa1703e0 	mov	x0, x23
    21b8:	940013a6 	bl	7050 <_utee_invoke_ta_command>
/home/jeferson/optee/optee_os-rpi4/lib/libutee/tee_api.c:504
    21bc:	aa1603e2 	mov	x2, x22
/home/jeferson/optee/optee_os-rpi4/lib/libutee/tee_api.c:501
    21c0:	2a0003f3 	mov	w19, w0
/home/jeferson/optee/optee_os-rpi4/lib/libutee/tee_api.c:504
    21c4:	aa1a03e1 	mov	x1, x26
    21c8:	aa1503e0 	mov	x0, x21
    21cc:	97fffdb9 	bl	18b0 <update_out_gp11_param>
/home/jeferson/optee/optee_os-rpi4/lib/libutee/tee_api.c:505
    21d0:	f94033e0 	ldr	x0, [sp, #96]
    21d4:	b40000a0 	cbz	x0, 21e8 <__GP11_TEE_InvokeTACommand+0x104>
/home/jeferson/optee/optee_os-rpi4/lib/libutee/tee_api.c:506
    21d8:	f94037e1 	ldr	x1, [sp, #104]
    21dc:	9400131c 	bl	6e4c <tee_unmap>
/home/jeferson/optee/optee_os-rpi4/lib/libutee/tee_api.c:508
    21e0:	34000040 	cbz	w0, 21e8 <__GP11_TEE_InvokeTACommand+0x104>
/home/jeferson/optee/optee_os-rpi4/lib/libutee/tee_api.c:509
    21e4:	9400125c 	bl	6b54 <TEE_Panic>
/home/jeferson/optee/optee_os-rpi4/lib/libutee/tee_api.c:514
    21e8:	b9405fe0 	ldr	w0, [sp, #92]
/home/jeferson/optee/optee_os-rpi4/lib/libutee/tee_api.c:513
    21ec:	b4000054 	cbz	x20, 21f4 <__GP11_TEE_InvokeTACommand+0x110>
/home/jeferson/optee/optee_os-rpi4/lib/libutee/tee_api.c:514
    21f0:	b9000280 	str	w0, [x20]
/home/jeferson/optee/optee_os-rpi4/lib/libutee/tee_api.c:516
    21f4:	7100101f 	cmp	w0, #0x4
    21f8:	54000140 	b.eq	2220 <__GP11_TEE_InvokeTACommand+0x13c>  // b.none
/home/jeferson/optee/optee_os-rpi4/lib/libutee/tee_api.c:519
    21fc:	7100027f 	cmp	w19, #0x0
    2200:	129ffe60 	mov	w0, #0xffff000c            	// #-65524
    2204:	7a401264 	ccmp	w19, w0, #0x4, ne  // ne = any
    2208:	540000c0 	b.eq	2220 <__GP11_TEE_InvokeTACommand+0x13c>  // b.none
/home/jeferson/optee/optee_os-rpi4/lib/libutee/tee_api.c:520
    220c:	1299fb60 	mov	w0, #0xffff3024            	// #-53212
    2210:	6b00027f 	cmp	w19, w0
    2214:	54000060 	b.eq	2220 <__GP11_TEE_InvokeTACommand+0x13c>  // b.none
/home/jeferson/optee/optee_os-rpi4/lib/libutee/tee_api.c:522
    2218:	2a1303e0 	mov	w0, w19
    221c:	9400124e 	bl	6b54 <TEE_Panic>
/home/jeferson/optee/optee_os-rpi4/lib/libutee/tee_api.c:525
    2220:	d00000a6 	adrp	x6, 18000 <_DYNAMIC>
    2224:	f94098c6 	ldr	x6, [x6, #304]
    2228:	f9406fe0 	ldr	x0, [sp, #216]
    222c:	f94000c1 	ldr	x1, [x6]
    2230:	eb010000 	subs	x0, x0, x1
    2234:	d2800001 	mov	x1, #0x0                   	// #0
    2238:	54000040 	b.eq	2240 <__GP11_TEE_InvokeTACommand+0x15c>  // b.none
    223c:	97fff8c7 	bl	558 <__stack_chk_fail>
    2240:	2a1303e0 	mov	w0, w19
    2244:	a94153f3 	ldp	x19, x20, [sp, #16]
    2248:	a9425bf5 	ldp	x21, x22, [sp, #32]
    224c:	a94363f7 	ldp	x23, x24, [sp, #48]
    2250:	a9446bf9 	ldp	x25, x26, [sp, #64]
    2254:	a8ce7bfd 	ldp	x29, x30, [sp], #224
    2258:	d65f03c0 	ret

000000000000225c <__GP11_TEE_CheckMemoryAccessRights>:
__GP11_TEE_CheckMemoryAccessRights():
/home/jeferson/optee/optee_os-rpi4/lib/libutee/tee_api.c:597
    225c:	2a0203e2 	mov	w2, w2
    2260:	17fffe10 	b	1aa0 <TEE_CheckMemoryAccessRights>

0000000000002264 <TEE_SetInstanceData>:
TEE_SetInstanceData():
/home/jeferson/optee/optee_os-rpi4/lib/libutee/tee_api.c:602
    2264:	d00000a1 	adrp	x1, 18000 <_DYNAMIC>
    2268:	f9031020 	str	x0, [x1, #1568]
/home/jeferson/optee/optee_os-rpi4/lib/libutee/tee_api.c:603
    226c:	d65f03c0 	ret

0000000000002270 <TEE_GetInstanceData>:
TEE_GetInstanceData():
/home/jeferson/optee/optee_os-rpi4/lib/libutee/tee_api.c:608
    2270:	d00000a0 	adrp	x0, 18000 <_DYNAMIC>
    2274:	f9431000 	ldr	x0, [x0, #1568]
    2278:	d65f03c0 	ret

000000000000227c <TEE_MemMove>:
TEE_MemMove():
/home/jeferson/optee/optee_os-rpi4/lib/libutee/tee_api.c:612
    227c:	14004114 	b	126cc <memmove>

0000000000002280 <__GP11_TEE_MemMove>:
__GP11_TEE_MemMove():
/home/jeferson/optee/optee_os-rpi4/lib/libutee/tee_api.c:617
    2280:	2a0203e2 	mov	w2, w2
    2284:	17fffffe 	b	227c <TEE_MemMove>

0000000000002288 <TEE_MemCompare>:
TEE_MemCompare():
/home/jeferson/optee/optee_os-rpi4/lib/libutee/tee_api.c:622
    2288:	140041aa 	b	12930 <consttime_memcmp>

000000000000228c <__GP11_TEE_MemCompare>:
__GP11_TEE_MemCompare():
/home/jeferson/optee/optee_os-rpi4/lib/libutee/tee_api.c:628
    228c:	2a0203e2 	mov	w2, w2
    2290:	17fffffe 	b	2288 <TEE_MemCompare>

0000000000002294 <TEE_MemFill>:
TEE_MemFill():
/home/jeferson/optee/optee_os-rpi4/lib/libutee/tee_api.c:633
    2294:	14004125 	b	12728 <memset>

0000000000002298 <__GP11_TEE_MemFill>:
__GP11_TEE_MemFill():
/home/jeferson/optee/optee_os-rpi4/lib/libutee/tee_api.c:638
    2298:	2a0203e2 	mov	w2, w2
    229c:	17fffffe 	b	2294 <TEE_MemFill>

00000000000022a0 <TEE_GetSystemTime>:
TEE_GetSystemTime():
/home/jeferson/optee/optee_os-rpi4/lib/libutee/tee_api.c:644
    22a0:	a9bf7bfd 	stp	x29, x30, [sp, #-16]!
/home/jeferson/optee/optee_os-rpi4/lib/libutee/tee_api.c:645
    22a4:	aa0003e1 	mov	x1, x0
    22a8:	d2800000 	mov	x0, #0x0                   	// #0
/home/jeferson/optee/optee_os-rpi4/lib/libutee/tee_api.c:644
    22ac:	910003fd 	mov	x29, sp
/home/jeferson/optee/optee_os-rpi4/lib/libutee/tee_api.c:645
    22b0:	9400137a 	bl	7098 <_utee_get_time>
/home/jeferson/optee/optee_os-rpi4/lib/libutee/tee_api.c:647
    22b4:	34000060 	cbz	w0, 22c0 <TEE_GetSystemTime+0x20>
/home/jeferson/optee/optee_os-rpi4/lib/libutee/tee_api.c:649
    22b8:	a8c17bfd 	ldp	x29, x30, [sp], #16
/home/jeferson/optee/optee_os-rpi4/lib/libutee/tee_api.c:648
    22bc:	14001226 	b	6b54 <TEE_Panic>
/home/jeferson/optee/optee_os-rpi4/lib/libutee/tee_api.c:649
    22c0:	a8c17bfd 	ldp	x29, x30, [sp], #16
    22c4:	d65f03c0 	ret

00000000000022c8 <TEE_Wait>:
TEE_Wait():
/home/jeferson/optee/optee_os-rpi4/lib/libutee/tee_api.c:652
    22c8:	a9be7bfd 	stp	x29, x30, [sp, #-32]!
/home/jeferson/optee/optee_os-rpi4/lib/libutee/tee_api.c:653
    22cc:	2a0003e0 	mov	w0, w0
/home/jeferson/optee/optee_os-rpi4/lib/libutee/tee_api.c:652
    22d0:	910003fd 	mov	x29, sp
    22d4:	f9000bf3 	str	x19, [sp, #16]
/home/jeferson/optee/optee_os-rpi4/lib/libutee/tee_api.c:653
    22d8:	9400136d 	bl	708c <_utee_wait>
/home/jeferson/optee/optee_os-rpi4/lib/libutee/tee_api.c:655
    22dc:	7100001f 	cmp	w0, #0x0
    22e0:	129fffa1 	mov	w1, #0xffff0002            	// #-65534
/home/jeferson/optee/optee_os-rpi4/lib/libutee/tee_api.c:653
    22e4:	2a0003f3 	mov	w19, w0
/home/jeferson/optee/optee_os-rpi4/lib/libutee/tee_api.c:655
    22e8:	7a411004 	ccmp	w0, w1, #0x4, ne  // ne = any
    22ec:	54000040 	b.eq	22f4 <TEE_Wait+0x2c>  // b.none
/home/jeferson/optee/optee_os-rpi4/lib/libutee/tee_api.c:656
    22f0:	94001219 	bl	6b54 <TEE_Panic>
/home/jeferson/optee/optee_os-rpi4/lib/libutee/tee_api.c:659
    22f4:	2a1303e0 	mov	w0, w19
    22f8:	f9400bf3 	ldr	x19, [sp, #16]
    22fc:	a8c27bfd 	ldp	x29, x30, [sp], #32
    2300:	d65f03c0 	ret

0000000000002304 <TEE_GetTAPersistentTime>:
TEE_GetTAPersistentTime():
/home/jeferson/optee/optee_os-rpi4/lib/libutee/tee_api.c:662
    2304:	a9be7bfd 	stp	x29, x30, [sp, #-32]!
/home/jeferson/optee/optee_os-rpi4/lib/libutee/tee_api.c:665
    2308:	aa0003e1 	mov	x1, x0
/home/jeferson/optee/optee_os-rpi4/lib/libutee/tee_api.c:662
    230c:	910003fd 	mov	x29, sp
    2310:	a90153f3 	stp	x19, x20, [sp, #16]
    2314:	aa0003f4 	mov	x20, x0
/home/jeferson/optee/optee_os-rpi4/lib/libutee/tee_api.c:665
    2318:	d2800020 	mov	x0, #0x1                   	// #1
    231c:	9400135f 	bl	7098 <_utee_get_time>
/home/jeferson/optee/optee_os-rpi4/lib/libutee/tee_api.c:667
    2320:	7100001f 	cmp	w0, #0x0
/home/jeferson/optee/optee_os-rpi4/lib/libutee/tee_api.c:665
    2324:	2a0003f3 	mov	w19, w0
/home/jeferson/optee/optee_os-rpi4/lib/libutee/tee_api.c:667
    2328:	1a9f07e2 	cset	w2, ne  // ne = any
    232c:	1299fe00 	mov	w0, #0xffff300f            	// #-53233
    2330:	6b00027f 	cmp	w19, w0
    2334:	1a9f07e0 	cset	w0, ne  // ne = any
    2338:	6a000040 	ands	w0, w2, w0
    233c:	54000040 	b.eq	2344 <TEE_GetTAPersistentTime+0x40>  // b.none
/home/jeferson/optee/optee_os-rpi4/lib/libutee/tee_api.c:669
    2340:	29007e9f 	stp	wzr, wzr, [x20]
/home/jeferson/optee/optee_os-rpi4/lib/libutee/tee_api.c:673
    2344:	11402e61 	add	w1, w19, #0xb, lsl #12
/home/jeferson/optee/optee_os-rpi4/lib/libutee/tee_api.c:672
    2348:	7100005f 	cmp	w2, #0x0
    234c:	7a411820 	ccmp	w1, #0x1, #0x0, ne  // ne = any
    2350:	540000e9 	b.ls	236c <TEE_GetTAPersistentTime+0x68>  // b.plast
/home/jeferson/optee/optee_os-rpi4/lib/libutee/tee_api.c:674
    2354:	340000c0 	cbz	w0, 236c <TEE_GetTAPersistentTime+0x68>
/home/jeferson/optee/optee_os-rpi4/lib/libutee/tee_api.c:675
    2358:	129ffe60 	mov	w0, #0xffff000c            	// #-65524
    235c:	6b00027f 	cmp	w19, w0
    2360:	54000060 	b.eq	236c <TEE_GetTAPersistentTime+0x68>  // b.none
/home/jeferson/optee/optee_os-rpi4/lib/libutee/tee_api.c:677
    2364:	2a1303e0 	mov	w0, w19
    2368:	940011fb 	bl	6b54 <TEE_Panic>
/home/jeferson/optee/optee_os-rpi4/lib/libutee/tee_api.c:680
    236c:	2a1303e0 	mov	w0, w19
    2370:	a94153f3 	ldp	x19, x20, [sp, #16]
    2374:	a8c27bfd 	ldp	x29, x30, [sp], #32
    2378:	d65f03c0 	ret

000000000000237c <TEE_SetTAPersistentTime>:
TEE_SetTAPersistentTime():
/home/jeferson/optee/optee_os-rpi4/lib/libutee/tee_api.c:683
    237c:	a9be7bfd 	stp	x29, x30, [sp, #-32]!
    2380:	910003fd 	mov	x29, sp
    2384:	f9000bf3 	str	x19, [sp, #16]
/home/jeferson/optee/optee_os-rpi4/lib/libutee/tee_api.c:686
    2388:	94001347 	bl	70a4 <_utee_set_ta_time>
/home/jeferson/optee/optee_os-rpi4/lib/libutee/tee_api.c:688
    238c:	7100001f 	cmp	w0, #0x0
    2390:	129ffe61 	mov	w1, #0xffff000c            	// #-65524
/home/jeferson/optee/optee_os-rpi4/lib/libutee/tee_api.c:686
    2394:	2a0003f3 	mov	w19, w0
/home/jeferson/optee/optee_os-rpi4/lib/libutee/tee_api.c:688
    2398:	7a411004 	ccmp	w0, w1, #0x4, ne  // ne = any
    239c:	540000a0 	b.eq	23b0 <TEE_SetTAPersistentTime+0x34>  // b.none
/home/jeferson/optee/optee_os-rpi4/lib/libutee/tee_api.c:689
    23a0:	1299f7c1 	mov	w1, #0xffff3041            	// #-53183
    23a4:	6b01001f 	cmp	w0, w1
    23a8:	54000040 	b.eq	23b0 <TEE_SetTAPersistentTime+0x34>  // b.none
/home/jeferson/optee/optee_os-rpi4/lib/libutee/tee_api.c:691
    23ac:	940011ea 	bl	6b54 <TEE_Panic>
/home/jeferson/optee/optee_os-rpi4/lib/libutee/tee_api.c:694
    23b0:	2a1303e0 	mov	w0, w19
    23b4:	f9400bf3 	ldr	x19, [sp, #16]
    23b8:	a8c27bfd 	ldp	x29, x30, [sp], #32
    23bc:	d65f03c0 	ret

00000000000023c0 <TEE_GetREETime>:
TEE_GetREETime():
/home/jeferson/optee/optee_os-rpi4/lib/libutee/tee_api.c:697
    23c0:	a9bf7bfd 	stp	x29, x30, [sp, #-16]!
/home/jeferson/optee/optee_os-rpi4/lib/libutee/tee_api.c:698
    23c4:	aa0003e1 	mov	x1, x0
    23c8:	d2800040 	mov	x0, #0x2                   	// #2
/home/jeferson/optee/optee_os-rpi4/lib/libutee/tee_api.c:697
    23cc:	910003fd 	mov	x29, sp
/home/jeferson/optee/optee_os-rpi4/lib/libutee/tee_api.c:698
    23d0:	94001332 	bl	7098 <_utee_get_time>
/home/jeferson/optee/optee_os-rpi4/lib/libutee/tee_api.c:700
    23d4:	34000060 	cbz	w0, 23e0 <TEE_GetREETime+0x20>
/home/jeferson/optee/optee_os-rpi4/lib/libutee/tee_api.c:702
    23d8:	a8c17bfd 	ldp	x29, x30, [sp], #16
/home/jeferson/optee/optee_os-rpi4/lib/libutee/tee_api.c:701
    23dc:	140011de 	b	6b54 <TEE_Panic>
/home/jeferson/optee/optee_os-rpi4/lib/libutee/tee_api.c:702
    23e0:	a8c17bfd 	ldp	x29, x30, [sp], #16
    23e4:	d65f03c0 	ret

00000000000023e8 <TEE_Malloc>:
TEE_Malloc():
/home/jeferson/optee/optee_os-rpi4/lib/libutee/tee_api.c:705
    23e8:	a9be7bfd 	stp	x29, x30, [sp, #-32]!
    23ec:	aa0003e2 	mov	x2, x0
    23f0:	910003fd 	mov	x29, sp
    23f4:	f9000bf3 	str	x19, [sp, #16]
    23f8:	2a0103f3 	mov	w19, w1
/home/jeferson/optee/optee_os-rpi4/lib/libutee/tee_api.c:706
    23fc:	71000c3f 	cmp	w1, #0x3
    2400:	54000148 	b.hi	2428 <TEE_Malloc+0x40>  // b.pmore
    2404:	51000421 	sub	w1, w1, #0x1
    2408:	7100083f 	cmp	w1, #0x2
    240c:	54000308 	b.hi	246c <TEE_Malloc+0x84>  // b.pmore
    2410:	900000a0 	adrp	x0, 16000 <__text_end+0x3660>
    2414:	9116a000 	add	x0, x0, #0x5a8
    2418:	38614800 	ldrb	w0, [x0, w1, uxtw]
    241c:	10000061 	adr	x1, 2428 <TEE_Malloc+0x40>
    2420:	8b208820 	add	x0, x1, w0, sxtb #2
    2424:	d61f0000 	br	x0
    2428:	52b00001 	mov	w1, #0x80000000            	// #-2147483648
    242c:	6b01027f 	cmp	w19, w1
    2430:	540005e0 	b.eq	24ec <TEE_Malloc+0x104>  // b.none
/home/jeferson/optee/optee_os-rpi4/lib/libutee/tee_api.c:739
    2434:	2a1303e5 	mov	w5, w19
    2438:	900000a4 	adrp	x4, 16000 <__text_end+0x3660>
    243c:	52800023 	mov	w3, #0x1                   	// #1
    2440:	912e4484 	add	x4, x4, #0xb91
    2444:	52800022 	mov	w2, #0x1                   	// #1
    2448:	52805c61 	mov	w1, #0x2e3                 	// #739
    244c:	900000a0 	adrp	x0, 16000 <__text_end+0x3660>
    2450:	9116c000 	add	x0, x0, #0x5b0
    2454:	97fff807 	bl	470 <trace_printf>
/home/jeferson/optee/optee_os-rpi4/lib/libutee/tee_api.c:741
    2458:	d2800004 	mov	x4, #0x0                   	// #0
/home/jeferson/optee/optee_os-rpi4/lib/libutee/tee_api.c:742
    245c:	aa0403e0 	mov	x0, x4
    2460:	f9400bf3 	ldr	x19, [sp, #16]
    2464:	a8c27bfd 	ldp	x29, x30, [sp], #32
    2468:	d65f03c0 	ret
/home/jeferson/optee/optee_os-rpi4/lib/libutee/tee_api.c:708
    246c:	b40004c0 	cbz	x0, 2504 <TEE_Malloc+0x11c>
/home/jeferson/optee/optee_os-rpi4/lib/libutee/tee_api.c:742
    2470:	f9400bf3 	ldr	x19, [sp, #16]
/home/jeferson/optee/optee_os-rpi4/lib/libutee/tee_api.c:710
    2474:	aa0003e1 	mov	x1, x0
/home/jeferson/optee/optee_os-rpi4/lib/libutee/tee_api.c:742
    2478:	a8c27bfd 	ldp	x29, x30, [sp], #32
/home/jeferson/optee/optee_os-rpi4/lib/libutee/tee_api.c:710
    247c:	d2800020 	mov	x0, #0x1                   	// #1
    2480:	14003f52 	b	121c8 <calloc>
/home/jeferson/optee/optee_os-rpi4/lib/libutee/tee_api.c:713
    2484:	52800000 	mov	w0, #0x0                   	// #0
    2488:	940011b3 	bl	6b54 <TEE_Panic>
/home/jeferson/optee/optee_os-rpi4/lib/libutee/tee_api.c:714
    248c:	17ffffea 	b	2434 <TEE_Malloc+0x4c>
/home/jeferson/optee/optee_os-rpi4/lib/libutee/tee_api.c:717
    2490:	b4000362 	cbz	x2, 24fc <TEE_Malloc+0x114>
/home/jeferson/optee/optee_os-rpi4/lib/libutee/tee_api.c:719
    2494:	d00000a0 	adrp	x0, 18000 <_DYNAMIC>
    2498:	f940dc00 	ldr	x0, [x0, #440]
    249c:	f9400004 	ldr	x4, [x0]
    24a0:	b4fffde4 	cbz	x4, 245c <TEE_Malloc+0x74>
/home/jeferson/optee/optee_os-rpi4/lib/libutee/tee_api.c:742
    24a4:	f9400bf3 	ldr	x19, [sp, #16]
/home/jeferson/optee/optee_os-rpi4/lib/libutee/tee_api.c:721
    24a8:	aa0203e3 	mov	x3, x2
/home/jeferson/optee/optee_os-rpi4/lib/libutee/tee_api.c:742
    24ac:	a8c27bfd 	ldp	x29, x30, [sp], #32
/home/jeferson/optee/optee_os-rpi4/lib/libutee/tee_api.c:721
    24b0:	d2800022 	mov	x2, #0x1                   	// #1
    24b4:	d2800001 	mov	x1, #0x0                   	// #0
    24b8:	d2800000 	mov	x0, #0x0                   	// #0
    24bc:	14003ee4 	b	1204c <raw_calloc>
/home/jeferson/optee/optee_os-rpi4/lib/libutee/tee_api.c:724
    24c0:	b40001e2 	cbz	x2, 24fc <TEE_Malloc+0x114>
/home/jeferson/optee/optee_os-rpi4/lib/libutee/tee_api.c:726
    24c4:	d00000a0 	adrp	x0, 18000 <_DYNAMIC>
    24c8:	f940dc00 	ldr	x0, [x0, #440]
    24cc:	f9400004 	ldr	x4, [x0]
    24d0:	b4fffc64 	cbz	x4, 245c <TEE_Malloc+0x74>
/home/jeferson/optee/optee_os-rpi4/lib/libutee/tee_api.c:742
    24d4:	f9400bf3 	ldr	x19, [sp, #16]
/home/jeferson/optee/optee_os-rpi4/lib/libutee/tee_api.c:728
    24d8:	aa0403e3 	mov	x3, x4
/home/jeferson/optee/optee_os-rpi4/lib/libutee/tee_api.c:742
    24dc:	a8c27bfd 	ldp	x29, x30, [sp], #32
/home/jeferson/optee/optee_os-rpi4/lib/libutee/tee_api.c:728
    24e0:	d2800001 	mov	x1, #0x0                   	// #0
    24e4:	d2800000 	mov	x0, #0x0                   	// #0
    24e8:	14003ed1 	b	1202c <raw_malloc>
/home/jeferson/optee/optee_os-rpi4/lib/libutee/tee_api.c:731
    24ec:	b40000c0 	cbz	x0, 2504 <TEE_Malloc+0x11c>
/home/jeferson/optee/optee_os-rpi4/lib/libutee/tee_api.c:742
    24f0:	f9400bf3 	ldr	x19, [sp, #16]
    24f4:	a8c27bfd 	ldp	x29, x30, [sp], #32
/home/jeferson/optee/optee_os-rpi4/lib/libutee/tee_api.c:733
    24f8:	14003f2e 	b	121b0 <malloc>
/home/jeferson/optee/optee_os-rpi4/lib/libutee/tee_api.c:718
    24fc:	d2800044 	mov	x4, #0x2                   	// #2
    2500:	17ffffd7 	b	245c <TEE_Malloc+0x74>
/home/jeferson/optee/optee_os-rpi4/lib/libutee/tee_api.c:709
    2504:	d2800024 	mov	x4, #0x1                   	// #1
    2508:	17ffffd5 	b	245c <TEE_Malloc+0x74>

000000000000250c <__GP11_TEE_Malloc>:
__GP11_TEE_Malloc():
/home/jeferson/optee/optee_os-rpi4/lib/libutee/tee_api.c:746
    250c:	2a0003e0 	mov	w0, w0
    2510:	17ffffb6 	b	23e8 <TEE_Malloc>

0000000000002514 <TEE_Free>:
TEE_Free():
/home/jeferson/optee/optee_os-rpi4/lib/libutee/tee_api.c:787
    2514:	d1000401 	sub	x1, x0, #0x1
    2518:	f100043f 	cmp	x1, #0x1
    251c:	540002a9 	b.ls	2570 <TEE_Free+0x5c>  // b.plast
/home/jeferson/optee/optee_os-rpi4/lib/libutee/tee_api.c:786
    2520:	a9be7bfd 	stp	x29, x30, [sp, #-32]!
addr_is_in_no_share_heap():
/home/jeferson/optee/optee_os-rpi4/lib/libutee/tee_api.c:751
    2524:	d2800021 	mov	x1, #0x1                   	// #1
TEE_Free():
/home/jeferson/optee/optee_os-rpi4/lib/libutee/tee_api.c:786
    2528:	910003fd 	mov	x29, sp
    252c:	f9000bf3 	str	x19, [sp, #16]
    2530:	aa0003f3 	mov	x19, x0
addr_is_in_no_share_heap():
/home/jeferson/optee/optee_os-rpi4/lib/libutee/tee_api.c:751
    2534:	97fffc7b 	bl	1720 <buf_overlaps_no_share_heap>
TEE_Free():
/home/jeferson/optee/optee_os-rpi4/lib/libutee/tee_api.c:789
    2538:	72001c1f 	tst	w0, #0xff
    253c:	54000120 	b.eq	2560 <TEE_Free+0x4c>  // b.none
/home/jeferson/optee/optee_os-rpi4/lib/libutee/tee_api.c:790
    2540:	d00000a0 	adrp	x0, 18000 <_DYNAMIC>
    2544:	52800002 	mov	w2, #0x0                   	// #0
    2548:	f940dc00 	ldr	x0, [x0, #440]
    254c:	f9400001 	ldr	x1, [x0]
    2550:	aa1303e0 	mov	x0, x19
/home/jeferson/optee/optee_os-rpi4/lib/libutee/tee_api.c:794
    2554:	f9400bf3 	ldr	x19, [sp, #16]
    2558:	a8c27bfd 	ldp	x29, x30, [sp], #32
/home/jeferson/optee/optee_os-rpi4/lib/libutee/tee_api.c:790
    255c:	14003eb8 	b	1203c <raw_free>
/home/jeferson/optee/optee_os-rpi4/lib/libutee/tee_api.c:792
    2560:	aa1303e0 	mov	x0, x19
/home/jeferson/optee/optee_os-rpi4/lib/libutee/tee_api.c:794
    2564:	f9400bf3 	ldr	x19, [sp, #16]
    2568:	a8c27bfd 	ldp	x29, x30, [sp], #32
/home/jeferson/optee/optee_os-rpi4/lib/libutee/tee_api.c:792
    256c:	14003f31 	b	12230 <free>
    2570:	d65f03c0 	ret

0000000000002574 <TEE_Realloc>:
TEE_Realloc():
/home/jeferson/optee/optee_os-rpi4/lib/libutee/tee_api.c:755
    2574:	a9be7bfd 	stp	x29, x30, [sp, #-32]!
    2578:	910003fd 	mov	x29, sp
    257c:	a90153f3 	stp	x19, x20, [sp, #16]
    2580:	aa0003f3 	mov	x19, x0
/home/jeferson/optee/optee_os-rpi4/lib/libutee/tee_api.c:756
    2584:	b5000161 	cbnz	x1, 25b0 <TEE_Realloc+0x3c>
/home/jeferson/optee/optee_os-rpi4/lib/libutee/tee_api.c:757
    2588:	97ffffe3 	bl	2514 <TEE_Free>
addr_is_in_no_share_heap():
/home/jeferson/optee/optee_os-rpi4/lib/libutee/tee_api.c:751
    258c:	aa1303e0 	mov	x0, x19
    2590:	d2800021 	mov	x1, #0x1                   	// #1
    2594:	97fffc63 	bl	1720 <buf_overlaps_no_share_heap>
TEE_Realloc():
/home/jeferson/optee/optee_os-rpi4/lib/libutee/tee_api.c:762
    2598:	72001c1f 	tst	w0, #0xff
    259c:	9a9f07e0 	cset	x0, ne  // ne = any
    25a0:	91000400 	add	x0, x0, #0x1
/home/jeferson/optee/optee_os-rpi4/lib/libutee/tee_api.c:778
    25a4:	a94153f3 	ldp	x19, x20, [sp, #16]
    25a8:	a8c27bfd 	ldp	x29, x30, [sp], #32
    25ac:	d65f03c0 	ret
/home/jeferson/optee/optee_os-rpi4/lib/libutee/tee_api.c:765
    25b0:	f100041f 	cmp	x0, #0x1
    25b4:	54000081 	b.ne	25c4 <TEE_Realloc+0x50>  // b.any
/home/jeferson/optee/optee_os-rpi4/lib/libutee/tee_api.c:778
    25b8:	a94153f3 	ldp	x19, x20, [sp, #16]
    25bc:	a8c27bfd 	ldp	x29, x30, [sp], #32
/home/jeferson/optee/optee_os-rpi4/lib/libutee/tee_api.c:766
    25c0:	14003f02 	b	121c8 <calloc>
    25c4:	aa0103f4 	mov	x20, x1
/home/jeferson/optee/optee_os-rpi4/lib/libutee/tee_api.c:767
    25c8:	f100081f 	cmp	x0, #0x2
    25cc:	540001a1 	b.ne	2600 <TEE_Realloc+0x8c>  // b.any
/home/jeferson/optee/optee_os-rpi4/lib/libutee/tee_api.c:768
    25d0:	d00000a0 	adrp	x0, 18000 <_DYNAMIC>
    25d4:	f940dc00 	ldr	x0, [x0, #440]
    25d8:	f9400000 	ldr	x0, [x0]
    25dc:	b4fffe40 	cbz	x0, 25a4 <TEE_Realloc+0x30>
/home/jeferson/optee/optee_os-rpi4/lib/libutee/tee_api.c:778
    25e0:	a94153f3 	ldp	x19, x20, [sp, #16]
/home/jeferson/optee/optee_os-rpi4/lib/libutee/tee_api.c:770
    25e4:	aa0003e4 	mov	x4, x0
/home/jeferson/optee/optee_os-rpi4/lib/libutee/tee_api.c:778
    25e8:	a8c27bfd 	ldp	x29, x30, [sp], #32
/home/jeferson/optee/optee_os-rpi4/lib/libutee/tee_api.c:770
    25ec:	aa0103e3 	mov	x3, x1
    25f0:	d2800022 	mov	x2, #0x1                   	// #1
    25f4:	d2800001 	mov	x1, #0x0                   	// #0
    25f8:	d2800000 	mov	x0, #0x0                   	// #0
    25fc:	14003e94 	b	1204c <raw_calloc>
addr_is_in_no_share_heap():
/home/jeferson/optee/optee_os-rpi4/lib/libutee/tee_api.c:751
    2600:	d2800021 	mov	x1, #0x1                   	// #1
    2604:	97fffc47 	bl	1720 <buf_overlaps_no_share_heap>
TEE_Realloc():
/home/jeferson/optee/optee_os-rpi4/lib/libutee/tee_api.c:773
    2608:	72001c1f 	tst	w0, #0xff
    260c:	54000160 	b.eq	2638 <TEE_Realloc+0xc4>  // b.none
/home/jeferson/optee/optee_os-rpi4/lib/libutee/tee_api.c:774
    2610:	d00000a0 	adrp	x0, 18000 <_DYNAMIC>
    2614:	aa1403e3 	mov	x3, x20
    2618:	d2800002 	mov	x2, #0x0                   	// #0
    261c:	d2800001 	mov	x1, #0x0                   	// #0
    2620:	f940dc00 	ldr	x0, [x0, #440]
    2624:	f9400004 	ldr	x4, [x0]
    2628:	aa1303e0 	mov	x0, x19
/home/jeferson/optee/optee_os-rpi4/lib/libutee/tee_api.c:778
    262c:	a94153f3 	ldp	x19, x20, [sp, #16]
    2630:	a8c27bfd 	ldp	x29, x30, [sp], #32
/home/jeferson/optee/optee_os-rpi4/lib/libutee/tee_api.c:774
    2634:	14003ea2 	b	120bc <raw_realloc>
/home/jeferson/optee/optee_os-rpi4/lib/libutee/tee_api.c:777
    2638:	aa1403e1 	mov	x1, x20
    263c:	aa1303e0 	mov	x0, x19
/home/jeferson/optee/optee_os-rpi4/lib/libutee/tee_api.c:778
    2640:	a94153f3 	ldp	x19, x20, [sp, #16]
    2644:	a8c27bfd 	ldp	x29, x30, [sp], #32
/home/jeferson/optee/optee_os-rpi4/lib/libutee/tee_api.c:777
    2648:	14003ee7 	b	121e4 <realloc>

000000000000264c <__GP11_TEE_Realloc>:
__GP11_TEE_Realloc():
/home/jeferson/optee/optee_os-rpi4/lib/libutee/tee_api.c:782
    264c:	2a0103e1 	mov	w1, w1
    2650:	17ffffc9 	b	2574 <TEE_Realloc>

0000000000002654 <TEE_CacheClean>:
TEE_CacheClean():
/home/jeferson/optee/optee_os-rpi4/lib/libutee/tee_api.c:799
    2654:	d2800002 	mov	x2, #0x0                   	// #0
    2658:	1400130e 	b	7290 <_utee_cache_operation>

000000000000265c <TEE_CacheFlush>:
TEE_CacheFlush():
/home/jeferson/optee/optee_os-rpi4/lib/libutee/tee_api.c:803
    265c:	d2800022 	mov	x2, #0x1                   	// #1
    2660:	1400130c 	b	7290 <_utee_cache_operation>

0000000000002664 <TEE_CacheInvalidate>:
TEE_CacheInvalidate():
/home/jeferson/optee/optee_os-rpi4/lib/libutee/tee_api.c:808
    2664:	d2800042 	mov	x2, #0x2                   	// #2
    2668:	1400130a 	b	7290 <_utee_cache_operation>

000000000000266c <__tee_alg_get_main_alg>:
__tee_alg_get_main_alg():
/home/jeferson/optee/optee_os-rpi4/lib/libutee/include/utee_defines.h:86
    266c:	2a0003e1 	mov	w1, w0
/home/jeferson/optee/optee_os-rpi4/lib/libutee/include/utee_defines.h:87
    2670:	528c0860 	mov	w0, #0x6043                	// #24643
    2674:	72ae0000 	movk	w0, #0x7000, lsl #16
    2678:	6b00003f 	cmp	w1, w0
    267c:	54000680 	b.eq	274c <__tee_alg_get_main_alg+0xe0>  // b.none
    2680:	540004e8 	b.hi	271c <__tee_alg_get_main_alg+0xb0>  // b.pmore
    2684:	52802040 	mov	w0, #0x102                 	// #258
    2688:	72aa0000 	movk	w0, #0x5000, lsl #16
    268c:	6b00003f 	cmp	w1, w0
    2690:	54000620 	b.eq	2754 <__tee_alg_get_main_alg+0xe8>  // b.none
    2694:	540000c8 	b.hi	26ac <__tee_alg_get_main_alg+0x40>  // b.pmore
    2698:	51000400 	sub	w0, w0, #0x1
    269c:	6b00003f 	cmp	w1, w0
    26a0:	540005e0 	b.eq	275c <__tee_alg_get_main_alg+0xf0>  // b.none
/home/jeferson/optee/optee_os-rpi4/lib/libutee/include/utee_defines.h:112
    26a4:	12001c20 	and	w0, w1, #0xff
    26a8:	14000015 	b	26fc <__tee_alg_get_main_alg+0x90>
/home/jeferson/optee/optee_os-rpi4/lib/libutee/include/utee_defines.h:87
    26ac:	528008a0 	mov	w0, #0x45                  	// #69
    26b0:	72ac0000 	movk	w0, #0x6000, lsl #16
    26b4:	6b00003f 	cmp	w1, w0
    26b8:	54000560 	b.eq	2764 <__tee_alg_get_main_alg+0xf8>  // b.none
    26bc:	51000400 	sub	w0, w0, #0x1
    26c0:	6b00003f 	cmp	w1, w0
    26c4:	54ffff09 	b.ls	26a4 <__tee_alg_get_main_alg+0x38>  // b.plast
    26c8:	52860840 	mov	w0, #0x3042                	// #12354
    26cc:	72ae0000 	movk	w0, #0x7000, lsl #16
    26d0:	6b00003f 	cmp	w1, w0
    26d4:	54000200 	b.eq	2714 <__tee_alg_get_main_alg+0xa8>  // b.none
    26d8:	54000148 	b.hi	2700 <__tee_alg_get_main_alg+0x94>  // b.pmore
    26dc:	51400800 	sub	w0, w0, #0x2, lsl #12
    26e0:	6b00003f 	cmp	w1, w0
/home/jeferson/optee/optee_os-rpi4/lib/libutee/include/utee_defines.h:101
    26e4:	52800820 	mov	w0, #0x41                  	// #65
/home/jeferson/optee/optee_os-rpi4/lib/libutee/include/utee_defines.h:87
    26e8:	540000a0 	b.eq	26fc <__tee_alg_get_main_alg+0x90>  // b.none
    26ec:	52840842 	mov	w2, #0x2042                	// #8258
    26f0:	72ae0002 	movk	w2, #0x7000, lsl #16
    26f4:	6b02003f 	cmp	w1, w2
    26f8:	54fffd61 	b.ne	26a4 <__tee_alg_get_main_alg+0x38>  // b.any
/home/jeferson/optee/optee_os-rpi4/lib/libutee/include/utee_defines.h:113
    26fc:	d65f03c0 	ret
/home/jeferson/optee/optee_os-rpi4/lib/libutee/include/utee_defines.h:87
    2700:	52880840 	mov	w0, #0x4042                	// #16450
    2704:	12137822 	and	w2, w1, #0xffffefff
    2708:	72ae0000 	movk	w0, #0x7000, lsl #16
    270c:	6b00005f 	cmp	w2, w0
    2710:	54fffca1 	b.ne	26a4 <__tee_alg_get_main_alg+0x38>  // b.any
/home/jeferson/optee/optee_os-rpi4/lib/libutee/include/utee_defines.h:101
    2714:	52800820 	mov	w0, #0x41                  	// #65
    2718:	17fffff9 	b	26fc <__tee_alg_get_main_alg+0x90>
/home/jeferson/optee/optee_os-rpi4/lib/libutee/include/utee_defines.h:87
    271c:	528008c0 	mov	w0, #0x46                  	// #70
    2720:	72b00000 	movk	w0, #0x8000, lsl #16
    2724:	6b00003f 	cmp	w1, w0
    2728:	54000220 	b.eq	276c <__tee_alg_get_main_alg+0x100>  // b.none
    272c:	528008e2 	mov	w2, #0x47                  	// #71
/home/jeferson/optee/optee_os-rpi4/lib/libutee/include/utee_defines.h:103
    2730:	52801800 	mov	w0, #0xc0                  	// #192
/home/jeferson/optee/optee_os-rpi4/lib/libutee/include/utee_defines.h:87
    2734:	72b00002 	movk	w2, #0x8000, lsl #16
    2738:	6b02003f 	cmp	w1, w2
    273c:	54fffe00 	b.eq	26fc <__tee_alg_get_main_alg+0x90>  // b.none
    2740:	51000c42 	sub	w2, w2, #0x3
/home/jeferson/optee/optee_os-rpi4/lib/libutee/include/utee_defines.h:93
    2744:	52800880 	mov	w0, #0x44                  	// #68
    2748:	17ffffeb 	b	26f4 <__tee_alg_get_main_alg+0x88>
/home/jeferson/optee/optee_os-rpi4/lib/libutee/include/utee_defines.h:95
    274c:	52800860 	mov	w0, #0x43                  	// #67
    2750:	17ffffeb 	b	26fc <__tee_alg_get_main_alg+0x90>
/home/jeferson/optee/optee_os-rpi4/lib/libutee/include/utee_defines.h:107
    2754:	52801880 	mov	w0, #0xc4                  	// #196
    2758:	17ffffe9 	b	26fc <__tee_alg_get_main_alg+0x90>
/home/jeferson/optee/optee_os-rpi4/lib/libutee/include/utee_defines.h:105
    275c:	52801860 	mov	w0, #0xc3                  	// #195
    2760:	17ffffe7 	b	26fc <__tee_alg_get_main_alg+0x90>
/home/jeferson/optee/optee_os-rpi4/lib/libutee/include/utee_defines.h:87
    2764:	528008c0 	mov	w0, #0x46                  	// #70
    2768:	17ffffe5 	b	26fc <__tee_alg_get_main_alg+0x90>
/home/jeferson/optee/optee_os-rpi4/lib/libutee/include/utee_defines.h:89
    276c:	528008e0 	mov	w0, #0x47                  	// #71
    2770:	17ffffe3 	b	26fc <__tee_alg_get_main_alg+0x90>

0000000000002774 <tee_buffer_update>:
tee_buffer_update():
/home/jeferson/optee/optee_os-rpi4/lib/libutee/tee_api_operations.c:1077
    2774:	a9b87bfd 	stp	x29, x30, [sp, #-128]!
    2778:	910003fd 	mov	x29, sp
    277c:	a90153f3 	stp	x19, x20, [sp, #16]
    2780:	aa0003f3 	mov	x19, x0
    2784:	d00000a0 	adrp	x0, 18000 <_DYNAMIC>
    2788:	a9025bf5 	stp	x21, x22, [sp, #32]
    278c:	aa0303f4 	mov	x20, x3
    2790:	f9409800 	ldr	x0, [x0, #304]
    2794:	a90363f7 	stp	x23, x24, [sp, #48]
    2798:	aa0103f7 	mov	x23, x1
    279c:	a9046bf9 	stp	x25, x26, [sp, #64]
    27a0:	a90573fb 	stp	x27, x28, [sp, #80]
    27a4:	f90037e5 	str	x5, [sp, #104]
/home/jeferson/optee/optee_os-rpi4/lib/libutee/tee_api_operations.c:1082
    27a8:	f94000b8 	ldr	x24, [x5]
/home/jeferson/optee/optee_os-rpi4/lib/libutee/tee_api_operations.c:1077
    27ac:	f9400001 	ldr	x1, [x0]
    27b0:	f9003fe1 	str	x1, [sp, #120]
    27b4:	d2800001 	mov	x1, #0x0                   	// #0
/home/jeferson/optee/optee_os-rpi4/lib/libutee/tee_api_operations.c:1089
    27b8:	b5000202 	cbnz	x2, 27f8 <tee_buffer_update+0x84>
/home/jeferson/optee/optee_os-rpi4/lib/libutee/tee_api_operations.c:1090
    27bc:	b5000183 	cbnz	x3, 27ec <tee_buffer_update+0x78>
/home/jeferson/optee/optee_os-rpi4/lib/libutee/tee_api_operations.c:1083
    27c0:	d280001a 	mov	x26, #0x0                   	// #0
/home/jeferson/optee/optee_os-rpi4/lib/libutee/tee_api_operations.c:1165
    27c4:	f94037e0 	ldr	x0, [sp, #104]
    27c8:	f900001a 	str	x26, [x0]
/home/jeferson/optee/optee_os-rpi4/lib/libutee/tee_api_operations.c:1167
    27cc:	d00000a0 	adrp	x0, 18000 <_DYNAMIC>
    27d0:	f9409800 	ldr	x0, [x0, #304]
    27d4:	f9403fe2 	ldr	x2, [sp, #120]
    27d8:	f9400001 	ldr	x1, [x0]
    27dc:	eb010042 	subs	x2, x2, x1
    27e0:	d2800001 	mov	x1, #0x0                   	// #0
    27e4:	54000e00 	b.eq	29a4 <tee_buffer_update+0x230>  // b.none
    27e8:	97fff75c 	bl	558 <__stack_chk_fail>
/home/jeferson/optee/optee_os-rpi4/lib/libutee/tee_api_operations.c:1091
    27ec:	52800000 	mov	w0, #0x0                   	// #0
    27f0:	940010d9 	bl	6b54 <TEE_Panic>
    27f4:	17fffff3 	b	27c0 <tee_buffer_update+0x4c>
/home/jeferson/optee/optee_os-rpi4/lib/libutee/tee_api_operations.c:1095
    27f8:	39410260 	ldrb	w0, [x19, #64]
    27fc:	aa0203fb 	mov	x27, x2
    2800:	aa0403fc 	mov	x28, x4
/home/jeferson/optee/optee_os-rpi4/lib/libutee/tee_api_operations.c:1096
    2804:	f9402675 	ldr	x21, [x19, #72]
/home/jeferson/optee/optee_os-rpi4/lib/libutee/tee_api_operations.c:1095
    2808:	34000860 	cbz	w0, 2914 <tee_buffer_update+0x1a0>
/home/jeferson/optee/optee_os-rpi4/lib/libutee/tee_api_operations.c:1096
    280c:	d37ffab6 	lsl	x22, x21, #1
/home/jeferson/optee/optee_os-rpi4/lib/libutee/tee_api_operations.c:1097
    2810:	d2800039 	mov	x25, #0x1                   	// #1
/home/jeferson/optee/optee_os-rpi4/lib/libutee/tee_api_operations.c:1103
    2814:	f9402a60 	ldr	x0, [x19, #80]
    2818:	b4000260 	cbz	x0, 2864 <tee_buffer_update+0xf0>
/home/jeferson/optee/optee_os-rpi4/lib/libutee/tee_api_operations.c:1105
    281c:	eb15001f 	cmp	x0, x21
    2820:	54000802 	b.cs	2920 <tee_buffer_update+0x1ac>  // b.hs, b.nlast
/home/jeferson/optee/optee_os-rpi4/lib/libutee/tee_api_operations.c:1106
    2824:	cb0002b5 	sub	x21, x21, x0
/home/jeferson/optee/optee_os-rpi4/lib/libutee/tee_api_operations.c:1109
    2828:	f9401e63 	ldr	x3, [x19, #56]
/home/jeferson/optee/optee_os-rpi4/lib/libutee/tee_api_operations.c:1108
    282c:	eb1402bf 	cmp	x21, x20
    2830:	9a9492b5 	csel	x21, x21, x20, ls  // ls = plast
/home/jeferson/optee/optee_os-rpi4/lib/libutee/tee_api_operations.c:1109
    2834:	aa1b03e1 	mov	x1, x27
    2838:	aa1503e2 	mov	x2, x21
    283c:	8b000060 	add	x0, x3, x0
    2840:	97fff5f8 	bl	20 <memcpy>
/home/jeferson/optee/optee_os-rpi4/lib/libutee/tee_api_operations.c:1110
    2844:	a9448262 	ldp	x2, x0, [x19, #72]
    2848:	8b0002a0 	add	x0, x21, x0
    284c:	f9002a60 	str	x0, [x19, #80]
/home/jeferson/optee/optee_os-rpi4/lib/libutee/tee_api_operations.c:1113
    2850:	9ac20801 	udiv	x1, x0, x2
    2854:	9b028020 	msub	x0, x1, x2, x0
    2858:	b5fffb40 	cbnz	x0, 27c0 <tee_buffer_update+0x4c>
/home/jeferson/optee/optee_os-rpi4/lib/libutee/tee_api_operations.c:1111
    285c:	8b15037b 	add	x27, x27, x21
/home/jeferson/optee/optee_os-rpi4/lib/libutee/tee_api_operations.c:1112
    2860:	cb150294 	sub	x20, x20, x21
/home/jeferson/optee/optee_os-rpi4/lib/libutee/tee_api_operations.c:1118
    2864:	f9402a7a 	ldr	x26, [x19, #80]
/home/jeferson/optee/optee_os-rpi4/lib/libutee/tee_api_operations.c:1119
    2868:	8b1902d9 	add	x25, x22, x25
/home/jeferson/optee/optee_os-rpi4/lib/libutee/tee_api_operations.c:1118
    286c:	b400061a 	cbz	x26, 292c <tee_buffer_update+0x1b8>
/home/jeferson/optee/optee_os-rpi4/lib/libutee/tee_api_operations.c:1119 (discriminator 1)
    2870:	8b140355 	add	x21, x26, x20
/home/jeferson/optee/optee_os-rpi4/lib/libutee/tee_api_operations.c:1118 (discriminator 1)
    2874:	eb1902bf 	cmp	x21, x25
    2878:	54000583 	b.cc	2928 <tee_buffer_update+0x1b4>  // b.lo, b.ul, b.last
/home/jeferson/optee/optee_os-rpi4/lib/libutee/tee_api_operations.c:1120
    287c:	f9402660 	ldr	x0, [x19, #72]
    2880:	cb1602b5 	sub	x21, x21, x22
/home/jeferson/optee/optee_os-rpi4/lib/libutee/tee_api_operations.c:1124
    2884:	9101c3e4 	add	x4, sp, #0x70
    2888:	aa1c03e3 	mov	x3, x28
/home/jeferson/optee/optee_os-rpi4/lib/libutee/tee_api_operations.c:1120
    288c:	d1000401 	sub	x1, x0, #0x1
    2890:	cb0003e0 	neg	x0, x0
    2894:	8b0102b5 	add	x21, x21, x1
/home/jeferson/optee/optee_os-rpi4/lib/libutee/tee_api_operations.c:1123
    2898:	f9003bf8 	str	x24, [sp, #112]
/home/jeferson/optee/optee_os-rpi4/lib/libutee/tee_api_operations.c:1120
    289c:	8a0002b5 	and	x21, x21, x0
/home/jeferson/optee/optee_os-rpi4/lib/libutee/tee_api_operations.c:1124
    28a0:	b9405a60 	ldr	w0, [x19, #88]
    28a4:	f9401e61 	ldr	x1, [x19, #56]
/home/jeferson/optee/optee_os-rpi4/lib/libutee/tee_api_operations.c:1122
    28a8:	eb1a02bf 	cmp	x21, x26
    28ac:	9a9a92b5 	csel	x21, x21, x26, ls  // ls = plast
/home/jeferson/optee/optee_os-rpi4/lib/libutee/tee_api_operations.c:1124
    28b0:	aa1503e2 	mov	x2, x21
    28b4:	d63f02e0 	blr	x23
/home/jeferson/optee/optee_os-rpi4/lib/libutee/tee_api_operations.c:1125
    28b8:	34000040 	cbz	w0, 28c0 <tee_buffer_update+0x14c>
/home/jeferson/optee/optee_os-rpi4/lib/libutee/tee_api_operations.c:1126
    28bc:	940010a6 	bl	6b54 <TEE_Panic>
/home/jeferson/optee/optee_os-rpi4/lib/libutee/tee_api_operations.c:1130
    28c0:	f9402a60 	ldr	x0, [x19, #80]
/home/jeferson/optee/optee_os-rpi4/lib/libutee/tee_api_operations.c:1127
    28c4:	f9403bfa 	ldr	x26, [sp, #112]
/home/jeferson/optee/optee_os-rpi4/lib/libutee/tee_api_operations.c:1130
    28c8:	cb150000 	sub	x0, x0, x21
    28cc:	f9002a60 	str	x0, [x19, #80]
/home/jeferson/optee/optee_os-rpi4/lib/libutee/tee_api_operations.c:1127
    28d0:	8b1a039c 	add	x28, x28, x26
/home/jeferson/optee/optee_os-rpi4/lib/libutee/tee_api_operations.c:1128
    28d4:	cb1a0318 	sub	x24, x24, x26
/home/jeferson/optee/optee_os-rpi4/lib/libutee/tee_api_operations.c:1131
    28d8:	b40002a0 	cbz	x0, 292c <tee_buffer_update+0x1b8>
/home/jeferson/optee/optee_os-rpi4/lib/libutee/tee_api_operations.c:1135
    28dc:	f9401e60 	ldr	x0, [x19, #56]
    28e0:	cb1502c2 	sub	x2, x22, x21
    28e4:	8b150001 	add	x1, x0, x21
    28e8:	97fff5ce 	bl	20 <memcpy>
/home/jeferson/optee/optee_os-rpi4/lib/libutee/tee_api_operations.c:1161
    28ec:	f9401e63 	ldr	x3, [x19, #56]
    28f0:	aa1403e2 	mov	x2, x20
    28f4:	f9402a60 	ldr	x0, [x19, #80]
    28f8:	aa1b03e1 	mov	x1, x27
    28fc:	8b000060 	add	x0, x3, x0
    2900:	97fff5c8 	bl	20 <memcpy>
/home/jeferson/optee/optee_os-rpi4/lib/libutee/tee_api_operations.c:1162
    2904:	f9402a60 	ldr	x0, [x19, #80]
    2908:	8b140000 	add	x0, x0, x20
    290c:	f9002a60 	str	x0, [x19, #80]
    2910:	17ffffad 	b	27c4 <tee_buffer_update+0x50>
/home/jeferson/optee/optee_os-rpi4/lib/libutee/tee_api_operations.c:1096
    2914:	aa1503f6 	mov	x22, x21
/home/jeferson/optee/optee_os-rpi4/lib/libutee/tee_api_operations.c:1100
    2918:	d2800019 	mov	x25, #0x0                   	// #0
    291c:	17ffffbe 	b	2814 <tee_buffer_update+0xa0>
/home/jeferson/optee/optee_os-rpi4/lib/libutee/tee_api_operations.c:1108
    2920:	cb0002d5 	sub	x21, x22, x0
    2924:	17ffffc1 	b	2828 <tee_buffer_update+0xb4>
/home/jeferson/optee/optee_os-rpi4/lib/libutee/tee_api_operations.c:1083
    2928:	d280001a 	mov	x26, #0x0                   	// #0
/home/jeferson/optee/optee_os-rpi4/lib/libutee/tee_api_operations.c:1142
    292c:	eb19029f 	cmp	x20, x25
    2930:	54fffde3 	b.cc	28ec <tee_buffer_update+0x178>  // b.lo, b.ul, b.last
/home/jeferson/optee/optee_os-rpi4/lib/libutee/tee_api_operations.c:1145
    2934:	f9402660 	ldr	x0, [x19, #72]
    2938:	cb160281 	sub	x1, x20, x22
/home/jeferson/optee/optee_os-rpi4/lib/libutee/tee_api_operations.c:1144
    293c:	b9400263 	ldr	w3, [x19]
/home/jeferson/optee/optee_os-rpi4/lib/libutee/tee_api_operations.c:1145
    2940:	cb0003e2 	neg	x2, x0
    2944:	d1000404 	sub	x4, x0, #0x1
    2948:	cb160015 	sub	x21, x0, x22
    294c:	52806200 	mov	w0, #0x310                 	// #784
    2950:	72a20000 	movk	w0, #0x1000, lsl #16
    2954:	6b00007f 	cmp	w3, w0
/home/jeferson/optee/optee_os-rpi4/lib/libutee/tee_api_operations.c:1150
    2958:	b9405a60 	ldr	w0, [x19, #88]
/home/jeferson/optee/optee_os-rpi4/lib/libutee/tee_api_operations.c:1145
    295c:	8b040021 	add	x1, x1, x4
    2960:	8b1402b5 	add	x21, x21, x20
    2964:	8a020021 	and	x1, x1, x2
    2968:	8a0202b5 	and	x21, x21, x2
/home/jeferson/optee/optee_os-rpi4/lib/libutee/tee_api_operations.c:1150
    296c:	9101c3e4 	add	x4, sp, #0x70
/home/jeferson/optee/optee_os-rpi4/lib/libutee/tee_api_operations.c:1145
    2970:	9a8112b5 	csel	x21, x21, x1, ne  // ne = any
/home/jeferson/optee/optee_os-rpi4/lib/libutee/tee_api_operations.c:1150
    2974:	aa1c03e3 	mov	x3, x28
    2978:	aa1503e2 	mov	x2, x21
    297c:	aa1b03e1 	mov	x1, x27
/home/jeferson/optee/optee_os-rpi4/lib/libutee/tee_api_operations.c:1149
    2980:	f9003bf8 	str	x24, [sp, #112]
/home/jeferson/optee/optee_os-rpi4/lib/libutee/tee_api_operations.c:1150
    2984:	d63f02e0 	blr	x23
/home/jeferson/optee/optee_os-rpi4/lib/libutee/tee_api_operations.c:1151
    2988:	34000040 	cbz	w0, 2990 <tee_buffer_update+0x21c>
/home/jeferson/optee/optee_os-rpi4/lib/libutee/tee_api_operations.c:1152
    298c:	94001072 	bl	6b54 <TEE_Panic>
/home/jeferson/optee/optee_os-rpi4/lib/libutee/tee_api_operations.c:1157
    2990:	f9403be0 	ldr	x0, [sp, #112]
/home/jeferson/optee/optee_os-rpi4/lib/libutee/tee_api_operations.c:1153
    2994:	8b15037b 	add	x27, x27, x21
/home/jeferson/optee/optee_os-rpi4/lib/libutee/tee_api_operations.c:1154
    2998:	cb150294 	sub	x20, x20, x21
/home/jeferson/optee/optee_os-rpi4/lib/libutee/tee_api_operations.c:1157
    299c:	8b00035a 	add	x26, x26, x0
    29a0:	17ffffd3 	b	28ec <tee_buffer_update+0x178>
/home/jeferson/optee/optee_os-rpi4/lib/libutee/tee_api_operations.c:1167
    29a4:	52800000 	mov	w0, #0x0                   	// #0
    29a8:	a94153f3 	ldp	x19, x20, [sp, #16]
    29ac:	a9425bf5 	ldp	x21, x22, [sp, #32]
    29b0:	a94363f7 	ldp	x23, x24, [sp, #48]
    29b4:	a9446bf9 	ldp	x25, x26, [sp, #64]
    29b8:	a94573fb 	ldp	x27, x28, [sp, #80]
    29bc:	a8c87bfd 	ldp	x29, x30, [sp], #128
    29c0:	d65f03c0 	ret

00000000000029c4 <__tee_alg_get_class>:
__tee_alg_get_class():
/home/jeferson/optee/optee_os-rpi4/lib/libutee/include/utee_defines.h:65
    29c4:	528008c1 	mov	w1, #0x46                  	// #70
    29c8:	72b00001 	movk	w1, #0x8000, lsl #16
    29cc:	6b01001f 	cmp	w0, w1
    29d0:	54000340 	b.eq	2a38 <__tee_alg_get_class+0x74>  // b.none
/home/jeferson/optee/optee_os-rpi4/lib/libutee/include/utee_defines.h:67
    29d4:	528008a1 	mov	w1, #0x45                  	// #69
    29d8:	72ac0001 	movk	w1, #0x6000, lsl #16
    29dc:	6b01001f 	cmp	w0, w1
    29e0:	54000300 	b.eq	2a40 <__tee_alg_get_class+0x7c>  // b.none
/home/jeferson/optee/optee_os-rpi4/lib/libutee/include/utee_defines.h:69
    29e4:	52810601 	mov	w1, #0x830                 	// #2096
    29e8:	72be0001 	movk	w1, #0xf000, lsl #16
    29ec:	6b01001f 	cmp	w0, w1
    29f0:	54000340 	b.eq	2a58 <__tee_alg_get_class+0x94>  // b.none
/home/jeferson/optee/optee_os-rpi4/lib/libutee/include/utee_defines.h:71
    29f4:	51087421 	sub	w1, w1, #0x21d
    29f8:	6b01001f 	cmp	w0, w1
    29fc:	54000260 	b.eq	2a48 <__tee_alg_get_class+0x84>  // b.none
/home/jeferson/optee/optee_os-rpi4/lib/libutee/include/utee_defines.h:73
    2a00:	5107fc21 	sub	w1, w1, #0x1ff
    2a04:	6b01001f 	cmp	w0, w1
    2a08:	54000240 	b.eq	2a50 <__tee_alg_get_class+0x8c>  // b.none
/home/jeferson/optee/optee_os-rpi4/lib/libutee/include/utee_defines.h:75
    2a0c:	52832601 	mov	w1, #0x1930                	// #6448
    2a10:	72be0221 	movk	w1, #0xf011, lsl #16
    2a14:	6b01001f 	cmp	w0, w1
    2a18:	54000200 	b.eq	2a58 <__tee_alg_get_class+0x94>  // b.none
/home/jeferson/optee/optee_os-rpi4/lib/libutee/include/utee_defines.h:80
    2a1c:	52804602 	mov	w2, #0x230                 	// #560
    2a20:	531c7c01 	lsr	w1, w0, #28
    2a24:	72be0222 	movk	w2, #0xf011, lsl #16
    2a28:	6b02001f 	cmp	w0, w2
    2a2c:	528000c0 	mov	w0, #0x6                   	// #6
    2a30:	1a801020 	csel	w0, w1, w0, ne  // ne = any
/home/jeferson/optee/optee_os-rpi4/lib/libutee/include/utee_defines.h:81
    2a34:	d65f03c0 	ret
/home/jeferson/optee/optee_os-rpi4/lib/libutee/include/utee_defines.h:66
    2a38:	528000c0 	mov	w0, #0x6                   	// #6
    2a3c:	17fffffe 	b	2a34 <__tee_alg_get_class+0x70>
/home/jeferson/optee/optee_os-rpi4/lib/libutee/include/utee_defines.h:68
    2a40:	52800100 	mov	w0, #0x8                   	// #8
    2a44:	17fffffc 	b	2a34 <__tee_alg_get_class+0x70>
/home/jeferson/optee/optee_os-rpi4/lib/libutee/include/utee_defines.h:72
    2a48:	52800060 	mov	w0, #0x3                   	// #3
    2a4c:	17fffffa 	b	2a34 <__tee_alg_get_class+0x70>
/home/jeferson/optee/optee_os-rpi4/lib/libutee/include/utee_defines.h:74
    2a50:	52800020 	mov	w0, #0x1                   	// #1
    2a54:	17fffff8 	b	2a34 <__tee_alg_get_class+0x70>
/home/jeferson/optee/optee_os-rpi4/lib/libutee/include/utee_defines.h:70
    2a58:	528000e0 	mov	w0, #0x7                   	// #7
    2a5c:	17fffff6 	b	2a34 <__tee_alg_get_class+0x70>

0000000000002a60 <ae_update_helper>:
ae_update_helper():
/home/jeferson/optee/optee_os-rpi4/lib/libutee/tee_api_operations.c:1673
    2a60:	a9bd7bfd 	stp	x29, x30, [sp, #-48]!
    2a64:	d00000a5 	adrp	x5, 18000 <_DYNAMIC>
    2a68:	910003fd 	mov	x29, sp
    2a6c:	a90153f3 	stp	x19, x20, [sp, #16]
    2a70:	aa0403f3 	mov	x19, x4
    2a74:	aa0503f4 	mov	x20, x5
    2a78:	f94098a4 	ldr	x4, [x5, #304]
    2a7c:	f9400086 	ldr	x6, [x4]
    2a80:	f90017e6 	str	x6, [sp, #40]
    2a84:	d2800006 	mov	x6, #0x0                   	// #0
/home/jeferson/optee/optee_os-rpi4/lib/libutee/tee_api_operations.c:1678
    2a88:	aa020024 	orr	x4, x1, x2
    2a8c:	b5000084 	cbnz	x4, 2a9c <ae_update_helper+0x3c>
/home/jeferson/optee/optee_os-rpi4/lib/libutee/tee_api_operations.c:1679
    2a90:	f900027f 	str	xzr, [x19]
/home/jeferson/optee/optee_os-rpi4/lib/libutee/tee_api_operations.c:1715
    2a94:	52800000 	mov	w0, #0x0                   	// #0
    2a98:	1400000e 	b	2ad0 <ae_update_helper+0x70>
/home/jeferson/optee/optee_os-rpi4/lib/libutee/tee_api_operations.c:1688
    2a9c:	f9402404 	ldr	x4, [x0, #72]
    2aa0:	f100049f 	cmp	x4, #0x1
    2aa4:	54000249 	b.ls	2aec <ae_update_helper+0x8c>  // b.plast
/home/jeferson/optee/optee_os-rpi4/lib/libutee/tee_api_operations.c:1689
    2aa8:	f9402805 	ldr	x5, [x0, #80]
    2aac:	cb0403e6 	neg	x6, x4
    2ab0:	8b050045 	add	x5, x2, x5
    2ab4:	8a0600a5 	and	x5, x5, x6
/home/jeferson/optee/optee_os-rpi4/lib/libutee/tee_api_operations.c:1695
    2ab8:	f9400266 	ldr	x6, [x19]
    2abc:	f90013e6 	str	x6, [sp, #32]
/home/jeferson/optee/optee_os-rpi4/lib/libutee/tee_api_operations.c:1696
    2ac0:	eb0500df 	cmp	x6, x5
    2ac4:	54000182 	b.cs	2af4 <ae_update_helper+0x94>  // b.hs, b.nlast
/home/jeferson/optee/optee_os-rpi4/lib/libutee/tee_api_operations.c:1698
    2ac8:	129ffde0 	mov	w0, #0xffff0010            	// #-65520
/home/jeferson/optee/optee_os-rpi4/lib/libutee/tee_api_operations.c:1697
    2acc:	f9000265 	str	x5, [x19]
/home/jeferson/optee/optee_os-rpi4/lib/libutee/tee_api_operations.c:1718
    2ad0:	f9409a94 	ldr	x20, [x20, #304]
    2ad4:	f94017e1 	ldr	x1, [sp, #40]
    2ad8:	f9400282 	ldr	x2, [x20]
    2adc:	eb020021 	subs	x1, x1, x2
    2ae0:	d2800002 	mov	x2, #0x0                   	// #0
    2ae4:	540002e0 	b.eq	2b40 <ae_update_helper+0xe0>  // b.none
    2ae8:	97fff69c 	bl	558 <__stack_chk_fail>
    2aec:	aa0203e5 	mov	x5, x2
    2af0:	17fffff2 	b	2ab8 <ae_update_helper+0x58>
/home/jeferson/optee/optee_os-rpi4/lib/libutee/tee_api_operations.c:1701
    2af4:	f100049f 	cmp	x4, #0x1
    2af8:	54000129 	b.ls	2b1c <ae_update_helper+0xbc>  // b.plast
/home/jeferson/optee/optee_os-rpi4/lib/libutee/tee_api_operations.c:1702
    2afc:	aa0303e4 	mov	x4, x3
    2b00:	aa0203e3 	mov	x3, x2
    2b04:	aa0103e2 	mov	x2, x1
    2b08:	910083e5 	add	x5, sp, #0x20
    2b0c:	f940d681 	ldr	x1, [x20, #424]
    2b10:	97ffff19 	bl	2774 <tee_buffer_update>
/home/jeferson/optee/optee_os-rpi4/lib/libutee/tee_api_operations.c:1714
    2b14:	35fffde0 	cbnz	w0, 2ad0 <ae_update_helper+0x70>
    2b18:	14000007 	b	2b34 <ae_update_helper+0xd4>
/home/jeferson/optee/optee_os-rpi4/lib/libutee/tee_api_operations.c:1705
    2b1c:	b40000a2 	cbz	x2, 2b30 <ae_update_helper+0xd0>
/home/jeferson/optee/optee_os-rpi4/lib/libutee/tee_api_operations.c:1706
    2b20:	b9405800 	ldr	w0, [x0, #88]
    2b24:	910083e4 	add	x4, sp, #0x20
    2b28:	940011a1 	bl	71ac <_utee_authenc_update_payload>
    2b2c:	17fffffa 	b	2b14 <ae_update_helper+0xb4>
/home/jeferson/optee/optee_os-rpi4/lib/libutee/tee_api_operations.c:1709
    2b30:	f90013ff 	str	xzr, [sp, #32]
/home/jeferson/optee/optee_os-rpi4/lib/libutee/tee_api_operations.c:1715
    2b34:	f94013e0 	ldr	x0, [sp, #32]
    2b38:	f9000260 	str	x0, [x19]
    2b3c:	17ffffd6 	b	2a94 <ae_update_helper+0x34>
/home/jeferson/optee/optee_os-rpi4/lib/libutee/tee_api_operations.c:1718
    2b40:	a94153f3 	ldp	x19, x20, [sp, #16]
    2b44:	a8c37bfd 	ldp	x29, x30, [sp], #48
    2b48:	d65f03c0 	ret

0000000000002b4c <reset_operation_state>:
reset_operation_state():
/home/jeferson/optee/optee_os-rpi4/lib/libutee/tee_api_operations.c:566
    2b4c:	a9be7bfd 	stp	x29, x30, [sp, #-32]!
    2b50:	910003fd 	mov	x29, sp
    2b54:	f9000bf3 	str	x19, [sp, #16]
    2b58:	aa0003f3 	mov	x19, x0
/home/jeferson/optee/optee_os-rpi4/lib/libutee/tee_api_operations.c:567
    2b5c:	b900301f 	str	wzr, [x0, #48]
/home/jeferson/optee/optee_os-rpi4/lib/libutee/tee_api_operations.c:569
    2b60:	b9400400 	ldr	w0, [x0, #4]
    2b64:	7100141f 	cmp	w0, #0x5
    2b68:	540001a1 	b.ne	2b9c <reset_operation_state+0x50>  // b.any
/home/jeferson/optee/optee_os-rpi4/lib/libutee/tee_api_operations.c:570
    2b6c:	b9405a60 	ldr	w0, [x19, #88]
    2b70:	d2800002 	mov	x2, #0x0                   	// #0
    2b74:	d2800001 	mov	x1, #0x0                   	// #0
    2b78:	94001157 	bl	70d4 <_utee_hash_init>
/home/jeferson/optee/optee_os-rpi4/lib/libutee/tee_api_operations.c:572
    2b7c:	34000040 	cbz	w0, 2b84 <reset_operation_state+0x38>
/home/jeferson/optee/optee_os-rpi4/lib/libutee/tee_api_operations.c:573
    2b80:	94000ff5 	bl	6b54 <TEE_Panic>
/home/jeferson/optee/optee_os-rpi4/lib/libutee/tee_api_operations.c:574
    2b84:	b9401e60 	ldr	w0, [x19, #28]
    2b88:	320f0000 	orr	w0, w0, #0x20000
    2b8c:	b9001e60 	str	w0, [x19, #28]
/home/jeferson/optee/optee_os-rpi4/lib/libutee/tee_api_operations.c:578
    2b90:	f9400bf3 	ldr	x19, [sp, #16]
    2b94:	a8c27bfd 	ldp	x29, x30, [sp], #32
    2b98:	d65f03c0 	ret
/home/jeferson/optee/optee_os-rpi4/lib/libutee/tee_api_operations.c:576
    2b9c:	b9401e60 	ldr	w0, [x19, #28]
    2ba0:	120e7800 	and	w0, w0, #0xfffdffff
    2ba4:	17fffffa 	b	2b8c <reset_operation_state+0x40>

0000000000002ba8 <set_operation_key2>:
set_operation_key2():
/home/jeferson/optee/optee_os-rpi4/lib/libutee/tee_api_operations.c:680
    2ba8:	a9b67bfd 	stp	x29, x30, [sp, #-160]!
    2bac:	d00000a3 	adrp	x3, 18000 <_DYNAMIC>
    2bb0:	910003fd 	mov	x29, sp
    2bb4:	f9409863 	ldr	x3, [x3, #304]
    2bb8:	a90153f3 	stp	x19, x20, [sp, #16]
    2bbc:	aa0003f4 	mov	x20, x0
    2bc0:	a9025bf5 	stp	x21, x22, [sp, #32]
    2bc4:	f9001bf7 	str	x23, [sp, #48]
    2bc8:	f9400060 	ldr	x0, [x3]
    2bcc:	f9004fe0 	str	x0, [sp, #152]
    2bd0:	d2800000 	mov	x0, #0x0                   	// #0
/home/jeferson/optee/optee_os-rpi4/lib/libutee/tee_api_operations.c:686
    2bd4:	b5000154 	cbnz	x20, 2bfc <set_operation_key2+0x54>
/home/jeferson/optee/optee_os-rpi4/lib/libutee/tee_api_operations.c:687
    2bd8:	129fff33 	mov	w19, #0xffff0006            	// #-65530
/home/jeferson/optee/optee_os-rpi4/lib/libutee/tee_api_operations.c:791
    2bdc:	7100027f 	cmp	w19, #0x0
/home/jeferson/optee/optee_os-rpi4/lib/libutee/tee_api_operations.c:792
    2be0:	12be0200 	mov	w0, #0xfefffff             	// #267386879
    2be4:	0b000260 	add	w0, w19, w0
/home/jeferson/optee/optee_os-rpi4/lib/libutee/tee_api_operations.c:791
    2be8:	7a431800 	ccmp	w0, #0x3, #0x0, ne  // ne = any
    2bec:	54000309 	b.ls	2c4c <set_operation_key2+0xa4>  // b.plast
/home/jeferson/optee/optee_os-rpi4/lib/libutee/tee_api_operations.c:796
    2bf0:	2a1303e0 	mov	w0, w19
    2bf4:	94000fd8 	bl	6b54 <TEE_Panic>
    2bf8:	14000015 	b	2c4c <set_operation_key2+0xa4>
/home/jeferson/optee/optee_os-rpi4/lib/libutee/tee_api_operations.c:695
    2bfc:	f100003f 	cmp	x1, #0x0
    2c00:	aa0103f6 	mov	x22, x1
    2c04:	1a9f17e1 	cset	w1, eq  // eq = none
    2c08:	f100005f 	cmp	x2, #0x0
    2c0c:	aa0203f5 	mov	x21, x2
    2c10:	1a9f17e0 	cset	w0, eq  // eq = none
    2c14:	aa0202c2 	orr	x2, x22, x2
    2c18:	b50002a2 	cbnz	x2, 2c6c <set_operation_key2+0xc4>
/home/jeferson/optee/optee_os-rpi4/lib/libutee/tee_api_operations.c:697
    2c1c:	f9401280 	ldr	x0, [x20, #32]
    2c20:	94001e98 	bl	a680 <TEE_ResetTransientObject>
/home/jeferson/optee/optee_os-rpi4/lib/libutee/tee_api_operations.c:698
    2c24:	f9401680 	ldr	x0, [x20, #40]
    2c28:	94001e96 	bl	a680 <TEE_ResetTransientObject>
/home/jeferson/optee/optee_os-rpi4/lib/libutee/tee_api_operations.c:700
    2c2c:	b9403293 	ldr	w19, [x20, #48]
/home/jeferson/optee/optee_os-rpi4/lib/libutee/tee_api_operations.c:699
    2c30:	b9401e80 	ldr	w0, [x20, #28]
    2c34:	120d7800 	and	w0, w0, #0xfffbffff
    2c38:	b9001e80 	str	w0, [x20, #28]
/home/jeferson/optee/optee_os-rpi4/lib/libutee/tee_api_operations.c:700
    2c3c:	34000093 	cbz	w19, 2c4c <set_operation_key2+0xa4>
/home/jeferson/optee/optee_os-rpi4/lib/libutee/tee_api_operations.c:702
    2c40:	52800013 	mov	w19, #0x0                   	// #0
/home/jeferson/optee/optee_os-rpi4/lib/libutee/tee_api_operations.c:701
    2c44:	aa1403e0 	mov	x0, x20
    2c48:	97ffffc1 	bl	2b4c <reset_operation_state>
/home/jeferson/optee/optee_os-rpi4/lib/libutee/tee_api_operations.c:799
    2c4c:	d00000a3 	adrp	x3, 18000 <_DYNAMIC>
    2c50:	f9409863 	ldr	x3, [x3, #304]
    2c54:	f9404fe0 	ldr	x0, [sp, #152]
    2c58:	f9400061 	ldr	x1, [x3]
    2c5c:	eb010000 	subs	x0, x0, x1
    2c60:	d2800001 	mov	x1, #0x0                   	// #0
    2c64:	54000880 	b.eq	2d74 <set_operation_key2+0x1cc>  // b.none
    2c68:	97fff63c 	bl	558 <__stack_chk_fail>
/home/jeferson/optee/optee_os-rpi4/lib/libutee/tee_api_operations.c:703
    2c6c:	7100003f 	cmp	w1, #0x0
    2c70:	7a400800 	ccmp	w0, #0x0, #0x0, eq  // eq = none
    2c74:	54fffb21 	b.ne	2bd8 <set_operation_key2+0x30>  // b.any
/home/jeferson/optee/optee_os-rpi4/lib/libutee/tee_api_operations.c:710
    2c78:	b9400680 	ldr	w0, [x20, #4]
    2c7c:	7100141f 	cmp	w0, #0x5
    2c80:	54fffac0 	b.eq	2bd8 <set_operation_key2+0x30>  // b.none
/home/jeferson/optee/optee_os-rpi4/lib/libutee/tee_api_operations.c:716
    2c84:	b9401e80 	ldr	w0, [x20, #28]
    2c88:	369ffa80 	tbz	w0, #19, 2bd8 <set_operation_key2+0x30>
/home/jeferson/optee/optee_os-rpi4/lib/libutee/tee_api_operations.c:722
    2c8c:	910123e1 	add	x1, sp, #0x48
    2c90:	aa1603e0 	mov	x0, x22
    2c94:	94001cd2 	bl	9fdc <TEE_GetObjectInfo1>
    2c98:	2a0003f3 	mov	w19, w0
/home/jeferson/optee/optee_os-rpi4/lib/libutee/tee_api_operations.c:724
    2c9c:	35fffa00 	cbnz	w0, 2bdc <set_operation_key2+0x34>
/home/jeferson/optee/optee_os-rpi4/lib/libutee/tee_api_operations.c:728
    2ca0:	b9401a80 	ldr	w0, [x20, #24]
    2ca4:	b94057e1 	ldr	w1, [sp, #84]
    2ca8:	6a21001f 	bics	wzr, w0, w1
    2cac:	54fff961 	b.ne	2bd8 <set_operation_key2+0x30>  // b.any
/home/jeferson/optee/optee_os-rpi4/lib/libutee/tee_api_operations.c:734
    2cb0:	9101c3e1 	add	x1, sp, #0x70
    2cb4:	aa1503e0 	mov	x0, x21
    2cb8:	94001cc9 	bl	9fdc <TEE_GetObjectInfo1>
    2cbc:	2a0003f3 	mov	w19, w0
/home/jeferson/optee/optee_os-rpi4/lib/libutee/tee_api_operations.c:736
    2cc0:	34000100 	cbz	w0, 2ce0 <set_operation_key2+0x138>
/home/jeferson/optee/optee_os-rpi4/lib/libutee/tee_api_operations.c:737
    2cc4:	52800020 	mov	w0, #0x1                   	// #1
    2cc8:	72be0200 	movk	w0, #0xf010, lsl #16
    2ccc:	6b00027f 	cmp	w19, w0
    2cd0:	54fff861 	b.ne	2bdc <set_operation_key2+0x34>  // b.any
/home/jeferson/optee/optee_os-rpi4/lib/libutee/tee_api_operations.c:738
    2cd4:	52800053 	mov	w19, #0x2                   	// #2
    2cd8:	72be0213 	movk	w19, #0xf010, lsl #16
    2cdc:	17ffffc0 	b	2bdc <set_operation_key2+0x34>
/home/jeferson/optee/optee_os-rpi4/lib/libutee/tee_api_operations.c:743
    2ce0:	b9401a80 	ldr	w0, [x20, #24]
    2ce4:	b9407fe1 	ldr	w1, [sp, #124]
    2ce8:	6a21001f 	bics	wzr, w0, w1
    2cec:	54fff761 	b.ne	2bd8 <set_operation_key2+0x30>  // b.any
/home/jeferson/optee/optee_os-rpi4/lib/libutee/tee_api_operations.c:753
    2cf0:	b9404ff7 	ldr	w23, [sp, #76]
    2cf4:	b94077e0 	ldr	w0, [sp, #116]
    2cf8:	6b0002ff 	cmp	w23, w0
    2cfc:	54fff6e1 	b.ne	2bd8 <set_operation_key2+0x30>  // b.any
/home/jeferson/optee/optee_os-rpi4/lib/libutee/tee_api_operations.c:759
    2d00:	b9401280 	ldr	w0, [x20, #16]
    2d04:	6b0002ff 	cmp	w23, w0
    2d08:	54fff688 	b.hi	2bd8 <set_operation_key2+0x30>  // b.pmore
/home/jeferson/optee/optee_os-rpi4/lib/libutee/tee_api_operations.c:770
    2d0c:	f9401280 	ldr	x0, [x20, #32]
    2d10:	94001e5c 	bl	a680 <TEE_ResetTransientObject>
/home/jeferson/optee/optee_os-rpi4/lib/libutee/tee_api_operations.c:771
    2d14:	f9401680 	ldr	x0, [x20, #40]
    2d18:	94001e5a 	bl	a680 <TEE_ResetTransientObject>
/home/jeferson/optee/optee_os-rpi4/lib/libutee/tee_api_operations.c:772
    2d1c:	b9401e80 	ldr	w0, [x20, #28]
/home/jeferson/optee/optee_os-rpi4/lib/libutee/tee_api_operations.c:774
    2d20:	aa1603e1 	mov	x1, x22
/home/jeferson/optee/optee_os-rpi4/lib/libutee/tee_api_operations.c:772
    2d24:	120d7800 	and	w0, w0, #0xfffbffff
    2d28:	b9001e80 	str	w0, [x20, #28]
/home/jeferson/optee/optee_os-rpi4/lib/libutee/tee_api_operations.c:774
    2d2c:	f9401280 	ldr	x0, [x20, #32]
    2d30:	94001f4d 	bl	aa64 <TEE_CopyObjectAttributes1>
    2d34:	2a0003f3 	mov	w19, w0
/home/jeferson/optee/optee_os-rpi4/lib/libutee/tee_api_operations.c:775
    2d38:	35fff520 	cbnz	w0, 2bdc <set_operation_key2+0x34>
/home/jeferson/optee/optee_os-rpi4/lib/libutee/tee_api_operations.c:777
    2d3c:	f9401680 	ldr	x0, [x20, #40]
    2d40:	aa1503e1 	mov	x1, x21
    2d44:	94001f48 	bl	aa64 <TEE_CopyObjectAttributes1>
    2d48:	2a0003f3 	mov	w19, w0
/home/jeferson/optee/optee_os-rpi4/lib/libutee/tee_api_operations.c:778
    2d4c:	35fffbc0 	cbnz	w0, 2cc4 <set_operation_key2+0x11c>
/home/jeferson/optee/optee_os-rpi4/lib/libutee/tee_api_operations.c:784
    2d50:	b9401e80 	ldr	w0, [x20, #28]
/home/jeferson/optee/optee_os-rpi4/lib/libutee/tee_api_operations.c:786
    2d54:	b9001697 	str	w23, [x20, #20]
/home/jeferson/optee/optee_os-rpi4/lib/libutee/tee_api_operations.c:784
    2d58:	320e0000 	orr	w0, w0, #0x40000
    2d5c:	b9001e80 	str	w0, [x20, #28]
/home/jeferson/optee/optee_os-rpi4/lib/libutee/tee_api_operations.c:788
    2d60:	b9403280 	ldr	w0, [x20, #48]
    2d64:	34fff3c0 	cbz	w0, 2bdc <set_operation_key2+0x34>
/home/jeferson/optee/optee_os-rpi4/lib/libutee/tee_api_operations.c:789
    2d68:	aa1403e0 	mov	x0, x20
    2d6c:	97ffff78 	bl	2b4c <reset_operation_state>
    2d70:	17ffff9b 	b	2bdc <set_operation_key2+0x34>
/home/jeferson/optee/optee_os-rpi4/lib/libutee/tee_api_operations.c:799
    2d74:	2a1303e0 	mov	w0, w19
    2d78:	a94153f3 	ldp	x19, x20, [sp, #16]
    2d7c:	a9425bf5 	ldp	x21, x22, [sp, #32]
    2d80:	f9401bf7 	ldr	x23, [sp, #48]
    2d84:	a8ca7bfd 	ldp	x29, x30, [sp], #160
    2d88:	d65f03c0 	ret

0000000000002d8c <TEE_FreeOperation>:
TEE_FreeOperation():
/home/jeferson/optee/optee_os-rpi4/lib/libutee/tee_api_operations.c:424
    2d8c:	b40001e0 	cbz	x0, 2dc8 <TEE_FreeOperation+0x3c>
/home/jeferson/optee/optee_os-rpi4/lib/libutee/tee_api_operations.c:421
    2d90:	a9be7bfd 	stp	x29, x30, [sp, #-32]!
    2d94:	910003fd 	mov	x29, sp
    2d98:	f9000bf3 	str	x19, [sp, #16]
    2d9c:	aa0003f3 	mov	x19, x0
/home/jeferson/optee/optee_os-rpi4/lib/libutee/tee_api_operations.c:432
    2da0:	b9405800 	ldr	w0, [x0, #88]
    2da4:	940010c9 	bl	70c8 <_utee_cryp_state_free>
/home/jeferson/optee/optee_os-rpi4/lib/libutee/tee_api_operations.c:433
    2da8:	34000040 	cbz	w0, 2db0 <TEE_FreeOperation+0x24>
/home/jeferson/optee/optee_os-rpi4/lib/libutee/tee_api_operations.c:434
    2dac:	94000f6a 	bl	6b54 <TEE_Panic>
/home/jeferson/optee/optee_os-rpi4/lib/libutee/tee_api_operations.c:436
    2db0:	f9401e60 	ldr	x0, [x19, #56]
    2db4:	97fffdd8 	bl	2514 <TEE_Free>
/home/jeferson/optee/optee_os-rpi4/lib/libutee/tee_api_operations.c:437
    2db8:	aa1303e0 	mov	x0, x19
/home/jeferson/optee/optee_os-rpi4/lib/libutee/tee_api_operations.c:438
    2dbc:	f9400bf3 	ldr	x19, [sp, #16]
    2dc0:	a8c27bfd 	ldp	x29, x30, [sp], #32
/home/jeferson/optee/optee_os-rpi4/lib/libutee/tee_api_operations.c:437
    2dc4:	17fffdd4 	b	2514 <TEE_Free>
    2dc8:	d65f03c0 	ret

0000000000002dcc <TEE_AllocateOperation>:
TEE_AllocateOperation():
/home/jeferson/optee/optee_os-rpi4/lib/libutee/tee_api_operations.c:41
    2dcc:	a9b97bfd 	stp	x29, x30, [sp, #-112]!
    2dd0:	910003fd 	mov	x29, sp
    2dd4:	a90153f3 	stp	x19, x20, [sp, #16]
    2dd8:	2a0103f3 	mov	w19, w1
    2ddc:	a9025bf5 	stp	x21, x22, [sp, #32]
    2de0:	a90363f7 	stp	x23, x24, [sp, #48]
    2de4:	a9046bf9 	stp	x25, x26, [sp, #64]
    2de8:	2a0303f9 	mov	w25, w3
    2dec:	a90573fb 	stp	x27, x28, [sp, #80]
    2df0:	2a0203fb 	mov	w27, w2
    2df4:	f90037e0 	str	x0, [sp, #104]
/home/jeferson/optee/optee_os-rpi4/lib/libutee/tee_api_operations.c:50
    2df8:	b5000040 	cbnz	x0, 2e00 <TEE_AllocateOperation+0x34>
/home/jeferson/optee/optee_os-rpi4/lib/libutee/tee_api_operations.c:51
    2dfc:	94000f56 	bl	6b54 <TEE_Panic>
/home/jeferson/optee/optee_os-rpi4/lib/libutee/tee_api_operations.c:53
    2e00:	52808200 	mov	w0, #0x410                 	// #1040
    2e04:	72a20000 	movk	w0, #0x1000, lsl #16
    2e08:	6b00027f 	cmp	w19, w0
    2e0c:	528008a0 	mov	w0, #0x45                  	// #69
    2e10:	72ac0000 	movk	w0, #0x6000, lsl #16
    2e14:	7a401264 	ccmp	w19, w0, #0x4, ne  // ne = any
    2e18:	540006e0 	b.eq	2ef4 <TEE_AllocateOperation+0x128>  // b.none
/home/jeferson/optee/optee_os-rpi4/lib/libutee/tee_api_operations.c:53 (discriminator 1)
    2e1c:	52808280 	mov	w0, #0x414                 	// #1044
    2e20:	72be0000 	movk	w0, #0xf000, lsl #16
    2e24:	6b00027f 	cmp	w19, w0
    2e28:	1a9f17f7 	cset	w23, eq  // eq = none
    2e2c:	530d32f7 	lsl	w23, w23, #19
/home/jeferson/optee/optee_os-rpi4/lib/libutee/tee_api_operations.c:58
    2e30:	52882620 	mov	w0, #0x4131                	// #16689
    2e34:	72ae0000 	movk	w0, #0x7000, lsl #16
    2e38:	6b00027f 	cmp	w19, w0
    2e3c:	54002580 	b.eq	32ec <TEE_AllocateOperation+0x520>  // b.none
    2e40:	54001008 	b.hi	3040 <TEE_AllocateOperation+0x274>  // b.pmore
    2e44:	51400800 	sub	w0, w0, #0x2, lsl #12
    2e48:	6b00027f 	cmp	w19, w0
    2e4c:	540023c0 	b.eq	32c4 <TEE_AllocateOperation+0x4f8>  // b.none
    2e50:	54000ce8 	b.hi	2fec <TEE_AllocateOperation+0x220>  // b.pmore
    2e54:	52820840 	mov	w0, #0x1042                	// #4162
    2e58:	72ae0000 	movk	w0, #0x7000, lsl #16
    2e5c:	6b00027f 	cmp	w19, w0
    2e60:	540004e8 	b.hi	2efc <TEE_AllocateOperation+0x130>  // b.pmore
    2e64:	51000800 	sub	w0, w0, #0x2
    2e68:	6b00027f 	cmp	w19, w0
    2e6c:	54002468 	b.hi	32f8 <TEE_AllocateOperation+0x52c>  // b.pmore
    2e70:	528008a0 	mov	w0, #0x45                  	// #69
    2e74:	72ac0000 	movk	w0, #0x6000, lsl #16
    2e78:	6b00027f 	cmp	w19, w0
    2e7c:	54002440 	b.eq	3304 <TEE_AllocateOperation+0x538>  // b.none
/home/jeferson/optee/optee_os-rpi4/lib/libutee/tee_api_operations.c:136
    2e80:	52810200 	mov	w0, #0x810                 	// #2064
    2e84:	72a80000 	movk	w0, #0x4000, lsl #16
    2e88:	6b00027f 	cmp	w19, w0
    2e8c:	54003b80 	b.eq	35fc <TEE_AllocateOperation+0x830>  // b.none
    2e90:	54002ec8 	b.hi	3468 <TEE_AllocateOperation+0x69c>  // b.pmore
    2e94:	52806200 	mov	w0, #0x310                 	// #784
    2e98:	72a20000 	movk	w0, #0x1000, lsl #16
    2e9c:	6b00027f 	cmp	w19, w0
    2ea0:	54003aa0 	b.eq	35f4 <TEE_AllocateOperation+0x828>  // b.none
    2ea4:	540027c8 	b.hi	339c <TEE_AllocateOperation+0x5d0>  // b.pmore
    2ea8:	5107f000 	sub	w0, w0, #0x1fc
    2eac:	6b00027f 	cmp	w19, w0
    2eb0:	540024c8 	b.hi	3348 <TEE_AllocateOperation+0x57c>  // b.pmore
    2eb4:	51000800 	sub	w0, w0, #0x2
    2eb8:	6b00027f 	cmp	w19, w0
    2ebc:	54000188 	b.hi	2eec <TEE_AllocateOperation+0x120>  // b.pmore
